
/home/vigarov/temp/parsec-benchmark/pkgs/kernels/canneal/inst/amd64-linux.gcc/bin/canneal:     file format elf64-x86-64


Disassembly of section .init:

0000000000002000 <_init>:
    2000:	f3 0f 1e fa          	endbr64 
    2004:	48 83 ec 08          	sub    $0x8,%rsp
    2008:	48 8b 05 d9 1f 01 00 	mov    0x11fd9(%rip),%rax        # 13fe8 <__gmon_start__@Base>
    200f:	48 85 c0             	test   %rax,%rax
    2012:	74 02                	je     2016 <_init+0x16>
    2014:	ff d0                	call   *%rax
    2016:	48 83 c4 08          	add    $0x8,%rsp
    201a:	c3                   	ret    

Disassembly of section .plt:

0000000000002020 <.plt>:
    2020:	ff 35 c2 1d 01 00    	push   0x11dc2(%rip)        # 13de8 <_GLOBAL_OFFSET_TABLE_+0x8>
    2026:	f2 ff 25 c3 1d 01 00 	bnd jmp *0x11dc3(%rip)        # 13df0 <_GLOBAL_OFFSET_TABLE_+0x10>
    202d:	0f 1f 00             	nopl   (%rax)
    2030:	f3 0f 1e fa          	endbr64 
    2034:	68 00 00 00 00       	push   $0x0
    2039:	f2 e9 e1 ff ff ff    	bnd jmp 2020 <_init+0x20>
    203f:	90                   	nop
    2040:	f3 0f 1e fa          	endbr64 
    2044:	68 01 00 00 00       	push   $0x1
    2049:	f2 e9 d1 ff ff ff    	bnd jmp 2020 <_init+0x20>
    204f:	90                   	nop
    2050:	f3 0f 1e fa          	endbr64 
    2054:	68 02 00 00 00       	push   $0x2
    2059:	f2 e9 c1 ff ff ff    	bnd jmp 2020 <_init+0x20>
    205f:	90                   	nop
    2060:	f3 0f 1e fa          	endbr64 
    2064:	68 03 00 00 00       	push   $0x3
    2069:	f2 e9 b1 ff ff ff    	bnd jmp 2020 <_init+0x20>
    206f:	90                   	nop
    2070:	f3 0f 1e fa          	endbr64 
    2074:	68 04 00 00 00       	push   $0x4
    2079:	f2 e9 a1 ff ff ff    	bnd jmp 2020 <_init+0x20>
    207f:	90                   	nop
    2080:	f3 0f 1e fa          	endbr64 
    2084:	68 05 00 00 00       	push   $0x5
    2089:	f2 e9 91 ff ff ff    	bnd jmp 2020 <_init+0x20>
    208f:	90                   	nop
    2090:	f3 0f 1e fa          	endbr64 
    2094:	68 06 00 00 00       	push   $0x6
    2099:	f2 e9 81 ff ff ff    	bnd jmp 2020 <_init+0x20>
    209f:	90                   	nop
    20a0:	f3 0f 1e fa          	endbr64 
    20a4:	68 07 00 00 00       	push   $0x7
    20a9:	f2 e9 71 ff ff ff    	bnd jmp 2020 <_init+0x20>
    20af:	90                   	nop
    20b0:	f3 0f 1e fa          	endbr64 
    20b4:	68 08 00 00 00       	push   $0x8
    20b9:	f2 e9 61 ff ff ff    	bnd jmp 2020 <_init+0x20>
    20bf:	90                   	nop
    20c0:	f3 0f 1e fa          	endbr64 
    20c4:	68 09 00 00 00       	push   $0x9
    20c9:	f2 e9 51 ff ff ff    	bnd jmp 2020 <_init+0x20>
    20cf:	90                   	nop
    20d0:	f3 0f 1e fa          	endbr64 
    20d4:	68 0a 00 00 00       	push   $0xa
    20d9:	f2 e9 41 ff ff ff    	bnd jmp 2020 <_init+0x20>
    20df:	90                   	nop
    20e0:	f3 0f 1e fa          	endbr64 
    20e4:	68 0b 00 00 00       	push   $0xb
    20e9:	f2 e9 31 ff ff ff    	bnd jmp 2020 <_init+0x20>
    20ef:	90                   	nop
    20f0:	f3 0f 1e fa          	endbr64 
    20f4:	68 0c 00 00 00       	push   $0xc
    20f9:	f2 e9 21 ff ff ff    	bnd jmp 2020 <_init+0x20>
    20ff:	90                   	nop
    2100:	f3 0f 1e fa          	endbr64 
    2104:	68 0d 00 00 00       	push   $0xd
    2109:	f2 e9 11 ff ff ff    	bnd jmp 2020 <_init+0x20>
    210f:	90                   	nop
    2110:	f3 0f 1e fa          	endbr64 
    2114:	68 0e 00 00 00       	push   $0xe
    2119:	f2 e9 01 ff ff ff    	bnd jmp 2020 <_init+0x20>
    211f:	90                   	nop
    2120:	f3 0f 1e fa          	endbr64 
    2124:	68 0f 00 00 00       	push   $0xf
    2129:	f2 e9 f1 fe ff ff    	bnd jmp 2020 <_init+0x20>
    212f:	90                   	nop
    2130:	f3 0f 1e fa          	endbr64 
    2134:	68 10 00 00 00       	push   $0x10
    2139:	f2 e9 e1 fe ff ff    	bnd jmp 2020 <_init+0x20>
    213f:	90                   	nop
    2140:	f3 0f 1e fa          	endbr64 
    2144:	68 11 00 00 00       	push   $0x11
    2149:	f2 e9 d1 fe ff ff    	bnd jmp 2020 <_init+0x20>
    214f:	90                   	nop
    2150:	f3 0f 1e fa          	endbr64 
    2154:	68 12 00 00 00       	push   $0x12
    2159:	f2 e9 c1 fe ff ff    	bnd jmp 2020 <_init+0x20>
    215f:	90                   	nop
    2160:	f3 0f 1e fa          	endbr64 
    2164:	68 13 00 00 00       	push   $0x13
    2169:	f2 e9 b1 fe ff ff    	bnd jmp 2020 <_init+0x20>
    216f:	90                   	nop
    2170:	f3 0f 1e fa          	endbr64 
    2174:	68 14 00 00 00       	push   $0x14
    2179:	f2 e9 a1 fe ff ff    	bnd jmp 2020 <_init+0x20>
    217f:	90                   	nop
    2180:	f3 0f 1e fa          	endbr64 
    2184:	68 15 00 00 00       	push   $0x15
    2189:	f2 e9 91 fe ff ff    	bnd jmp 2020 <_init+0x20>
    218f:	90                   	nop
    2190:	f3 0f 1e fa          	endbr64 
    2194:	68 16 00 00 00       	push   $0x16
    2199:	f2 e9 81 fe ff ff    	bnd jmp 2020 <_init+0x20>
    219f:	90                   	nop
    21a0:	f3 0f 1e fa          	endbr64 
    21a4:	68 17 00 00 00       	push   $0x17
    21a9:	f2 e9 71 fe ff ff    	bnd jmp 2020 <_init+0x20>
    21af:	90                   	nop
    21b0:	f3 0f 1e fa          	endbr64 
    21b4:	68 18 00 00 00       	push   $0x18
    21b9:	f2 e9 61 fe ff ff    	bnd jmp 2020 <_init+0x20>
    21bf:	90                   	nop
    21c0:	f3 0f 1e fa          	endbr64 
    21c4:	68 19 00 00 00       	push   $0x19
    21c9:	f2 e9 51 fe ff ff    	bnd jmp 2020 <_init+0x20>
    21cf:	90                   	nop
    21d0:	f3 0f 1e fa          	endbr64 
    21d4:	68 1a 00 00 00       	push   $0x1a
    21d9:	f2 e9 41 fe ff ff    	bnd jmp 2020 <_init+0x20>
    21df:	90                   	nop
    21e0:	f3 0f 1e fa          	endbr64 
    21e4:	68 1b 00 00 00       	push   $0x1b
    21e9:	f2 e9 31 fe ff ff    	bnd jmp 2020 <_init+0x20>
    21ef:	90                   	nop
    21f0:	f3 0f 1e fa          	endbr64 
    21f4:	68 1c 00 00 00       	push   $0x1c
    21f9:	f2 e9 21 fe ff ff    	bnd jmp 2020 <_init+0x20>
    21ff:	90                   	nop
    2200:	f3 0f 1e fa          	endbr64 
    2204:	68 1d 00 00 00       	push   $0x1d
    2209:	f2 e9 11 fe ff ff    	bnd jmp 2020 <_init+0x20>
    220f:	90                   	nop
    2210:	f3 0f 1e fa          	endbr64 
    2214:	68 1e 00 00 00       	push   $0x1e
    2219:	f2 e9 01 fe ff ff    	bnd jmp 2020 <_init+0x20>
    221f:	90                   	nop
    2220:	f3 0f 1e fa          	endbr64 
    2224:	68 1f 00 00 00       	push   $0x1f
    2229:	f2 e9 f1 fd ff ff    	bnd jmp 2020 <_init+0x20>
    222f:	90                   	nop
    2230:	f3 0f 1e fa          	endbr64 
    2234:	68 20 00 00 00       	push   $0x20
    2239:	f2 e9 e1 fd ff ff    	bnd jmp 2020 <_init+0x20>
    223f:	90                   	nop
    2240:	f3 0f 1e fa          	endbr64 
    2244:	68 21 00 00 00       	push   $0x21
    2249:	f2 e9 d1 fd ff ff    	bnd jmp 2020 <_init+0x20>
    224f:	90                   	nop
    2250:	f3 0f 1e fa          	endbr64 
    2254:	68 22 00 00 00       	push   $0x22
    2259:	f2 e9 c1 fd ff ff    	bnd jmp 2020 <_init+0x20>
    225f:	90                   	nop
    2260:	f3 0f 1e fa          	endbr64 
    2264:	68 23 00 00 00       	push   $0x23
    2269:	f2 e9 b1 fd ff ff    	bnd jmp 2020 <_init+0x20>
    226f:	90                   	nop
    2270:	f3 0f 1e fa          	endbr64 
    2274:	68 24 00 00 00       	push   $0x24
    2279:	f2 e9 a1 fd ff ff    	bnd jmp 2020 <_init+0x20>
    227f:	90                   	nop
    2280:	f3 0f 1e fa          	endbr64 
    2284:	68 25 00 00 00       	push   $0x25
    2289:	f2 e9 91 fd ff ff    	bnd jmp 2020 <_init+0x20>
    228f:	90                   	nop
    2290:	f3 0f 1e fa          	endbr64 
    2294:	68 26 00 00 00       	push   $0x26
    2299:	f2 e9 81 fd ff ff    	bnd jmp 2020 <_init+0x20>
    229f:	90                   	nop
    22a0:	f3 0f 1e fa          	endbr64 
    22a4:	68 27 00 00 00       	push   $0x27
    22a9:	f2 e9 71 fd ff ff    	bnd jmp 2020 <_init+0x20>
    22af:	90                   	nop
    22b0:	f3 0f 1e fa          	endbr64 
    22b4:	68 28 00 00 00       	push   $0x28
    22b9:	f2 e9 61 fd ff ff    	bnd jmp 2020 <_init+0x20>
    22bf:	90                   	nop
    22c0:	f3 0f 1e fa          	endbr64 
    22c4:	68 29 00 00 00       	push   $0x29
    22c9:	f2 e9 51 fd ff ff    	bnd jmp 2020 <_init+0x20>
    22cf:	90                   	nop
    22d0:	f3 0f 1e fa          	endbr64 
    22d4:	68 2a 00 00 00       	push   $0x2a
    22d9:	f2 e9 41 fd ff ff    	bnd jmp 2020 <_init+0x20>
    22df:	90                   	nop
    22e0:	f3 0f 1e fa          	endbr64 
    22e4:	68 2b 00 00 00       	push   $0x2b
    22e9:	f2 e9 31 fd ff ff    	bnd jmp 2020 <_init+0x20>
    22ef:	90                   	nop
    22f0:	f3 0f 1e fa          	endbr64 
    22f4:	68 2c 00 00 00       	push   $0x2c
    22f9:	f2 e9 21 fd ff ff    	bnd jmp 2020 <_init+0x20>
    22ff:	90                   	nop
    2300:	f3 0f 1e fa          	endbr64 
    2304:	68 2d 00 00 00       	push   $0x2d
    2309:	f2 e9 11 fd ff ff    	bnd jmp 2020 <_init+0x20>
    230f:	90                   	nop
    2310:	f3 0f 1e fa          	endbr64 
    2314:	68 2e 00 00 00       	push   $0x2e
    2319:	f2 e9 01 fd ff ff    	bnd jmp 2020 <_init+0x20>
    231f:	90                   	nop
    2320:	f3 0f 1e fa          	endbr64 
    2324:	68 2f 00 00 00       	push   $0x2f
    2329:	f2 e9 f1 fc ff ff    	bnd jmp 2020 <_init+0x20>
    232f:	90                   	nop
    2330:	f3 0f 1e fa          	endbr64 
    2334:	68 30 00 00 00       	push   $0x30
    2339:	f2 e9 e1 fc ff ff    	bnd jmp 2020 <_init+0x20>
    233f:	90                   	nop
    2340:	f3 0f 1e fa          	endbr64 
    2344:	68 31 00 00 00       	push   $0x31
    2349:	f2 e9 d1 fc ff ff    	bnd jmp 2020 <_init+0x20>
    234f:	90                   	nop
    2350:	f3 0f 1e fa          	endbr64 
    2354:	68 32 00 00 00       	push   $0x32
    2359:	f2 e9 c1 fc ff ff    	bnd jmp 2020 <_init+0x20>
    235f:	90                   	nop
    2360:	f3 0f 1e fa          	endbr64 
    2364:	68 33 00 00 00       	push   $0x33
    2369:	f2 e9 b1 fc ff ff    	bnd jmp 2020 <_init+0x20>
    236f:	90                   	nop
    2370:	f3 0f 1e fa          	endbr64 
    2374:	68 34 00 00 00       	push   $0x34
    2379:	f2 e9 a1 fc ff ff    	bnd jmp 2020 <_init+0x20>
    237f:	90                   	nop
    2380:	f3 0f 1e fa          	endbr64 
    2384:	68 35 00 00 00       	push   $0x35
    2389:	f2 e9 91 fc ff ff    	bnd jmp 2020 <_init+0x20>
    238f:	90                   	nop
    2390:	f3 0f 1e fa          	endbr64 
    2394:	68 36 00 00 00       	push   $0x36
    2399:	f2 e9 81 fc ff ff    	bnd jmp 2020 <_init+0x20>
    239f:	90                   	nop
    23a0:	f3 0f 1e fa          	endbr64 
    23a4:	68 37 00 00 00       	push   $0x37
    23a9:	f2 e9 71 fc ff ff    	bnd jmp 2020 <_init+0x20>
    23af:	90                   	nop
    23b0:	f3 0f 1e fa          	endbr64 
    23b4:	68 38 00 00 00       	push   $0x38
    23b9:	f2 e9 61 fc ff ff    	bnd jmp 2020 <_init+0x20>
    23bf:	90                   	nop

Disassembly of section .plt.got:

00000000000023c0 <__cxa_finalize@plt>:
    23c0:	f3 0f 1e fa          	endbr64 
    23c4:	f2 ff 25 f5 1b 01 00 	bnd jmp *0x11bf5(%rip)        # 13fc0 <__cxa_finalize@GLIBC_2.2.5>
    23cb:	0f 1f 44 00 00       	nopl   0x0(%rax,%rax,1)

Disassembly of section .plt.sec:

00000000000023d0 <_ZNKSt7__cxx1112basic_stringIcSt11char_traitsIcESaIcEE7compareERKS4_@plt>:
    23d0:	f3 0f 1e fa          	endbr64 
    23d4:	f2 ff 25 1d 1a 01 00 	bnd jmp *0x11a1d(%rip)        # 13df8 <_ZNKSt7__cxx1112basic_stringIcSt11char_traitsIcESaIcEE7compareERKS4_@GLIBCXX_3.4.21>
    23db:	0f 1f 44 00 00       	nopl   0x0(%rax,%rax,1)

00000000000023e0 <_ZNSt7__cxx1112basic_stringIcSt11char_traitsIcESaIcEEaSERKS4_@plt>:
    23e0:	f3 0f 1e fa          	endbr64 
    23e4:	f2 ff 25 15 1a 01 00 	bnd jmp *0x11a15(%rip)        # 13e00 <_ZNSt7__cxx1112basic_stringIcSt11char_traitsIcESaIcEEaSERKS4_@GLIBCXX_3.4.21>
    23eb:	0f 1f 44 00 00       	nopl   0x0(%rax,%rax,1)

00000000000023f0 <_ZNSirsERj@plt>:
    23f0:	f3 0f 1e fa          	endbr64 
    23f4:	f2 ff 25 0d 1a 01 00 	bnd jmp *0x11a0d(%rip)        # 13e08 <_ZNSirsERj@GLIBCXX_3.4>
    23fb:	0f 1f 44 00 00       	nopl   0x0(%rax,%rax,1)

0000000000002400 <_ZSt29_Rb_tree_insert_and_rebalancebPSt18_Rb_tree_node_baseS0_RS_@plt>:
    2400:	f3 0f 1e fa          	endbr64 
    2404:	f2 ff 25 05 1a 01 00 	bnd jmp *0x11a05(%rip)        # 13e10 <_ZSt29_Rb_tree_insert_and_rebalancebPSt18_Rb_tree_node_baseS0_RS_@GLIBCXX_3.4>
    240b:	0f 1f 44 00 00       	nopl   0x0(%rax,%rax,1)

0000000000002410 <srandom@plt>:
    2410:	f3 0f 1e fa          	endbr64 
    2414:	f2 ff 25 fd 19 01 00 	bnd jmp *0x119fd(%rip)        # 13e18 <srandom@GLIBC_2.2.5>
    241b:	0f 1f 44 00 00       	nopl   0x0(%rax,%rax,1)

0000000000002420 <_ZNSt14basic_ifstreamIcSt11char_traitsIcEED1Ev@plt>:
    2420:	f3 0f 1e fa          	endbr64 
    2424:	f2 ff 25 f5 19 01 00 	bnd jmp *0x119f5(%rip)        # 13e20 <_ZNSt14basic_ifstreamIcSt11char_traitsIcEED1Ev@GLIBCXX_3.4>
    242b:	0f 1f 44 00 00       	nopl   0x0(%rax,%rax,1)

0000000000002430 <_ZNKSt7__cxx1112basic_stringIcSt11char_traitsIcESaIcEE7compareEPKc@plt>:
    2430:	f3 0f 1e fa          	endbr64 
    2434:	f2 ff 25 ed 19 01 00 	bnd jmp *0x119ed(%rip)        # 13e28 <_ZNKSt7__cxx1112basic_stringIcSt11char_traitsIcESaIcEE7compareEPKc@GLIBCXX_3.4.21>
    243b:	0f 1f 44 00 00       	nopl   0x0(%rax,%rax,1)

0000000000002440 <_ZSt17__throw_bad_allocv@plt>:
    2440:	f3 0f 1e fa          	endbr64 
    2444:	f2 ff 25 e5 19 01 00 	bnd jmp *0x119e5(%rip)        # 13e30 <_ZSt17__throw_bad_allocv@GLIBCXX_3.4>
    244b:	0f 1f 44 00 00       	nopl   0x0(%rax,%rax,1)

0000000000002450 <_ZNKSt7__cxx1112basic_stringIcSt11char_traitsIcESaIcEE5c_strEv@plt>:
    2450:	f3 0f 1e fa          	endbr64 
    2454:	f2 ff 25 dd 19 01 00 	bnd jmp *0x119dd(%rip)        # 13e38 <_ZNKSt7__cxx1112basic_stringIcSt11char_traitsIcESaIcEE5c_strEv@GLIBCXX_3.4.21>
    245b:	0f 1f 44 00 00       	nopl   0x0(%rax,%rax,1)

0000000000002460 <_ZNSt7__cxx1112basic_stringIcSt11char_traitsIcESaIcEEC1ERKS4_@plt>:
    2460:	f3 0f 1e fa          	endbr64 
    2464:	f2 ff 25 d5 19 01 00 	bnd jmp *0x119d5(%rip)        # 13e40 <_ZNSt7__cxx1112basic_stringIcSt11char_traitsIcESaIcEEC1ERKS4_@GLIBCXX_3.4.21>
    246b:	0f 1f 44 00 00       	nopl   0x0(%rax,%rax,1)

0000000000002470 <strlen@plt>:
    2470:	f3 0f 1e fa          	endbr64 
    2474:	f2 ff 25 cd 19 01 00 	bnd jmp *0x119cd(%rip)        # 13e48 <strlen@GLIBC_2.2.5>
    247b:	0f 1f 44 00 00       	nopl   0x0(%rax,%rax,1)

0000000000002480 <_ZSt20__throw_length_errorPKc@plt>:
    2480:	f3 0f 1e fa          	endbr64 
    2484:	f2 ff 25 c5 19 01 00 	bnd jmp *0x119c5(%rip)        # 13e50 <_ZSt20__throw_length_errorPKc@GLIBCXX_3.4>
    248b:	0f 1f 44 00 00       	nopl   0x0(%rax,%rax,1)

0000000000002490 <_ZNSirsERi@plt>:
    2490:	f3 0f 1e fa          	endbr64 
    2494:	f2 ff 25 bd 19 01 00 	bnd jmp *0x119bd(%rip)        # 13e58 <_ZNSirsERi@GLIBCXX_3.4>
    249b:	0f 1f 44 00 00       	nopl   0x0(%rax,%rax,1)

00000000000024a0 <_ZNSt7__cxx1112basic_stringIcSt11char_traitsIcESaIcEED1Ev@plt>:
    24a0:	f3 0f 1e fa          	endbr64 
    24a4:	f2 ff 25 b5 19 01 00 	bnd jmp *0x119b5(%rip)        # 13e60 <_ZNSt7__cxx1112basic_stringIcSt11char_traitsIcESaIcEED1Ev@GLIBCXX_3.4.21>
    24ab:	0f 1f 44 00 00       	nopl   0x0(%rax,%rax,1)

00000000000024b0 <_ZNSt7__cxx1112basic_stringIcSt11char_traitsIcESaIcEE13_M_set_lengthEm@plt>:
    24b0:	f3 0f 1e fa          	endbr64 
    24b4:	f2 ff 25 ad 19 01 00 	bnd jmp *0x119ad(%rip)        # 13e68 <_ZNSt7__cxx1112basic_stringIcSt11char_traitsIcESaIcEE13_M_set_lengthEm@GLIBCXX_3.4.21>
    24bb:	0f 1f 44 00 00       	nopl   0x0(%rax,%rax,1)

00000000000024c0 <_ZSt18_Rb_tree_incrementPSt18_Rb_tree_node_base@plt>:
    24c0:	f3 0f 1e fa          	endbr64 
    24c4:	f2 ff 25 a5 19 01 00 	bnd jmp *0x119a5(%rip)        # 13e70 <_ZSt18_Rb_tree_incrementPSt18_Rb_tree_node_base@GLIBCXX_3.4>
    24cb:	0f 1f 44 00 00       	nopl   0x0(%rax,%rax,1)

00000000000024d0 <_ZSt19__throw_logic_errorPKc@plt>:
    24d0:	f3 0f 1e fa          	endbr64 
    24d4:	f2 ff 25 9d 19 01 00 	bnd jmp *0x1199d(%rip)        # 13e78 <_ZSt19__throw_logic_errorPKc@GLIBCXX_3.4>
    24db:	0f 1f 44 00 00       	nopl   0x0(%rax,%rax,1)

00000000000024e0 <pthread_mutex_unlock@plt>:
    24e0:	f3 0f 1e fa          	endbr64 
    24e4:	f2 ff 25 95 19 01 00 	bnd jmp *0x11995(%rip)        # 13e80 <pthread_mutex_unlock@GLIBC_2.2.5>
    24eb:	0f 1f 44 00 00       	nopl   0x0(%rax,%rax,1)

00000000000024f0 <_ZSt28__throw_bad_array_new_lengthv@plt>:
    24f0:	f3 0f 1e fa          	endbr64 
    24f4:	f2 ff 25 8d 19 01 00 	bnd jmp *0x1198d(%rip)        # 13e88 <_ZSt28__throw_bad_array_new_lengthv@GLIBCXX_3.4.29>
    24fb:	0f 1f 44 00 00       	nopl   0x0(%rax,%rax,1)

0000000000002500 <_ZNSt7__cxx1112basic_stringIcSt11char_traitsIcESaIcEE13_M_local_dataEv@plt>:
    2500:	f3 0f 1e fa          	endbr64 
    2504:	f2 ff 25 85 19 01 00 	bnd jmp *0x11985(%rip)        # 13e90 <_ZNSt7__cxx1112basic_stringIcSt11char_traitsIcESaIcEE13_M_local_dataEv@GLIBCXX_3.4.21>
    250b:	0f 1f 44 00 00       	nopl   0x0(%rax,%rax,1)

0000000000002510 <_ZNSt7__cxx1112basic_stringIcSt11char_traitsIcESaIcEE7_M_dataEPc@plt>:
    2510:	f3 0f 1e fa          	endbr64 
    2514:	f2 ff 25 7d 19 01 00 	bnd jmp *0x1197d(%rip)        # 13e98 <_ZNSt7__cxx1112basic_stringIcSt11char_traitsIcESaIcEE7_M_dataEPc@GLIBCXX_3.4.21>
    251b:	0f 1f 44 00 00       	nopl   0x0(%rax,%rax,1)

0000000000002520 <__cxa_atexit@plt>:
    2520:	f3 0f 1e fa          	endbr64 
    2524:	f2 ff 25 75 19 01 00 	bnd jmp *0x11975(%rip)        # 13ea0 <__cxa_atexit@GLIBC_2.2.5>
    252b:	0f 1f 44 00 00       	nopl   0x0(%rax,%rax,1)

0000000000002530 <_ZStlsIcSt11char_traitsIcESaIcEERSt13basic_ostreamIT_T0_ES7_RKNSt7__cxx1112basic_stringIS4_S5_T1_EE@plt>:
    2530:	f3 0f 1e fa          	endbr64 
    2534:	f2 ff 25 6d 19 01 00 	bnd jmp *0x1196d(%rip)        # 13ea8 <_ZStlsIcSt11char_traitsIcESaIcEERSt13basic_ostreamIT_T0_ES7_RKNSt7__cxx1112basic_stringIS4_S5_T1_EE@GLIBCXX_3.4.21>
    253b:	0f 1f 44 00 00       	nopl   0x0(%rax,%rax,1)

0000000000002540 <pthread_join@plt>:
    2540:	f3 0f 1e fa          	endbr64 
    2544:	f2 ff 25 65 19 01 00 	bnd jmp *0x11965(%rip)        # 13eb0 <pthread_join@GLIBC_2.34>
    254b:	0f 1f 44 00 00       	nopl   0x0(%rax,%rax,1)

0000000000002550 <_ZStlsISt11char_traitsIcEERSt13basic_ostreamIcT_ES5_PKc@plt>:
    2550:	f3 0f 1e fa          	endbr64 
    2554:	f2 ff 25 5d 19 01 00 	bnd jmp *0x1195d(%rip)        # 13eb8 <_ZStlsISt11char_traitsIcEERSt13basic_ostreamIcT_ES5_PKc@GLIBCXX_3.4>
    255b:	0f 1f 44 00 00       	nopl   0x0(%rax,%rax,1)

0000000000002560 <_Znwm@plt>:
    2560:	f3 0f 1e fa          	endbr64 
    2564:	f2 ff 25 55 19 01 00 	bnd jmp *0x11955(%rip)        # 13ec0 <_Znwm@GLIBCXX_3.4>
    256b:	0f 1f 44 00 00       	nopl   0x0(%rax,%rax,1)

0000000000002570 <_ZdlPvm@plt>:
    2570:	f3 0f 1e fa          	endbr64 
    2574:	f2 ff 25 4d 19 01 00 	bnd jmp *0x1194d(%rip)        # 13ec8 <_ZdlPvm@CXXABI_1.3.9>
    257b:	0f 1f 44 00 00       	nopl   0x0(%rax,%rax,1)

0000000000002580 <pthread_barrier_destroy@plt>:
    2580:	f3 0f 1e fa          	endbr64 
    2584:	f2 ff 25 45 19 01 00 	bnd jmp *0x11945(%rip)        # 13ed0 <pthread_barrier_destroy@GLIBC_2.34>
    258b:	0f 1f 44 00 00       	nopl   0x0(%rax,%rax,1)

0000000000002590 <_ZSt18_Rb_tree_decrementPSt18_Rb_tree_node_base@plt>:
    2590:	f3 0f 1e fa          	endbr64 
    2594:	f2 ff 25 3d 19 01 00 	bnd jmp *0x1193d(%rip)        # 13ed8 <_ZSt18_Rb_tree_decrementPSt18_Rb_tree_node_base@GLIBCXX_3.4>
    259b:	0f 1f 44 00 00       	nopl   0x0(%rax,%rax,1)

00000000000025a0 <_ZNSolsEPFRSoS_E@plt>:
    25a0:	f3 0f 1e fa          	endbr64 
    25a4:	f2 ff 25 35 19 01 00 	bnd jmp *0x11935(%rip)        # 13ee0 <_ZNSolsEPFRSoS_E@GLIBCXX_3.4>
    25ab:	0f 1f 44 00 00       	nopl   0x0(%rax,%rax,1)

00000000000025b0 <_ZNSt7__cxx1112basic_stringIcSt11char_traitsIcESaIcEE12_Alloc_hiderC1EPcRKS3_@plt>:
    25b0:	f3 0f 1e fa          	endbr64 
    25b4:	f2 ff 25 2d 19 01 00 	bnd jmp *0x1192d(%rip)        # 13ee8 <_ZNSt7__cxx1112basic_stringIcSt11char_traitsIcESaIcEE12_Alloc_hiderC1EPcRKS3_@GLIBCXX_3.4.21>
    25bb:	0f 1f 44 00 00       	nopl   0x0(%rax,%rax,1)

00000000000025c0 <_ZNSaIcED1Ev@plt>:
    25c0:	f3 0f 1e fa          	endbr64 
    25c4:	f2 ff 25 25 19 01 00 	bnd jmp *0x11925(%rip)        # 13ef0 <_ZNSaIcED1Ev@GLIBCXX_3.4>
    25cb:	0f 1f 44 00 00       	nopl   0x0(%rax,%rax,1)

00000000000025d0 <_ZNSt14basic_ofstreamIcSt11char_traitsIcEEC1EPKcSt13_Ios_Openmode@plt>:
    25d0:	f3 0f 1e fa          	endbr64 
    25d4:	f2 ff 25 1d 19 01 00 	bnd jmp *0x1191d(%rip)        # 13ef8 <_ZNSt14basic_ofstreamIcSt11char_traitsIcEEC1EPKcSt13_Ios_Openmode@GLIBCXX_3.4>
    25db:	0f 1f 44 00 00       	nopl   0x0(%rax,%rax,1)

00000000000025e0 <_ZNKSt7__cxx1112basic_stringIcSt11char_traitsIcESaIcEE7_M_dataEv@plt>:
    25e0:	f3 0f 1e fa          	endbr64 
    25e4:	f2 ff 25 15 19 01 00 	bnd jmp *0x11915(%rip)        # 13f00 <_ZNKSt7__cxx1112basic_stringIcSt11char_traitsIcESaIcEE7_M_dataEv@GLIBCXX_3.4.21>
    25eb:	0f 1f 44 00 00       	nopl   0x0(%rax,%rax,1)

00000000000025f0 <_ZNSt7__cxx1112basic_stringIcSt11char_traitsIcESaIcEE13_S_copy_charsEPcPKcS7_@plt>:
    25f0:	f3 0f 1e fa          	endbr64 
    25f4:	f2 ff 25 0d 19 01 00 	bnd jmp *0x1190d(%rip)        # 13f08 <_ZNSt7__cxx1112basic_stringIcSt11char_traitsIcESaIcEE13_S_copy_charsEPcPKcS7_@GLIBCXX_3.4.21>
    25fb:	0f 1f 44 00 00       	nopl   0x0(%rax,%rax,1)

0000000000002600 <__stack_chk_fail@plt>:
    2600:	f3 0f 1e fa          	endbr64 
    2604:	f2 ff 25 05 19 01 00 	bnd jmp *0x11905(%rip)        # 13f10 <__stack_chk_fail@GLIBC_2.4>
    260b:	0f 1f 44 00 00       	nopl   0x0(%rax,%rax,1)

0000000000002610 <pthread_barrier_wait@plt>:
    2610:	f3 0f 1e fa          	endbr64 
    2614:	f2 ff 25 fd 18 01 00 	bnd jmp *0x118fd(%rip)        # 13f18 <pthread_barrier_wait@GLIBC_2.34>
    261b:	0f 1f 44 00 00       	nopl   0x0(%rax,%rax,1)

0000000000002620 <exit@plt>:
    2620:	f3 0f 1e fa          	endbr64 
    2624:	f2 ff 25 f5 18 01 00 	bnd jmp *0x118f5(%rip)        # 13f20 <exit@GLIBC_2.2.5>
    262b:	0f 1f 44 00 00       	nopl   0x0(%rax,%rax,1)

0000000000002630 <_ZNKSt9basic_iosIcSt11char_traitsIcEEcvbEv@plt>:
    2630:	f3 0f 1e fa          	endbr64 
    2634:	f2 ff 25 ed 18 01 00 	bnd jmp *0x118ed(%rip)        # 13f28 <_ZNKSt9basic_iosIcSt11char_traitsIcEEcvbEv@GLIBCXX_3.4.21>
    263b:	0f 1f 44 00 00       	nopl   0x0(%rax,%rax,1)

0000000000002640 <_ZStrsIcSt11char_traitsIcESaIcEERSt13basic_istreamIT_T0_ES7_RNSt7__cxx1112basic_stringIS4_S5_T1_EE@plt>:
    2640:	f3 0f 1e fa          	endbr64 
    2644:	f2 ff 25 e5 18 01 00 	bnd jmp *0x118e5(%rip)        # 13f30 <_ZStrsIcSt11char_traitsIcESaIcEERSt13basic_istreamIT_T0_ES7_RNSt7__cxx1112basic_stringIS4_S5_T1_EE@GLIBCXX_3.4.21>
    264b:	0f 1f 44 00 00       	nopl   0x0(%rax,%rax,1)

0000000000002650 <_ZNSt7__cxx1112basic_stringIcSt11char_traitsIcESaIcEEC1Ev@plt>:
    2650:	f3 0f 1e fa          	endbr64 
    2654:	f2 ff 25 dd 18 01 00 	bnd jmp *0x118dd(%rip)        # 13f38 <_ZNSt7__cxx1112basic_stringIcSt11char_traitsIcESaIcEEC1Ev@GLIBCXX_3.4.21>
    265b:	0f 1f 44 00 00       	nopl   0x0(%rax,%rax,1)

0000000000002660 <pthread_mutex_lock@plt>:
    2660:	f3 0f 1e fa          	endbr64 
    2664:	f2 ff 25 d5 18 01 00 	bnd jmp *0x118d5(%rip)        # 13f40 <pthread_mutex_lock@GLIBC_2.2.5>
    266b:	0f 1f 44 00 00       	nopl   0x0(%rax,%rax,1)

0000000000002670 <_ZNSt14basic_ofstreamIcSt11char_traitsIcEED1Ev@plt>:
    2670:	f3 0f 1e fa          	endbr64 
    2674:	f2 ff 25 cd 18 01 00 	bnd jmp *0x118cd(%rip)        # 13f48 <_ZNSt14basic_ofstreamIcSt11char_traitsIcEED1Ev@GLIBCXX_3.4>
    267b:	0f 1f 44 00 00       	nopl   0x0(%rax,%rax,1)

0000000000002680 <_ZSt24__throw_out_of_range_fmtPKcz@plt>:
    2680:	f3 0f 1e fa          	endbr64 
    2684:	f2 ff 25 c5 18 01 00 	bnd jmp *0x118c5(%rip)        # 13f50 <_ZSt24__throw_out_of_range_fmtPKcz@GLIBCXX_3.4.20>
    268b:	0f 1f 44 00 00       	nopl   0x0(%rax,%rax,1)

0000000000002690 <_ZNSt8ios_base4InitC1Ev@plt>:
    2690:	f3 0f 1e fa          	endbr64 
    2694:	f2 ff 25 bd 18 01 00 	bnd jmp *0x118bd(%rip)        # 13f58 <_ZNSt8ios_base4InitC1Ev@GLIBCXX_3.4>
    269b:	0f 1f 44 00 00       	nopl   0x0(%rax,%rax,1)

00000000000026a0 <atoi@plt>:
    26a0:	f3 0f 1e fa          	endbr64 
    26a4:	f2 ff 25 b5 18 01 00 	bnd jmp *0x118b5(%rip)        # 13f60 <atoi@GLIBC_2.2.5>
    26ab:	0f 1f 44 00 00       	nopl   0x0(%rax,%rax,1)

00000000000026b0 <pthread_barrier_init@plt>:
    26b0:	f3 0f 1e fa          	endbr64 
    26b4:	f2 ff 25 ad 18 01 00 	bnd jmp *0x118ad(%rip)        # 13f68 <pthread_barrier_init@GLIBC_2.34>
    26bb:	0f 1f 44 00 00       	nopl   0x0(%rax,%rax,1)

00000000000026c0 <memmove@plt>:
    26c0:	f3 0f 1e fa          	endbr64 
    26c4:	f2 ff 25 a5 18 01 00 	bnd jmp *0x118a5(%rip)        # 13f70 <memmove@GLIBC_2.2.5>
    26cb:	0f 1f 44 00 00       	nopl   0x0(%rax,%rax,1)

00000000000026d0 <_ZNSolsEi@plt>:
    26d0:	f3 0f 1e fa          	endbr64 
    26d4:	f2 ff 25 9d 18 01 00 	bnd jmp *0x1189d(%rip)        # 13f78 <_ZNSolsEi@GLIBCXX_3.4>
    26db:	0f 1f 44 00 00       	nopl   0x0(%rax,%rax,1)

00000000000026e0 <_ZNSaIcEC1Ev@plt>:
    26e0:	f3 0f 1e fa          	endbr64 
    26e4:	f2 ff 25 95 18 01 00 	bnd jmp *0x11895(%rip)        # 13f80 <_ZNSaIcEC1Ev@GLIBCXX_3.4>
    26eb:	0f 1f 44 00 00       	nopl   0x0(%rax,%rax,1)

00000000000026f0 <exp@plt>:
    26f0:	f3 0f 1e fa          	endbr64 
    26f4:	f2 ff 25 8d 18 01 00 	bnd jmp *0x1188d(%rip)        # 13f88 <exp@GLIBC_2.29>
    26fb:	0f 1f 44 00 00       	nopl   0x0(%rax,%rax,1)

0000000000002700 <_ZNSt7__cxx1112basic_stringIcSt11char_traitsIcESaIcEE9_M_createERmm@plt>:
    2700:	f3 0f 1e fa          	endbr64 
    2704:	f2 ff 25 85 18 01 00 	bnd jmp *0x11885(%rip)        # 13f90 <_ZNSt7__cxx1112basic_stringIcSt11char_traitsIcESaIcEE9_M_createERmm@GLIBCXX_3.4.21>
    270b:	0f 1f 44 00 00       	nopl   0x0(%rax,%rax,1)

0000000000002710 <pthread_create@plt>:
    2710:	f3 0f 1e fa          	endbr64 
    2714:	f2 ff 25 7d 18 01 00 	bnd jmp *0x1187d(%rip)        # 13f98 <pthread_create@GLIBC_2.34>
    271b:	0f 1f 44 00 00       	nopl   0x0(%rax,%rax,1)

0000000000002720 <_ZNSt14basic_ifstreamIcSt11char_traitsIcEEC1EPKcSt13_Ios_Openmode@plt>:
    2720:	f3 0f 1e fa          	endbr64 
    2724:	f2 ff 25 75 18 01 00 	bnd jmp *0x11875(%rip)        # 13fa0 <_ZNSt14basic_ifstreamIcSt11char_traitsIcEEC1EPKcSt13_Ios_Openmode@GLIBCXX_3.4>
    272b:	0f 1f 44 00 00       	nopl   0x0(%rax,%rax,1)

0000000000002730 <_ZNKSt9basic_iosIcSt11char_traitsIcEE3eofEv@plt>:
    2730:	f3 0f 1e fa          	endbr64 
    2734:	f2 ff 25 6d 18 01 00 	bnd jmp *0x1186d(%rip)        # 13fa8 <_ZNKSt9basic_iosIcSt11char_traitsIcEE3eofEv@GLIBCXX_3.4>
    273b:	0f 1f 44 00 00       	nopl   0x0(%rax,%rax,1)

0000000000002740 <_ZNSolsEd@plt>:
    2740:	f3 0f 1e fa          	endbr64 
    2744:	f2 ff 25 65 18 01 00 	bnd jmp *0x11865(%rip)        # 13fb0 <_ZNSolsEd@GLIBCXX_3.4>
    274b:	0f 1f 44 00 00       	nopl   0x0(%rax,%rax,1)

0000000000002750 <_ZNSt7__cxx1112basic_stringIcSt11char_traitsIcESaIcEE11_M_capacityEm@plt>:
    2750:	f3 0f 1e fa          	endbr64 
    2754:	f2 ff 25 5d 18 01 00 	bnd jmp *0x1185d(%rip)        # 13fb8 <_ZNSt7__cxx1112basic_stringIcSt11char_traitsIcESaIcEE11_M_capacityEm@GLIBCXX_3.4.21>
    275b:	0f 1f 44 00 00       	nopl   0x0(%rax,%rax,1)

Disassembly of section .text:

0000000000002760 <_start>:
    2760:	f3 0f 1e fa          	endbr64 
    2764:	31 ed                	xor    %ebp,%ebp
    2766:	49 89 d1             	mov    %rdx,%r9
    2769:	5e                   	pop    %rsi
    276a:	48 89 e2             	mov    %rsp,%rdx
    276d:	48 83 e4 f0          	and    $0xfffffffffffffff0,%rsp
    2771:	50                   	push   %rax
    2772:	54                   	push   %rsp
    2773:	45 31 c0             	xor    %r8d,%r8d
    2776:	31 c9                	xor    %ecx,%ecx
    2778:	48 8d 3d 98 08 00 00 	lea    0x898(%rip),%rdi        # 3017 <main>
    277f:	ff 15 4b 18 01 00    	call   *0x1184b(%rip)        # 13fd0 <__libc_start_main@GLIBC_2.34>
    2785:	f4                   	hlt    
    2786:	66 2e 0f 1f 84 00 00 	cs nopw 0x0(%rax,%rax,1)
    278d:	00 00 00 

0000000000002790 <deregister_tm_clones>:
    2790:	48 8d 3d 81 18 01 00 	lea    0x11881(%rip),%rdi        # 14018 <__TMC_END__>
    2797:	48 8d 05 7a 18 01 00 	lea    0x1187a(%rip),%rax        # 14018 <__TMC_END__>
    279e:	48 39 f8             	cmp    %rdi,%rax
    27a1:	74 15                	je     27b8 <deregister_tm_clones+0x28>
    27a3:	48 8b 05 36 18 01 00 	mov    0x11836(%rip),%rax        # 13fe0 <_ITM_deregisterTMCloneTable@Base>
    27aa:	48 85 c0             	test   %rax,%rax
    27ad:	74 09                	je     27b8 <deregister_tm_clones+0x28>
    27af:	ff e0                	jmp    *%rax
    27b1:	0f 1f 80 00 00 00 00 	nopl   0x0(%rax)
    27b8:	c3                   	ret    
    27b9:	0f 1f 80 00 00 00 00 	nopl   0x0(%rax)

00000000000027c0 <register_tm_clones>:
    27c0:	48 8d 3d 51 18 01 00 	lea    0x11851(%rip),%rdi        # 14018 <__TMC_END__>
    27c7:	48 8d 35 4a 18 01 00 	lea    0x1184a(%rip),%rsi        # 14018 <__TMC_END__>
    27ce:	48 29 fe             	sub    %rdi,%rsi
    27d1:	48 89 f0             	mov    %rsi,%rax
    27d4:	48 c1 ee 3f          	shr    $0x3f,%rsi
    27d8:	48 c1 f8 03          	sar    $0x3,%rax
    27dc:	48 01 c6             	add    %rax,%rsi
    27df:	48 d1 fe             	sar    %rsi
    27e2:	74 14                	je     27f8 <register_tm_clones+0x38>
    27e4:	48 8b 05 05 18 01 00 	mov    0x11805(%rip),%rax        # 13ff0 <_ITM_registerTMCloneTable@Base>
    27eb:	48 85 c0             	test   %rax,%rax
    27ee:	74 08                	je     27f8 <register_tm_clones+0x38>
    27f0:	ff e0                	jmp    *%rax
    27f2:	66 0f 1f 44 00 00    	nopw   0x0(%rax,%rax,1)
    27f8:	c3                   	ret    
    27f9:	0f 1f 80 00 00 00 00 	nopl   0x0(%rax)

0000000000002800 <__do_global_dtors_aux>:
    2800:	f3 0f 1e fa          	endbr64 
    2804:	80 3d 45 19 01 00 00 	cmpb   $0x0,0x11945(%rip)        # 14150 <completed.0>
    280b:	75 2b                	jne    2838 <__do_global_dtors_aux+0x38>
    280d:	55                   	push   %rbp
    280e:	48 83 3d aa 17 01 00 	cmpq   $0x0,0x117aa(%rip)        # 13fc0 <__cxa_finalize@GLIBC_2.2.5>
    2815:	00 
    2816:	48 89 e5             	mov    %rsp,%rbp
    2819:	74 0c                	je     2827 <__do_global_dtors_aux+0x27>
    281b:	48 8b 3d e6 17 01 00 	mov    0x117e6(%rip),%rdi        # 14008 <__dso_handle>
    2822:	e8 99 fb ff ff       	call   23c0 <__cxa_finalize@plt>
    2827:	e8 64 ff ff ff       	call   2790 <deregister_tm_clones>
    282c:	c6 05 1d 19 01 00 01 	movb   $0x1,0x1191d(%rip)        # 14150 <completed.0>
    2833:	5d                   	pop    %rbp
    2834:	c3                   	ret    
    2835:	0f 1f 00             	nopl   (%rax)
    2838:	c3                   	ret    
    2839:	0f 1f 80 00 00 00 00 	nopl   0x0(%rax)

0000000000002840 <frame_dummy>:
    2840:	f3 0f 1e fa          	endbr64 
    2844:	e9 77 ff ff ff       	jmp    27c0 <register_tm_clones>
    2849:	90                   	nop

000000000000284a <_ZN15annealer_thread3RunEv>:
    284a:	f3 0f 1e fa          	endbr64 
    284e:	55                   	push   %rbp
    284f:	48 89 e5             	mov    %rsp,%rbp
    2852:	48 83 ec 70          	sub    $0x70,%rsp
    2856:	48 89 7d 98          	mov    %rdi,-0x68(%rbp)
    285a:	64 48 8b 04 25 28 00 	mov    %fs:0x28,%rax
    2861:	00 00 
    2863:	48 89 45 f8          	mov    %rax,-0x8(%rbp)
    2867:	31 c0                	xor    %eax,%eax
    2869:	c7 45 ac 00 00 00 00 	movl   $0x0,-0x54(%rbp)
    2870:	c7 45 b0 ff ff ff ff 	movl   $0xffffffff,-0x50(%rbp)
    2877:	48 8b 45 98          	mov    -0x68(%rbp),%rax
    287b:	8b 40 10             	mov    0x10(%rax),%eax
    287e:	66 0f ef c0          	pxor   %xmm0,%xmm0
    2882:	f2 0f 2a c0          	cvtsi2sd %eax,%xmm0
    2886:	f2 0f 11 45 d8       	movsd  %xmm0,-0x28(%rbp)
    288b:	48 8d 45 c0          	lea    -0x40(%rbp),%rax
    288f:	48 89 c7             	mov    %rax,%rdi
    2892:	e8 8b 06 00 00       	call   2f22 <_ZN3RngC1Ev>
    2897:	48 8b 45 98          	mov    -0x68(%rbp),%rax
    289b:	48 8b 00             	mov    (%rax),%rax
    289e:	48 8d 55 c0          	lea    -0x40(%rbp),%rdx
    28a2:	48 8d 75 c8          	lea    -0x38(%rbp),%rsi
    28a6:	48 89 d1             	mov    %rdx,%rcx
    28a9:	48 c7 c2 ff ff ff ff 	mov    $0xffffffffffffffff,%rdx
    28b0:	48 89 c7             	mov    %rax,%rdi
    28b3:	e8 de 27 00 00       	call   5096 <_ZN7netlist18get_random_elementEPllP3Rng>
    28b8:	48 89 45 e8          	mov    %rax,-0x18(%rbp)
    28bc:	48 8b 45 98          	mov    -0x68(%rbp),%rax
    28c0:	48 8b 00             	mov    (%rax),%rax
    28c3:	48 8d 55 c0          	lea    -0x40(%rbp),%rdx
    28c7:	48 8d 75 d0          	lea    -0x30(%rbp),%rsi
    28cb:	48 89 d1             	mov    %rdx,%rcx
    28ce:	48 c7 c2 ff ff ff ff 	mov    $0xffffffffffffffff,%rdx
    28d5:	48 89 c7             	mov    %rax,%rdi
    28d8:	e8 b9 27 00 00       	call   5096 <_ZN7netlist18get_random_elementEPllP3Rng>
    28dd:	48 89 45 e0          	mov    %rax,-0x20(%rbp)
    28e1:	c7 45 b4 00 00 00 00 	movl   $0x0,-0x4c(%rbp)
    28e8:	e9 19 01 00 00       	jmp    2a06 <_ZN15annealer_thread3RunEv+0x1bc>
    28ed:	f2 0f 10 45 d8       	movsd  -0x28(%rbp),%xmm0
    28f2:	f2 0f 10 0d 1e a7 00 	movsd  0xa71e(%rip),%xmm1        # d018 <_ZL19NO_MATCHING_ELEMENT+0x8>
    28f9:	00 
    28fa:	f2 0f 5e c1          	divsd  %xmm1,%xmm0
    28fe:	f2 0f 11 45 d8       	movsd  %xmm0,-0x28(%rbp)
    2903:	c7 45 ac 00 00 00 00 	movl   $0x0,-0x54(%rbp)
    290a:	c7 45 b0 00 00 00 00 	movl   $0x0,-0x50(%rbp)
    2911:	c7 45 b8 00 00 00 00 	movl   $0x0,-0x48(%rbp)
    2918:	e9 c5 00 00 00       	jmp    29e2 <_ZN15annealer_thread3RunEv+0x198>
    291d:	48 8b 45 e0          	mov    -0x20(%rbp),%rax
    2921:	48 89 45 e8          	mov    %rax,-0x18(%rbp)
    2925:	48 8b 45 d0          	mov    -0x30(%rbp),%rax
    2929:	48 89 45 c8          	mov    %rax,-0x38(%rbp)
    292d:	48 8b 45 98          	mov    -0x68(%rbp),%rax
    2931:	48 8b 00             	mov    (%rax),%rax
    2934:	48 8b 55 c8          	mov    -0x38(%rbp),%rdx
    2938:	48 8d 4d c0          	lea    -0x40(%rbp),%rcx
    293c:	48 8d 75 d0          	lea    -0x30(%rbp),%rsi
    2940:	48 89 c7             	mov    %rax,%rdi
    2943:	e8 4e 27 00 00       	call   5096 <_ZN7netlist18get_random_elementEPllP3Rng>
    2948:	48 89 45 e0          	mov    %rax,-0x20(%rbp)
    294c:	48 8b 55 e0          	mov    -0x20(%rbp),%rdx
    2950:	48 8b 4d e8          	mov    -0x18(%rbp),%rcx
    2954:	48 8b 45 98          	mov    -0x68(%rbp),%rax
    2958:	48 89 ce             	mov    %rcx,%rsi
    295b:	48 89 c7             	mov    %rax,%rdi
    295e:	e8 71 01 00 00       	call   2ad4 <_ZN15annealer_thread28calculate_delta_routing_costEP12netlist_elemS1_>
    2963:	66 48 0f 7e c0       	movq   %xmm0,%rax
    2968:	48 89 45 f0          	mov    %rax,-0x10(%rbp)
    296c:	48 8d 4d c0          	lea    -0x40(%rbp),%rcx
    2970:	f2 0f 10 45 d8       	movsd  -0x28(%rbp),%xmm0
    2975:	48 8b 55 f0          	mov    -0x10(%rbp),%rdx
    2979:	48 8b 45 98          	mov    -0x68(%rbp),%rax
    297d:	48 89 ce             	mov    %rcx,%rsi
    2980:	66 0f 28 c8          	movapd %xmm0,%xmm1
    2984:	66 48 0f 6e c2       	movq   %rdx,%xmm0
    2989:	48 89 c7             	mov    %rax,%rdi
    298c:	e8 b5 00 00 00       	call   2a46 <_ZN15annealer_thread11accept_moveEddP3Rng>
    2991:	89 45 bc             	mov    %eax,-0x44(%rbp)
    2994:	83 7d bc 01          	cmpl   $0x1,-0x44(%rbp)
    2998:	75 20                	jne    29ba <_ZN15annealer_thread3RunEv+0x170>
    299a:	83 45 b0 01          	addl   $0x1,-0x50(%rbp)
    299e:	48 8b 45 98          	mov    -0x68(%rbp),%rax
    29a2:	48 8b 00             	mov    (%rax),%rax
    29a5:	48 8b 55 e0          	mov    -0x20(%rbp),%rdx
    29a9:	48 8b 4d e8          	mov    -0x18(%rbp),%rcx
    29ad:	48 89 ce             	mov    %rcx,%rsi
    29b0:	48 89 c7             	mov    %rax,%rdi
    29b3:	e8 a8 26 00 00       	call   5060 <_ZN7netlist14swap_locationsEP12netlist_elemS1_>
    29b8:	eb 24                	jmp    29de <_ZN15annealer_thread3RunEv+0x194>
    29ba:	83 7d bc 00          	cmpl   $0x0,-0x44(%rbp)
    29be:	75 1e                	jne    29de <_ZN15annealer_thread3RunEv+0x194>
    29c0:	83 45 ac 01          	addl   $0x1,-0x54(%rbp)
    29c4:	48 8b 45 98          	mov    -0x68(%rbp),%rax
    29c8:	48 8b 00             	mov    (%rax),%rax
    29cb:	48 8b 55 e0          	mov    -0x20(%rbp),%rdx
    29cf:	48 8b 4d e8          	mov    -0x18(%rbp),%rcx
    29d3:	48 89 ce             	mov    %rcx,%rsi
    29d6:	48 89 c7             	mov    %rax,%rdi
    29d9:	e8 82 26 00 00       	call   5060 <_ZN7netlist14swap_locationsEP12netlist_elemS1_>
    29de:	83 45 b8 01          	addl   $0x1,-0x48(%rbp)
    29e2:	48 8b 45 98          	mov    -0x68(%rbp),%rax
    29e6:	8b 40 0c             	mov    0xc(%rax),%eax
    29e9:	39 45 b8             	cmp    %eax,-0x48(%rbp)
    29ec:	0f 8c 2b ff ff ff    	jl     291d <_ZN15annealer_thread3RunEv+0xd3>
    29f2:	83 45 b4 01          	addl   $0x1,-0x4c(%rbp)
    29f6:	48 8b 45 98          	mov    -0x68(%rbp),%rax
    29fa:	48 83 c0 18          	add    $0x18,%rax
    29fe:	48 89 c7             	mov    %rax,%rdi
    2a01:	e8 0a fc ff ff       	call   2610 <pthread_barrier_wait@plt>
    2a06:	8b 4d b0             	mov    -0x50(%rbp),%ecx
    2a09:	8b 55 ac             	mov    -0x54(%rbp),%edx
    2a0c:	8b 75 b4             	mov    -0x4c(%rbp),%esi
    2a0f:	48 8b 45 98          	mov    -0x68(%rbp),%rax
    2a13:	48 89 c7             	mov    %rax,%rdi
    2a16:	e8 4f 01 00 00       	call   2b6a <_ZN15annealer_thread10keep_goingEiii>
    2a1b:	84 c0                	test   %al,%al
    2a1d:	0f 85 ca fe ff ff    	jne    28ed <_ZN15annealer_thread3RunEv+0xa3>
    2a23:	48 8d 45 c0          	lea    -0x40(%rbp),%rax
    2a27:	48 89 c7             	mov    %rax,%rdi
    2a2a:	e8 89 05 00 00       	call   2fb8 <_ZN3RngD1Ev>
    2a2f:	48 8b 45 f8          	mov    -0x8(%rbp),%rax
    2a33:	64 48 2b 04 25 28 00 	sub    %fs:0x28,%rax
    2a3a:	00 00 
    2a3c:	74 05                	je     2a43 <_ZN15annealer_thread3RunEv+0x1f9>
    2a3e:	e8 bd fb ff ff       	call   2600 <__stack_chk_fail@plt>
    2a43:	c9                   	leave  
    2a44:	c3                   	ret    
    2a45:	90                   	nop

0000000000002a46 <_ZN15annealer_thread11accept_moveEddP3Rng>:
    2a46:	f3 0f 1e fa          	endbr64 
    2a4a:	55                   	push   %rbp
    2a4b:	48 89 e5             	mov    %rsp,%rbp
    2a4e:	48 83 ec 30          	sub    $0x30,%rsp
    2a52:	48 89 7d e8          	mov    %rdi,-0x18(%rbp)
    2a56:	f2 0f 11 45 e0       	movsd  %xmm0,-0x20(%rbp)
    2a5b:	f2 0f 11 4d d8       	movsd  %xmm1,-0x28(%rbp)
    2a60:	48 89 75 d0          	mov    %rsi,-0x30(%rbp)
    2a64:	66 0f ef c0          	pxor   %xmm0,%xmm0
    2a68:	66 0f 2f 45 e0       	comisd -0x20(%rbp),%xmm0
    2a6d:	76 07                	jbe    2a76 <_ZN15annealer_thread11accept_moveEddP3Rng+0x30>
    2a6f:	b8 00 00 00 00       	mov    $0x0,%eax
    2a74:	eb 5b                	jmp    2ad1 <_ZN15annealer_thread11accept_moveEddP3Rng+0x8b>
    2a76:	48 8b 45 d0          	mov    -0x30(%rbp),%rax
    2a7a:	48 89 c7             	mov    %rax,%rdi
    2a7d:	e8 20 94 00 00       	call   bea2 <_ZN3Rng5drandEv>
    2a82:	66 48 0f 7e c0       	movq   %xmm0,%rax
    2a87:	48 89 45 f0          	mov    %rax,-0x10(%rbp)
    2a8b:	f2 0f 10 45 e0       	movsd  -0x20(%rbp),%xmm0
    2a90:	f3 0f 7e 0d 88 a5 00 	movq   0xa588(%rip),%xmm1        # d020 <_ZL19NO_MATCHING_ELEMENT+0x10>
    2a97:	00 
    2a98:	66 0f 57 c1          	xorpd  %xmm1,%xmm0
    2a9c:	f2 0f 5e 45 d8       	divsd  -0x28(%rbp),%xmm0
    2aa1:	66 48 0f 7e c0       	movq   %xmm0,%rax
    2aa6:	66 48 0f 6e c0       	movq   %rax,%xmm0
    2aab:	e8 40 fc ff ff       	call   26f0 <exp@plt>
    2ab0:	66 48 0f 7e c0       	movq   %xmm0,%rax
    2ab5:	48 89 45 f8          	mov    %rax,-0x8(%rbp)
    2ab9:	f2 0f 10 45 f8       	movsd  -0x8(%rbp),%xmm0
    2abe:	66 0f 2f 45 f0       	comisd -0x10(%rbp),%xmm0
    2ac3:	76 07                	jbe    2acc <_ZN15annealer_thread11accept_moveEddP3Rng+0x86>
    2ac5:	b8 01 00 00 00       	mov    $0x1,%eax
    2aca:	eb 05                	jmp    2ad1 <_ZN15annealer_thread11accept_moveEddP3Rng+0x8b>
    2acc:	b8 02 00 00 00       	mov    $0x2,%eax
    2ad1:	c9                   	leave  
    2ad2:	c3                   	ret    
    2ad3:	90                   	nop

0000000000002ad4 <_ZN15annealer_thread28calculate_delta_routing_costEP12netlist_elemS1_>:
    2ad4:	f3 0f 1e fa          	endbr64 
    2ad8:	55                   	push   %rbp
    2ad9:	48 89 e5             	mov    %rsp,%rbp
    2adc:	48 83 ec 40          	sub    $0x40,%rsp
    2ae0:	48 89 7d d8          	mov    %rdi,-0x28(%rbp)
    2ae4:	48 89 75 d0          	mov    %rsi,-0x30(%rbp)
    2ae8:	48 89 55 c8          	mov    %rdx,-0x38(%rbp)
    2aec:	48 8b 45 d0          	mov    -0x30(%rbp),%rax
    2af0:	48 83 c0 50          	add    $0x50,%rax
    2af4:	48 89 c7             	mov    %rax,%rdi
    2af7:	e8 e8 04 00 00       	call   2fe4 <_ZNK7threads9AtomicPtrI10location_tE3GetEv>
    2afc:	48 89 45 e8          	mov    %rax,-0x18(%rbp)
    2b00:	48 8b 45 c8          	mov    -0x38(%rbp),%rax
    2b04:	48 83 c0 50          	add    $0x50,%rax
    2b08:	48 89 c7             	mov    %rax,%rdi
    2b0b:	e8 d4 04 00 00       	call   2fe4 <_ZNK7threads9AtomicPtrI10location_tE3GetEv>
    2b10:	48 89 45 f0          	mov    %rax,-0x10(%rbp)
    2b14:	48 8b 55 f0          	mov    -0x10(%rbp),%rdx
    2b18:	48 8b 4d e8          	mov    -0x18(%rbp),%rcx
    2b1c:	48 8b 45 d0          	mov    -0x30(%rbp),%rax
    2b20:	48 89 ce             	mov    %rcx,%rsi
    2b23:	48 89 c7             	mov    %rax,%rdi
    2b26:	e8 bb 8f 00 00       	call   bae6 <_ZN12netlist_elem9swap_costEP10location_tS1_>
    2b2b:	66 48 0f 7e c0       	movq   %xmm0,%rax
    2b30:	48 89 45 f8          	mov    %rax,-0x8(%rbp)
    2b34:	48 8b 55 e8          	mov    -0x18(%rbp),%rdx
    2b38:	48 8b 4d f0          	mov    -0x10(%rbp),%rcx
    2b3c:	48 8b 45 c8          	mov    -0x38(%rbp),%rax
    2b40:	48 89 ce             	mov    %rcx,%rsi
    2b43:	48 89 c7             	mov    %rax,%rdi
    2b46:	e8 9b 8f 00 00       	call   bae6 <_ZN12netlist_elem9swap_costEP10location_tS1_>
    2b4b:	f2 0f 10 4d f8       	movsd  -0x8(%rbp),%xmm1
    2b50:	f2 0f 58 c1          	addsd  %xmm1,%xmm0
    2b54:	f2 0f 11 45 f8       	movsd  %xmm0,-0x8(%rbp)
    2b59:	f2 0f 10 45 f8       	movsd  -0x8(%rbp),%xmm0
    2b5e:	66 48 0f 7e c0       	movq   %xmm0,%rax
    2b63:	66 48 0f 6e c0       	movq   %rax,%xmm0
    2b68:	c9                   	leave  
    2b69:	c3                   	ret    

0000000000002b6a <_ZN15annealer_thread10keep_goingEiii>:
    2b6a:	f3 0f 1e fa          	endbr64 
    2b6e:	55                   	push   %rbp
    2b6f:	48 89 e5             	mov    %rsp,%rbp
    2b72:	48 89 7d e8          	mov    %rdi,-0x18(%rbp)
    2b76:	89 75 e4             	mov    %esi,-0x1c(%rbp)
    2b79:	89 55 e0             	mov    %edx,-0x20(%rbp)
    2b7c:	89 4d dc             	mov    %ecx,-0x24(%rbp)
    2b7f:	48 8b 45 e8          	mov    -0x18(%rbp),%rax
    2b83:	8b 40 14             	mov    0x14(%rax),%eax
    2b86:	83 f8 ff             	cmp    $0xffffffff,%eax
    2b89:	75 38                	jne    2bc3 <_ZN15annealer_thread10keep_goingEiii+0x59>
    2b8b:	48 8b 45 e8          	mov    -0x18(%rbp),%rax
    2b8f:	0f b6 40 08          	movzbl 0x8(%rax),%eax
    2b93:	84 c0                	test   %al,%al
    2b95:	74 0f                	je     2ba6 <_ZN15annealer_thread10keep_goingEiii+0x3c>
    2b97:	8b 45 e0             	mov    -0x20(%rbp),%eax
    2b9a:	3b 45 dc             	cmp    -0x24(%rbp),%eax
    2b9d:	7e 07                	jle    2ba6 <_ZN15annealer_thread10keep_goingEiii+0x3c>
    2b9f:	b8 01 00 00 00       	mov    $0x1,%eax
    2ba4:	eb 05                	jmp    2bab <_ZN15annealer_thread10keep_goingEiii+0x41>
    2ba6:	b8 00 00 00 00       	mov    $0x0,%eax
    2bab:	88 45 ff             	mov    %al,-0x1(%rbp)
    2bae:	0f b6 45 ff          	movzbl -0x1(%rbp),%eax
    2bb2:	83 f0 01             	xor    $0x1,%eax
    2bb5:	84 c0                	test   %al,%al
    2bb7:	74 1a                	je     2bd3 <_ZN15annealer_thread10keep_goingEiii+0x69>
    2bb9:	48 8b 45 e8          	mov    -0x18(%rbp),%rax
    2bbd:	c6 40 08 00          	movb   $0x0,0x8(%rax)
    2bc1:	eb 10                	jmp    2bd3 <_ZN15annealer_thread10keep_goingEiii+0x69>
    2bc3:	48 8b 45 e8          	mov    -0x18(%rbp),%rax
    2bc7:	8b 40 14             	mov    0x14(%rax),%eax
    2bca:	39 45 e4             	cmp    %eax,-0x1c(%rbp)
    2bcd:	0f 9c c0             	setl   %al
    2bd0:	88 45 ff             	mov    %al,-0x1(%rbp)
    2bd3:	0f b6 45 ff          	movzbl -0x1(%rbp),%eax
    2bd7:	5d                   	pop    %rbp
    2bd8:	c3                   	ret    

0000000000002bd9 <_Z41__static_initialization_and_destruction_0ii>:
    2bd9:	f3 0f 1e fa          	endbr64 
    2bdd:	55                   	push   %rbp
    2bde:	48 89 e5             	mov    %rsp,%rbp
    2be1:	48 83 ec 10          	sub    $0x10,%rsp
    2be5:	89 7d fc             	mov    %edi,-0x4(%rbp)
    2be8:	89 75 f8             	mov    %esi,-0x8(%rbp)
    2beb:	83 7d fc 01          	cmpl   $0x1,-0x4(%rbp)
    2bef:	75 3b                	jne    2c2c <_Z41__static_initialization_and_destruction_0ii+0x53>
    2bf1:	81 7d f8 ff ff 00 00 	cmpl   $0xffff,-0x8(%rbp)
    2bf8:	75 32                	jne    2c2c <_Z41__static_initialization_and_destruction_0ii+0x53>
    2bfa:	48 8d 05 50 15 01 00 	lea    0x11550(%rip),%rax        # 14151 <_ZStL8__ioinit>
    2c01:	48 89 c7             	mov    %rax,%rdi
    2c04:	e8 87 fa ff ff       	call   2690 <_ZNSt8ios_base4InitC1Ev@plt>
    2c09:	48 8d 05 f8 13 01 00 	lea    0x113f8(%rip),%rax        # 14008 <__dso_handle>
    2c10:	48 89 c2             	mov    %rax,%rdx
    2c13:	48 8d 05 37 15 01 00 	lea    0x11537(%rip),%rax        # 14151 <_ZStL8__ioinit>
    2c1a:	48 89 c6             	mov    %rax,%rsi
    2c1d:	48 8b 05 d4 13 01 00 	mov    0x113d4(%rip),%rax        # 13ff8 <_ZNSt8ios_base4InitD1Ev@GLIBCXX_3.4>
    2c24:	48 89 c7             	mov    %rax,%rdi
    2c27:	e8 f4 f8 ff ff       	call   2520 <__cxa_atexit@plt>
    2c2c:	90                   	nop
    2c2d:	c9                   	leave  
    2c2e:	c3                   	ret    

0000000000002c2f <_GLOBAL__sub_I__ZN15annealer_thread3RunEv>:
    2c2f:	f3 0f 1e fa          	endbr64 
    2c33:	55                   	push   %rbp
    2c34:	48 89 e5             	mov    %rsp,%rbp
    2c37:	be ff ff 00 00       	mov    $0xffff,%esi
    2c3c:	bf 01 00 00 00       	mov    $0x1,%edi
    2c41:	e8 93 ff ff ff       	call   2bd9 <_Z41__static_initialization_and_destruction_0ii>
    2c46:	5d                   	pop    %rbp
    2c47:	c3                   	ret    

0000000000002c48 <_ZL20atomic_load_acq_longPVm>:
    2c48:	55                   	push   %rbp
    2c49:	48 89 e5             	mov    %rsp,%rbp
    2c4c:	48 89 7d e8          	mov    %rdi,-0x18(%rbp)
    2c50:	48 8b 55 e8          	mov    -0x18(%rbp),%rdx
    2c54:	48 8b 45 e8          	mov    -0x18(%rbp),%rax
    2c58:	f0 48 0f b1 02       	lock cmpxchg %rax,(%rdx)
    2c5d:	48 89 45 f8          	mov    %rax,-0x8(%rbp)
    2c61:	48 8b 45 f8          	mov    -0x8(%rbp),%rax
    2c65:	5d                   	pop    %rbp
    2c66:	c3                   	ret    
    2c67:	90                   	nop

0000000000002c68 <_ZNK6MTRand5hiBitERKm>:
    2c68:	f3 0f 1e fa          	endbr64 
    2c6c:	55                   	push   %rbp
    2c6d:	48 89 e5             	mov    %rsp,%rbp
    2c70:	48 89 7d f8          	mov    %rdi,-0x8(%rbp)
    2c74:	48 89 75 f0          	mov    %rsi,-0x10(%rbp)
    2c78:	48 8b 45 f0          	mov    -0x10(%rbp),%rax
    2c7c:	48 8b 00             	mov    (%rax),%rax
    2c7f:	25 00 00 00 80       	and    $0x80000000,%eax
    2c84:	5d                   	pop    %rbp
    2c85:	c3                   	ret    

0000000000002c86 <_ZNK6MTRand5loBitERKm>:
    2c86:	f3 0f 1e fa          	endbr64 
    2c8a:	55                   	push   %rbp
    2c8b:	48 89 e5             	mov    %rsp,%rbp
    2c8e:	48 89 7d f8          	mov    %rdi,-0x8(%rbp)
    2c92:	48 89 75 f0          	mov    %rsi,-0x10(%rbp)
    2c96:	48 8b 45 f0          	mov    -0x10(%rbp),%rax
    2c9a:	48 8b 00             	mov    (%rax),%rax
    2c9d:	83 e0 01             	and    $0x1,%eax
    2ca0:	5d                   	pop    %rbp
    2ca1:	c3                   	ret    

0000000000002ca2 <_ZNK6MTRand6loBitsERKm>:
    2ca2:	f3 0f 1e fa          	endbr64 
    2ca6:	55                   	push   %rbp
    2ca7:	48 89 e5             	mov    %rsp,%rbp
    2caa:	48 89 7d f8          	mov    %rdi,-0x8(%rbp)
    2cae:	48 89 75 f0          	mov    %rsi,-0x10(%rbp)
    2cb2:	48 8b 45 f0          	mov    -0x10(%rbp),%rax
    2cb6:	48 8b 00             	mov    (%rax),%rax
    2cb9:	25 ff ff ff 7f       	and    $0x7fffffff,%eax
    2cbe:	5d                   	pop    %rbp
    2cbf:	c3                   	ret    

0000000000002cc0 <_ZNK6MTRand7mixBitsERKmS1_>:
    2cc0:	f3 0f 1e fa          	endbr64 
    2cc4:	55                   	push   %rbp
    2cc5:	48 89 e5             	mov    %rsp,%rbp
    2cc8:	53                   	push   %rbx
    2cc9:	48 83 ec 28          	sub    $0x28,%rsp
    2ccd:	48 89 7d e8          	mov    %rdi,-0x18(%rbp)
    2cd1:	48 89 75 e0          	mov    %rsi,-0x20(%rbp)
    2cd5:	48 89 55 d8          	mov    %rdx,-0x28(%rbp)
    2cd9:	48 8b 55 e0          	mov    -0x20(%rbp),%rdx
    2cdd:	48 8b 45 e8          	mov    -0x18(%rbp),%rax
    2ce1:	48 89 d6             	mov    %rdx,%rsi
    2ce4:	48 89 c7             	mov    %rax,%rdi
    2ce7:	e8 7c ff ff ff       	call   2c68 <_ZNK6MTRand5hiBitERKm>
    2cec:	48 89 c3             	mov    %rax,%rbx
    2cef:	48 8b 55 d8          	mov    -0x28(%rbp),%rdx
    2cf3:	48 8b 45 e8          	mov    -0x18(%rbp),%rax
    2cf7:	48 89 d6             	mov    %rdx,%rsi
    2cfa:	48 89 c7             	mov    %rax,%rdi
    2cfd:	e8 a0 ff ff ff       	call   2ca2 <_ZNK6MTRand6loBitsERKm>
    2d02:	48 09 d8             	or     %rbx,%rax
    2d05:	48 8b 5d f8          	mov    -0x8(%rbp),%rbx
    2d09:	c9                   	leave  
    2d0a:	c3                   	ret    
    2d0b:	90                   	nop

0000000000002d0c <_ZNK6MTRand5twistERKmS1_S1_>:
    2d0c:	f3 0f 1e fa          	endbr64 
    2d10:	55                   	push   %rbp
    2d11:	48 89 e5             	mov    %rsp,%rbp
    2d14:	53                   	push   %rbx
    2d15:	48 83 ec 28          	sub    $0x28,%rsp
    2d19:	48 89 7d e8          	mov    %rdi,-0x18(%rbp)
    2d1d:	48 89 75 e0          	mov    %rsi,-0x20(%rbp)
    2d21:	48 89 55 d8          	mov    %rdx,-0x28(%rbp)
    2d25:	48 89 4d d0          	mov    %rcx,-0x30(%rbp)
    2d29:	48 8b 45 e0          	mov    -0x20(%rbp),%rax
    2d2d:	48 8b 18             	mov    (%rax),%rbx
    2d30:	48 8b 55 d0          	mov    -0x30(%rbp),%rdx
    2d34:	48 8b 4d d8          	mov    -0x28(%rbp),%rcx
    2d38:	48 8b 45 e8          	mov    -0x18(%rbp),%rax
    2d3c:	48 89 ce             	mov    %rcx,%rsi
    2d3f:	48 89 c7             	mov    %rax,%rdi
    2d42:	e8 79 ff ff ff       	call   2cc0 <_ZNK6MTRand7mixBitsERKmS1_>
    2d47:	48 d1 e8             	shr    %rax
    2d4a:	48 31 c3             	xor    %rax,%rbx
    2d4d:	48 8b 55 d0          	mov    -0x30(%rbp),%rdx
    2d51:	48 8b 45 e8          	mov    -0x18(%rbp),%rax
    2d55:	48 89 d6             	mov    %rdx,%rsi
    2d58:	48 89 c7             	mov    %rax,%rdi
    2d5b:	e8 26 ff ff ff       	call   2c86 <_ZNK6MTRand5loBitERKm>
    2d60:	48 f7 d8             	neg    %rax
    2d63:	25 df b0 08 99       	and    $0x9908b0df,%eax
    2d68:	48 31 d8             	xor    %rbx,%rax
    2d6b:	48 8b 5d f8          	mov    -0x8(%rbp),%rbx
    2d6f:	c9                   	leave  
    2d70:	c3                   	ret    
    2d71:	90                   	nop

0000000000002d72 <_ZN6MTRandC1ERKm>:
    2d72:	f3 0f 1e fa          	endbr64 
    2d76:	55                   	push   %rbp
    2d77:	48 89 e5             	mov    %rsp,%rbp
    2d7a:	48 83 ec 10          	sub    $0x10,%rsp
    2d7e:	48 89 7d f8          	mov    %rdi,-0x8(%rbp)
    2d82:	48 89 75 f0          	mov    %rsi,-0x10(%rbp)
    2d86:	48 8b 45 f0          	mov    -0x10(%rbp),%rax
    2d8a:	48 8b 10             	mov    (%rax),%rdx
    2d8d:	48 8b 45 f8          	mov    -0x8(%rbp),%rax
    2d91:	48 89 d6             	mov    %rdx,%rsi
    2d94:	48 89 c7             	mov    %rax,%rdi
    2d97:	e8 04 00 00 00       	call   2da0 <_ZN6MTRand4seedEm>
    2d9c:	90                   	nop
    2d9d:	c9                   	leave  
    2d9e:	c3                   	ret    
    2d9f:	90                   	nop

0000000000002da0 <_ZN6MTRand4seedEm>:
    2da0:	f3 0f 1e fa          	endbr64 
    2da4:	55                   	push   %rbp
    2da5:	48 89 e5             	mov    %rsp,%rbp
    2da8:	48 83 ec 10          	sub    $0x10,%rsp
    2dac:	48 89 7d f8          	mov    %rdi,-0x8(%rbp)
    2db0:	48 89 75 f0          	mov    %rsi,-0x10(%rbp)
    2db4:	48 8b 55 f0          	mov    -0x10(%rbp),%rdx
    2db8:	48 8b 45 f8          	mov    -0x8(%rbp),%rax
    2dbc:	48 89 d6             	mov    %rdx,%rsi
    2dbf:	48 89 c7             	mov    %rax,%rdi
    2dc2:	e8 0f 00 00 00       	call   2dd6 <_ZN6MTRand10initializeEm>
    2dc7:	48 8b 45 f8          	mov    -0x8(%rbp),%rax
    2dcb:	48 89 c7             	mov    %rax,%rdi
    2dce:	e8 7b 00 00 00       	call   2e4e <_ZN6MTRand6reloadEv>
    2dd3:	90                   	nop
    2dd4:	c9                   	leave  
    2dd5:	c3                   	ret    

0000000000002dd6 <_ZN6MTRand10initializeEm>:
    2dd6:	f3 0f 1e fa          	endbr64 
    2dda:	55                   	push   %rbp
    2ddb:	48 89 e5             	mov    %rsp,%rbp
    2dde:	41 55                	push   %r13
    2de0:	41 54                	push   %r12
    2de2:	53                   	push   %rbx
    2de3:	48 89 7d e0          	mov    %rdi,-0x20(%rbp)
    2de7:	48 89 75 d8          	mov    %rsi,-0x28(%rbp)
    2deb:	48 8b 5d e0          	mov    -0x20(%rbp),%rbx
    2def:	4c 8b 65 e0          	mov    -0x20(%rbp),%r12
    2df3:	41 bd 01 00 00 00    	mov    $0x1,%r13d
    2df9:	48 8b 45 d8          	mov    -0x28(%rbp),%rax
    2dfd:	89 c2                	mov    %eax,%edx
    2dff:	48 89 d8             	mov    %rbx,%rax
    2e02:	48 8d 58 08          	lea    0x8(%rax),%rbx
    2e06:	48 89 10             	mov    %rdx,(%rax)
    2e09:	eb 30                	jmp    2e3b <_ZN6MTRand10initializeEm+0x65>
    2e0b:	49 8b 14 24          	mov    (%r12),%rdx
    2e0f:	49 8b 04 24          	mov    (%r12),%rax
    2e13:	48 c1 e8 1e          	shr    $0x1e,%rax
    2e17:	48 31 d0             	xor    %rdx,%rax
    2e1a:	48 69 d0 65 89 07 6c 	imul   $0x6c078965,%rax,%rdx
    2e21:	49 63 c5             	movslq %r13d,%rax
    2e24:	48 01 d0             	add    %rdx,%rax
    2e27:	89 c2                	mov    %eax,%edx
    2e29:	48 89 d8             	mov    %rbx,%rax
    2e2c:	48 8d 58 08          	lea    0x8(%rax),%rbx
    2e30:	48 89 10             	mov    %rdx,(%rax)
    2e33:	49 83 c4 08          	add    $0x8,%r12
    2e37:	41 83 c5 01          	add    $0x1,%r13d
    2e3b:	41 81 fd 6f 02 00 00 	cmp    $0x26f,%r13d
    2e42:	7e c7                	jle    2e0b <_ZN6MTRand10initializeEm+0x35>
    2e44:	90                   	nop
    2e45:	90                   	nop
    2e46:	5b                   	pop    %rbx
    2e47:	41 5c                	pop    %r12
    2e49:	41 5d                	pop    %r13
    2e4b:	5d                   	pop    %rbp
    2e4c:	c3                   	ret    
    2e4d:	90                   	nop

0000000000002e4e <_ZN6MTRand6reloadEv>:
    2e4e:	f3 0f 1e fa          	endbr64 
    2e52:	55                   	push   %rbp
    2e53:	48 89 e5             	mov    %rsp,%rbp
    2e56:	41 54                	push   %r12
    2e58:	53                   	push   %rbx
    2e59:	48 83 ec 10          	sub    $0x10,%rsp
    2e5d:	48 89 7d e8          	mov    %rdi,-0x18(%rbp)
    2e61:	48 8b 5d e8          	mov    -0x18(%rbp),%rbx
    2e65:	41 bc e3 00 00 00    	mov    $0xe3,%r12d
    2e6b:	eb 24                	jmp    2e91 <_ZN6MTRand6reloadEv+0x43>
    2e6d:	48 8d 53 08          	lea    0x8(%rbx),%rdx
    2e71:	48 8d b3 68 0c 00 00 	lea    0xc68(%rbx),%rsi
    2e78:	48 8b 45 e8          	mov    -0x18(%rbp),%rax
    2e7c:	48 89 d1             	mov    %rdx,%rcx
    2e7f:	48 89 da             	mov    %rbx,%rdx
    2e82:	48 89 c7             	mov    %rax,%rdi
    2e85:	e8 82 fe ff ff       	call   2d0c <_ZNK6MTRand5twistERKmS1_S1_>
    2e8a:	48 89 03             	mov    %rax,(%rbx)
    2e8d:	48 83 c3 08          	add    $0x8,%rbx
    2e91:	44 89 e0             	mov    %r12d,%eax
    2e94:	44 8d 60 ff          	lea    -0x1(%rax),%r12d
    2e98:	85 c0                	test   %eax,%eax
    2e9a:	0f 95 c0             	setne  %al
    2e9d:	84 c0                	test   %al,%al
    2e9f:	75 cc                	jne    2e6d <_ZN6MTRand6reloadEv+0x1f>
    2ea1:	41 bc 8d 01 00 00    	mov    $0x18d,%r12d
    2ea7:	eb 24                	jmp    2ecd <_ZN6MTRand6reloadEv+0x7f>
    2ea9:	48 8d 53 08          	lea    0x8(%rbx),%rdx
    2ead:	48 8d b3 e8 f8 ff ff 	lea    -0x718(%rbx),%rsi
    2eb4:	48 8b 45 e8          	mov    -0x18(%rbp),%rax
    2eb8:	48 89 d1             	mov    %rdx,%rcx
    2ebb:	48 89 da             	mov    %rbx,%rdx
    2ebe:	48 89 c7             	mov    %rax,%rdi
    2ec1:	e8 46 fe ff ff       	call   2d0c <_ZNK6MTRand5twistERKmS1_S1_>
    2ec6:	48 89 03             	mov    %rax,(%rbx)
    2ec9:	48 83 c3 08          	add    $0x8,%rbx
    2ecd:	41 83 ec 01          	sub    $0x1,%r12d
    2ed1:	45 85 e4             	test   %r12d,%r12d
    2ed4:	0f 95 c0             	setne  %al
    2ed7:	84 c0                	test   %al,%al
    2ed9:	75 ce                	jne    2ea9 <_ZN6MTRand6reloadEv+0x5b>
    2edb:	48 8b 55 e8          	mov    -0x18(%rbp),%rdx
    2edf:	48 8d b3 e8 f8 ff ff 	lea    -0x718(%rbx),%rsi
    2ee6:	48 8b 45 e8          	mov    -0x18(%rbp),%rax
    2eea:	48 89 d1             	mov    %rdx,%rcx
    2eed:	48 89 da             	mov    %rbx,%rdx
    2ef0:	48 89 c7             	mov    %rax,%rdi
    2ef3:	e8 14 fe ff ff       	call   2d0c <_ZNK6MTRand5twistERKmS1_S1_>
    2ef8:	48 89 03             	mov    %rax,(%rbx)
    2efb:	48 8b 45 e8          	mov    -0x18(%rbp),%rax
    2eff:	c7 80 88 13 00 00 70 	movl   $0x270,0x1388(%rax)
    2f06:	02 00 00 
    2f09:	48 8b 55 e8          	mov    -0x18(%rbp),%rdx
    2f0d:	48 8b 45 e8          	mov    -0x18(%rbp),%rax
    2f11:	48 89 90 80 13 00 00 	mov    %rdx,0x1380(%rax)
    2f18:	90                   	nop
    2f19:	48 83 c4 10          	add    $0x10,%rsp
    2f1d:	5b                   	pop    %rbx
    2f1e:	41 5c                	pop    %r12
    2f20:	5d                   	pop    %rbp
    2f21:	c3                   	ret    

0000000000002f22 <_ZN3RngC1Ev>:
    2f22:	f3 0f 1e fa          	endbr64 
    2f26:	55                   	push   %rbp
    2f27:	48 89 e5             	mov    %rsp,%rbp
    2f2a:	41 54                	push   %r12
    2f2c:	53                   	push   %rbx
    2f2d:	48 83 ec 20          	sub    $0x20,%rsp
    2f31:	48 89 7d d8          	mov    %rdi,-0x28(%rbp)
    2f35:	64 48 8b 04 25 28 00 	mov    %fs:0x28,%rax
    2f3c:	00 00 
    2f3e:	48 89 45 e8          	mov    %rax,-0x18(%rbp)
    2f42:	31 c0                	xor    %eax,%eax
    2f44:	48 8d 05 35 12 01 00 	lea    0x11235(%rip),%rax        # 14180 <_ZN3Rng9seed_lockE>
    2f4b:	48 89 c7             	mov    %rax,%rdi
    2f4e:	e8 0d f7 ff ff       	call   2660 <pthread_mutex_lock@plt>
    2f53:	8b 05 07 12 01 00    	mov    0x11207(%rip),%eax        # 14160 <_ZN3Rng4seedE>
    2f59:	8d 50 01             	lea    0x1(%rax),%edx
    2f5c:	89 15 fe 11 01 00    	mov    %edx,0x111fe(%rip)        # 14160 <_ZN3Rng4seedE>
    2f62:	89 c0                	mov    %eax,%eax
    2f64:	48 89 45 e0          	mov    %rax,-0x20(%rbp)
    2f68:	48 8d 5d e0          	lea    -0x20(%rbp),%rbx
    2f6c:	bf 90 13 00 00       	mov    $0x1390,%edi
    2f71:	e8 ea f5 ff ff       	call   2560 <_Znwm@plt>
    2f76:	49 89 c4             	mov    %rax,%r12
    2f79:	48 89 de             	mov    %rbx,%rsi
    2f7c:	4c 89 e7             	mov    %r12,%rdi
    2f7f:	e8 ee fd ff ff       	call   2d72 <_ZN6MTRandC1ERKm>
    2f84:	48 8b 45 d8          	mov    -0x28(%rbp),%rax
    2f88:	4c 89 20             	mov    %r12,(%rax)
    2f8b:	48 8d 05 ee 11 01 00 	lea    0x111ee(%rip),%rax        # 14180 <_ZN3Rng9seed_lockE>
    2f92:	48 89 c7             	mov    %rax,%rdi
    2f95:	e8 46 f5 ff ff       	call   24e0 <pthread_mutex_unlock@plt>
    2f9a:	90                   	nop
    2f9b:	48 8b 45 e8          	mov    -0x18(%rbp),%rax
    2f9f:	64 48 2b 04 25 28 00 	sub    %fs:0x28,%rax
    2fa6:	00 00 
    2fa8:	74 05                	je     2faf <_ZN3RngC1Ev+0x8d>
    2faa:	e8 51 f6 ff ff       	call   2600 <__stack_chk_fail@plt>
    2faf:	48 83 c4 20          	add    $0x20,%rsp
    2fb3:	5b                   	pop    %rbx
    2fb4:	41 5c                	pop    %r12
    2fb6:	5d                   	pop    %rbp
    2fb7:	c3                   	ret    

0000000000002fb8 <_ZN3RngD1Ev>:
    2fb8:	f3 0f 1e fa          	endbr64 
    2fbc:	55                   	push   %rbp
    2fbd:	48 89 e5             	mov    %rsp,%rbp
    2fc0:	48 83 ec 10          	sub    $0x10,%rsp
    2fc4:	48 89 7d f8          	mov    %rdi,-0x8(%rbp)
    2fc8:	48 8b 45 f8          	mov    -0x8(%rbp),%rax
    2fcc:	48 8b 00             	mov    (%rax),%rax
    2fcf:	48 85 c0             	test   %rax,%rax
    2fd2:	74 0d                	je     2fe1 <_ZN3RngD1Ev+0x29>
    2fd4:	be 90 13 00 00       	mov    $0x1390,%esi
    2fd9:	48 89 c7             	mov    %rax,%rdi
    2fdc:	e8 8f f5 ff ff       	call   2570 <_ZdlPvm@plt>
    2fe1:	90                   	nop
    2fe2:	c9                   	leave  
    2fe3:	c3                   	ret    

0000000000002fe4 <_ZNK7threads9AtomicPtrI10location_tE3GetEv>:
    2fe4:	f3 0f 1e fa          	endbr64 
    2fe8:	55                   	push   %rbp
    2fe9:	48 89 e5             	mov    %rsp,%rbp
    2fec:	48 83 ec 18          	sub    $0x18,%rsp
    2ff0:	48 89 7d e8          	mov    %rdi,-0x18(%rbp)
    2ff4:	48 8b 45 e8          	mov    -0x18(%rbp),%rax
    2ff8:	48 89 c7             	mov    %rax,%rdi
    2ffb:	e8 48 fc ff ff       	call   2c48 <_ZL20atomic_load_acq_longPVm>
    3000:	48 89 45 f8          	mov    %rax,-0x8(%rbp)
    3004:	48 8b 05 05 10 01 00 	mov    0x11005(%rip),%rax        # 14010 <_ZN7threads9AtomicPtrI10location_tE11ATOMIC_NULLE>
    300b:	48 39 45 f8          	cmp    %rax,-0x8(%rbp)
    300f:	74 e3                	je     2ff4 <_ZNK7threads9AtomicPtrI10location_tE3GetEv+0x10>
    3011:	48 8b 45 f8          	mov    -0x8(%rbp),%rax
    3015:	c9                   	leave  
    3016:	c3                   	ret    

0000000000003017 <main>:
    3017:	f3 0f 1e fa          	endbr64 
    301b:	55                   	push   %rbp
    301c:	48 89 e5             	mov    %rsp,%rbp
    301f:	53                   	push   %rbx
    3020:	48 81 ec 38 01 00 00 	sub    $0x138,%rsp
    3027:	89 bd cc fe ff ff    	mov    %edi,-0x134(%rbp)
    302d:	48 89 b5 c0 fe ff ff 	mov    %rsi,-0x140(%rbp)
    3034:	64 48 8b 04 25 28 00 	mov    %fs:0x28,%rax
    303b:	00 00 
    303d:	48 89 45 e8          	mov    %rax,-0x18(%rbp)
    3041:	31 c0                	xor    %eax,%eax
    3043:	48 8d 05 ee 9f 00 00 	lea    0x9fee(%rip),%rax        # d038 <_ZL19NO_MATCHING_ELEMENT+0x8>
    304a:	48 89 c6             	mov    %rax,%rsi
    304d:	48 8d 05 ec 0f 01 00 	lea    0x10fec(%rip),%rax        # 14040 <_ZSt4cout@GLIBCXX_3.4>
    3054:	48 89 c7             	mov    %rax,%rdi
    3057:	e8 f4 f4 ff ff       	call   2550 <_ZStlsISt11char_traitsIcEERSt13basic_ostreamIcT_ES5_PKc@plt>
    305c:	48 8b 15 65 0f 01 00 	mov    0x10f65(%rip),%rdx        # 13fc8 <_ZSt4endlIcSt11char_traitsIcEERSt13basic_ostreamIT_T0_ES6_@GLIBCXX_3.4>
    3063:	48 89 d6             	mov    %rdx,%rsi
    3066:	48 89 c7             	mov    %rax,%rdi
    3069:	e8 32 f5 ff ff       	call   25a0 <_ZNSolsEPFRSoS_E@plt>
    306e:	48 8b 15 63 0f 01 00 	mov    0x10f63(%rip),%rdx        # 13fd8 <_ZSt5flushIcSt11char_traitsIcEERSt13basic_ostreamIT_T0_ES6_@GLIBCXX_3.4>
    3075:	48 89 d6             	mov    %rdx,%rsi
    3078:	48 89 c7             	mov    %rax,%rdi
    307b:	e8 20 f5 ff ff       	call   25a0 <_ZNSolsEPFRSoS_E@plt>
    3080:	bf 03 00 00 00       	mov    $0x3,%edi
    3085:	e8 86 f3 ff ff       	call   2410 <srandom@plt>
    308a:	83 bd cc fe ff ff 05 	cmpl   $0x5,-0x134(%rbp)
    3091:	74 6b                	je     30fe <main+0xe7>
    3093:	83 bd cc fe ff ff 06 	cmpl   $0x6,-0x134(%rbp)
    309a:	74 62                	je     30fe <main+0xe7>
    309c:	48 8d 05 c6 9f 00 00 	lea    0x9fc6(%rip),%rax        # d069 <_ZL19NO_MATCHING_ELEMENT+0x39>
    30a3:	48 89 c6             	mov    %rax,%rsi
    30a6:	48 8d 05 93 0f 01 00 	lea    0x10f93(%rip),%rax        # 14040 <_ZSt4cout@GLIBCXX_3.4>
    30ad:	48 89 c7             	mov    %rax,%rdi
    30b0:	e8 9b f4 ff ff       	call   2550 <_ZStlsISt11char_traitsIcEERSt13basic_ostreamIcT_ES5_PKc@plt>
    30b5:	48 89 c2             	mov    %rax,%rdx
    30b8:	48 8b 85 c0 fe ff ff 	mov    -0x140(%rbp),%rax
    30bf:	48 8b 00             	mov    (%rax),%rax
    30c2:	48 89 c6             	mov    %rax,%rsi
    30c5:	48 89 d7             	mov    %rdx,%rdi
    30c8:	e8 83 f4 ff ff       	call   2550 <_ZStlsISt11char_traitsIcEERSt13basic_ostreamIcT_ES5_PKc@plt>
    30cd:	48 89 c2             	mov    %rax,%rdx
    30d0:	48 8d 05 a1 9f 00 00 	lea    0x9fa1(%rip),%rax        # d078 <_ZL19NO_MATCHING_ELEMENT+0x48>
    30d7:	48 89 c6             	mov    %rax,%rsi
    30da:	48 89 d7             	mov    %rdx,%rdi
    30dd:	e8 6e f4 ff ff       	call   2550 <_ZStlsISt11char_traitsIcEERSt13basic_ostreamIcT_ES5_PKc@plt>
    30e2:	48 8b 15 df 0e 01 00 	mov    0x10edf(%rip),%rdx        # 13fc8 <_ZSt4endlIcSt11char_traitsIcEERSt13basic_ostreamIT_T0_ES6_@GLIBCXX_3.4>
    30e9:	48 89 d6             	mov    %rdx,%rsi
    30ec:	48 89 c7             	mov    %rax,%rdi
    30ef:	e8 ac f4 ff ff       	call   25a0 <_ZNSolsEPFRSoS_E@plt>
    30f4:	bf 01 00 00 00       	mov    $0x1,%edi
    30f9:	e8 22 f5 ff ff       	call   2620 <exit@plt>
    30fe:	48 8b 85 c0 fe ff ff 	mov    -0x140(%rbp),%rax
    3105:	48 83 c0 08          	add    $0x8,%rax
    3109:	48 8b 00             	mov    (%rax),%rax
    310c:	48 89 c7             	mov    %rax,%rdi
    310f:	e8 8c f5 ff ff       	call   26a0 <atoi@plt>
    3114:	89 85 ec fe ff ff    	mov    %eax,-0x114(%rbp)
    311a:	48 8d 05 7e 9f 00 00 	lea    0x9f7e(%rip),%rax        # d09f <_ZL19NO_MATCHING_ELEMENT+0x6f>
    3121:	48 89 c6             	mov    %rax,%rsi
    3124:	48 8d 05 15 0f 01 00 	lea    0x10f15(%rip),%rax        # 14040 <_ZSt4cout@GLIBCXX_3.4>
    312b:	48 89 c7             	mov    %rax,%rdi
    312e:	e8 1d f4 ff ff       	call   2550 <_ZStlsISt11char_traitsIcEERSt13basic_ostreamIcT_ES5_PKc@plt>
    3133:	48 89 c2             	mov    %rax,%rdx
    3136:	8b 85 ec fe ff ff    	mov    -0x114(%rbp),%eax
    313c:	89 c6                	mov    %eax,%esi
    313e:	48 89 d7             	mov    %rdx,%rdi
    3141:	e8 8a f5 ff ff       	call   26d0 <_ZNSolsEi@plt>
    3146:	48 8b 15 7b 0e 01 00 	mov    0x10e7b(%rip),%rdx        # 13fc8 <_ZSt4endlIcSt11char_traitsIcEERSt13basic_ostreamIT_T0_ES6_@GLIBCXX_3.4>
    314d:	48 89 d6             	mov    %rdx,%rsi
    3150:	48 89 c7             	mov    %rax,%rdi
    3153:	e8 48 f4 ff ff       	call   25a0 <_ZNSolsEPFRSoS_E@plt>
    3158:	48 8b 85 c0 fe ff ff 	mov    -0x140(%rbp),%rax
    315f:	48 83 c0 10          	add    $0x10,%rax
    3163:	48 8b 00             	mov    (%rax),%rax
    3166:	48 89 c7             	mov    %rax,%rdi
    3169:	e8 32 f5 ff ff       	call   26a0 <atoi@plt>
    316e:	89 85 f0 fe ff ff    	mov    %eax,-0x110(%rbp)
    3174:	8b 85 f0 fe ff ff    	mov    -0x110(%rbp),%eax
    317a:	89 c6                	mov    %eax,%esi
    317c:	48 8d 05 bd 0e 01 00 	lea    0x10ebd(%rip),%rax        # 14040 <_ZSt4cout@GLIBCXX_3.4>
    3183:	48 89 c7             	mov    %rax,%rdi
    3186:	e8 45 f5 ff ff       	call   26d0 <_ZNSolsEi@plt>
    318b:	48 89 c2             	mov    %rax,%rdx
    318e:	48 8d 05 18 9f 00 00 	lea    0x9f18(%rip),%rax        # d0ad <_ZL19NO_MATCHING_ELEMENT+0x7d>
    3195:	48 89 c6             	mov    %rax,%rsi
    3198:	48 89 d7             	mov    %rdx,%rdi
    319b:	e8 b0 f3 ff ff       	call   2550 <_ZStlsISt11char_traitsIcEERSt13basic_ostreamIcT_ES5_PKc@plt>
    31a0:	48 8b 15 21 0e 01 00 	mov    0x10e21(%rip),%rdx        # 13fc8 <_ZSt4endlIcSt11char_traitsIcEERSt13basic_ostreamIT_T0_ES6_@GLIBCXX_3.4>
    31a7:	48 89 d6             	mov    %rdx,%rsi
    31aa:	48 89 c7             	mov    %rax,%rdi
    31ad:	e8 ee f3 ff ff       	call   25a0 <_ZNSolsEPFRSoS_E@plt>
    31b2:	48 8b 85 c0 fe ff ff 	mov    -0x140(%rbp),%rax
    31b9:	48 83 c0 18          	add    $0x18,%rax
    31bd:	48 8b 00             	mov    (%rax),%rax
    31c0:	48 89 c7             	mov    %rax,%rdi
    31c3:	e8 d8 f4 ff ff       	call   26a0 <atoi@plt>
    31c8:	89 85 f4 fe ff ff    	mov    %eax,-0x10c(%rbp)
    31ce:	48 8d 05 f4 9e 00 00 	lea    0x9ef4(%rip),%rax        # d0c9 <_ZL19NO_MATCHING_ELEMENT+0x99>
    31d5:	48 89 c6             	mov    %rax,%rsi
    31d8:	48 8d 05 61 0e 01 00 	lea    0x10e61(%rip),%rax        # 14040 <_ZSt4cout@GLIBCXX_3.4>
    31df:	48 89 c7             	mov    %rax,%rdi
    31e2:	e8 69 f3 ff ff       	call   2550 <_ZStlsISt11char_traitsIcEERSt13basic_ostreamIcT_ES5_PKc@plt>
    31e7:	48 89 c2             	mov    %rax,%rdx
    31ea:	8b 85 f4 fe ff ff    	mov    -0x10c(%rbp),%eax
    31f0:	89 c6                	mov    %eax,%esi
    31f2:	48 89 d7             	mov    %rdx,%rdi
    31f5:	e8 d6 f4 ff ff       	call   26d0 <_ZNSolsEi@plt>
    31fa:	48 8b 15 c7 0d 01 00 	mov    0x10dc7(%rip),%rdx        # 13fc8 <_ZSt4endlIcSt11char_traitsIcEERSt13basic_ostreamIT_T0_ES6_@GLIBCXX_3.4>
    3201:	48 89 d6             	mov    %rdx,%rsi
    3204:	48 89 c7             	mov    %rax,%rdi
    3207:	e8 94 f3 ff ff       	call   25a0 <_ZNSolsEPFRSoS_E@plt>
    320c:	48 8d 85 20 ff ff ff 	lea    -0xe0(%rbp),%rax
    3213:	48 89 c7             	mov    %rax,%rdi
    3216:	e8 c5 f4 ff ff       	call   26e0 <_ZNSaIcEC1Ev@plt>
    321b:	48 8b 85 c0 fe ff ff 	mov    -0x140(%rbp),%rax
    3222:	48 83 c0 20          	add    $0x20,%rax
    3226:	48 8b 08             	mov    (%rax),%rcx
    3229:	48 8d 95 20 ff ff ff 	lea    -0xe0(%rbp),%rdx
    3230:	48 8d 45 90          	lea    -0x70(%rbp),%rax
    3234:	48 89 ce             	mov    %rcx,%rsi
    3237:	48 89 c7             	mov    %rax,%rdi
    323a:	e8 2b 05 00 00       	call   376a <_ZNSt7__cxx1112basic_stringIcSt11char_traitsIcESaIcEEC1IS3_EEPKcRKS3_>
    323f:	48 8d 85 20 ff ff ff 	lea    -0xe0(%rbp),%rax
    3246:	48 89 c7             	mov    %rax,%rdi
    3249:	e8 72 f3 ff ff       	call   25c0 <_ZNSaIcED1Ev@plt>
    324e:	48 8d 05 88 9e 00 00 	lea    0x9e88(%rip),%rax        # d0dd <_ZL19NO_MATCHING_ELEMENT+0xad>
    3255:	48 89 c6             	mov    %rax,%rsi
    3258:	48 8d 05 e1 0d 01 00 	lea    0x10de1(%rip),%rax        # 14040 <_ZSt4cout@GLIBCXX_3.4>
    325f:	48 89 c7             	mov    %rax,%rdi
    3262:	e8 e9 f2 ff ff       	call   2550 <_ZStlsISt11char_traitsIcEERSt13basic_ostreamIcT_ES5_PKc@plt>
    3267:	48 89 c2             	mov    %rax,%rdx
    326a:	48 8d 45 90          	lea    -0x70(%rbp),%rax
    326e:	48 89 c6             	mov    %rax,%rsi
    3271:	48 89 d7             	mov    %rdx,%rdi
    3274:	e8 b7 f2 ff ff       	call   2530 <_ZStlsIcSt11char_traitsIcESaIcEERSt13basic_ostreamIT_T0_ES7_RKNSt7__cxx1112basic_stringIS4_S5_T1_EE@plt>
    3279:	48 8b 15 48 0d 01 00 	mov    0x10d48(%rip),%rdx        # 13fc8 <_ZSt4endlIcSt11char_traitsIcEERSt13basic_ostreamIT_T0_ES6_@GLIBCXX_3.4>
    3280:	48 89 d6             	mov    %rdx,%rsi
    3283:	48 89 c7             	mov    %rax,%rdi
    3286:	e8 15 f3 ff ff       	call   25a0 <_ZNSolsEPFRSoS_E@plt>
    328b:	c7 85 e0 fe ff ff ff 	movl   $0xffffffff,-0x120(%rbp)
    3292:	ff ff ff 
    3295:	83 bd cc fe ff ff 06 	cmpl   $0x6,-0x134(%rbp)
    329c:	75 5a                	jne    32f8 <main+0x2e1>
    329e:	48 8b 85 c0 fe ff ff 	mov    -0x140(%rbp),%rax
    32a5:	48 83 c0 28          	add    $0x28,%rax
    32a9:	48 8b 00             	mov    (%rax),%rax
    32ac:	48 89 c7             	mov    %rax,%rdi
    32af:	e8 ec f3 ff ff       	call   26a0 <atoi@plt>
    32b4:	89 85 e0 fe ff ff    	mov    %eax,-0x120(%rbp)
    32ba:	48 8d 05 2f 9e 00 00 	lea    0x9e2f(%rip),%rax        # d0f0 <_ZL19NO_MATCHING_ELEMENT+0xc0>
    32c1:	48 89 c6             	mov    %rax,%rsi
    32c4:	48 8d 05 75 0d 01 00 	lea    0x10d75(%rip),%rax        # 14040 <_ZSt4cout@GLIBCXX_3.4>
    32cb:	48 89 c7             	mov    %rax,%rdi
    32ce:	e8 7d f2 ff ff       	call   2550 <_ZStlsISt11char_traitsIcEERSt13basic_ostreamIcT_ES5_PKc@plt>
    32d3:	48 89 c2             	mov    %rax,%rdx
    32d6:	8b 85 e0 fe ff ff    	mov    -0x120(%rbp),%eax
    32dc:	89 c6                	mov    %eax,%esi
    32de:	48 89 d7             	mov    %rdx,%rdi
    32e1:	e8 ea f3 ff ff       	call   26d0 <_ZNSolsEi@plt>
    32e6:	48 8b 15 db 0c 01 00 	mov    0x10cdb(%rip),%rdx        # 13fc8 <_ZSt4endlIcSt11char_traitsIcEERSt13basic_ostreamIT_T0_ES6_@GLIBCXX_3.4>
    32ed:	48 89 d6             	mov    %rdx,%rsi
    32f0:	48 89 c7             	mov    %rax,%rdi
    32f3:	e8 a8 f2 ff ff       	call   25a0 <_ZNSolsEPFRSoS_E@plt>
    32f8:	48 8d 55 90          	lea    -0x70(%rbp),%rdx
    32fc:	48 8d 85 20 ff ff ff 	lea    -0xe0(%rbp),%rax
    3303:	48 89 d6             	mov    %rdx,%rsi
    3306:	48 89 c7             	mov    %rax,%rdi
    3309:	e8 5a 1f 00 00       	call   5268 <_ZN7netlistC1ERKNSt7__cxx1112basic_stringIcSt11char_traitsIcESaIcEEE>
    330e:	44 8b 85 e0 fe ff ff 	mov    -0x120(%rbp),%r8d
    3315:	8b bd f4 fe ff ff    	mov    -0x10c(%rbp),%edi
    331b:	8b 8d f0 fe ff ff    	mov    -0x110(%rbp),%ecx
    3321:	8b 95 ec fe ff ff    	mov    -0x114(%rbp),%edx
    3327:	48 8d b5 20 ff ff ff 	lea    -0xe0(%rbp),%rsi
    332e:	48 8d 45 b0          	lea    -0x50(%rbp),%rax
    3332:	45 89 c1             	mov    %r8d,%r9d
    3335:	41 89 f8             	mov    %edi,%r8d
    3338:	48 89 c7             	mov    %rax,%rdi
    333b:	e8 9a 02 00 00       	call   35da <_ZN15annealer_threadC1EP7netlistiiii>
    3340:	48 8d 85 df fe ff ff 	lea    -0x121(%rbp),%rax
    3347:	48 89 c7             	mov    %rax,%rdi
    334a:	e8 ad 05 00 00       	call   38fc <_ZNSaImEC1Ev>
    334f:	8b 85 ec fe ff ff    	mov    -0x114(%rbp),%eax
    3355:	48 63 c8             	movslq %eax,%rcx
    3358:	48 8d 95 df fe ff ff 	lea    -0x121(%rbp),%rdx
    335f:	48 8d 85 00 ff ff ff 	lea    -0x100(%rbp),%rax
    3366:	48 89 ce             	mov    %rcx,%rsi
    3369:	48 89 c7             	mov    %rax,%rdi
    336c:	e8 cb 05 00 00       	call   393c <_ZNSt6vectorImSaImEEC1EmRKS0_>
    3371:	48 8d 85 df fe ff ff 	lea    -0x121(%rbp),%rax
    3378:	48 89 c7             	mov    %rax,%rdi
    337b:	e8 9c 05 00 00       	call   391c <_ZNSaImED1Ev>
    3380:	48 8d 45 b0          	lea    -0x50(%rbp),%rax
    3384:	48 89 85 f8 fe ff ff 	mov    %rax,-0x108(%rbp)
    338b:	c7 85 e4 fe ff ff 00 	movl   $0x0,-0x11c(%rbp)
    3392:	00 00 00 
    3395:	eb 43                	jmp    33da <main+0x3c3>
    3397:	8b 85 e4 fe ff ff    	mov    -0x11c(%rbp),%eax
    339d:	48 63 d0             	movslq %eax,%rdx
    33a0:	48 8d 85 00 ff ff ff 	lea    -0x100(%rbp),%rax
    33a7:	48 89 d6             	mov    %rdx,%rsi
    33aa:	48 89 c7             	mov    %rax,%rdi
    33ad:	e8 32 06 00 00       	call   39e4 <_ZNSt6vectorImSaImEEixEm>
    33b2:	48 89 c7             	mov    %rax,%rdi
    33b5:	48 8b 85 f8 fe ff ff 	mov    -0x108(%rbp),%rax
    33bc:	48 89 c1             	mov    %rax,%rcx
    33bf:	48 8d 05 14 01 00 00 	lea    0x114(%rip),%rax        # 34da <_Z8entry_ptPv>
    33c6:	48 89 c2             	mov    %rax,%rdx
    33c9:	be 00 00 00 00       	mov    $0x0,%esi
    33ce:	e8 3d f3 ff ff       	call   2710 <pthread_create@plt>
    33d3:	83 85 e4 fe ff ff 01 	addl   $0x1,-0x11c(%rbp)
    33da:	8b 85 e4 fe ff ff    	mov    -0x11c(%rbp),%eax
    33e0:	3b 85 ec fe ff ff    	cmp    -0x114(%rbp),%eax
    33e6:	7c af                	jl     3397 <main+0x380>
    33e8:	c7 85 e8 fe ff ff 00 	movl   $0x0,-0x118(%rbp)
    33ef:	00 00 00 
    33f2:	eb 32                	jmp    3426 <main+0x40f>
    33f4:	8b 85 e8 fe ff ff    	mov    -0x118(%rbp),%eax
    33fa:	48 63 d0             	movslq %eax,%rdx
    33fd:	48 8d 85 00 ff ff ff 	lea    -0x100(%rbp),%rax
    3404:	48 89 d6             	mov    %rdx,%rsi
    3407:	48 89 c7             	mov    %rax,%rdi
    340a:	e8 d5 05 00 00       	call   39e4 <_ZNSt6vectorImSaImEEixEm>
    340f:	48 8b 00             	mov    (%rax),%rax
    3412:	be 00 00 00 00       	mov    $0x0,%esi
    3417:	48 89 c7             	mov    %rax,%rdi
    341a:	e8 21 f1 ff ff       	call   2540 <pthread_join@plt>
    341f:	83 85 e8 fe ff ff 01 	addl   $0x1,-0x118(%rbp)
    3426:	8b 85 e8 fe ff ff    	mov    -0x118(%rbp),%eax
    342c:	3b 85 ec fe ff ff    	cmp    -0x114(%rbp),%eax
    3432:	7c c0                	jl     33f4 <main+0x3dd>
    3434:	48 8d 05 d3 9c 00 00 	lea    0x9cd3(%rip),%rax        # d10e <_ZL19NO_MATCHING_ELEMENT+0xde>
    343b:	48 89 c6             	mov    %rax,%rsi
    343e:	48 8d 05 fb 0b 01 00 	lea    0x10bfb(%rip),%rax        # 14040 <_ZSt4cout@GLIBCXX_3.4>
    3445:	48 89 c7             	mov    %rax,%rdi
    3448:	e8 03 f1 ff ff       	call   2550 <_ZStlsISt11char_traitsIcEERSt13basic_ostreamIcT_ES5_PKc@plt>
    344d:	48 89 c3             	mov    %rax,%rbx
    3450:	48 8d 85 20 ff ff ff 	lea    -0xe0(%rbp),%rax
    3457:	48 89 c7             	mov    %rax,%rdi
    345a:	e8 81 1a 00 00       	call   4ee0 <_ZN7netlist18total_routing_costEv>
    345f:	66 48 0f 7e c0       	movq   %xmm0,%rax
    3464:	66 48 0f 6e c0       	movq   %rax,%xmm0
    3469:	48 89 df             	mov    %rbx,%rdi
    346c:	e8 cf f2 ff ff       	call   2740 <_ZNSolsEd@plt>
    3471:	48 8b 15 50 0b 01 00 	mov    0x10b50(%rip),%rdx        # 13fc8 <_ZSt4endlIcSt11char_traitsIcEERSt13basic_ostreamIT_T0_ES6_@GLIBCXX_3.4>
    3478:	48 89 d6             	mov    %rdx,%rsi
    347b:	48 89 c7             	mov    %rax,%rdi
    347e:	e8 1d f1 ff ff       	call   25a0 <_ZNSolsEPFRSoS_E@plt>
    3483:	bb 00 00 00 00       	mov    $0x0,%ebx
    3488:	48 8d 85 00 ff ff ff 	lea    -0x100(%rbp),%rax
    348f:	48 89 c7             	mov    %rax,%rdi
    3492:	e8 05 05 00 00       	call   399c <_ZNSt6vectorImSaImEED1Ev>
    3497:	48 8d 45 b0          	lea    -0x50(%rbp),%rax
    349b:	48 89 c7             	mov    %rax,%rdi
    349e:	e8 ad 01 00 00       	call   3650 <_ZN15annealer_threadD1Ev>
    34a3:	48 8d 85 20 ff ff ff 	lea    -0xe0(%rbp),%rax
    34aa:	48 89 c7             	mov    %rax,%rdi
    34ad:	e8 e2 01 00 00       	call   3694 <_ZN7netlistD1Ev>
    34b2:	48 8d 45 90          	lea    -0x70(%rbp),%rax
    34b6:	48 89 c7             	mov    %rax,%rdi
    34b9:	e8 e2 ef ff ff       	call   24a0 <_ZNSt7__cxx1112basic_stringIcSt11char_traitsIcESaIcEED1Ev@plt>
    34be:	89 d8                	mov    %ebx,%eax
    34c0:	48 8b 55 e8          	mov    -0x18(%rbp),%rdx
    34c4:	64 48 2b 14 25 28 00 	sub    %fs:0x28,%rdx
    34cb:	00 00 
    34cd:	74 05                	je     34d4 <main+0x4bd>
    34cf:	e8 2c f1 ff ff       	call   2600 <__stack_chk_fail@plt>
    34d4:	48 8b 5d f8          	mov    -0x8(%rbp),%rbx
    34d8:	c9                   	leave  
    34d9:	c3                   	ret    

00000000000034da <_Z8entry_ptPv>:
    34da:	f3 0f 1e fa          	endbr64 
    34de:	55                   	push   %rbp
    34df:	48 89 e5             	mov    %rsp,%rbp
    34e2:	48 83 ec 20          	sub    $0x20,%rsp
    34e6:	48 89 7d e8          	mov    %rdi,-0x18(%rbp)
    34ea:	48 8b 45 e8          	mov    -0x18(%rbp),%rax
    34ee:	48 89 45 f8          	mov    %rax,-0x8(%rbp)
    34f2:	48 8b 45 f8          	mov    -0x8(%rbp),%rax
    34f6:	48 89 c7             	mov    %rax,%rdi
    34f9:	e8 4c f3 ff ff       	call   284a <_ZN15annealer_thread3RunEv>
    34fe:	b8 00 00 00 00       	mov    $0x0,%eax
    3503:	c9                   	leave  
    3504:	c3                   	ret    

0000000000003505 <_Z41__static_initialization_and_destruction_0ii>:
    3505:	f3 0f 1e fa          	endbr64 
    3509:	55                   	push   %rbp
    350a:	48 89 e5             	mov    %rsp,%rbp
    350d:	48 83 ec 10          	sub    $0x10,%rsp
    3511:	89 7d fc             	mov    %edi,-0x4(%rbp)
    3514:	89 75 f8             	mov    %esi,-0x8(%rbp)
    3517:	83 7d fc 01          	cmpl   $0x1,-0x4(%rbp)
    351b:	75 3b                	jne    3558 <_Z41__static_initialization_and_destruction_0ii+0x53>
    351d:	81 7d f8 ff ff 00 00 	cmpl   $0xffff,-0x8(%rbp)
    3524:	75 32                	jne    3558 <_Z41__static_initialization_and_destruction_0ii+0x53>
    3526:	48 8d 05 25 0c 01 00 	lea    0x10c25(%rip),%rax        # 14152 <_ZStL8__ioinit>
    352d:	48 89 c7             	mov    %rax,%rdi
    3530:	e8 5b f1 ff ff       	call   2690 <_ZNSt8ios_base4InitC1Ev@plt>
    3535:	48 8d 05 cc 0a 01 00 	lea    0x10acc(%rip),%rax        # 14008 <__dso_handle>
    353c:	48 89 c2             	mov    %rax,%rdx
    353f:	48 8d 05 0c 0c 01 00 	lea    0x10c0c(%rip),%rax        # 14152 <_ZStL8__ioinit>
    3546:	48 89 c6             	mov    %rax,%rsi
    3549:	48 8b 05 a8 0a 01 00 	mov    0x10aa8(%rip),%rax        # 13ff8 <_ZNSt8ios_base4InitD1Ev@GLIBCXX_3.4>
    3550:	48 89 c7             	mov    %rax,%rdi
    3553:	e8 c8 ef ff ff       	call   2520 <__cxa_atexit@plt>
    3558:	90                   	nop
    3559:	c9                   	leave  
    355a:	c3                   	ret    

000000000000355b <_GLOBAL__sub_I_main>:
    355b:	f3 0f 1e fa          	endbr64 
    355f:	55                   	push   %rbp
    3560:	48 89 e5             	mov    %rsp,%rbp
    3563:	be ff ff 00 00       	mov    $0xffff,%esi
    3568:	bf 01 00 00 00       	mov    $0x1,%edi
    356d:	e8 93 ff ff ff       	call   3505 <_Z41__static_initialization_and_destruction_0ii>
    3572:	5d                   	pop    %rbp
    3573:	c3                   	ret    

0000000000003574 <_ZnwmPv>:
    3574:	f3 0f 1e fa          	endbr64 
    3578:	55                   	push   %rbp
    3579:	48 89 e5             	mov    %rsp,%rbp
    357c:	48 89 7d f8          	mov    %rdi,-0x8(%rbp)
    3580:	48 89 75 f0          	mov    %rsi,-0x10(%rbp)
    3584:	48 8b 45 f0          	mov    -0x10(%rbp),%rax
    3588:	5d                   	pop    %rbp
    3589:	c3                   	ret    

000000000000358a <_ZSt17__size_to_integerm>:
    358a:	f3 0f 1e fa          	endbr64 
    358e:	55                   	push   %rbp
    358f:	48 89 e5             	mov    %rsp,%rbp
    3592:	48 89 7d f8          	mov    %rdi,-0x8(%rbp)
    3596:	48 8b 45 f8          	mov    -0x8(%rbp),%rax
    359a:	5d                   	pop    %rbp
    359b:	c3                   	ret    

000000000000359c <_ZNSt11char_traitsIcE6lengthEPKc>:
    359c:	f3 0f 1e fa          	endbr64 
    35a0:	55                   	push   %rbp
    35a1:	48 89 e5             	mov    %rsp,%rbp
    35a4:	48 83 ec 20          	sub    $0x20,%rsp
    35a8:	48 89 7d e8          	mov    %rdi,-0x18(%rbp)
    35ac:	48 8b 45 e8          	mov    -0x18(%rbp),%rax
    35b0:	48 89 45 f8          	mov    %rax,-0x8(%rbp)
    35b4:	b8 00 00 00 00       	mov    $0x0,%eax
    35b9:	84 c0                	test   %al,%al
    35bb:	74 0e                	je     35cb <_ZNSt11char_traitsIcE6lengthEPKc+0x2f>
    35bd:	48 8b 45 e8          	mov    -0x18(%rbp),%rax
    35c1:	48 89 c7             	mov    %rax,%rdi
    35c4:	e8 33 01 00 00       	call   36fc <_ZN9__gnu_cxx11char_traitsIcE6lengthEPKc>
    35c9:	eb 0d                	jmp    35d8 <_ZNSt11char_traitsIcE6lengthEPKc+0x3c>
    35cb:	48 8b 45 e8          	mov    -0x18(%rbp),%rax
    35cf:	48 89 c7             	mov    %rax,%rdi
    35d2:	e8 99 ee ff ff       	call   2470 <strlen@plt>
    35d7:	90                   	nop
    35d8:	c9                   	leave  
    35d9:	c3                   	ret    

00000000000035da <_ZN15annealer_threadC1EP7netlistiiii>:
    35da:	f3 0f 1e fa          	endbr64 
    35de:	55                   	push   %rbp
    35df:	48 89 e5             	mov    %rsp,%rbp
    35e2:	48 83 ec 20          	sub    $0x20,%rsp
    35e6:	48 89 7d f8          	mov    %rdi,-0x8(%rbp)
    35ea:	48 89 75 f0          	mov    %rsi,-0x10(%rbp)
    35ee:	89 55 ec             	mov    %edx,-0x14(%rbp)
    35f1:	89 4d e8             	mov    %ecx,-0x18(%rbp)
    35f4:	44 89 45 e4          	mov    %r8d,-0x1c(%rbp)
    35f8:	44 89 4d e0          	mov    %r9d,-0x20(%rbp)
    35fc:	48 8b 45 f8          	mov    -0x8(%rbp),%rax
    3600:	48 8b 55 f0          	mov    -0x10(%rbp),%rdx
    3604:	48 89 10             	mov    %rdx,(%rax)
    3607:	48 8b 45 f8          	mov    -0x8(%rbp),%rax
    360b:	c6 40 08 01          	movb   $0x1,0x8(%rax)
    360f:	8b 45 e8             	mov    -0x18(%rbp),%eax
    3612:	99                   	cltd   
    3613:	f7 7d ec             	idivl  -0x14(%rbp)
    3616:	89 c2                	mov    %eax,%edx
    3618:	48 8b 45 f8          	mov    -0x8(%rbp),%rax
    361c:	89 50 0c             	mov    %edx,0xc(%rax)
    361f:	48 8b 45 f8          	mov    -0x8(%rbp),%rax
    3623:	8b 55 e4             	mov    -0x1c(%rbp),%edx
    3626:	89 50 10             	mov    %edx,0x10(%rax)
    3629:	48 8b 45 f8          	mov    -0x8(%rbp),%rax
    362d:	8b 55 e0             	mov    -0x20(%rbp),%edx
    3630:	89 50 14             	mov    %edx,0x14(%rax)
    3633:	8b 45 ec             	mov    -0x14(%rbp),%eax
    3636:	48 8b 55 f8          	mov    -0x8(%rbp),%rdx
    363a:	48 8d 4a 18          	lea    0x18(%rdx),%rcx
    363e:	89 c2                	mov    %eax,%edx
    3640:	be 00 00 00 00       	mov    $0x0,%esi
    3645:	48 89 cf             	mov    %rcx,%rdi
    3648:	e8 63 f0 ff ff       	call   26b0 <pthread_barrier_init@plt>
    364d:	90                   	nop
    364e:	c9                   	leave  
    364f:	c3                   	ret    

0000000000003650 <_ZN15annealer_threadD1Ev>:
    3650:	f3 0f 1e fa          	endbr64 
    3654:	55                   	push   %rbp
    3655:	48 89 e5             	mov    %rsp,%rbp
    3658:	48 83 ec 10          	sub    $0x10,%rsp
    365c:	48 89 7d f8          	mov    %rdi,-0x8(%rbp)
    3660:	48 8b 45 f8          	mov    -0x8(%rbp),%rax
    3664:	48 83 c0 18          	add    $0x18,%rax
    3668:	48 89 c7             	mov    %rax,%rdi
    366b:	e8 10 ef ff ff       	call   2580 <pthread_barrier_destroy@plt>
    3670:	90                   	nop
    3671:	c9                   	leave  
    3672:	c3                   	ret    
    3673:	90                   	nop

0000000000003674 <_ZNSt3mapINSt7__cxx1112basic_stringIcSt11char_traitsIcESaIcEEEP12netlist_elemSt4lessIS5_ESaISt4pairIKS5_S7_EEED1Ev>:
    3674:	f3 0f 1e fa          	endbr64 
    3678:	55                   	push   %rbp
    3679:	48 89 e5             	mov    %rsp,%rbp
    367c:	48 83 ec 10          	sub    $0x10,%rsp
    3680:	48 89 7d f8          	mov    %rdi,-0x8(%rbp)
    3684:	48 8b 45 f8          	mov    -0x8(%rbp),%rax
    3688:	48 89 c7             	mov    %rax,%rdi
    368b:	e8 2e 02 00 00       	call   38be <_ZNSt8_Rb_treeINSt7__cxx1112basic_stringIcSt11char_traitsIcESaIcEEESt4pairIKS5_P12netlist_elemESt10_Select1stISA_ESt4lessIS5_ESaISA_EED1Ev>
    3690:	90                   	nop
    3691:	c9                   	leave  
    3692:	c3                   	ret    
    3693:	90                   	nop

0000000000003694 <_ZN7netlistD1Ev>:
    3694:	f3 0f 1e fa          	endbr64 
    3698:	55                   	push   %rbp
    3699:	48 89 e5             	mov    %rsp,%rbp
    369c:	48 83 ec 10          	sub    $0x10,%rsp
    36a0:	48 89 7d f8          	mov    %rdi,-0x8(%rbp)
    36a4:	48 8b 45 f8          	mov    -0x8(%rbp),%rax
    36a8:	48 83 c0 40          	add    $0x40,%rax
    36ac:	48 89 c7             	mov    %rax,%rdi
    36af:	e8 c0 ff ff ff       	call   3674 <_ZNSt3mapINSt7__cxx1112basic_stringIcSt11char_traitsIcESaIcEEEP12netlist_elemSt4lessIS5_ESaISt4pairIKS5_S7_EEED1Ev>
    36b4:	48 8b 45 f8          	mov    -0x8(%rbp),%rax
    36b8:	48 83 c0 28          	add    $0x28,%rax
    36bc:	48 89 c7             	mov    %rax,%rdi
    36bf:	e8 92 01 00 00       	call   3856 <_ZNSt6vectorIS_I10location_tSaIS0_EESaIS2_EED1Ev>
    36c4:	48 8b 45 f8          	mov    -0x8(%rbp),%rax
    36c8:	48 83 c0 10          	add    $0x10,%rax
    36cc:	48 89 c7             	mov    %rax,%rdi
    36cf:	e8 3a 01 00 00       	call   380e <_ZNSt6vectorI12netlist_elemSaIS0_EED1Ev>
    36d4:	90                   	nop
    36d5:	c9                   	leave  
    36d6:	c3                   	ret    

00000000000036d7 <_ZN9__gnu_cxx11char_traitsIcE2eqERKcS3_>:
    36d7:	f3 0f 1e fa          	endbr64 
    36db:	55                   	push   %rbp
    36dc:	48 89 e5             	mov    %rsp,%rbp
    36df:	48 89 7d f8          	mov    %rdi,-0x8(%rbp)
    36e3:	48 89 75 f0          	mov    %rsi,-0x10(%rbp)
    36e7:	48 8b 45 f8          	mov    -0x8(%rbp),%rax
    36eb:	0f b6 10             	movzbl (%rax),%edx
    36ee:	48 8b 45 f0          	mov    -0x10(%rbp),%rax
    36f2:	0f b6 00             	movzbl (%rax),%eax
    36f5:	38 c2                	cmp    %al,%dl
    36f7:	0f 94 c0             	sete   %al
    36fa:	5d                   	pop    %rbp
    36fb:	c3                   	ret    

00000000000036fc <_ZN9__gnu_cxx11char_traitsIcE6lengthEPKc>:
    36fc:	f3 0f 1e fa          	endbr64 
    3700:	55                   	push   %rbp
    3701:	48 89 e5             	mov    %rsp,%rbp
    3704:	48 83 ec 30          	sub    $0x30,%rsp
    3708:	48 89 7d d8          	mov    %rdi,-0x28(%rbp)
    370c:	64 48 8b 04 25 28 00 	mov    %fs:0x28,%rax
    3713:	00 00 
    3715:	48 89 45 f8          	mov    %rax,-0x8(%rbp)
    3719:	31 c0                	xor    %eax,%eax
    371b:	48 c7 45 f0 00 00 00 	movq   $0x0,-0x10(%rbp)
    3722:	00 
    3723:	eb 05                	jmp    372a <_ZN9__gnu_cxx11char_traitsIcE6lengthEPKc+0x2e>
    3725:	48 83 45 f0 01       	addq   $0x1,-0x10(%rbp)
    372a:	c6 45 ef 00          	movb   $0x0,-0x11(%rbp)
    372e:	48 8b 55 d8          	mov    -0x28(%rbp),%rdx
    3732:	48 8b 45 f0          	mov    -0x10(%rbp),%rax
    3736:	48 01 c2             	add    %rax,%rdx
    3739:	48 8d 45 ef          	lea    -0x11(%rbp),%rax
    373d:	48 89 c6             	mov    %rax,%rsi
    3740:	48 89 d7             	mov    %rdx,%rdi
    3743:	e8 8f ff ff ff       	call   36d7 <_ZN9__gnu_cxx11char_traitsIcE2eqERKcS3_>
    3748:	83 f0 01             	xor    $0x1,%eax
    374b:	84 c0                	test   %al,%al
    374d:	75 d6                	jne    3725 <_ZN9__gnu_cxx11char_traitsIcE6lengthEPKc+0x29>
    374f:	48 8b 45 f0          	mov    -0x10(%rbp),%rax
    3753:	48 8b 55 f8          	mov    -0x8(%rbp),%rdx
    3757:	64 48 2b 14 25 28 00 	sub    %fs:0x28,%rdx
    375e:	00 00 
    3760:	74 05                	je     3767 <_ZN9__gnu_cxx11char_traitsIcE6lengthEPKc+0x6b>
    3762:	e8 99 ee ff ff       	call   2600 <__stack_chk_fail@plt>
    3767:	c9                   	leave  
    3768:	c3                   	ret    
    3769:	90                   	nop

000000000000376a <_ZNSt7__cxx1112basic_stringIcSt11char_traitsIcESaIcEEC1IS3_EEPKcRKS3_>:
    376a:	f3 0f 1e fa          	endbr64 
    376e:	55                   	push   %rbp
    376f:	48 89 e5             	mov    %rsp,%rbp
    3772:	53                   	push   %rbx
    3773:	48 83 ec 48          	sub    $0x48,%rsp
    3777:	48 89 7d c8          	mov    %rdi,-0x38(%rbp)
    377b:	48 89 75 c0          	mov    %rsi,-0x40(%rbp)
    377f:	48 89 55 b8          	mov    %rdx,-0x48(%rbp)
    3783:	64 48 8b 04 25 28 00 	mov    %fs:0x28,%rax
    378a:	00 00 
    378c:	48 89 45 e8          	mov    %rax,-0x18(%rbp)
    3790:	31 c0                	xor    %eax,%eax
    3792:	48 8b 5d c8          	mov    -0x38(%rbp),%rbx
    3796:	48 8b 45 c8          	mov    -0x38(%rbp),%rax
    379a:	48 89 c7             	mov    %rax,%rdi
    379d:	e8 5e ed ff ff       	call   2500 <_ZNSt7__cxx1112basic_stringIcSt11char_traitsIcESaIcEE13_M_local_dataEv@plt>
    37a2:	48 89 c1             	mov    %rax,%rcx
    37a5:	48 8b 45 b8          	mov    -0x48(%rbp),%rax
    37a9:	48 89 c2             	mov    %rax,%rdx
    37ac:	48 89 ce             	mov    %rcx,%rsi
    37af:	48 89 df             	mov    %rbx,%rdi
    37b2:	e8 f9 ed ff ff       	call   25b0 <_ZNSt7__cxx1112basic_stringIcSt11char_traitsIcESaIcEE12_Alloc_hiderC1EPcRKS3_@plt>
    37b7:	48 83 7d c0 00       	cmpq   $0x0,-0x40(%rbp)
    37bc:	74 15                	je     37d3 <_ZNSt7__cxx1112basic_stringIcSt11char_traitsIcESaIcEEC1IS3_EEPKcRKS3_+0x69>
    37be:	48 8b 45 c0          	mov    -0x40(%rbp),%rax
    37c2:	48 89 c7             	mov    %rax,%rdi
    37c5:	e8 d2 fd ff ff       	call   359c <_ZNSt11char_traitsIcE6lengthEPKc>
    37ca:	48 8b 55 c0          	mov    -0x40(%rbp),%rdx
    37ce:	48 01 d0             	add    %rdx,%rax
    37d1:	eb 05                	jmp    37d8 <_ZNSt7__cxx1112basic_stringIcSt11char_traitsIcESaIcEEC1IS3_EEPKcRKS3_+0x6e>
    37d3:	b8 01 00 00 00       	mov    $0x1,%eax
    37d8:	48 89 45 e0          	mov    %rax,-0x20(%rbp)
    37dc:	48 8b 55 e0          	mov    -0x20(%rbp),%rdx
    37e0:	48 8b 4d c0          	mov    -0x40(%rbp),%rcx
    37e4:	48 8b 45 c8          	mov    -0x38(%rbp),%rax
    37e8:	48 89 ce             	mov    %rcx,%rsi
    37eb:	48 89 c7             	mov    %rax,%rdi
    37ee:	e8 4b 02 00 00       	call   3a3e <_ZNSt7__cxx1112basic_stringIcSt11char_traitsIcESaIcEE12_M_constructIPKcEEvT_S8_St20forward_iterator_tag>
    37f3:	90                   	nop
    37f4:	48 8b 45 e8          	mov    -0x18(%rbp),%rax
    37f8:	64 48 2b 04 25 28 00 	sub    %fs:0x28,%rax
    37ff:	00 00 
    3801:	74 05                	je     3808 <_ZNSt7__cxx1112basic_stringIcSt11char_traitsIcESaIcEEC1IS3_EEPKcRKS3_+0x9e>
    3803:	e8 f8 ed ff ff       	call   2600 <__stack_chk_fail@plt>
    3808:	48 8b 5d f8          	mov    -0x8(%rbp),%rbx
    380c:	c9                   	leave  
    380d:	c3                   	ret    

000000000000380e <_ZNSt6vectorI12netlist_elemSaIS0_EED1Ev>:
    380e:	f3 0f 1e fa          	endbr64 
    3812:	55                   	push   %rbp
    3813:	48 89 e5             	mov    %rsp,%rbp
    3816:	48 83 ec 10          	sub    $0x10,%rsp
    381a:	48 89 7d f8          	mov    %rdi,-0x8(%rbp)
    381e:	48 8b 45 f8          	mov    -0x8(%rbp),%rax
    3822:	48 89 c7             	mov    %rax,%rdi
    3825:	e8 a0 03 00 00       	call   3bca <_ZNSt12_Vector_baseI12netlist_elemSaIS0_EE19_M_get_Tp_allocatorEv>
    382a:	48 89 c2             	mov    %rax,%rdx
    382d:	48 8b 45 f8          	mov    -0x8(%rbp),%rax
    3831:	48 8b 48 08          	mov    0x8(%rax),%rcx
    3835:	48 8b 45 f8          	mov    -0x8(%rbp),%rax
    3839:	48 8b 00             	mov    (%rax),%rax
    383c:	48 89 ce             	mov    %rcx,%rsi
    383f:	48 89 c7             	mov    %rax,%rdi
    3842:	e8 95 03 00 00       	call   3bdc <_ZSt8_DestroyIP12netlist_elemS0_EvT_S2_RSaIT0_E>
    3847:	48 8b 45 f8          	mov    -0x8(%rbp),%rax
    384b:	48 89 c7             	mov    %rax,%rdi
    384e:	e8 15 03 00 00       	call   3b68 <_ZNSt12_Vector_baseI12netlist_elemSaIS0_EED1Ev>
    3853:	90                   	nop
    3854:	c9                   	leave  
    3855:	c3                   	ret    

0000000000003856 <_ZNSt6vectorIS_I10location_tSaIS0_EESaIS2_EED1Ev>:
    3856:	f3 0f 1e fa          	endbr64 
    385a:	55                   	push   %rbp
    385b:	48 89 e5             	mov    %rsp,%rbp
    385e:	48 83 ec 10          	sub    $0x10,%rsp
    3862:	48 89 7d f8          	mov    %rdi,-0x8(%rbp)
    3866:	48 8b 45 f8          	mov    -0x8(%rbp),%rax
    386a:	48 89 c7             	mov    %rax,%rdi
    386d:	e8 1a 04 00 00       	call   3c8c <_ZNSt12_Vector_baseISt6vectorI10location_tSaIS1_EESaIS3_EE19_M_get_Tp_allocatorEv>
    3872:	48 89 c2             	mov    %rax,%rdx
    3875:	48 8b 45 f8          	mov    -0x8(%rbp),%rax
    3879:	48 8b 48 08          	mov    0x8(%rax),%rcx
    387d:	48 8b 45 f8          	mov    -0x8(%rbp),%rax
    3881:	48 8b 00             	mov    (%rax),%rax
    3884:	48 89 ce             	mov    %rcx,%rsi
    3887:	48 89 c7             	mov    %rax,%rdi
    388a:	e8 0f 04 00 00       	call   3c9e <_ZSt8_DestroyIPSt6vectorI10location_tSaIS1_EES3_EvT_S5_RSaIT0_E>
    388f:	48 8b 45 f8          	mov    -0x8(%rbp),%rax
    3893:	48 89 c7             	mov    %rax,%rdi
    3896:	e8 8f 03 00 00       	call   3c2a <_ZNSt12_Vector_baseISt6vectorI10location_tSaIS1_EESaIS3_EED1Ev>
    389b:	90                   	nop
    389c:	c9                   	leave  
    389d:	c3                   	ret    

000000000000389e <_ZNSt8_Rb_treeINSt7__cxx1112basic_stringIcSt11char_traitsIcESaIcEEESt4pairIKS5_P12netlist_elemESt10_Select1stISA_ESt4lessIS5_ESaISA_EE13_Rb_tree_implISE_Lb1EED1Ev>:
    389e:	f3 0f 1e fa          	endbr64 
    38a2:	55                   	push   %rbp
    38a3:	48 89 e5             	mov    %rsp,%rbp
    38a6:	48 83 ec 10          	sub    $0x10,%rsp
    38aa:	48 89 7d f8          	mov    %rdi,-0x8(%rbp)
    38ae:	48 8b 45 f8          	mov    -0x8(%rbp),%rax
    38b2:	48 89 c7             	mov    %rax,%rdi
    38b5:	e8 12 04 00 00       	call   3ccc <_ZNSaISt13_Rb_tree_nodeISt4pairIKNSt7__cxx1112basic_stringIcSt11char_traitsIcESaIcEEEP12netlist_elemEEED1Ev>
    38ba:	90                   	nop
    38bb:	c9                   	leave  
    38bc:	c3                   	ret    
    38bd:	90                   	nop

00000000000038be <_ZNSt8_Rb_treeINSt7__cxx1112basic_stringIcSt11char_traitsIcESaIcEEESt4pairIKS5_P12netlist_elemESt10_Select1stISA_ESt4lessIS5_ESaISA_EED1Ev>:
    38be:	f3 0f 1e fa          	endbr64 
    38c2:	55                   	push   %rbp
    38c3:	48 89 e5             	mov    %rsp,%rbp
    38c6:	48 83 ec 10          	sub    $0x10,%rsp
    38ca:	48 89 7d f8          	mov    %rdi,-0x8(%rbp)
    38ce:	48 8b 45 f8          	mov    -0x8(%rbp),%rax
    38d2:	48 89 c7             	mov    %rax,%rdi
    38d5:	e8 7c 04 00 00       	call   3d56 <_ZNSt8_Rb_treeINSt7__cxx1112basic_stringIcSt11char_traitsIcESaIcEEESt4pairIKS5_P12netlist_elemESt10_Select1stISA_ESt4lessIS5_ESaISA_EE8_M_beginEv>
    38da:	48 89 c2             	mov    %rax,%rdx
    38dd:	48 8b 45 f8          	mov    -0x8(%rbp),%rax
    38e1:	48 89 d6             	mov    %rdx,%rsi
    38e4:	48 89 c7             	mov    %rax,%rdi
    38e7:	e8 00 04 00 00       	call   3cec <_ZNSt8_Rb_treeINSt7__cxx1112basic_stringIcSt11char_traitsIcESaIcEEESt4pairIKS5_P12netlist_elemESt10_Select1stISA_ESt4lessIS5_ESaISA_EE8_M_eraseEPSt13_Rb_tree_nodeISA_E>
    38ec:	48 8b 45 f8          	mov    -0x8(%rbp),%rax
    38f0:	48 89 c7             	mov    %rax,%rdi
    38f3:	e8 a6 ff ff ff       	call   389e <_ZNSt8_Rb_treeINSt7__cxx1112basic_stringIcSt11char_traitsIcESaIcEEESt4pairIKS5_P12netlist_elemESt10_Select1stISA_ESt4lessIS5_ESaISA_EE13_Rb_tree_implISE_Lb1EED1Ev>
    38f8:	90                   	nop
    38f9:	c9                   	leave  
    38fa:	c3                   	ret    
    38fb:	90                   	nop

00000000000038fc <_ZNSaImEC1Ev>:
    38fc:	f3 0f 1e fa          	endbr64 
    3900:	55                   	push   %rbp
    3901:	48 89 e5             	mov    %rsp,%rbp
    3904:	48 83 ec 10          	sub    $0x10,%rsp
    3908:	48 89 7d f8          	mov    %rdi,-0x8(%rbp)
    390c:	48 8b 45 f8          	mov    -0x8(%rbp),%rax
    3910:	48 89 c7             	mov    %rax,%rdi
    3913:	e8 5c 04 00 00       	call   3d74 <_ZN9__gnu_cxx13new_allocatorImEC1Ev>
    3918:	90                   	nop
    3919:	c9                   	leave  
    391a:	c3                   	ret    
    391b:	90                   	nop

000000000000391c <_ZNSaImED1Ev>:
    391c:	f3 0f 1e fa          	endbr64 
    3920:	55                   	push   %rbp
    3921:	48 89 e5             	mov    %rsp,%rbp
    3924:	48 83 ec 10          	sub    $0x10,%rsp
    3928:	48 89 7d f8          	mov    %rdi,-0x8(%rbp)
    392c:	48 8b 45 f8          	mov    -0x8(%rbp),%rax
    3930:	48 89 c7             	mov    %rax,%rdi
    3933:	e8 4c 04 00 00       	call   3d84 <_ZN9__gnu_cxx13new_allocatorImED1Ev>
    3938:	90                   	nop
    3939:	c9                   	leave  
    393a:	c3                   	ret    
    393b:	90                   	nop

000000000000393c <_ZNSt6vectorImSaImEEC1EmRKS0_>:
    393c:	f3 0f 1e fa          	endbr64 
    3940:	55                   	push   %rbp
    3941:	48 89 e5             	mov    %rsp,%rbp
    3944:	53                   	push   %rbx
    3945:	48 83 ec 28          	sub    $0x28,%rsp
    3949:	48 89 7d e8          	mov    %rdi,-0x18(%rbp)
    394d:	48 89 75 e0          	mov    %rsi,-0x20(%rbp)
    3951:	48 89 55 d8          	mov    %rdx,-0x28(%rbp)
    3955:	48 8b 5d e8          	mov    -0x18(%rbp),%rbx
    3959:	48 8b 55 d8          	mov    -0x28(%rbp),%rdx
    395d:	48 8b 45 e0          	mov    -0x20(%rbp),%rax
    3961:	48 89 d6             	mov    %rdx,%rsi
    3964:	48 89 c7             	mov    %rax,%rdi
    3967:	e8 27 04 00 00       	call   3d93 <_ZNSt6vectorImSaImEE17_S_check_init_lenEmRKS0_>
    396c:	48 89 c1             	mov    %rax,%rcx
    396f:	48 8b 45 d8          	mov    -0x28(%rbp),%rax
    3973:	48 89 c2             	mov    %rax,%rdx
    3976:	48 89 ce             	mov    %rcx,%rsi
    3979:	48 89 df             	mov    %rbx,%rdi
    397c:	e8 b9 04 00 00       	call   3e3a <_ZNSt12_Vector_baseImSaImEEC1EmRKS0_>
    3981:	48 8b 55 e0          	mov    -0x20(%rbp),%rdx
    3985:	48 8b 45 e8          	mov    -0x18(%rbp),%rax
    3989:	48 89 d6             	mov    %rdx,%rsi
    398c:	48 89 c7             	mov    %rax,%rdi
    398f:	e8 3a 05 00 00       	call   3ece <_ZNSt6vectorImSaImEE21_M_default_initializeEm>
    3994:	90                   	nop
    3995:	48 8b 5d f8          	mov    -0x8(%rbp),%rbx
    3999:	c9                   	leave  
    399a:	c3                   	ret    
    399b:	90                   	nop

000000000000399c <_ZNSt6vectorImSaImEED1Ev>:
    399c:	f3 0f 1e fa          	endbr64 
    39a0:	55                   	push   %rbp
    39a1:	48 89 e5             	mov    %rsp,%rbp
    39a4:	48 83 ec 10          	sub    $0x10,%rsp
    39a8:	48 89 7d f8          	mov    %rdi,-0x8(%rbp)
    39ac:	48 8b 45 f8          	mov    -0x8(%rbp),%rax
    39b0:	48 89 c7             	mov    %rax,%rdi
    39b3:	e8 5a 05 00 00       	call   3f12 <_ZNSt12_Vector_baseImSaImEE19_M_get_Tp_allocatorEv>
    39b8:	48 89 c2             	mov    %rax,%rdx
    39bb:	48 8b 45 f8          	mov    -0x8(%rbp),%rax
    39bf:	48 8b 48 08          	mov    0x8(%rax),%rcx
    39c3:	48 8b 45 f8          	mov    -0x8(%rbp),%rax
    39c7:	48 8b 00             	mov    (%rax),%rax
    39ca:	48 89 ce             	mov    %rcx,%rsi
    39cd:	48 89 c7             	mov    %rax,%rdi
    39d0:	e8 4f 05 00 00       	call   3f24 <_ZSt8_DestroyIPmmEvT_S1_RSaIT0_E>
    39d5:	48 8b 45 f8          	mov    -0x8(%rbp),%rax
    39d9:	48 89 c7             	mov    %rax,%rdi
    39dc:	e8 9b 04 00 00       	call   3e7c <_ZNSt12_Vector_baseImSaImEED1Ev>
    39e1:	90                   	nop
    39e2:	c9                   	leave  
    39e3:	c3                   	ret    

00000000000039e4 <_ZNSt6vectorImSaImEEixEm>:
    39e4:	f3 0f 1e fa          	endbr64 
    39e8:	55                   	push   %rbp
    39e9:	48 89 e5             	mov    %rsp,%rbp
    39ec:	48 89 7d f8          	mov    %rdi,-0x8(%rbp)
    39f0:	48 89 75 f0          	mov    %rsi,-0x10(%rbp)
    39f4:	48 8b 45 f8          	mov    -0x8(%rbp),%rax
    39f8:	48 8b 10             	mov    (%rax),%rdx
    39fb:	48 8b 45 f0          	mov    -0x10(%rbp),%rax
    39ff:	48 c1 e0 03          	shl    $0x3,%rax
    3a03:	48 01 d0             	add    %rdx,%rax
    3a06:	5d                   	pop    %rbp
    3a07:	c3                   	ret    

0000000000003a08 <_ZSt8distanceIPKcENSt15iterator_traitsIT_E15difference_typeES3_S3_>:
    3a08:	f3 0f 1e fa          	endbr64 
    3a0c:	55                   	push   %rbp
    3a0d:	48 89 e5             	mov    %rsp,%rbp
    3a10:	48 83 ec 10          	sub    $0x10,%rsp
    3a14:	48 89 7d f8          	mov    %rdi,-0x8(%rbp)
    3a18:	48 89 75 f0          	mov    %rsi,-0x10(%rbp)
    3a1c:	48 8d 45 f8          	lea    -0x8(%rbp),%rax
    3a20:	48 89 c7             	mov    %rax,%rdi
    3a23:	e8 40 05 00 00       	call   3f68 <_ZSt19__iterator_categoryIPKcENSt15iterator_traitsIT_E17iterator_categoryERKS3_>
    3a28:	48 8b 45 f8          	mov    -0x8(%rbp),%rax
    3a2c:	48 8b 55 f0          	mov    -0x10(%rbp),%rdx
    3a30:	48 89 d6             	mov    %rdx,%rsi
    3a33:	48 89 c7             	mov    %rax,%rdi
    3a36:	e8 3b 05 00 00       	call   3f76 <_ZSt10__distanceIPKcENSt15iterator_traitsIT_E15difference_typeES3_S3_St26random_access_iterator_tag>
    3a3b:	c9                   	leave  
    3a3c:	c3                   	ret    
    3a3d:	90                   	nop

0000000000003a3e <_ZNSt7__cxx1112basic_stringIcSt11char_traitsIcESaIcEE12_M_constructIPKcEEvT_S8_St20forward_iterator_tag>:
    3a3e:	f3 0f 1e fa          	endbr64 
    3a42:	55                   	push   %rbp
    3a43:	48 89 e5             	mov    %rsp,%rbp
    3a46:	48 83 ec 30          	sub    $0x30,%rsp
    3a4a:	48 89 7d e8          	mov    %rdi,-0x18(%rbp)
    3a4e:	48 89 75 e0          	mov    %rsi,-0x20(%rbp)
    3a52:	48 89 55 d8          	mov    %rdx,-0x28(%rbp)
    3a56:	64 48 8b 04 25 28 00 	mov    %fs:0x28,%rax
    3a5d:	00 00 
    3a5f:	48 89 45 f8          	mov    %rax,-0x8(%rbp)
    3a63:	31 c0                	xor    %eax,%eax
    3a65:	48 8b 45 e0          	mov    -0x20(%rbp),%rax
    3a69:	48 89 c7             	mov    %rax,%rdi
    3a6c:	e8 e1 04 00 00       	call   3f52 <_ZN9__gnu_cxx17__is_null_pointerIKcEEbPT_>
    3a71:	84 c0                	test   %al,%al
    3a73:	74 11                	je     3a86 <_ZNSt7__cxx1112basic_stringIcSt11char_traitsIcESaIcEE12_M_constructIPKcEEvT_S8_St20forward_iterator_tag+0x48>
    3a75:	48 8b 45 e0          	mov    -0x20(%rbp),%rax
    3a79:	48 3b 45 d8          	cmp    -0x28(%rbp),%rax
    3a7d:	74 07                	je     3a86 <_ZNSt7__cxx1112basic_stringIcSt11char_traitsIcESaIcEE12_M_constructIPKcEEvT_S8_St20forward_iterator_tag+0x48>
    3a7f:	b8 01 00 00 00       	mov    $0x1,%eax
    3a84:	eb 05                	jmp    3a8b <_ZNSt7__cxx1112basic_stringIcSt11char_traitsIcESaIcEE12_M_constructIPKcEEvT_S8_St20forward_iterator_tag+0x4d>
    3a86:	b8 00 00 00 00       	mov    $0x0,%eax
    3a8b:	84 c0                	test   %al,%al
    3a8d:	74 0f                	je     3a9e <_ZNSt7__cxx1112basic_stringIcSt11char_traitsIcESaIcEE12_M_constructIPKcEEvT_S8_St20forward_iterator_tag+0x60>
    3a8f:	48 8d 05 92 96 00 00 	lea    0x9692(%rip),%rax        # d128 <_ZL19NO_MATCHING_ELEMENT+0xf8>
    3a96:	48 89 c7             	mov    %rax,%rdi
    3a99:	e8 32 ea ff ff       	call   24d0 <_ZSt19__throw_logic_errorPKc@plt>
    3a9e:	48 8b 55 d8          	mov    -0x28(%rbp),%rdx
    3aa2:	48 8b 45 e0          	mov    -0x20(%rbp),%rax
    3aa6:	48 89 d6             	mov    %rdx,%rsi
    3aa9:	48 89 c7             	mov    %rax,%rdi
    3aac:	e8 57 ff ff ff       	call   3a08 <_ZSt8distanceIPKcENSt15iterator_traitsIT_E15difference_typeES3_S3_>
    3ab1:	48 89 45 f0          	mov    %rax,-0x10(%rbp)
    3ab5:	48 8b 45 f0          	mov    -0x10(%rbp),%rax
    3ab9:	48 83 f8 0f          	cmp    $0xf,%rax
    3abd:	76 3d                	jbe    3afc <_ZNSt7__cxx1112basic_stringIcSt11char_traitsIcESaIcEE12_M_constructIPKcEEvT_S8_St20forward_iterator_tag+0xbe>
    3abf:	48 8d 4d f0          	lea    -0x10(%rbp),%rcx
    3ac3:	48 8b 45 e8          	mov    -0x18(%rbp),%rax
    3ac7:	ba 00 00 00 00       	mov    $0x0,%edx
    3acc:	48 89 ce             	mov    %rcx,%rsi
    3acf:	48 89 c7             	mov    %rax,%rdi
    3ad2:	e8 29 ec ff ff       	call   2700 <_ZNSt7__cxx1112basic_stringIcSt11char_traitsIcESaIcEE9_M_createERmm@plt>
    3ad7:	48 89 c2             	mov    %rax,%rdx
    3ada:	48 8b 45 e8          	mov    -0x18(%rbp),%rax
    3ade:	48 89 d6             	mov    %rdx,%rsi
    3ae1:	48 89 c7             	mov    %rax,%rdi
    3ae4:	e8 27 ea ff ff       	call   2510 <_ZNSt7__cxx1112basic_stringIcSt11char_traitsIcESaIcEE7_M_dataEPc@plt>
    3ae9:	48 8b 55 f0          	mov    -0x10(%rbp),%rdx
    3aed:	48 8b 45 e8          	mov    -0x18(%rbp),%rax
    3af1:	48 89 d6             	mov    %rdx,%rsi
    3af4:	48 89 c7             	mov    %rax,%rdi
    3af7:	e8 54 ec ff ff       	call   2750 <_ZNSt7__cxx1112basic_stringIcSt11char_traitsIcESaIcEE11_M_capacityEm@plt>
    3afc:	48 8b 45 e8          	mov    -0x18(%rbp),%rax
    3b00:	48 89 c7             	mov    %rax,%rdi
    3b03:	e8 d8 ea ff ff       	call   25e0 <_ZNKSt7__cxx1112basic_stringIcSt11char_traitsIcESaIcEE7_M_dataEv@plt>
    3b08:	48 89 c1             	mov    %rax,%rcx
    3b0b:	48 8b 55 d8          	mov    -0x28(%rbp),%rdx
    3b0f:	48 8b 45 e0          	mov    -0x20(%rbp),%rax
    3b13:	48 89 c6             	mov    %rax,%rsi
    3b16:	48 89 cf             	mov    %rcx,%rdi
    3b19:	e8 d2 ea ff ff       	call   25f0 <_ZNSt7__cxx1112basic_stringIcSt11char_traitsIcESaIcEE13_S_copy_charsEPcPKcS7_@plt>
    3b1e:	48 8b 55 f0          	mov    -0x10(%rbp),%rdx
    3b22:	48 8b 45 e8          	mov    -0x18(%rbp),%rax
    3b26:	48 89 d6             	mov    %rdx,%rsi
    3b29:	48 89 c7             	mov    %rax,%rdi
    3b2c:	e8 7f e9 ff ff       	call   24b0 <_ZNSt7__cxx1112basic_stringIcSt11char_traitsIcESaIcEE13_M_set_lengthEm@plt>
    3b31:	90                   	nop
    3b32:	48 8b 45 f8          	mov    -0x8(%rbp),%rax
    3b36:	64 48 2b 04 25 28 00 	sub    %fs:0x28,%rax
    3b3d:	00 00 
    3b3f:	74 05                	je     3b46 <_ZNSt7__cxx1112basic_stringIcSt11char_traitsIcESaIcEE12_M_constructIPKcEEvT_S8_St20forward_iterator_tag+0x108>
    3b41:	e8 ba ea ff ff       	call   2600 <__stack_chk_fail@plt>
    3b46:	c9                   	leave  
    3b47:	c3                   	ret    

0000000000003b48 <_ZNSt12_Vector_baseI12netlist_elemSaIS0_EE12_Vector_implD1Ev>:
    3b48:	f3 0f 1e fa          	endbr64 
    3b4c:	55                   	push   %rbp
    3b4d:	48 89 e5             	mov    %rsp,%rbp
    3b50:	48 83 ec 10          	sub    $0x10,%rsp
    3b54:	48 89 7d f8          	mov    %rdi,-0x8(%rbp)
    3b58:	48 8b 45 f8          	mov    -0x8(%rbp),%rax
    3b5c:	48 89 c7             	mov    %rax,%rdi
    3b5f:	e8 2c 04 00 00       	call   3f90 <_ZNSaI12netlist_elemED1Ev>
    3b64:	90                   	nop
    3b65:	c9                   	leave  
    3b66:	c3                   	ret    
    3b67:	90                   	nop

0000000000003b68 <_ZNSt12_Vector_baseI12netlist_elemSaIS0_EED1Ev>:
    3b68:	f3 0f 1e fa          	endbr64 
    3b6c:	55                   	push   %rbp
    3b6d:	48 89 e5             	mov    %rsp,%rbp
    3b70:	48 83 ec 10          	sub    $0x10,%rsp
    3b74:	48 89 7d f8          	mov    %rdi,-0x8(%rbp)
    3b78:	48 8b 45 f8          	mov    -0x8(%rbp),%rax
    3b7c:	48 8b 50 10          	mov    0x10(%rax),%rdx
    3b80:	48 8b 45 f8          	mov    -0x8(%rbp),%rax
    3b84:	48 8b 08             	mov    (%rax),%rcx
    3b87:	48 89 d0             	mov    %rdx,%rax
    3b8a:	48 29 c8             	sub    %rcx,%rax
    3b8d:	48 c1 f8 03          	sar    $0x3,%rax
    3b91:	48 89 c2             	mov    %rax,%rdx
    3b94:	48 b8 a3 8b 2e ba e8 	movabs $0x2e8ba2e8ba2e8ba3,%rax
    3b9b:	a2 8b 2e 
    3b9e:	48 0f af c2          	imul   %rdx,%rax
    3ba2:	48 89 c2             	mov    %rax,%rdx
    3ba5:	48 8b 45 f8          	mov    -0x8(%rbp),%rax
    3ba9:	48 8b 08             	mov    (%rax),%rcx
    3bac:	48 8b 45 f8          	mov    -0x8(%rbp),%rax
    3bb0:	48 89 ce             	mov    %rcx,%rsi
    3bb3:	48 89 c7             	mov    %rax,%rdi
    3bb6:	e8 f5 03 00 00       	call   3fb0 <_ZNSt12_Vector_baseI12netlist_elemSaIS0_EE13_M_deallocateEPS0_m>
    3bbb:	48 8b 45 f8          	mov    -0x8(%rbp),%rax
    3bbf:	48 89 c7             	mov    %rax,%rdi
    3bc2:	e8 81 ff ff ff       	call   3b48 <_ZNSt12_Vector_baseI12netlist_elemSaIS0_EE12_Vector_implD1Ev>
    3bc7:	90                   	nop
    3bc8:	c9                   	leave  
    3bc9:	c3                   	ret    

0000000000003bca <_ZNSt12_Vector_baseI12netlist_elemSaIS0_EE19_M_get_Tp_allocatorEv>:
    3bca:	f3 0f 1e fa          	endbr64 
    3bce:	55                   	push   %rbp
    3bcf:	48 89 e5             	mov    %rsp,%rbp
    3bd2:	48 89 7d f8          	mov    %rdi,-0x8(%rbp)
    3bd6:	48 8b 45 f8          	mov    -0x8(%rbp),%rax
    3bda:	5d                   	pop    %rbp
    3bdb:	c3                   	ret    

0000000000003bdc <_ZSt8_DestroyIP12netlist_elemS0_EvT_S2_RSaIT0_E>:
    3bdc:	f3 0f 1e fa          	endbr64 
    3be0:	55                   	push   %rbp
    3be1:	48 89 e5             	mov    %rsp,%rbp
    3be4:	48 83 ec 20          	sub    $0x20,%rsp
    3be8:	48 89 7d f8          	mov    %rdi,-0x8(%rbp)
    3bec:	48 89 75 f0          	mov    %rsi,-0x10(%rbp)
    3bf0:	48 89 55 e8          	mov    %rdx,-0x18(%rbp)
    3bf4:	48 8b 55 f0          	mov    -0x10(%rbp),%rdx
    3bf8:	48 8b 45 f8          	mov    -0x8(%rbp),%rax
    3bfc:	48 89 d6             	mov    %rdx,%rsi
    3bff:	48 89 c7             	mov    %rax,%rdi
    3c02:	e8 e2 03 00 00       	call   3fe9 <_ZSt8_DestroyIP12netlist_elemEvT_S2_>
    3c07:	90                   	nop
    3c08:	c9                   	leave  
    3c09:	c3                   	ret    

0000000000003c0a <_ZNSt12_Vector_baseISt6vectorI10location_tSaIS1_EESaIS3_EE12_Vector_implD1Ev>:
    3c0a:	f3 0f 1e fa          	endbr64 
    3c0e:	55                   	push   %rbp
    3c0f:	48 89 e5             	mov    %rsp,%rbp
    3c12:	48 83 ec 10          	sub    $0x10,%rsp
    3c16:	48 89 7d f8          	mov    %rdi,-0x8(%rbp)
    3c1a:	48 8b 45 f8          	mov    -0x8(%rbp),%rax
    3c1e:	48 89 c7             	mov    %rax,%rdi
    3c21:	e8 ee 03 00 00       	call   4014 <_ZNSaISt6vectorI10location_tSaIS0_EEED1Ev>
    3c26:	90                   	nop
    3c27:	c9                   	leave  
    3c28:	c3                   	ret    
    3c29:	90                   	nop

0000000000003c2a <_ZNSt12_Vector_baseISt6vectorI10location_tSaIS1_EESaIS3_EED1Ev>:
    3c2a:	f3 0f 1e fa          	endbr64 
    3c2e:	55                   	push   %rbp
    3c2f:	48 89 e5             	mov    %rsp,%rbp
    3c32:	48 83 ec 10          	sub    $0x10,%rsp
    3c36:	48 89 7d f8          	mov    %rdi,-0x8(%rbp)
    3c3a:	48 8b 45 f8          	mov    -0x8(%rbp),%rax
    3c3e:	48 8b 50 10          	mov    0x10(%rax),%rdx
    3c42:	48 8b 45 f8          	mov    -0x8(%rbp),%rax
    3c46:	48 8b 08             	mov    (%rax),%rcx
    3c49:	48 89 d0             	mov    %rdx,%rax
    3c4c:	48 29 c8             	sub    %rcx,%rax
    3c4f:	48 c1 f8 03          	sar    $0x3,%rax
    3c53:	48 89 c2             	mov    %rax,%rdx
    3c56:	48 b8 ab aa aa aa aa 	movabs $0xaaaaaaaaaaaaaaab,%rax
    3c5d:	aa aa aa 
    3c60:	48 0f af c2          	imul   %rdx,%rax
    3c64:	48 89 c2             	mov    %rax,%rdx
    3c67:	48 8b 45 f8          	mov    -0x8(%rbp),%rax
    3c6b:	48 8b 08             	mov    (%rax),%rcx
    3c6e:	48 8b 45 f8          	mov    -0x8(%rbp),%rax
    3c72:	48 89 ce             	mov    %rcx,%rsi
    3c75:	48 89 c7             	mov    %rax,%rdi
    3c78:	e8 b7 03 00 00       	call   4034 <_ZNSt12_Vector_baseISt6vectorI10location_tSaIS1_EESaIS3_EE13_M_deallocateEPS3_m>
    3c7d:	48 8b 45 f8          	mov    -0x8(%rbp),%rax
    3c81:	48 89 c7             	mov    %rax,%rdi
    3c84:	e8 81 ff ff ff       	call   3c0a <_ZNSt12_Vector_baseISt6vectorI10location_tSaIS1_EESaIS3_EE12_Vector_implD1Ev>
    3c89:	90                   	nop
    3c8a:	c9                   	leave  
    3c8b:	c3                   	ret    

0000000000003c8c <_ZNSt12_Vector_baseISt6vectorI10location_tSaIS1_EESaIS3_EE19_M_get_Tp_allocatorEv>:
    3c8c:	f3 0f 1e fa          	endbr64 
    3c90:	55                   	push   %rbp
    3c91:	48 89 e5             	mov    %rsp,%rbp
    3c94:	48 89 7d f8          	mov    %rdi,-0x8(%rbp)
    3c98:	48 8b 45 f8          	mov    -0x8(%rbp),%rax
    3c9c:	5d                   	pop    %rbp
    3c9d:	c3                   	ret    

0000000000003c9e <_ZSt8_DestroyIPSt6vectorI10location_tSaIS1_EES3_EvT_S5_RSaIT0_E>:
    3c9e:	f3 0f 1e fa          	endbr64 
    3ca2:	55                   	push   %rbp
    3ca3:	48 89 e5             	mov    %rsp,%rbp
    3ca6:	48 83 ec 20          	sub    $0x20,%rsp
    3caa:	48 89 7d f8          	mov    %rdi,-0x8(%rbp)
    3cae:	48 89 75 f0          	mov    %rsi,-0x10(%rbp)
    3cb2:	48 89 55 e8          	mov    %rdx,-0x18(%rbp)
    3cb6:	48 8b 55 f0          	mov    -0x10(%rbp),%rdx
    3cba:	48 8b 45 f8          	mov    -0x8(%rbp),%rax
    3cbe:	48 89 d6             	mov    %rdx,%rsi
    3cc1:	48 89 c7             	mov    %rax,%rdi
    3cc4:	e8 a4 03 00 00       	call   406d <_ZSt8_DestroyIPSt6vectorI10location_tSaIS1_EEEvT_S5_>
    3cc9:	90                   	nop
    3cca:	c9                   	leave  
    3ccb:	c3                   	ret    

0000000000003ccc <_ZNSaISt13_Rb_tree_nodeISt4pairIKNSt7__cxx1112basic_stringIcSt11char_traitsIcESaIcEEEP12netlist_elemEEED1Ev>:
    3ccc:	f3 0f 1e fa          	endbr64 
    3cd0:	55                   	push   %rbp
    3cd1:	48 89 e5             	mov    %rsp,%rbp
    3cd4:	48 83 ec 10          	sub    $0x10,%rsp
    3cd8:	48 89 7d f8          	mov    %rdi,-0x8(%rbp)
    3cdc:	48 8b 45 f8          	mov    -0x8(%rbp),%rax
    3ce0:	48 89 c7             	mov    %rax,%rdi
    3ce3:	e8 b0 03 00 00       	call   4098 <_ZN9__gnu_cxx13new_allocatorISt13_Rb_tree_nodeISt4pairIKNSt7__cxx1112basic_stringIcSt11char_traitsIcESaIcEEEP12netlist_elemEEED1Ev>
    3ce8:	90                   	nop
    3ce9:	c9                   	leave  
    3cea:	c3                   	ret    
    3ceb:	90                   	nop

0000000000003cec <_ZNSt8_Rb_treeINSt7__cxx1112basic_stringIcSt11char_traitsIcESaIcEEESt4pairIKS5_P12netlist_elemESt10_Select1stISA_ESt4lessIS5_ESaISA_EE8_M_eraseEPSt13_Rb_tree_nodeISA_E>:
    3cec:	f3 0f 1e fa          	endbr64 
    3cf0:	55                   	push   %rbp
    3cf1:	48 89 e5             	mov    %rsp,%rbp
    3cf4:	48 83 ec 20          	sub    $0x20,%rsp
    3cf8:	48 89 7d e8          	mov    %rdi,-0x18(%rbp)
    3cfc:	48 89 75 e0          	mov    %rsi,-0x20(%rbp)
    3d00:	eb 49                	jmp    3d4b <_ZNSt8_Rb_treeINSt7__cxx1112basic_stringIcSt11char_traitsIcESaIcEEESt4pairIKS5_P12netlist_elemESt10_Select1stISA_ESt4lessIS5_ESaISA_EE8_M_eraseEPSt13_Rb_tree_nodeISA_E+0x5f>
    3d02:	48 8b 45 e0          	mov    -0x20(%rbp),%rax
    3d06:	48 89 c7             	mov    %rax,%rdi
    3d09:	e8 99 03 00 00       	call   40a7 <_ZNSt8_Rb_treeINSt7__cxx1112basic_stringIcSt11char_traitsIcESaIcEEESt4pairIKS5_P12netlist_elemESt10_Select1stISA_ESt4lessIS5_ESaISA_EE8_S_rightEPSt18_Rb_tree_node_base>
    3d0e:	48 89 c2             	mov    %rax,%rdx
    3d11:	48 8b 45 e8          	mov    -0x18(%rbp),%rax
    3d15:	48 89 d6             	mov    %rdx,%rsi
    3d18:	48 89 c7             	mov    %rax,%rdi
    3d1b:	e8 cc ff ff ff       	call   3cec <_ZNSt8_Rb_treeINSt7__cxx1112basic_stringIcSt11char_traitsIcESaIcEEESt4pairIKS5_P12netlist_elemESt10_Select1stISA_ESt4lessIS5_ESaISA_EE8_M_eraseEPSt13_Rb_tree_nodeISA_E>
    3d20:	48 8b 45 e0          	mov    -0x20(%rbp),%rax
    3d24:	48 89 c7             	mov    %rax,%rdi
    3d27:	e8 91 03 00 00       	call   40bd <_ZNSt8_Rb_treeINSt7__cxx1112basic_stringIcSt11char_traitsIcESaIcEEESt4pairIKS5_P12netlist_elemESt10_Select1stISA_ESt4lessIS5_ESaISA_EE7_S_leftEPSt18_Rb_tree_node_base>
    3d2c:	48 89 45 f8          	mov    %rax,-0x8(%rbp)
    3d30:	48 8b 55 e0          	mov    -0x20(%rbp),%rdx
    3d34:	48 8b 45 e8          	mov    -0x18(%rbp),%rax
    3d38:	48 89 d6             	mov    %rdx,%rsi
    3d3b:	48 89 c7             	mov    %rax,%rdi
    3d3e:	e8 91 03 00 00       	call   40d4 <_ZNSt8_Rb_treeINSt7__cxx1112basic_stringIcSt11char_traitsIcESaIcEEESt4pairIKS5_P12netlist_elemESt10_Select1stISA_ESt4lessIS5_ESaISA_EE12_M_drop_nodeEPSt13_Rb_tree_nodeISA_E>
    3d43:	48 8b 45 f8          	mov    -0x8(%rbp),%rax
    3d47:	48 89 45 e0          	mov    %rax,-0x20(%rbp)
    3d4b:	48 83 7d e0 00       	cmpq   $0x0,-0x20(%rbp)
    3d50:	75 b0                	jne    3d02 <_ZNSt8_Rb_treeINSt7__cxx1112basic_stringIcSt11char_traitsIcESaIcEEESt4pairIKS5_P12netlist_elemESt10_Select1stISA_ESt4lessIS5_ESaISA_EE8_M_eraseEPSt13_Rb_tree_nodeISA_E+0x16>
    3d52:	90                   	nop
    3d53:	90                   	nop
    3d54:	c9                   	leave  
    3d55:	c3                   	ret    

0000000000003d56 <_ZNSt8_Rb_treeINSt7__cxx1112basic_stringIcSt11char_traitsIcESaIcEEESt4pairIKS5_P12netlist_elemESt10_Select1stISA_ESt4lessIS5_ESaISA_EE8_M_beginEv>:
    3d56:	f3 0f 1e fa          	endbr64 
    3d5a:	55                   	push   %rbp
    3d5b:	48 89 e5             	mov    %rsp,%rbp
    3d5e:	48 83 ec 10          	sub    $0x10,%rsp
    3d62:	48 89 7d f8          	mov    %rdi,-0x8(%rbp)
    3d66:	48 8b 45 f8          	mov    -0x8(%rbp),%rax
    3d6a:	48 89 c7             	mov    %rax,%rdi
    3d6d:	e8 a0 03 00 00       	call   4112 <_ZNKSt8_Rb_treeINSt7__cxx1112basic_stringIcSt11char_traitsIcESaIcEEESt4pairIKS5_P12netlist_elemESt10_Select1stISA_ESt4lessIS5_ESaISA_EE9_M_mbeginEv>
    3d72:	c9                   	leave  
    3d73:	c3                   	ret    

0000000000003d74 <_ZN9__gnu_cxx13new_allocatorImEC1Ev>:
    3d74:	f3 0f 1e fa          	endbr64 
    3d78:	55                   	push   %rbp
    3d79:	48 89 e5             	mov    %rsp,%rbp
    3d7c:	48 89 7d f8          	mov    %rdi,-0x8(%rbp)
    3d80:	90                   	nop
    3d81:	5d                   	pop    %rbp
    3d82:	c3                   	ret    
    3d83:	90                   	nop

0000000000003d84 <_ZN9__gnu_cxx13new_allocatorImED1Ev>:
    3d84:	f3 0f 1e fa          	endbr64 
    3d88:	55                   	push   %rbp
    3d89:	48 89 e5             	mov    %rsp,%rbp
    3d8c:	48 89 7d f8          	mov    %rdi,-0x8(%rbp)
    3d90:	90                   	nop
    3d91:	5d                   	pop    %rbp
    3d92:	c3                   	ret    

0000000000003d93 <_ZNSt6vectorImSaImEE17_S_check_init_lenEmRKS0_>:
    3d93:	f3 0f 1e fa          	endbr64 
    3d97:	55                   	push   %rbp
    3d98:	48 89 e5             	mov    %rsp,%rbp
    3d9b:	53                   	push   %rbx
    3d9c:	48 83 ec 28          	sub    $0x28,%rsp
    3da0:	48 89 7d d8          	mov    %rdi,-0x28(%rbp)
    3da4:	48 89 75 d0          	mov    %rsi,-0x30(%rbp)
    3da8:	64 48 8b 04 25 28 00 	mov    %fs:0x28,%rax
    3daf:	00 00 
    3db1:	48 89 45 e8          	mov    %rax,-0x18(%rbp)
    3db5:	31 c0                	xor    %eax,%eax
    3db7:	48 8b 55 d0          	mov    -0x30(%rbp),%rdx
    3dbb:	48 8d 45 e7          	lea    -0x19(%rbp),%rax
    3dbf:	48 89 d6             	mov    %rdx,%rsi
    3dc2:	48 89 c7             	mov    %rax,%rdi
    3dc5:	e8 c8 03 00 00       	call   4192 <_ZNSaImEC1ERKS_>
    3dca:	48 8d 45 e7          	lea    -0x19(%rbp),%rax
    3dce:	48 89 c7             	mov    %rax,%rdi
    3dd1:	e8 52 03 00 00       	call   4128 <_ZNSt6vectorImSaImEE11_S_max_sizeERKS0_>
    3dd6:	48 39 45 d8          	cmp    %rax,-0x28(%rbp)
    3dda:	0f 97 c3             	seta   %bl
    3ddd:	48 8d 45 e7          	lea    -0x19(%rbp),%rax
    3de1:	48 89 c7             	mov    %rax,%rdi
    3de4:	e8 33 fb ff ff       	call   391c <_ZNSaImED1Ev>
    3de9:	84 db                	test   %bl,%bl
    3deb:	74 0f                	je     3dfc <_ZNSt6vectorImSaImEE17_S_check_init_lenEmRKS0_+0x69>
    3ded:	48 8d 05 64 93 00 00 	lea    0x9364(%rip),%rax        # d158 <_ZL19NO_MATCHING_ELEMENT+0x128>
    3df4:	48 89 c7             	mov    %rax,%rdi
    3df7:	e8 84 e6 ff ff       	call   2480 <_ZSt20__throw_length_errorPKc@plt>
    3dfc:	48 8b 45 d8          	mov    -0x28(%rbp),%rax
    3e00:	48 8b 55 e8          	mov    -0x18(%rbp),%rdx
    3e04:	64 48 2b 14 25 28 00 	sub    %fs:0x28,%rdx
    3e0b:	00 00 
    3e0d:	74 05                	je     3e14 <_ZNSt6vectorImSaImEE17_S_check_init_lenEmRKS0_+0x81>
    3e0f:	e8 ec e7 ff ff       	call   2600 <__stack_chk_fail@plt>
    3e14:	48 8b 5d f8          	mov    -0x8(%rbp),%rbx
    3e18:	c9                   	leave  
    3e19:	c3                   	ret    

0000000000003e1a <_ZNSt12_Vector_baseImSaImEE12_Vector_implD1Ev>:
    3e1a:	f3 0f 1e fa          	endbr64 
    3e1e:	55                   	push   %rbp
    3e1f:	48 89 e5             	mov    %rsp,%rbp
    3e22:	48 83 ec 10          	sub    $0x10,%rsp
    3e26:	48 89 7d f8          	mov    %rdi,-0x8(%rbp)
    3e2a:	48 8b 45 f8          	mov    -0x8(%rbp),%rax
    3e2e:	48 89 c7             	mov    %rax,%rdi
    3e31:	e8 e6 fa ff ff       	call   391c <_ZNSaImED1Ev>
    3e36:	90                   	nop
    3e37:	c9                   	leave  
    3e38:	c3                   	ret    
    3e39:	90                   	nop

0000000000003e3a <_ZNSt12_Vector_baseImSaImEEC1EmRKS0_>:
    3e3a:	f3 0f 1e fa          	endbr64 
    3e3e:	55                   	push   %rbp
    3e3f:	48 89 e5             	mov    %rsp,%rbp
    3e42:	48 83 ec 20          	sub    $0x20,%rsp
    3e46:	48 89 7d f8          	mov    %rdi,-0x8(%rbp)
    3e4a:	48 89 75 f0          	mov    %rsi,-0x10(%rbp)
    3e4e:	48 89 55 e8          	mov    %rdx,-0x18(%rbp)
    3e52:	48 8b 45 f8          	mov    -0x8(%rbp),%rax
    3e56:	48 8b 55 e8          	mov    -0x18(%rbp),%rdx
    3e5a:	48 89 d6             	mov    %rdx,%rsi
    3e5d:	48 89 c7             	mov    %rax,%rdi
    3e60:	e8 57 03 00 00       	call   41bc <_ZNSt12_Vector_baseImSaImEE12_Vector_implC1ERKS0_>
    3e65:	48 8b 55 f0          	mov    -0x10(%rbp),%rdx
    3e69:	48 8b 45 f8          	mov    -0x8(%rbp),%rax
    3e6d:	48 89 d6             	mov    %rdx,%rsi
    3e70:	48 89 c7             	mov    %rax,%rdi
    3e73:	e8 7a 03 00 00       	call   41f2 <_ZNSt12_Vector_baseImSaImEE17_M_create_storageEm>
    3e78:	90                   	nop
    3e79:	c9                   	leave  
    3e7a:	c3                   	ret    
    3e7b:	90                   	nop

0000000000003e7c <_ZNSt12_Vector_baseImSaImEED1Ev>:
    3e7c:	f3 0f 1e fa          	endbr64 
    3e80:	55                   	push   %rbp
    3e81:	48 89 e5             	mov    %rsp,%rbp
    3e84:	48 83 ec 10          	sub    $0x10,%rsp
    3e88:	48 89 7d f8          	mov    %rdi,-0x8(%rbp)
    3e8c:	48 8b 45 f8          	mov    -0x8(%rbp),%rax
    3e90:	48 8b 50 10          	mov    0x10(%rax),%rdx
    3e94:	48 8b 45 f8          	mov    -0x8(%rbp),%rax
    3e98:	48 8b 08             	mov    (%rax),%rcx
    3e9b:	48 89 d0             	mov    %rdx,%rax
    3e9e:	48 29 c8             	sub    %rcx,%rax
    3ea1:	48 c1 f8 03          	sar    $0x3,%rax
    3ea5:	48 89 c2             	mov    %rax,%rdx
    3ea8:	48 8b 45 f8          	mov    -0x8(%rbp),%rax
    3eac:	48 8b 08             	mov    (%rax),%rcx
    3eaf:	48 8b 45 f8          	mov    -0x8(%rbp),%rax
    3eb3:	48 89 ce             	mov    %rcx,%rsi
    3eb6:	48 89 c7             	mov    %rax,%rdi
    3eb9:	e8 8e 03 00 00       	call   424c <_ZNSt12_Vector_baseImSaImEE13_M_deallocateEPmm>
    3ebe:	48 8b 45 f8          	mov    -0x8(%rbp),%rax
    3ec2:	48 89 c7             	mov    %rax,%rdi
    3ec5:	e8 50 ff ff ff       	call   3e1a <_ZNSt12_Vector_baseImSaImEE12_Vector_implD1Ev>
    3eca:	90                   	nop
    3ecb:	c9                   	leave  
    3ecc:	c3                   	ret    
    3ecd:	90                   	nop

0000000000003ece <_ZNSt6vectorImSaImEE21_M_default_initializeEm>:
    3ece:	f3 0f 1e fa          	endbr64 
    3ed2:	55                   	push   %rbp
    3ed3:	48 89 e5             	mov    %rsp,%rbp
    3ed6:	48 83 ec 10          	sub    $0x10,%rsp
    3eda:	48 89 7d f8          	mov    %rdi,-0x8(%rbp)
    3ede:	48 89 75 f0          	mov    %rsi,-0x10(%rbp)
    3ee2:	48 8b 45 f8          	mov    -0x8(%rbp),%rax
    3ee6:	48 89 c7             	mov    %rax,%rdi
    3ee9:	e8 24 00 00 00       	call   3f12 <_ZNSt12_Vector_baseImSaImEE19_M_get_Tp_allocatorEv>
    3eee:	48 89 c2             	mov    %rax,%rdx
    3ef1:	48 8b 45 f8          	mov    -0x8(%rbp),%rax
    3ef5:	48 8b 00             	mov    (%rax),%rax
    3ef8:	48 8b 4d f0          	mov    -0x10(%rbp),%rcx
    3efc:	48 89 ce             	mov    %rcx,%rsi
    3eff:	48 89 c7             	mov    %rax,%rdi
    3f02:	e8 7e 03 00 00       	call   4285 <_ZSt27__uninitialized_default_n_aIPmmmET_S1_T0_RSaIT1_E>
    3f07:	48 8b 55 f8          	mov    -0x8(%rbp),%rdx
    3f0b:	48 89 42 08          	mov    %rax,0x8(%rdx)
    3f0f:	90                   	nop
    3f10:	c9                   	leave  
    3f11:	c3                   	ret    

0000000000003f12 <_ZNSt12_Vector_baseImSaImEE19_M_get_Tp_allocatorEv>:
    3f12:	f3 0f 1e fa          	endbr64 
    3f16:	55                   	push   %rbp
    3f17:	48 89 e5             	mov    %rsp,%rbp
    3f1a:	48 89 7d f8          	mov    %rdi,-0x8(%rbp)
    3f1e:	48 8b 45 f8          	mov    -0x8(%rbp),%rax
    3f22:	5d                   	pop    %rbp
    3f23:	c3                   	ret    

0000000000003f24 <_ZSt8_DestroyIPmmEvT_S1_RSaIT0_E>:
    3f24:	f3 0f 1e fa          	endbr64 
    3f28:	55                   	push   %rbp
    3f29:	48 89 e5             	mov    %rsp,%rbp
    3f2c:	48 83 ec 20          	sub    $0x20,%rsp
    3f30:	48 89 7d f8          	mov    %rdi,-0x8(%rbp)
    3f34:	48 89 75 f0          	mov    %rsi,-0x10(%rbp)
    3f38:	48 89 55 e8          	mov    %rdx,-0x18(%rbp)
    3f3c:	48 8b 55 f0          	mov    -0x10(%rbp),%rdx
    3f40:	48 8b 45 f8          	mov    -0x8(%rbp),%rax
    3f44:	48 89 d6             	mov    %rdx,%rsi
    3f47:	48 89 c7             	mov    %rax,%rdi
    3f4a:	e8 63 03 00 00       	call   42b2 <_ZSt8_DestroyIPmEvT_S1_>
    3f4f:	90                   	nop
    3f50:	c9                   	leave  
    3f51:	c3                   	ret    

0000000000003f52 <_ZN9__gnu_cxx17__is_null_pointerIKcEEbPT_>:
    3f52:	f3 0f 1e fa          	endbr64 
    3f56:	55                   	push   %rbp
    3f57:	48 89 e5             	mov    %rsp,%rbp
    3f5a:	48 89 7d f8          	mov    %rdi,-0x8(%rbp)
    3f5e:	48 83 7d f8 00       	cmpq   $0x0,-0x8(%rbp)
    3f63:	0f 94 c0             	sete   %al
    3f66:	5d                   	pop    %rbp
    3f67:	c3                   	ret    

0000000000003f68 <_ZSt19__iterator_categoryIPKcENSt15iterator_traitsIT_E17iterator_categoryERKS3_>:
    3f68:	f3 0f 1e fa          	endbr64 
    3f6c:	55                   	push   %rbp
    3f6d:	48 89 e5             	mov    %rsp,%rbp
    3f70:	48 89 7d f8          	mov    %rdi,-0x8(%rbp)
    3f74:	5d                   	pop    %rbp
    3f75:	c3                   	ret    

0000000000003f76 <_ZSt10__distanceIPKcENSt15iterator_traitsIT_E15difference_typeES3_S3_St26random_access_iterator_tag>:
    3f76:	f3 0f 1e fa          	endbr64 
    3f7a:	55                   	push   %rbp
    3f7b:	48 89 e5             	mov    %rsp,%rbp
    3f7e:	48 89 7d f8          	mov    %rdi,-0x8(%rbp)
    3f82:	48 89 75 f0          	mov    %rsi,-0x10(%rbp)
    3f86:	48 8b 45 f0          	mov    -0x10(%rbp),%rax
    3f8a:	48 2b 45 f8          	sub    -0x8(%rbp),%rax
    3f8e:	5d                   	pop    %rbp
    3f8f:	c3                   	ret    

0000000000003f90 <_ZNSaI12netlist_elemED1Ev>:
    3f90:	f3 0f 1e fa          	endbr64 
    3f94:	55                   	push   %rbp
    3f95:	48 89 e5             	mov    %rsp,%rbp
    3f98:	48 83 ec 10          	sub    $0x10,%rsp
    3f9c:	48 89 7d f8          	mov    %rdi,-0x8(%rbp)
    3fa0:	48 8b 45 f8          	mov    -0x8(%rbp),%rax
    3fa4:	48 89 c7             	mov    %rax,%rdi
    3fa7:	e8 30 03 00 00       	call   42dc <_ZN9__gnu_cxx13new_allocatorI12netlist_elemED1Ev>
    3fac:	90                   	nop
    3fad:	c9                   	leave  
    3fae:	c3                   	ret    
    3faf:	90                   	nop

0000000000003fb0 <_ZNSt12_Vector_baseI12netlist_elemSaIS0_EE13_M_deallocateEPS0_m>:
    3fb0:	f3 0f 1e fa          	endbr64 
    3fb4:	55                   	push   %rbp
    3fb5:	48 89 e5             	mov    %rsp,%rbp
    3fb8:	48 83 ec 20          	sub    $0x20,%rsp
    3fbc:	48 89 7d f8          	mov    %rdi,-0x8(%rbp)
    3fc0:	48 89 75 f0          	mov    %rsi,-0x10(%rbp)
    3fc4:	48 89 55 e8          	mov    %rdx,-0x18(%rbp)
    3fc8:	48 83 7d f0 00       	cmpq   $0x0,-0x10(%rbp)
    3fcd:	74 17                	je     3fe6 <_ZNSt12_Vector_baseI12netlist_elemSaIS0_EE13_M_deallocateEPS0_m+0x36>
    3fcf:	48 8b 45 f8          	mov    -0x8(%rbp),%rax
    3fd3:	48 8b 55 e8          	mov    -0x18(%rbp),%rdx
    3fd7:	48 8b 4d f0          	mov    -0x10(%rbp),%rcx
    3fdb:	48 89 ce             	mov    %rcx,%rsi
    3fde:	48 89 c7             	mov    %rax,%rdi
    3fe1:	e8 05 03 00 00       	call   42eb <_ZNSt16allocator_traitsISaI12netlist_elemEE10deallocateERS1_PS0_m>
    3fe6:	90                   	nop
    3fe7:	c9                   	leave  
    3fe8:	c3                   	ret    

0000000000003fe9 <_ZSt8_DestroyIP12netlist_elemEvT_S2_>:
    3fe9:	f3 0f 1e fa          	endbr64 
    3fed:	55                   	push   %rbp
    3fee:	48 89 e5             	mov    %rsp,%rbp
    3ff1:	48 83 ec 10          	sub    $0x10,%rsp
    3ff5:	48 89 7d f8          	mov    %rdi,-0x8(%rbp)
    3ff9:	48 89 75 f0          	mov    %rsi,-0x10(%rbp)
    3ffd:	48 8b 55 f0          	mov    -0x10(%rbp),%rdx
    4001:	48 8b 45 f8          	mov    -0x8(%rbp),%rax
    4005:	48 89 d6             	mov    %rdx,%rsi
    4008:	48 89 c7             	mov    %rax,%rdi
    400b:	e8 0d 03 00 00       	call   431d <_ZNSt12_Destroy_auxILb0EE9__destroyIP12netlist_elemEEvT_S4_>
    4010:	90                   	nop
    4011:	c9                   	leave  
    4012:	c3                   	ret    
    4013:	90                   	nop

0000000000004014 <_ZNSaISt6vectorI10location_tSaIS0_EEED1Ev>:
    4014:	f3 0f 1e fa          	endbr64 
    4018:	55                   	push   %rbp
    4019:	48 89 e5             	mov    %rsp,%rbp
    401c:	48 83 ec 10          	sub    $0x10,%rsp
    4020:	48 89 7d f8          	mov    %rdi,-0x8(%rbp)
    4024:	48 8b 45 f8          	mov    -0x8(%rbp),%rax
    4028:	48 89 c7             	mov    %rax,%rdi
    402b:	e8 2a 03 00 00       	call   435a <_ZN9__gnu_cxx13new_allocatorISt6vectorI10location_tSaIS2_EEED1Ev>
    4030:	90                   	nop
    4031:	c9                   	leave  
    4032:	c3                   	ret    
    4033:	90                   	nop

0000000000004034 <_ZNSt12_Vector_baseISt6vectorI10location_tSaIS1_EESaIS3_EE13_M_deallocateEPS3_m>:
    4034:	f3 0f 1e fa          	endbr64 
    4038:	55                   	push   %rbp
    4039:	48 89 e5             	mov    %rsp,%rbp
    403c:	48 83 ec 20          	sub    $0x20,%rsp
    4040:	48 89 7d f8          	mov    %rdi,-0x8(%rbp)
    4044:	48 89 75 f0          	mov    %rsi,-0x10(%rbp)
    4048:	48 89 55 e8          	mov    %rdx,-0x18(%rbp)
    404c:	48 83 7d f0 00       	cmpq   $0x0,-0x10(%rbp)
    4051:	74 17                	je     406a <_ZNSt12_Vector_baseISt6vectorI10location_tSaIS1_EESaIS3_EE13_M_deallocateEPS3_m+0x36>
    4053:	48 8b 45 f8          	mov    -0x8(%rbp),%rax
    4057:	48 8b 55 e8          	mov    -0x18(%rbp),%rdx
    405b:	48 8b 4d f0          	mov    -0x10(%rbp),%rcx
    405f:	48 89 ce             	mov    %rcx,%rsi
    4062:	48 89 c7             	mov    %rax,%rdi
    4065:	e8 ff 02 00 00       	call   4369 <_ZNSt16allocator_traitsISaISt6vectorI10location_tSaIS1_EEEE10deallocateERS4_PS3_m>
    406a:	90                   	nop
    406b:	c9                   	leave  
    406c:	c3                   	ret    

000000000000406d <_ZSt8_DestroyIPSt6vectorI10location_tSaIS1_EEEvT_S5_>:
    406d:	f3 0f 1e fa          	endbr64 
    4071:	55                   	push   %rbp
    4072:	48 89 e5             	mov    %rsp,%rbp
    4075:	48 83 ec 10          	sub    $0x10,%rsp
    4079:	48 89 7d f8          	mov    %rdi,-0x8(%rbp)
    407d:	48 89 75 f0          	mov    %rsi,-0x10(%rbp)
    4081:	48 8b 55 f0          	mov    -0x10(%rbp),%rdx
    4085:	48 8b 45 f8          	mov    -0x8(%rbp),%rax
    4089:	48 89 d6             	mov    %rdx,%rsi
    408c:	48 89 c7             	mov    %rax,%rdi
    408f:	e8 07 03 00 00       	call   439b <_ZNSt12_Destroy_auxILb0EE9__destroyIPSt6vectorI10location_tSaIS3_EEEEvT_S7_>
    4094:	90                   	nop
    4095:	c9                   	leave  
    4096:	c3                   	ret    
    4097:	90                   	nop

0000000000004098 <_ZN9__gnu_cxx13new_allocatorISt13_Rb_tree_nodeISt4pairIKNSt7__cxx1112basic_stringIcSt11char_traitsIcESaIcEEEP12netlist_elemEEED1Ev>:
    4098:	f3 0f 1e fa          	endbr64 
    409c:	55                   	push   %rbp
    409d:	48 89 e5             	mov    %rsp,%rbp
    40a0:	48 89 7d f8          	mov    %rdi,-0x8(%rbp)
    40a4:	90                   	nop
    40a5:	5d                   	pop    %rbp
    40a6:	c3                   	ret    

00000000000040a7 <_ZNSt8_Rb_treeINSt7__cxx1112basic_stringIcSt11char_traitsIcESaIcEEESt4pairIKS5_P12netlist_elemESt10_Select1stISA_ESt4lessIS5_ESaISA_EE8_S_rightEPSt18_Rb_tree_node_base>:
    40a7:	f3 0f 1e fa          	endbr64 
    40ab:	55                   	push   %rbp
    40ac:	48 89 e5             	mov    %rsp,%rbp
    40af:	48 89 7d f8          	mov    %rdi,-0x8(%rbp)
    40b3:	48 8b 45 f8          	mov    -0x8(%rbp),%rax
    40b7:	48 8b 40 18          	mov    0x18(%rax),%rax
    40bb:	5d                   	pop    %rbp
    40bc:	c3                   	ret    

00000000000040bd <_ZNSt8_Rb_treeINSt7__cxx1112basic_stringIcSt11char_traitsIcESaIcEEESt4pairIKS5_P12netlist_elemESt10_Select1stISA_ESt4lessIS5_ESaISA_EE7_S_leftEPSt18_Rb_tree_node_base>:
    40bd:	f3 0f 1e fa          	endbr64 
    40c1:	55                   	push   %rbp
    40c2:	48 89 e5             	mov    %rsp,%rbp
    40c5:	48 89 7d f8          	mov    %rdi,-0x8(%rbp)
    40c9:	48 8b 45 f8          	mov    -0x8(%rbp),%rax
    40cd:	48 8b 40 10          	mov    0x10(%rax),%rax
    40d1:	5d                   	pop    %rbp
    40d2:	c3                   	ret    
    40d3:	90                   	nop

00000000000040d4 <_ZNSt8_Rb_treeINSt7__cxx1112basic_stringIcSt11char_traitsIcESaIcEEESt4pairIKS5_P12netlist_elemESt10_Select1stISA_ESt4lessIS5_ESaISA_EE12_M_drop_nodeEPSt13_Rb_tree_nodeISA_E>:
    40d4:	f3 0f 1e fa          	endbr64 
    40d8:	55                   	push   %rbp
    40d9:	48 89 e5             	mov    %rsp,%rbp
    40dc:	48 83 ec 10          	sub    $0x10,%rsp
    40e0:	48 89 7d f8          	mov    %rdi,-0x8(%rbp)
    40e4:	48 89 75 f0          	mov    %rsi,-0x10(%rbp)
    40e8:	48 8b 55 f0          	mov    -0x10(%rbp),%rdx
    40ec:	48 8b 45 f8          	mov    -0x8(%rbp),%rax
    40f0:	48 89 d6             	mov    %rdx,%rsi
    40f3:	48 89 c7             	mov    %rax,%rdi
    40f6:	e8 dd 02 00 00       	call   43d8 <_ZNSt8_Rb_treeINSt7__cxx1112basic_stringIcSt11char_traitsIcESaIcEEESt4pairIKS5_P12netlist_elemESt10_Select1stISA_ESt4lessIS5_ESaISA_EE15_M_destroy_nodeEPSt13_Rb_tree_nodeISA_E>
    40fb:	48 8b 55 f0          	mov    -0x10(%rbp),%rdx
    40ff:	48 8b 45 f8          	mov    -0x8(%rbp),%rax
    4103:	48 89 d6             	mov    %rdx,%rsi
    4106:	48 89 c7             	mov    %rax,%rdi
    4109:	e8 0c 03 00 00       	call   441a <_ZNSt8_Rb_treeINSt7__cxx1112basic_stringIcSt11char_traitsIcESaIcEEESt4pairIKS5_P12netlist_elemESt10_Select1stISA_ESt4lessIS5_ESaISA_EE11_M_put_nodeEPSt13_Rb_tree_nodeISA_E>
    410e:	90                   	nop
    410f:	c9                   	leave  
    4110:	c3                   	ret    
    4111:	90                   	nop

0000000000004112 <_ZNKSt8_Rb_treeINSt7__cxx1112basic_stringIcSt11char_traitsIcESaIcEEESt4pairIKS5_P12netlist_elemESt10_Select1stISA_ESt4lessIS5_ESaISA_EE9_M_mbeginEv>:
    4112:	f3 0f 1e fa          	endbr64 
    4116:	55                   	push   %rbp
    4117:	48 89 e5             	mov    %rsp,%rbp
    411a:	48 89 7d f8          	mov    %rdi,-0x8(%rbp)
    411e:	48 8b 45 f8          	mov    -0x8(%rbp),%rax
    4122:	48 8b 40 10          	mov    0x10(%rax),%rax
    4126:	5d                   	pop    %rbp
    4127:	c3                   	ret    

0000000000004128 <_ZNSt6vectorImSaImEE11_S_max_sizeERKS0_>:
    4128:	f3 0f 1e fa          	endbr64 
    412c:	55                   	push   %rbp
    412d:	48 89 e5             	mov    %rsp,%rbp
    4130:	48 83 ec 30          	sub    $0x30,%rsp
    4134:	48 89 7d d8          	mov    %rdi,-0x28(%rbp)
    4138:	64 48 8b 04 25 28 00 	mov    %fs:0x28,%rax
    413f:	00 00 
    4141:	48 89 45 f8          	mov    %rax,-0x8(%rbp)
    4145:	31 c0                	xor    %eax,%eax
    4147:	48 b8 ff ff ff ff ff 	movabs $0xfffffffffffffff,%rax
    414e:	ff ff 0f 
    4151:	48 89 45 e8          	mov    %rax,-0x18(%rbp)
    4155:	48 8b 45 d8          	mov    -0x28(%rbp),%rax
    4159:	48 89 c7             	mov    %rax,%rdi
    415c:	e8 f3 02 00 00       	call   4454 <_ZNSt16allocator_traitsISaImEE8max_sizeERKS0_>
    4161:	48 89 45 f0          	mov    %rax,-0x10(%rbp)
    4165:	48 8d 55 f0          	lea    -0x10(%rbp),%rdx
    4169:	48 8d 45 e8          	lea    -0x18(%rbp),%rax
    416d:	48 89 d6             	mov    %rdx,%rsi
    4170:	48 89 c7             	mov    %rax,%rdi
    4173:	e8 fa 02 00 00       	call   4472 <_ZSt3minImERKT_S2_S2_>
    4178:	48 8b 00             	mov    (%rax),%rax
    417b:	48 8b 55 f8          	mov    -0x8(%rbp),%rdx
    417f:	64 48 2b 14 25 28 00 	sub    %fs:0x28,%rdx
    4186:	00 00 
    4188:	74 05                	je     418f <_ZNSt6vectorImSaImEE11_S_max_sizeERKS0_+0x67>
    418a:	e8 71 e4 ff ff       	call   2600 <__stack_chk_fail@plt>
    418f:	c9                   	leave  
    4190:	c3                   	ret    
    4191:	90                   	nop

0000000000004192 <_ZNSaImEC1ERKS_>:
    4192:	f3 0f 1e fa          	endbr64 
    4196:	55                   	push   %rbp
    4197:	48 89 e5             	mov    %rsp,%rbp
    419a:	48 83 ec 10          	sub    $0x10,%rsp
    419e:	48 89 7d f8          	mov    %rdi,-0x8(%rbp)
    41a2:	48 89 75 f0          	mov    %rsi,-0x10(%rbp)
    41a6:	48 8b 55 f0          	mov    -0x10(%rbp),%rdx
    41aa:	48 8b 45 f8          	mov    -0x8(%rbp),%rax
    41ae:	48 89 d6             	mov    %rdx,%rsi
    41b1:	48 89 c7             	mov    %rax,%rdi
    41b4:	e8 e9 02 00 00       	call   44a2 <_ZN9__gnu_cxx13new_allocatorImEC1ERKS1_>
    41b9:	90                   	nop
    41ba:	c9                   	leave  
    41bb:	c3                   	ret    

00000000000041bc <_ZNSt12_Vector_baseImSaImEE12_Vector_implC1ERKS0_>:
    41bc:	f3 0f 1e fa          	endbr64 
    41c0:	55                   	push   %rbp
    41c1:	48 89 e5             	mov    %rsp,%rbp
    41c4:	48 83 ec 10          	sub    $0x10,%rsp
    41c8:	48 89 7d f8          	mov    %rdi,-0x8(%rbp)
    41cc:	48 89 75 f0          	mov    %rsi,-0x10(%rbp)
    41d0:	48 8b 55 f0          	mov    -0x10(%rbp),%rdx
    41d4:	48 8b 45 f8          	mov    -0x8(%rbp),%rax
    41d8:	48 89 d6             	mov    %rdx,%rsi
    41db:	48 89 c7             	mov    %rax,%rdi
    41de:	e8 af ff ff ff       	call   4192 <_ZNSaImEC1ERKS_>
    41e3:	48 8b 45 f8          	mov    -0x8(%rbp),%rax
    41e7:	48 89 c7             	mov    %rax,%rdi
    41ea:	e8 c7 02 00 00       	call   44b6 <_ZNSt12_Vector_baseImSaImEE17_Vector_impl_dataC1Ev>
    41ef:	90                   	nop
    41f0:	c9                   	leave  
    41f1:	c3                   	ret    

00000000000041f2 <_ZNSt12_Vector_baseImSaImEE17_M_create_storageEm>:
    41f2:	f3 0f 1e fa          	endbr64 
    41f6:	55                   	push   %rbp
    41f7:	48 89 e5             	mov    %rsp,%rbp
    41fa:	48 83 ec 10          	sub    $0x10,%rsp
    41fe:	48 89 7d f8          	mov    %rdi,-0x8(%rbp)
    4202:	48 89 75 f0          	mov    %rsi,-0x10(%rbp)
    4206:	48 8b 55 f0          	mov    -0x10(%rbp),%rdx
    420a:	48 8b 45 f8          	mov    -0x8(%rbp),%rax
    420e:	48 89 d6             	mov    %rdx,%rsi
    4211:	48 89 c7             	mov    %rax,%rdi
    4214:	e8 cf 02 00 00       	call   44e8 <_ZNSt12_Vector_baseImSaImEE11_M_allocateEm>
    4219:	48 8b 55 f8          	mov    -0x8(%rbp),%rdx
    421d:	48 89 02             	mov    %rax,(%rdx)
    4220:	48 8b 45 f8          	mov    -0x8(%rbp),%rax
    4224:	48 8b 10             	mov    (%rax),%rdx
    4227:	48 8b 45 f8          	mov    -0x8(%rbp),%rax
    422b:	48 89 50 08          	mov    %rdx,0x8(%rax)
    422f:	48 8b 45 f8          	mov    -0x8(%rbp),%rax
    4233:	48 8b 10             	mov    (%rax),%rdx
    4236:	48 8b 45 f0          	mov    -0x10(%rbp),%rax
    423a:	48 c1 e0 03          	shl    $0x3,%rax
    423e:	48 01 c2             	add    %rax,%rdx
    4241:	48 8b 45 f8          	mov    -0x8(%rbp),%rax
    4245:	48 89 50 10          	mov    %rdx,0x10(%rax)
    4249:	90                   	nop
    424a:	c9                   	leave  
    424b:	c3                   	ret    

000000000000424c <_ZNSt12_Vector_baseImSaImEE13_M_deallocateEPmm>:
    424c:	f3 0f 1e fa          	endbr64 
    4250:	55                   	push   %rbp
    4251:	48 89 e5             	mov    %rsp,%rbp
    4254:	48 83 ec 20          	sub    $0x20,%rsp
    4258:	48 89 7d f8          	mov    %rdi,-0x8(%rbp)
    425c:	48 89 75 f0          	mov    %rsi,-0x10(%rbp)
    4260:	48 89 55 e8          	mov    %rdx,-0x18(%rbp)
    4264:	48 83 7d f0 00       	cmpq   $0x0,-0x10(%rbp)
    4269:	74 17                	je     4282 <_ZNSt12_Vector_baseImSaImEE13_M_deallocateEPmm+0x36>
    426b:	48 8b 45 f8          	mov    -0x8(%rbp),%rax
    426f:	48 8b 55 e8          	mov    -0x18(%rbp),%rdx
    4273:	48 8b 4d f0          	mov    -0x10(%rbp),%rcx
    4277:	48 89 ce             	mov    %rcx,%rsi
    427a:	48 89 c7             	mov    %rax,%rdi
    427d:	e8 9d 02 00 00       	call   451f <_ZNSt16allocator_traitsISaImEE10deallocateERS0_Pmm>
    4282:	90                   	nop
    4283:	c9                   	leave  
    4284:	c3                   	ret    

0000000000004285 <_ZSt27__uninitialized_default_n_aIPmmmET_S1_T0_RSaIT1_E>:
    4285:	f3 0f 1e fa          	endbr64 
    4289:	55                   	push   %rbp
    428a:	48 89 e5             	mov    %rsp,%rbp
    428d:	48 83 ec 20          	sub    $0x20,%rsp
    4291:	48 89 7d f8          	mov    %rdi,-0x8(%rbp)
    4295:	48 89 75 f0          	mov    %rsi,-0x10(%rbp)
    4299:	48 89 55 e8          	mov    %rdx,-0x18(%rbp)
    429d:	48 8b 55 f0          	mov    -0x10(%rbp),%rdx
    42a1:	48 8b 45 f8          	mov    -0x8(%rbp),%rax
    42a5:	48 89 d6             	mov    %rdx,%rsi
    42a8:	48 89 c7             	mov    %rax,%rdi
    42ab:	e8 a1 02 00 00       	call   4551 <_ZSt25__uninitialized_default_nIPmmET_S1_T0_>
    42b0:	c9                   	leave  
    42b1:	c3                   	ret    

00000000000042b2 <_ZSt8_DestroyIPmEvT_S1_>:
    42b2:	f3 0f 1e fa          	endbr64 
    42b6:	55                   	push   %rbp
    42b7:	48 89 e5             	mov    %rsp,%rbp
    42ba:	48 83 ec 10          	sub    $0x10,%rsp
    42be:	48 89 7d f8          	mov    %rdi,-0x8(%rbp)
    42c2:	48 89 75 f0          	mov    %rsi,-0x10(%rbp)
    42c6:	48 8b 55 f0          	mov    -0x10(%rbp),%rdx
    42ca:	48 8b 45 f8          	mov    -0x8(%rbp),%rax
    42ce:	48 89 d6             	mov    %rdx,%rsi
    42d1:	48 89 c7             	mov    %rax,%rdi
    42d4:	e8 a5 02 00 00       	call   457e <_ZNSt12_Destroy_auxILb1EE9__destroyIPmEEvT_S3_>
    42d9:	90                   	nop
    42da:	c9                   	leave  
    42db:	c3                   	ret    

00000000000042dc <_ZN9__gnu_cxx13new_allocatorI12netlist_elemED1Ev>:
    42dc:	f3 0f 1e fa          	endbr64 
    42e0:	55                   	push   %rbp
    42e1:	48 89 e5             	mov    %rsp,%rbp
    42e4:	48 89 7d f8          	mov    %rdi,-0x8(%rbp)
    42e8:	90                   	nop
    42e9:	5d                   	pop    %rbp
    42ea:	c3                   	ret    

00000000000042eb <_ZNSt16allocator_traitsISaI12netlist_elemEE10deallocateERS1_PS0_m>:
    42eb:	f3 0f 1e fa          	endbr64 
    42ef:	55                   	push   %rbp
    42f0:	48 89 e5             	mov    %rsp,%rbp
    42f3:	48 83 ec 20          	sub    $0x20,%rsp
    42f7:	48 89 7d f8          	mov    %rdi,-0x8(%rbp)
    42fb:	48 89 75 f0          	mov    %rsi,-0x10(%rbp)
    42ff:	48 89 55 e8          	mov    %rdx,-0x18(%rbp)
    4303:	48 8b 55 e8          	mov    -0x18(%rbp),%rdx
    4307:	48 8b 4d f0          	mov    -0x10(%rbp),%rcx
    430b:	48 8b 45 f8          	mov    -0x8(%rbp),%rax
    430f:	48 89 ce             	mov    %rcx,%rsi
    4312:	48 89 c7             	mov    %rax,%rdi
    4315:	e8 78 02 00 00       	call   4592 <_ZN9__gnu_cxx13new_allocatorI12netlist_elemE10deallocateEPS1_m>
    431a:	90                   	nop
    431b:	c9                   	leave  
    431c:	c3                   	ret    

000000000000431d <_ZNSt12_Destroy_auxILb0EE9__destroyIP12netlist_elemEEvT_S4_>:
    431d:	f3 0f 1e fa          	endbr64 
    4321:	55                   	push   %rbp
    4322:	48 89 e5             	mov    %rsp,%rbp
    4325:	48 83 ec 10          	sub    $0x10,%rsp
    4329:	48 89 7d f8          	mov    %rdi,-0x8(%rbp)
    432d:	48 89 75 f0          	mov    %rsi,-0x10(%rbp)
    4331:	eb 19                	jmp    434c <_ZNSt12_Destroy_auxILb0EE9__destroyIP12netlist_elemEEvT_S4_+0x2f>
    4333:	48 8b 45 f8          	mov    -0x8(%rbp),%rax
    4337:	48 89 c7             	mov    %rax,%rdi
    433a:	e8 97 02 00 00       	call   45d6 <_ZSt11__addressofI12netlist_elemEPT_RS1_>
    433f:	48 89 c7             	mov    %rax,%rdi
    4342:	e8 e0 02 00 00       	call   4627 <_ZSt8_DestroyI12netlist_elemEvPT_>
    4347:	48 83 45 f8 58       	addq   $0x58,-0x8(%rbp)
    434c:	48 8b 45 f8          	mov    -0x8(%rbp),%rax
    4350:	48 3b 45 f0          	cmp    -0x10(%rbp),%rax
    4354:	75 dd                	jne    4333 <_ZNSt12_Destroy_auxILb0EE9__destroyIP12netlist_elemEEvT_S4_+0x16>
    4356:	90                   	nop
    4357:	90                   	nop
    4358:	c9                   	leave  
    4359:	c3                   	ret    

000000000000435a <_ZN9__gnu_cxx13new_allocatorISt6vectorI10location_tSaIS2_EEED1Ev>:
    435a:	f3 0f 1e fa          	endbr64 
    435e:	55                   	push   %rbp
    435f:	48 89 e5             	mov    %rsp,%rbp
    4362:	48 89 7d f8          	mov    %rdi,-0x8(%rbp)
    4366:	90                   	nop
    4367:	5d                   	pop    %rbp
    4368:	c3                   	ret    

0000000000004369 <_ZNSt16allocator_traitsISaISt6vectorI10location_tSaIS1_EEEE10deallocateERS4_PS3_m>:
    4369:	f3 0f 1e fa          	endbr64 
    436d:	55                   	push   %rbp
    436e:	48 89 e5             	mov    %rsp,%rbp
    4371:	48 83 ec 20          	sub    $0x20,%rsp
    4375:	48 89 7d f8          	mov    %rdi,-0x8(%rbp)
    4379:	48 89 75 f0          	mov    %rsi,-0x10(%rbp)
    437d:	48 89 55 e8          	mov    %rdx,-0x18(%rbp)
    4381:	48 8b 55 e8          	mov    -0x18(%rbp),%rdx
    4385:	48 8b 4d f0          	mov    -0x10(%rbp),%rcx
    4389:	48 8b 45 f8          	mov    -0x8(%rbp),%rax
    438d:	48 89 ce             	mov    %rcx,%rsi
    4390:	48 89 c7             	mov    %rax,%rdi
    4393:	e8 ae 02 00 00       	call   4646 <_ZN9__gnu_cxx13new_allocatorISt6vectorI10location_tSaIS2_EEE10deallocateEPS4_m>
    4398:	90                   	nop
    4399:	c9                   	leave  
    439a:	c3                   	ret    

000000000000439b <_ZNSt12_Destroy_auxILb0EE9__destroyIPSt6vectorI10location_tSaIS3_EEEEvT_S7_>:
    439b:	f3 0f 1e fa          	endbr64 
    439f:	55                   	push   %rbp
    43a0:	48 89 e5             	mov    %rsp,%rbp
    43a3:	48 83 ec 10          	sub    $0x10,%rsp
    43a7:	48 89 7d f8          	mov    %rdi,-0x8(%rbp)
    43ab:	48 89 75 f0          	mov    %rsi,-0x10(%rbp)
    43af:	eb 19                	jmp    43ca <_ZNSt12_Destroy_auxILb0EE9__destroyIPSt6vectorI10location_tSaIS3_EEEEvT_S7_+0x2f>
    43b1:	48 8b 45 f8          	mov    -0x8(%rbp),%rax
    43b5:	48 89 c7             	mov    %rax,%rdi
    43b8:	e8 c6 02 00 00       	call   4683 <_ZSt11__addressofISt6vectorI10location_tSaIS1_EEEPT_RS4_>
    43bd:	48 89 c7             	mov    %rax,%rdi
    43c0:	e8 d0 02 00 00       	call   4695 <_ZSt8_DestroyISt6vectorI10location_tSaIS1_EEEvPT_>
    43c5:	48 83 45 f8 18       	addq   $0x18,-0x8(%rbp)
    43ca:	48 8b 45 f8          	mov    -0x8(%rbp),%rax
    43ce:	48 3b 45 f0          	cmp    -0x10(%rbp),%rax
    43d2:	75 dd                	jne    43b1 <_ZNSt12_Destroy_auxILb0EE9__destroyIPSt6vectorI10location_tSaIS3_EEEEvT_S7_+0x16>
    43d4:	90                   	nop
    43d5:	90                   	nop
    43d6:	c9                   	leave  
    43d7:	c3                   	ret    

00000000000043d8 <_ZNSt8_Rb_treeINSt7__cxx1112basic_stringIcSt11char_traitsIcESaIcEEESt4pairIKS5_P12netlist_elemESt10_Select1stISA_ESt4lessIS5_ESaISA_EE15_M_destroy_nodeEPSt13_Rb_tree_nodeISA_E>:
    43d8:	f3 0f 1e fa          	endbr64 
    43dc:	55                   	push   %rbp
    43dd:	48 89 e5             	mov    %rsp,%rbp
    43e0:	53                   	push   %rbx
    43e1:	48 83 ec 18          	sub    $0x18,%rsp
    43e5:	48 89 7d e8          	mov    %rdi,-0x18(%rbp)
    43e9:	48 89 75 e0          	mov    %rsi,-0x20(%rbp)
    43ed:	48 8b 45 e0          	mov    -0x20(%rbp),%rax
    43f1:	48 89 c7             	mov    %rax,%rdi
    43f4:	e8 cd 02 00 00       	call   46c6 <_ZNSt13_Rb_tree_nodeISt4pairIKNSt7__cxx1112basic_stringIcSt11char_traitsIcESaIcEEEP12netlist_elemEE9_M_valptrEv>
    43f9:	48 89 c3             	mov    %rax,%rbx
    43fc:	48 8b 45 e8          	mov    -0x18(%rbp),%rax
    4400:	48 89 c7             	mov    %rax,%rdi
    4403:	e8 ac 02 00 00       	call   46b4 <_ZNSt8_Rb_treeINSt7__cxx1112basic_stringIcSt11char_traitsIcESaIcEEESt4pairIKS5_P12netlist_elemESt10_Select1stISA_ESt4lessIS5_ESaISA_EE21_M_get_Node_allocatorEv>
    4408:	48 89 de             	mov    %rbx,%rsi
    440b:	48 89 c7             	mov    %rax,%rdi
    440e:	e8 d5 02 00 00       	call   46e8 <_ZNSt16allocator_traitsISaISt13_Rb_tree_nodeISt4pairIKNSt7__cxx1112basic_stringIcSt11char_traitsIcESaIcEEEP12netlist_elemEEEE7destroyISB_EEvRSD_PT_>
    4413:	90                   	nop
    4414:	48 8b 5d f8          	mov    -0x8(%rbp),%rbx
    4418:	c9                   	leave  
    4419:	c3                   	ret    

000000000000441a <_ZNSt8_Rb_treeINSt7__cxx1112basic_stringIcSt11char_traitsIcESaIcEEESt4pairIKS5_P12netlist_elemESt10_Select1stISA_ESt4lessIS5_ESaISA_EE11_M_put_nodeEPSt13_Rb_tree_nodeISA_E>:
    441a:	f3 0f 1e fa          	endbr64 
    441e:	55                   	push   %rbp
    441f:	48 89 e5             	mov    %rsp,%rbp
    4422:	48 83 ec 10          	sub    $0x10,%rsp
    4426:	48 89 7d f8          	mov    %rdi,-0x8(%rbp)
    442a:	48 89 75 f0          	mov    %rsi,-0x10(%rbp)
    442e:	48 8b 45 f8          	mov    -0x8(%rbp),%rax
    4432:	48 89 c7             	mov    %rax,%rdi
    4435:	e8 7a 02 00 00       	call   46b4 <_ZNSt8_Rb_treeINSt7__cxx1112basic_stringIcSt11char_traitsIcESaIcEEESt4pairIKS5_P12netlist_elemESt10_Select1stISA_ESt4lessIS5_ESaISA_EE21_M_get_Node_allocatorEv>
    443a:	48 89 c1             	mov    %rax,%rcx
    443d:	48 8b 45 f0          	mov    -0x10(%rbp),%rax
    4441:	ba 01 00 00 00       	mov    $0x1,%edx
    4446:	48 89 c6             	mov    %rax,%rsi
    4449:	48 89 cf             	mov    %rcx,%rdi
    444c:	e8 c1 02 00 00       	call   4712 <_ZNSt16allocator_traitsISaISt13_Rb_tree_nodeISt4pairIKNSt7__cxx1112basic_stringIcSt11char_traitsIcESaIcEEEP12netlist_elemEEEE10deallocateERSD_PSC_m>
    4451:	90                   	nop
    4452:	c9                   	leave  
    4453:	c3                   	ret    

0000000000004454 <_ZNSt16allocator_traitsISaImEE8max_sizeERKS0_>:
    4454:	f3 0f 1e fa          	endbr64 
    4458:	55                   	push   %rbp
    4459:	48 89 e5             	mov    %rsp,%rbp
    445c:	48 83 ec 10          	sub    $0x10,%rsp
    4460:	48 89 7d f8          	mov    %rdi,-0x8(%rbp)
    4464:	48 8b 45 f8          	mov    -0x8(%rbp),%rax
    4468:	48 89 c7             	mov    %rax,%rdi
    446b:	e8 d4 02 00 00       	call   4744 <_ZNK9__gnu_cxx13new_allocatorImE8max_sizeEv>
    4470:	c9                   	leave  
    4471:	c3                   	ret    

0000000000004472 <_ZSt3minImERKT_S2_S2_>:
    4472:	f3 0f 1e fa          	endbr64 
    4476:	55                   	push   %rbp
    4477:	48 89 e5             	mov    %rsp,%rbp
    447a:	48 89 7d f8          	mov    %rdi,-0x8(%rbp)
    447e:	48 89 75 f0          	mov    %rsi,-0x10(%rbp)
    4482:	48 8b 45 f0          	mov    -0x10(%rbp),%rax
    4486:	48 8b 10             	mov    (%rax),%rdx
    4489:	48 8b 45 f8          	mov    -0x8(%rbp),%rax
    448d:	48 8b 00             	mov    (%rax),%rax
    4490:	48 39 c2             	cmp    %rax,%rdx
    4493:	73 06                	jae    449b <_ZSt3minImERKT_S2_S2_+0x29>
    4495:	48 8b 45 f0          	mov    -0x10(%rbp),%rax
    4499:	eb 04                	jmp    449f <_ZSt3minImERKT_S2_S2_+0x2d>
    449b:	48 8b 45 f8          	mov    -0x8(%rbp),%rax
    449f:	5d                   	pop    %rbp
    44a0:	c3                   	ret    
    44a1:	90                   	nop

00000000000044a2 <_ZN9__gnu_cxx13new_allocatorImEC1ERKS1_>:
    44a2:	f3 0f 1e fa          	endbr64 
    44a6:	55                   	push   %rbp
    44a7:	48 89 e5             	mov    %rsp,%rbp
    44aa:	48 89 7d f8          	mov    %rdi,-0x8(%rbp)
    44ae:	48 89 75 f0          	mov    %rsi,-0x10(%rbp)
    44b2:	90                   	nop
    44b3:	5d                   	pop    %rbp
    44b4:	c3                   	ret    
    44b5:	90                   	nop

00000000000044b6 <_ZNSt12_Vector_baseImSaImEE17_Vector_impl_dataC1Ev>:
    44b6:	f3 0f 1e fa          	endbr64 
    44ba:	55                   	push   %rbp
    44bb:	48 89 e5             	mov    %rsp,%rbp
    44be:	48 89 7d f8          	mov    %rdi,-0x8(%rbp)
    44c2:	48 8b 45 f8          	mov    -0x8(%rbp),%rax
    44c6:	48 c7 00 00 00 00 00 	movq   $0x0,(%rax)
    44cd:	48 8b 45 f8          	mov    -0x8(%rbp),%rax
    44d1:	48 c7 40 08 00 00 00 	movq   $0x0,0x8(%rax)
    44d8:	00 
    44d9:	48 8b 45 f8          	mov    -0x8(%rbp),%rax
    44dd:	48 c7 40 10 00 00 00 	movq   $0x0,0x10(%rax)
    44e4:	00 
    44e5:	90                   	nop
    44e6:	5d                   	pop    %rbp
    44e7:	c3                   	ret    

00000000000044e8 <_ZNSt12_Vector_baseImSaImEE11_M_allocateEm>:
    44e8:	f3 0f 1e fa          	endbr64 
    44ec:	55                   	push   %rbp
    44ed:	48 89 e5             	mov    %rsp,%rbp
    44f0:	48 83 ec 10          	sub    $0x10,%rsp
    44f4:	48 89 7d f8          	mov    %rdi,-0x8(%rbp)
    44f8:	48 89 75 f0          	mov    %rsi,-0x10(%rbp)
    44fc:	48 83 7d f0 00       	cmpq   $0x0,-0x10(%rbp)
    4501:	74 15                	je     4518 <_ZNSt12_Vector_baseImSaImEE11_M_allocateEm+0x30>
    4503:	48 8b 45 f8          	mov    -0x8(%rbp),%rax
    4507:	48 8b 55 f0          	mov    -0x10(%rbp),%rdx
    450b:	48 89 d6             	mov    %rdx,%rsi
    450e:	48 89 c7             	mov    %rax,%rdi
    4511:	e8 4c 02 00 00       	call   4762 <_ZNSt16allocator_traitsISaImEE8allocateERS0_m>
    4516:	eb 05                	jmp    451d <_ZNSt12_Vector_baseImSaImEE11_M_allocateEm+0x35>
    4518:	b8 00 00 00 00       	mov    $0x0,%eax
    451d:	c9                   	leave  
    451e:	c3                   	ret    

000000000000451f <_ZNSt16allocator_traitsISaImEE10deallocateERS0_Pmm>:
    451f:	f3 0f 1e fa          	endbr64 
    4523:	55                   	push   %rbp
    4524:	48 89 e5             	mov    %rsp,%rbp
    4527:	48 83 ec 20          	sub    $0x20,%rsp
    452b:	48 89 7d f8          	mov    %rdi,-0x8(%rbp)
    452f:	48 89 75 f0          	mov    %rsi,-0x10(%rbp)
    4533:	48 89 55 e8          	mov    %rdx,-0x18(%rbp)
    4537:	48 8b 55 e8          	mov    -0x18(%rbp),%rdx
    453b:	48 8b 4d f0          	mov    -0x10(%rbp),%rcx
    453f:	48 8b 45 f8          	mov    -0x8(%rbp),%rax
    4543:	48 89 ce             	mov    %rcx,%rsi
    4546:	48 89 c7             	mov    %rax,%rdi
    4549:	e8 42 02 00 00       	call   4790 <_ZN9__gnu_cxx13new_allocatorImE10deallocateEPmm>
    454e:	90                   	nop
    454f:	c9                   	leave  
    4550:	c3                   	ret    

0000000000004551 <_ZSt25__uninitialized_default_nIPmmET_S1_T0_>:
    4551:	f3 0f 1e fa          	endbr64 
    4555:	55                   	push   %rbp
    4556:	48 89 e5             	mov    %rsp,%rbp
    4559:	48 83 ec 20          	sub    $0x20,%rsp
    455d:	48 89 7d e8          	mov    %rdi,-0x18(%rbp)
    4561:	48 89 75 e0          	mov    %rsi,-0x20(%rbp)
    4565:	c6 45 ff 01          	movb   $0x1,-0x1(%rbp)
    4569:	48 8b 55 e0          	mov    -0x20(%rbp),%rdx
    456d:	48 8b 45 e8          	mov    -0x18(%rbp),%rax
    4571:	48 89 d6             	mov    %rdx,%rsi
    4574:	48 89 c7             	mov    %rax,%rdi
    4577:	e8 5b 02 00 00       	call   47d7 <_ZNSt27__uninitialized_default_n_1ILb1EE18__uninit_default_nIPmmEET_S3_T0_>
    457c:	c9                   	leave  
    457d:	c3                   	ret    

000000000000457e <_ZNSt12_Destroy_auxILb1EE9__destroyIPmEEvT_S3_>:
    457e:	f3 0f 1e fa          	endbr64 
    4582:	55                   	push   %rbp
    4583:	48 89 e5             	mov    %rsp,%rbp
    4586:	48 89 7d f8          	mov    %rdi,-0x8(%rbp)
    458a:	48 89 75 f0          	mov    %rsi,-0x10(%rbp)
    458e:	90                   	nop
    458f:	5d                   	pop    %rbp
    4590:	c3                   	ret    
    4591:	90                   	nop

0000000000004592 <_ZN9__gnu_cxx13new_allocatorI12netlist_elemE10deallocateEPS1_m>:
    4592:	f3 0f 1e fa          	endbr64 
    4596:	55                   	push   %rbp
    4597:	48 89 e5             	mov    %rsp,%rbp
    459a:	48 83 ec 20          	sub    $0x20,%rsp
    459e:	48 89 7d f8          	mov    %rdi,-0x8(%rbp)
    45a2:	48 89 75 f0          	mov    %rsi,-0x10(%rbp)
    45a6:	48 89 55 e8          	mov    %rdx,-0x18(%rbp)
    45aa:	48 8b 55 e8          	mov    -0x18(%rbp),%rdx
    45ae:	48 89 d0             	mov    %rdx,%rax
    45b1:	48 c1 e0 02          	shl    $0x2,%rax
    45b5:	48 01 d0             	add    %rdx,%rax
    45b8:	48 01 c0             	add    %rax,%rax
    45bb:	48 01 d0             	add    %rdx,%rax
    45be:	48 c1 e0 03          	shl    $0x3,%rax
    45c2:	48 89 c2             	mov    %rax,%rdx
    45c5:	48 8b 45 f0          	mov    -0x10(%rbp),%rax
    45c9:	48 89 d6             	mov    %rdx,%rsi
    45cc:	48 89 c7             	mov    %rax,%rdi
    45cf:	e8 9c df ff ff       	call   2570 <_ZdlPvm@plt>
    45d4:	c9                   	leave  
    45d5:	c3                   	ret    

00000000000045d6 <_ZSt11__addressofI12netlist_elemEPT_RS1_>:
    45d6:	f3 0f 1e fa          	endbr64 
    45da:	55                   	push   %rbp
    45db:	48 89 e5             	mov    %rsp,%rbp
    45de:	48 89 7d f8          	mov    %rdi,-0x8(%rbp)
    45e2:	48 8b 45 f8          	mov    -0x8(%rbp),%rax
    45e6:	5d                   	pop    %rbp
    45e7:	c3                   	ret    

00000000000045e8 <_ZN12netlist_elemD1Ev>:
    45e8:	f3 0f 1e fa          	endbr64 
    45ec:	55                   	push   %rbp
    45ed:	48 89 e5             	mov    %rsp,%rbp
    45f0:	48 83 ec 10          	sub    $0x10,%rsp
    45f4:	48 89 7d f8          	mov    %rdi,-0x8(%rbp)
    45f8:	48 8b 45 f8          	mov    -0x8(%rbp),%rax
    45fc:	48 83 c0 38          	add    $0x38,%rax
    4600:	48 89 c7             	mov    %rax,%rdi
    4603:	e8 30 02 00 00       	call   4838 <_ZNSt6vectorIP12netlist_elemSaIS1_EED1Ev>
    4608:	48 8b 45 f8          	mov    -0x8(%rbp),%rax
    460c:	48 83 c0 20          	add    $0x20,%rax
    4610:	48 89 c7             	mov    %rax,%rdi
    4613:	e8 20 02 00 00       	call   4838 <_ZNSt6vectorIP12netlist_elemSaIS1_EED1Ev>
    4618:	48 8b 45 f8          	mov    -0x8(%rbp),%rax
    461c:	48 89 c7             	mov    %rax,%rdi
    461f:	e8 7c de ff ff       	call   24a0 <_ZNSt7__cxx1112basic_stringIcSt11char_traitsIcESaIcEED1Ev@plt>
    4624:	90                   	nop
    4625:	c9                   	leave  
    4626:	c3                   	ret    

0000000000004627 <_ZSt8_DestroyI12netlist_elemEvPT_>:
    4627:	f3 0f 1e fa          	endbr64 
    462b:	55                   	push   %rbp
    462c:	48 89 e5             	mov    %rsp,%rbp
    462f:	48 83 ec 10          	sub    $0x10,%rsp
    4633:	48 89 7d f8          	mov    %rdi,-0x8(%rbp)
    4637:	48 8b 45 f8          	mov    -0x8(%rbp),%rax
    463b:	48 89 c7             	mov    %rax,%rdi
    463e:	e8 a5 ff ff ff       	call   45e8 <_ZN12netlist_elemD1Ev>
    4643:	90                   	nop
    4644:	c9                   	leave  
    4645:	c3                   	ret    

0000000000004646 <_ZN9__gnu_cxx13new_allocatorISt6vectorI10location_tSaIS2_EEE10deallocateEPS4_m>:
    4646:	f3 0f 1e fa          	endbr64 
    464a:	55                   	push   %rbp
    464b:	48 89 e5             	mov    %rsp,%rbp
    464e:	48 83 ec 20          	sub    $0x20,%rsp
    4652:	48 89 7d f8          	mov    %rdi,-0x8(%rbp)
    4656:	48 89 75 f0          	mov    %rsi,-0x10(%rbp)
    465a:	48 89 55 e8          	mov    %rdx,-0x18(%rbp)
    465e:	48 8b 55 e8          	mov    -0x18(%rbp),%rdx
    4662:	48 89 d0             	mov    %rdx,%rax
    4665:	48 01 c0             	add    %rax,%rax
    4668:	48 01 d0             	add    %rdx,%rax
    466b:	48 c1 e0 03          	shl    $0x3,%rax
    466f:	48 89 c2             	mov    %rax,%rdx
    4672:	48 8b 45 f0          	mov    -0x10(%rbp),%rax
    4676:	48 89 d6             	mov    %rdx,%rsi
    4679:	48 89 c7             	mov    %rax,%rdi
    467c:	e8 ef de ff ff       	call   2570 <_ZdlPvm@plt>
    4681:	c9                   	leave  
    4682:	c3                   	ret    

0000000000004683 <_ZSt11__addressofISt6vectorI10location_tSaIS1_EEEPT_RS4_>:
    4683:	f3 0f 1e fa          	endbr64 
    4687:	55                   	push   %rbp
    4688:	48 89 e5             	mov    %rsp,%rbp
    468b:	48 89 7d f8          	mov    %rdi,-0x8(%rbp)
    468f:	48 8b 45 f8          	mov    -0x8(%rbp),%rax
    4693:	5d                   	pop    %rbp
    4694:	c3                   	ret    

0000000000004695 <_ZSt8_DestroyISt6vectorI10location_tSaIS1_EEEvPT_>:
    4695:	f3 0f 1e fa          	endbr64 
    4699:	55                   	push   %rbp
    469a:	48 89 e5             	mov    %rsp,%rbp
    469d:	48 83 ec 10          	sub    $0x10,%rsp
    46a1:	48 89 7d f8          	mov    %rdi,-0x8(%rbp)
    46a5:	48 8b 45 f8          	mov    -0x8(%rbp),%rax
    46a9:	48 89 c7             	mov    %rax,%rdi
    46ac:	e8 cf 01 00 00       	call   4880 <_ZNSt6vectorI10location_tSaIS0_EED1Ev>
    46b1:	90                   	nop
    46b2:	c9                   	leave  
    46b3:	c3                   	ret    

00000000000046b4 <_ZNSt8_Rb_treeINSt7__cxx1112basic_stringIcSt11char_traitsIcESaIcEEESt4pairIKS5_P12netlist_elemESt10_Select1stISA_ESt4lessIS5_ESaISA_EE21_M_get_Node_allocatorEv>:
    46b4:	f3 0f 1e fa          	endbr64 
    46b8:	55                   	push   %rbp
    46b9:	48 89 e5             	mov    %rsp,%rbp
    46bc:	48 89 7d f8          	mov    %rdi,-0x8(%rbp)
    46c0:	48 8b 45 f8          	mov    -0x8(%rbp),%rax
    46c4:	5d                   	pop    %rbp
    46c5:	c3                   	ret    

00000000000046c6 <_ZNSt13_Rb_tree_nodeISt4pairIKNSt7__cxx1112basic_stringIcSt11char_traitsIcESaIcEEEP12netlist_elemEE9_M_valptrEv>:
    46c6:	f3 0f 1e fa          	endbr64 
    46ca:	55                   	push   %rbp
    46cb:	48 89 e5             	mov    %rsp,%rbp
    46ce:	48 83 ec 10          	sub    $0x10,%rsp
    46d2:	48 89 7d f8          	mov    %rdi,-0x8(%rbp)
    46d6:	48 8b 45 f8          	mov    -0x8(%rbp),%rax
    46da:	48 83 c0 20          	add    $0x20,%rax
    46de:	48 89 c7             	mov    %rax,%rdi
    46e1:	e8 e2 01 00 00       	call   48c8 <_ZN9__gnu_cxx16__aligned_membufISt4pairIKNSt7__cxx1112basic_stringIcSt11char_traitsIcESaIcEEEP12netlist_elemEE6_M_ptrEv>
    46e6:	c9                   	leave  
    46e7:	c3                   	ret    

00000000000046e8 <_ZNSt16allocator_traitsISaISt13_Rb_tree_nodeISt4pairIKNSt7__cxx1112basic_stringIcSt11char_traitsIcESaIcEEEP12netlist_elemEEEE7destroyISB_EEvRSD_PT_>:
    46e8:	f3 0f 1e fa          	endbr64 
    46ec:	55                   	push   %rbp
    46ed:	48 89 e5             	mov    %rsp,%rbp
    46f0:	48 83 ec 10          	sub    $0x10,%rsp
    46f4:	48 89 7d f8          	mov    %rdi,-0x8(%rbp)
    46f8:	48 89 75 f0          	mov    %rsi,-0x10(%rbp)
    46fc:	48 8b 55 f0          	mov    -0x10(%rbp),%rdx
    4700:	48 8b 45 f8          	mov    -0x8(%rbp),%rax
    4704:	48 89 d6             	mov    %rdx,%rsi
    4707:	48 89 c7             	mov    %rax,%rdi
    470a:	e8 f7 01 00 00       	call   4906 <_ZN9__gnu_cxx13new_allocatorISt13_Rb_tree_nodeISt4pairIKNSt7__cxx1112basic_stringIcSt11char_traitsIcESaIcEEEP12netlist_elemEEE7destroyISC_EEvPT_>
    470f:	90                   	nop
    4710:	c9                   	leave  
    4711:	c3                   	ret    

0000000000004712 <_ZNSt16allocator_traitsISaISt13_Rb_tree_nodeISt4pairIKNSt7__cxx1112basic_stringIcSt11char_traitsIcESaIcEEEP12netlist_elemEEEE10deallocateERSD_PSC_m>:
    4712:	f3 0f 1e fa          	endbr64 
    4716:	55                   	push   %rbp
    4717:	48 89 e5             	mov    %rsp,%rbp
    471a:	48 83 ec 20          	sub    $0x20,%rsp
    471e:	48 89 7d f8          	mov    %rdi,-0x8(%rbp)
    4722:	48 89 75 f0          	mov    %rsi,-0x10(%rbp)
    4726:	48 89 55 e8          	mov    %rdx,-0x18(%rbp)
    472a:	48 8b 55 e8          	mov    -0x18(%rbp),%rdx
    472e:	48 8b 4d f0          	mov    -0x10(%rbp),%rcx
    4732:	48 8b 45 f8          	mov    -0x8(%rbp),%rax
    4736:	48 89 ce             	mov    %rcx,%rsi
    4739:	48 89 c7             	mov    %rax,%rdi
    473c:	e8 e9 01 00 00       	call   492a <_ZN9__gnu_cxx13new_allocatorISt13_Rb_tree_nodeISt4pairIKNSt7__cxx1112basic_stringIcSt11char_traitsIcESaIcEEEP12netlist_elemEEE10deallocateEPSD_m>
    4741:	90                   	nop
    4742:	c9                   	leave  
    4743:	c3                   	ret    

0000000000004744 <_ZNK9__gnu_cxx13new_allocatorImE8max_sizeEv>:
    4744:	f3 0f 1e fa          	endbr64 
    4748:	55                   	push   %rbp
    4749:	48 89 e5             	mov    %rsp,%rbp
    474c:	48 83 ec 10          	sub    $0x10,%rsp
    4750:	48 89 7d f8          	mov    %rdi,-0x8(%rbp)
    4754:	48 8b 45 f8          	mov    -0x8(%rbp),%rax
    4758:	48 89 c7             	mov    %rax,%rdi
    475b:	e8 08 02 00 00       	call   4968 <_ZNK9__gnu_cxx13new_allocatorImE11_M_max_sizeEv>
    4760:	c9                   	leave  
    4761:	c3                   	ret    

0000000000004762 <_ZNSt16allocator_traitsISaImEE8allocateERS0_m>:
    4762:	f3 0f 1e fa          	endbr64 
    4766:	55                   	push   %rbp
    4767:	48 89 e5             	mov    %rsp,%rbp
    476a:	48 83 ec 10          	sub    $0x10,%rsp
    476e:	48 89 7d f8          	mov    %rdi,-0x8(%rbp)
    4772:	48 89 75 f0          	mov    %rsi,-0x10(%rbp)
    4776:	48 8b 4d f0          	mov    -0x10(%rbp),%rcx
    477a:	48 8b 45 f8          	mov    -0x8(%rbp),%rax
    477e:	ba 00 00 00 00       	mov    $0x0,%edx
    4783:	48 89 ce             	mov    %rcx,%rsi
    4786:	48 89 c7             	mov    %rax,%rdi
    4789:	e8 f2 01 00 00       	call   4980 <_ZN9__gnu_cxx13new_allocatorImE8allocateEmPKv>
    478e:	c9                   	leave  
    478f:	c3                   	ret    

0000000000004790 <_ZN9__gnu_cxx13new_allocatorImE10deallocateEPmm>:
    4790:	f3 0f 1e fa          	endbr64 
    4794:	55                   	push   %rbp
    4795:	48 89 e5             	mov    %rsp,%rbp
    4798:	48 83 ec 20          	sub    $0x20,%rsp
    479c:	48 89 7d f8          	mov    %rdi,-0x8(%rbp)
    47a0:	48 89 75 f0          	mov    %rsi,-0x10(%rbp)
    47a4:	48 89 55 e8          	mov    %rdx,-0x18(%rbp)
    47a8:	48 8b 45 e8          	mov    -0x18(%rbp),%rax
    47ac:	48 8d 14 c5 00 00 00 	lea    0x0(,%rax,8),%rdx
    47b3:	00 
    47b4:	48 8b 45 f0          	mov    -0x10(%rbp),%rax
    47b8:	48 89 d6             	mov    %rdx,%rsi
    47bb:	48 89 c7             	mov    %rax,%rdi
    47be:	e8 ad dd ff ff       	call   2570 <_ZdlPvm@plt>
    47c3:	c9                   	leave  
    47c4:	c3                   	ret    

00000000000047c5 <_ZSt11__addressofImEPT_RS0_>:
    47c5:	f3 0f 1e fa          	endbr64 
    47c9:	55                   	push   %rbp
    47ca:	48 89 e5             	mov    %rsp,%rbp
    47cd:	48 89 7d f8          	mov    %rdi,-0x8(%rbp)
    47d1:	48 8b 45 f8          	mov    -0x8(%rbp),%rax
    47d5:	5d                   	pop    %rbp
    47d6:	c3                   	ret    

00000000000047d7 <_ZNSt27__uninitialized_default_n_1ILb1EE18__uninit_default_nIPmmEET_S3_T0_>:
    47d7:	f3 0f 1e fa          	endbr64 
    47db:	55                   	push   %rbp
    47dc:	48 89 e5             	mov    %rsp,%rbp
    47df:	48 83 ec 20          	sub    $0x20,%rsp
    47e3:	48 89 7d e8          	mov    %rdi,-0x18(%rbp)
    47e7:	48 89 75 e0          	mov    %rsi,-0x20(%rbp)
    47eb:	48 83 7d e0 00       	cmpq   $0x0,-0x20(%rbp)
    47f0:	74 40                	je     4832 <_ZNSt27__uninitialized_default_n_1ILb1EE18__uninit_default_nIPmmEET_S3_T0_+0x5b>
    47f2:	48 8b 45 e8          	mov    -0x18(%rbp),%rax
    47f6:	48 89 c7             	mov    %rax,%rdi
    47f9:	e8 c7 ff ff ff       	call   47c5 <_ZSt11__addressofImEPT_RS0_>
    47fe:	48 89 45 f8          	mov    %rax,-0x8(%rbp)
    4802:	48 8b 45 f8          	mov    -0x8(%rbp),%rax
    4806:	48 89 c7             	mov    %rax,%rdi
    4809:	e8 d7 01 00 00       	call   49e5 <_ZSt10_ConstructImJEEvPT_DpOT0_>
    480e:	48 83 45 e8 08       	addq   $0x8,-0x18(%rbp)
    4813:	48 8b 45 e0          	mov    -0x20(%rbp),%rax
    4817:	48 8d 48 ff          	lea    -0x1(%rax),%rcx
    481b:	48 8b 55 f8          	mov    -0x8(%rbp),%rdx
    481f:	48 8b 45 e8          	mov    -0x18(%rbp),%rax
    4823:	48 89 ce             	mov    %rcx,%rsi
    4826:	48 89 c7             	mov    %rax,%rdi
    4829:	e8 e2 01 00 00       	call   4a10 <_ZSt6fill_nIPmmmET_S1_T0_RKT1_>
    482e:	48 89 45 e8          	mov    %rax,-0x18(%rbp)
    4832:	48 8b 45 e8          	mov    -0x18(%rbp),%rax
    4836:	c9                   	leave  
    4837:	c3                   	ret    

0000000000004838 <_ZNSt6vectorIP12netlist_elemSaIS1_EED1Ev>:
    4838:	f3 0f 1e fa          	endbr64 
    483c:	55                   	push   %rbp
    483d:	48 89 e5             	mov    %rsp,%rbp
    4840:	48 83 ec 10          	sub    $0x10,%rsp
    4844:	48 89 7d f8          	mov    %rdi,-0x8(%rbp)
    4848:	48 8b 45 f8          	mov    -0x8(%rbp),%rax
    484c:	48 89 c7             	mov    %rax,%rdi
    484f:	e8 76 02 00 00       	call   4aca <_ZNSt12_Vector_baseIP12netlist_elemSaIS1_EE19_M_get_Tp_allocatorEv>
    4854:	48 89 c2             	mov    %rax,%rdx
    4857:	48 8b 45 f8          	mov    -0x8(%rbp),%rax
    485b:	48 8b 48 08          	mov    0x8(%rax),%rcx
    485f:	48 8b 45 f8          	mov    -0x8(%rbp),%rax
    4863:	48 8b 00             	mov    (%rax),%rax
    4866:	48 89 ce             	mov    %rcx,%rsi
    4869:	48 89 c7             	mov    %rax,%rdi
    486c:	e8 6b 02 00 00       	call   4adc <_ZSt8_DestroyIPP12netlist_elemS1_EvT_S3_RSaIT0_E>
    4871:	48 8b 45 f8          	mov    -0x8(%rbp),%rax
    4875:	48 89 c7             	mov    %rax,%rdi
    4878:	e8 fb 01 00 00       	call   4a78 <_ZNSt12_Vector_baseIP12netlist_elemSaIS1_EED1Ev>
    487d:	90                   	nop
    487e:	c9                   	leave  
    487f:	c3                   	ret    

0000000000004880 <_ZNSt6vectorI10location_tSaIS0_EED1Ev>:
    4880:	f3 0f 1e fa          	endbr64 
    4884:	55                   	push   %rbp
    4885:	48 89 e5             	mov    %rsp,%rbp
    4888:	48 83 ec 10          	sub    $0x10,%rsp
    488c:	48 89 7d f8          	mov    %rdi,-0x8(%rbp)
    4890:	48 8b 45 f8          	mov    -0x8(%rbp),%rax
    4894:	48 89 c7             	mov    %rax,%rdi
    4897:	e8 e0 02 00 00       	call   4b7c <_ZNSt12_Vector_baseI10location_tSaIS0_EE19_M_get_Tp_allocatorEv>
    489c:	48 89 c2             	mov    %rax,%rdx
    489f:	48 8b 45 f8          	mov    -0x8(%rbp),%rax
    48a3:	48 8b 48 08          	mov    0x8(%rax),%rcx
    48a7:	48 8b 45 f8          	mov    -0x8(%rbp),%rax
    48ab:	48 8b 00             	mov    (%rax),%rax
    48ae:	48 89 ce             	mov    %rcx,%rsi
    48b1:	48 89 c7             	mov    %rax,%rdi
    48b4:	e8 d5 02 00 00       	call   4b8e <_ZSt8_DestroyIP10location_tS0_EvT_S2_RSaIT0_E>
    48b9:	48 8b 45 f8          	mov    -0x8(%rbp),%rax
    48bd:	48 89 c7             	mov    %rax,%rdi
    48c0:	e8 65 02 00 00       	call   4b2a <_ZNSt12_Vector_baseI10location_tSaIS0_EED1Ev>
    48c5:	90                   	nop
    48c6:	c9                   	leave  
    48c7:	c3                   	ret    

00000000000048c8 <_ZN9__gnu_cxx16__aligned_membufISt4pairIKNSt7__cxx1112basic_stringIcSt11char_traitsIcESaIcEEEP12netlist_elemEE6_M_ptrEv>:
    48c8:	f3 0f 1e fa          	endbr64 
    48cc:	55                   	push   %rbp
    48cd:	48 89 e5             	mov    %rsp,%rbp
    48d0:	48 83 ec 10          	sub    $0x10,%rsp
    48d4:	48 89 7d f8          	mov    %rdi,-0x8(%rbp)
    48d8:	48 8b 45 f8          	mov    -0x8(%rbp),%rax
    48dc:	48 89 c7             	mov    %rax,%rdi
    48df:	e8 d8 02 00 00       	call   4bbc <_ZN9__gnu_cxx16__aligned_membufISt4pairIKNSt7__cxx1112basic_stringIcSt11char_traitsIcESaIcEEEP12netlist_elemEE7_M_addrEv>
    48e4:	c9                   	leave  
    48e5:	c3                   	ret    

00000000000048e6 <_ZNSt4pairIKNSt7__cxx1112basic_stringIcSt11char_traitsIcESaIcEEEP12netlist_elemED1Ev>:
    48e6:	f3 0f 1e fa          	endbr64 
    48ea:	55                   	push   %rbp
    48eb:	48 89 e5             	mov    %rsp,%rbp
    48ee:	48 83 ec 10          	sub    $0x10,%rsp
    48f2:	48 89 7d f8          	mov    %rdi,-0x8(%rbp)
    48f6:	48 8b 45 f8          	mov    -0x8(%rbp),%rax
    48fa:	48 89 c7             	mov    %rax,%rdi
    48fd:	e8 9e db ff ff       	call   24a0 <_ZNSt7__cxx1112basic_stringIcSt11char_traitsIcESaIcEED1Ev@plt>
    4902:	90                   	nop
    4903:	c9                   	leave  
    4904:	c3                   	ret    
    4905:	90                   	nop

0000000000004906 <_ZN9__gnu_cxx13new_allocatorISt13_Rb_tree_nodeISt4pairIKNSt7__cxx1112basic_stringIcSt11char_traitsIcESaIcEEEP12netlist_elemEEE7destroyISC_EEvPT_>:
    4906:	f3 0f 1e fa          	endbr64 
    490a:	55                   	push   %rbp
    490b:	48 89 e5             	mov    %rsp,%rbp
    490e:	48 83 ec 10          	sub    $0x10,%rsp
    4912:	48 89 7d f8          	mov    %rdi,-0x8(%rbp)
    4916:	48 89 75 f0          	mov    %rsi,-0x10(%rbp)
    491a:	48 8b 45 f0          	mov    -0x10(%rbp),%rax
    491e:	48 89 c7             	mov    %rax,%rdi
    4921:	e8 c0 ff ff ff       	call   48e6 <_ZNSt4pairIKNSt7__cxx1112basic_stringIcSt11char_traitsIcESaIcEEEP12netlist_elemED1Ev>
    4926:	90                   	nop
    4927:	c9                   	leave  
    4928:	c3                   	ret    
    4929:	90                   	nop

000000000000492a <_ZN9__gnu_cxx13new_allocatorISt13_Rb_tree_nodeISt4pairIKNSt7__cxx1112basic_stringIcSt11char_traitsIcESaIcEEEP12netlist_elemEEE10deallocateEPSD_m>:
    492a:	f3 0f 1e fa          	endbr64 
    492e:	55                   	push   %rbp
    492f:	48 89 e5             	mov    %rsp,%rbp
    4932:	48 83 ec 20          	sub    $0x20,%rsp
    4936:	48 89 7d f8          	mov    %rdi,-0x8(%rbp)
    493a:	48 89 75 f0          	mov    %rsi,-0x10(%rbp)
    493e:	48 89 55 e8          	mov    %rdx,-0x18(%rbp)
    4942:	48 8b 55 e8          	mov    -0x18(%rbp),%rdx
    4946:	48 89 d0             	mov    %rdx,%rax
    4949:	48 c1 e0 03          	shl    $0x3,%rax
    494d:	48 01 d0             	add    %rdx,%rax
    4950:	48 c1 e0 03          	shl    $0x3,%rax
    4954:	48 89 c2             	mov    %rax,%rdx
    4957:	48 8b 45 f0          	mov    -0x10(%rbp),%rax
    495b:	48 89 d6             	mov    %rdx,%rsi
    495e:	48 89 c7             	mov    %rax,%rdi
    4961:	e8 0a dc ff ff       	call   2570 <_ZdlPvm@plt>
    4966:	c9                   	leave  
    4967:	c3                   	ret    

0000000000004968 <_ZNK9__gnu_cxx13new_allocatorImE11_M_max_sizeEv>:
    4968:	f3 0f 1e fa          	endbr64 
    496c:	55                   	push   %rbp
    496d:	48 89 e5             	mov    %rsp,%rbp
    4970:	48 89 7d f8          	mov    %rdi,-0x8(%rbp)
    4974:	48 b8 ff ff ff ff ff 	movabs $0xfffffffffffffff,%rax
    497b:	ff ff 0f 
    497e:	5d                   	pop    %rbp
    497f:	c3                   	ret    

0000000000004980 <_ZN9__gnu_cxx13new_allocatorImE8allocateEmPKv>:
    4980:	f3 0f 1e fa          	endbr64 
    4984:	55                   	push   %rbp
    4985:	48 89 e5             	mov    %rsp,%rbp
    4988:	48 83 ec 20          	sub    $0x20,%rsp
    498c:	48 89 7d f8          	mov    %rdi,-0x8(%rbp)
    4990:	48 89 75 f0          	mov    %rsi,-0x10(%rbp)
    4994:	48 89 55 e8          	mov    %rdx,-0x18(%rbp)
    4998:	48 8b 45 f8          	mov    -0x8(%rbp),%rax
    499c:	48 89 c7             	mov    %rax,%rdi
    499f:	e8 c4 ff ff ff       	call   4968 <_ZNK9__gnu_cxx13new_allocatorImE11_M_max_sizeEv>
    49a4:	48 39 45 f0          	cmp    %rax,-0x10(%rbp)
    49a8:	0f 97 c0             	seta   %al
    49ab:	0f b6 c0             	movzbl %al,%eax
    49ae:	48 85 c0             	test   %rax,%rax
    49b1:	0f 95 c0             	setne  %al
    49b4:	84 c0                	test   %al,%al
    49b6:	74 1a                	je     49d2 <_ZN9__gnu_cxx13new_allocatorImE8allocateEmPKv+0x52>
    49b8:	48 b8 ff ff ff ff ff 	movabs $0x1fffffffffffffff,%rax
    49bf:	ff ff 1f 
    49c2:	48 39 45 f0          	cmp    %rax,-0x10(%rbp)
    49c6:	76 05                	jbe    49cd <_ZN9__gnu_cxx13new_allocatorImE8allocateEmPKv+0x4d>
    49c8:	e8 23 db ff ff       	call   24f0 <_ZSt28__throw_bad_array_new_lengthv@plt>
    49cd:	e8 6e da ff ff       	call   2440 <_ZSt17__throw_bad_allocv@plt>
    49d2:	48 8b 45 f0          	mov    -0x10(%rbp),%rax
    49d6:	48 c1 e0 03          	shl    $0x3,%rax
    49da:	48 89 c7             	mov    %rax,%rdi
    49dd:	e8 7e db ff ff       	call   2560 <_Znwm@plt>
    49e2:	90                   	nop
    49e3:	c9                   	leave  
    49e4:	c3                   	ret    

00000000000049e5 <_ZSt10_ConstructImJEEvPT_DpOT0_>:
    49e5:	f3 0f 1e fa          	endbr64 
    49e9:	55                   	push   %rbp
    49ea:	48 89 e5             	mov    %rsp,%rbp
    49ed:	48 83 ec 10          	sub    $0x10,%rsp
    49f1:	48 89 7d f8          	mov    %rdi,-0x8(%rbp)
    49f5:	48 8b 45 f8          	mov    -0x8(%rbp),%rax
    49f9:	48 89 c6             	mov    %rax,%rsi
    49fc:	bf 08 00 00 00       	mov    $0x8,%edi
    4a01:	e8 6e eb ff ff       	call   3574 <_ZnwmPv>
    4a06:	48 c7 00 00 00 00 00 	movq   $0x0,(%rax)
    4a0d:	90                   	nop
    4a0e:	c9                   	leave  
    4a0f:	c3                   	ret    

0000000000004a10 <_ZSt6fill_nIPmmmET_S1_T0_RKT1_>:
    4a10:	f3 0f 1e fa          	endbr64 
    4a14:	55                   	push   %rbp
    4a15:	48 89 e5             	mov    %rsp,%rbp
    4a18:	48 83 ec 20          	sub    $0x20,%rsp
    4a1c:	48 89 7d f8          	mov    %rdi,-0x8(%rbp)
    4a20:	48 89 75 f0          	mov    %rsi,-0x10(%rbp)
    4a24:	48 89 55 e8          	mov    %rdx,-0x18(%rbp)
    4a28:	48 8d 45 f8          	lea    -0x8(%rbp),%rax
    4a2c:	48 89 c7             	mov    %rax,%rdi
    4a2f:	e8 9a 01 00 00       	call   4bce <_ZSt19__iterator_categoryIPmENSt15iterator_traitsIT_E17iterator_categoryERKS2_>
    4a34:	48 8b 45 f0          	mov    -0x10(%rbp),%rax
    4a38:	48 89 c7             	mov    %rax,%rdi
    4a3b:	e8 4a eb ff ff       	call   358a <_ZSt17__size_to_integerm>
    4a40:	48 89 c1             	mov    %rax,%rcx
    4a43:	48 8b 45 f8          	mov    -0x8(%rbp),%rax
    4a47:	48 8b 55 e8          	mov    -0x18(%rbp),%rdx
    4a4b:	48 89 ce             	mov    %rcx,%rsi
    4a4e:	48 89 c7             	mov    %rax,%rdi
    4a51:	e8 86 01 00 00       	call   4bdc <_ZSt10__fill_n_aIPmmmET_S1_T0_RKT1_St26random_access_iterator_tag>
    4a56:	c9                   	leave  
    4a57:	c3                   	ret    

0000000000004a58 <_ZNSt12_Vector_baseIP12netlist_elemSaIS1_EE12_Vector_implD1Ev>:
    4a58:	f3 0f 1e fa          	endbr64 
    4a5c:	55                   	push   %rbp
    4a5d:	48 89 e5             	mov    %rsp,%rbp
    4a60:	48 83 ec 10          	sub    $0x10,%rsp
    4a64:	48 89 7d f8          	mov    %rdi,-0x8(%rbp)
    4a68:	48 8b 45 f8          	mov    -0x8(%rbp),%rax
    4a6c:	48 89 c7             	mov    %rax,%rdi
    4a6f:	e8 ca 01 00 00       	call   4c3e <_ZNSaIP12netlist_elemED1Ev>
    4a74:	90                   	nop
    4a75:	c9                   	leave  
    4a76:	c3                   	ret    
    4a77:	90                   	nop

0000000000004a78 <_ZNSt12_Vector_baseIP12netlist_elemSaIS1_EED1Ev>:
    4a78:	f3 0f 1e fa          	endbr64 
    4a7c:	55                   	push   %rbp
    4a7d:	48 89 e5             	mov    %rsp,%rbp
    4a80:	48 83 ec 10          	sub    $0x10,%rsp
    4a84:	48 89 7d f8          	mov    %rdi,-0x8(%rbp)
    4a88:	48 8b 45 f8          	mov    -0x8(%rbp),%rax
    4a8c:	48 8b 50 10          	mov    0x10(%rax),%rdx
    4a90:	48 8b 45 f8          	mov    -0x8(%rbp),%rax
    4a94:	48 8b 08             	mov    (%rax),%rcx
    4a97:	48 89 d0             	mov    %rdx,%rax
    4a9a:	48 29 c8             	sub    %rcx,%rax
    4a9d:	48 c1 f8 03          	sar    $0x3,%rax
    4aa1:	48 89 c2             	mov    %rax,%rdx
    4aa4:	48 8b 45 f8          	mov    -0x8(%rbp),%rax
    4aa8:	48 8b 08             	mov    (%rax),%rcx
    4aab:	48 8b 45 f8          	mov    -0x8(%rbp),%rax
    4aaf:	48 89 ce             	mov    %rcx,%rsi
    4ab2:	48 89 c7             	mov    %rax,%rdi
    4ab5:	e8 a4 01 00 00       	call   4c5e <_ZNSt12_Vector_baseIP12netlist_elemSaIS1_EE13_M_deallocateEPS1_m>
    4aba:	48 8b 45 f8          	mov    -0x8(%rbp),%rax
    4abe:	48 89 c7             	mov    %rax,%rdi
    4ac1:	e8 92 ff ff ff       	call   4a58 <_ZNSt12_Vector_baseIP12netlist_elemSaIS1_EE12_Vector_implD1Ev>
    4ac6:	90                   	nop
    4ac7:	c9                   	leave  
    4ac8:	c3                   	ret    
    4ac9:	90                   	nop

0000000000004aca <_ZNSt12_Vector_baseIP12netlist_elemSaIS1_EE19_M_get_Tp_allocatorEv>:
    4aca:	f3 0f 1e fa          	endbr64 
    4ace:	55                   	push   %rbp
    4acf:	48 89 e5             	mov    %rsp,%rbp
    4ad2:	48 89 7d f8          	mov    %rdi,-0x8(%rbp)
    4ad6:	48 8b 45 f8          	mov    -0x8(%rbp),%rax
    4ada:	5d                   	pop    %rbp
    4adb:	c3                   	ret    

0000000000004adc <_ZSt8_DestroyIPP12netlist_elemS1_EvT_S3_RSaIT0_E>:
    4adc:	f3 0f 1e fa          	endbr64 
    4ae0:	55                   	push   %rbp
    4ae1:	48 89 e5             	mov    %rsp,%rbp
    4ae4:	48 83 ec 20          	sub    $0x20,%rsp
    4ae8:	48 89 7d f8          	mov    %rdi,-0x8(%rbp)
    4aec:	48 89 75 f0          	mov    %rsi,-0x10(%rbp)
    4af0:	48 89 55 e8          	mov    %rdx,-0x18(%rbp)
    4af4:	48 8b 55 f0          	mov    -0x10(%rbp),%rdx
    4af8:	48 8b 45 f8          	mov    -0x8(%rbp),%rax
    4afc:	48 89 d6             	mov    %rdx,%rsi
    4aff:	48 89 c7             	mov    %rax,%rdi
    4b02:	e8 90 01 00 00       	call   4c97 <_ZSt8_DestroyIPP12netlist_elemEvT_S3_>
    4b07:	90                   	nop
    4b08:	c9                   	leave  
    4b09:	c3                   	ret    

0000000000004b0a <_ZNSt12_Vector_baseI10location_tSaIS0_EE12_Vector_implD1Ev>:
    4b0a:	f3 0f 1e fa          	endbr64 
    4b0e:	55                   	push   %rbp
    4b0f:	48 89 e5             	mov    %rsp,%rbp
    4b12:	48 83 ec 10          	sub    $0x10,%rsp
    4b16:	48 89 7d f8          	mov    %rdi,-0x8(%rbp)
    4b1a:	48 8b 45 f8          	mov    -0x8(%rbp),%rax
    4b1e:	48 89 c7             	mov    %rax,%rdi
    4b21:	e8 9c 01 00 00       	call   4cc2 <_ZNSaI10location_tED1Ev>
    4b26:	90                   	nop
    4b27:	c9                   	leave  
    4b28:	c3                   	ret    
    4b29:	90                   	nop

0000000000004b2a <_ZNSt12_Vector_baseI10location_tSaIS0_EED1Ev>:
    4b2a:	f3 0f 1e fa          	endbr64 
    4b2e:	55                   	push   %rbp
    4b2f:	48 89 e5             	mov    %rsp,%rbp
    4b32:	48 83 ec 10          	sub    $0x10,%rsp
    4b36:	48 89 7d f8          	mov    %rdi,-0x8(%rbp)
    4b3a:	48 8b 45 f8          	mov    -0x8(%rbp),%rax
    4b3e:	48 8b 50 10          	mov    0x10(%rax),%rdx
    4b42:	48 8b 45 f8          	mov    -0x8(%rbp),%rax
    4b46:	48 8b 08             	mov    (%rax),%rcx
    4b49:	48 89 d0             	mov    %rdx,%rax
    4b4c:	48 29 c8             	sub    %rcx,%rax
    4b4f:	48 c1 f8 03          	sar    $0x3,%rax
    4b53:	48 89 c2             	mov    %rax,%rdx
    4b56:	48 8b 45 f8          	mov    -0x8(%rbp),%rax
    4b5a:	48 8b 08             	mov    (%rax),%rcx
    4b5d:	48 8b 45 f8          	mov    -0x8(%rbp),%rax
    4b61:	48 89 ce             	mov    %rcx,%rsi
    4b64:	48 89 c7             	mov    %rax,%rdi
    4b67:	e8 76 01 00 00       	call   4ce2 <_ZNSt12_Vector_baseI10location_tSaIS0_EE13_M_deallocateEPS0_m>
    4b6c:	48 8b 45 f8          	mov    -0x8(%rbp),%rax
    4b70:	48 89 c7             	mov    %rax,%rdi
    4b73:	e8 92 ff ff ff       	call   4b0a <_ZNSt12_Vector_baseI10location_tSaIS0_EE12_Vector_implD1Ev>
    4b78:	90                   	nop
    4b79:	c9                   	leave  
    4b7a:	c3                   	ret    
    4b7b:	90                   	nop

0000000000004b7c <_ZNSt12_Vector_baseI10location_tSaIS0_EE19_M_get_Tp_allocatorEv>:
    4b7c:	f3 0f 1e fa          	endbr64 
    4b80:	55                   	push   %rbp
    4b81:	48 89 e5             	mov    %rsp,%rbp
    4b84:	48 89 7d f8          	mov    %rdi,-0x8(%rbp)
    4b88:	48 8b 45 f8          	mov    -0x8(%rbp),%rax
    4b8c:	5d                   	pop    %rbp
    4b8d:	c3                   	ret    

0000000000004b8e <_ZSt8_DestroyIP10location_tS0_EvT_S2_RSaIT0_E>:
    4b8e:	f3 0f 1e fa          	endbr64 
    4b92:	55                   	push   %rbp
    4b93:	48 89 e5             	mov    %rsp,%rbp
    4b96:	48 83 ec 20          	sub    $0x20,%rsp
    4b9a:	48 89 7d f8          	mov    %rdi,-0x8(%rbp)
    4b9e:	48 89 75 f0          	mov    %rsi,-0x10(%rbp)
    4ba2:	48 89 55 e8          	mov    %rdx,-0x18(%rbp)
    4ba6:	48 8b 55 f0          	mov    -0x10(%rbp),%rdx
    4baa:	48 8b 45 f8          	mov    -0x8(%rbp),%rax
    4bae:	48 89 d6             	mov    %rdx,%rsi
    4bb1:	48 89 c7             	mov    %rax,%rdi
    4bb4:	e8 62 01 00 00       	call   4d1b <_ZSt8_DestroyIP10location_tEvT_S2_>
    4bb9:	90                   	nop
    4bba:	c9                   	leave  
    4bbb:	c3                   	ret    

0000000000004bbc <_ZN9__gnu_cxx16__aligned_membufISt4pairIKNSt7__cxx1112basic_stringIcSt11char_traitsIcESaIcEEEP12netlist_elemEE7_M_addrEv>:
    4bbc:	f3 0f 1e fa          	endbr64 
    4bc0:	55                   	push   %rbp
    4bc1:	48 89 e5             	mov    %rsp,%rbp
    4bc4:	48 89 7d f8          	mov    %rdi,-0x8(%rbp)
    4bc8:	48 8b 45 f8          	mov    -0x8(%rbp),%rax
    4bcc:	5d                   	pop    %rbp
    4bcd:	c3                   	ret    

0000000000004bce <_ZSt19__iterator_categoryIPmENSt15iterator_traitsIT_E17iterator_categoryERKS2_>:
    4bce:	f3 0f 1e fa          	endbr64 
    4bd2:	55                   	push   %rbp
    4bd3:	48 89 e5             	mov    %rsp,%rbp
    4bd6:	48 89 7d f8          	mov    %rdi,-0x8(%rbp)
    4bda:	5d                   	pop    %rbp
    4bdb:	c3                   	ret    

0000000000004bdc <_ZSt10__fill_n_aIPmmmET_S1_T0_RKT1_St26random_access_iterator_tag>:
    4bdc:	f3 0f 1e fa          	endbr64 
    4be0:	55                   	push   %rbp
    4be1:	48 89 e5             	mov    %rsp,%rbp
    4be4:	48 83 ec 20          	sub    $0x20,%rsp
    4be8:	48 89 7d f8          	mov    %rdi,-0x8(%rbp)
    4bec:	48 89 75 f0          	mov    %rsi,-0x10(%rbp)
    4bf0:	48 89 55 e8          	mov    %rdx,-0x18(%rbp)
    4bf4:	48 83 7d f0 00       	cmpq   $0x0,-0x10(%rbp)
    4bf9:	75 06                	jne    4c01 <_ZSt10__fill_n_aIPmmmET_S1_T0_RKT1_St26random_access_iterator_tag+0x25>
    4bfb:	48 8b 45 f8          	mov    -0x8(%rbp),%rax
    4bff:	eb 3a                	jmp    4c3b <_ZSt10__fill_n_aIPmmmET_S1_T0_RKT1_St26random_access_iterator_tag+0x5f>
    4c01:	48 8b 45 f0          	mov    -0x10(%rbp),%rax
    4c05:	48 8d 14 c5 00 00 00 	lea    0x0(,%rax,8),%rdx
    4c0c:	00 
    4c0d:	48 8b 45 f8          	mov    -0x8(%rbp),%rax
    4c11:	48 8d 0c 02          	lea    (%rdx,%rax,1),%rcx
    4c15:	48 8b 55 e8          	mov    -0x18(%rbp),%rdx
    4c19:	48 8b 45 f8          	mov    -0x8(%rbp),%rax
    4c1d:	48 89 ce             	mov    %rcx,%rsi
    4c20:	48 89 c7             	mov    %rax,%rdi
    4c23:	e8 1d 01 00 00       	call   4d45 <_ZSt8__fill_aIPmmEvT_S1_RKT0_>
    4c28:	48 8b 45 f0          	mov    -0x10(%rbp),%rax
    4c2c:	48 8d 14 c5 00 00 00 	lea    0x0(,%rax,8),%rdx
    4c33:	00 
    4c34:	48 8b 45 f8          	mov    -0x8(%rbp),%rax
    4c38:	48 01 d0             	add    %rdx,%rax
    4c3b:	c9                   	leave  
    4c3c:	c3                   	ret    
    4c3d:	90                   	nop

0000000000004c3e <_ZNSaIP12netlist_elemED1Ev>:
    4c3e:	f3 0f 1e fa          	endbr64 
    4c42:	55                   	push   %rbp
    4c43:	48 89 e5             	mov    %rsp,%rbp
    4c46:	48 83 ec 10          	sub    $0x10,%rsp
    4c4a:	48 89 7d f8          	mov    %rdi,-0x8(%rbp)
    4c4e:	48 8b 45 f8          	mov    -0x8(%rbp),%rax
    4c52:	48 89 c7             	mov    %rax,%rdi
    4c55:	e8 1e 01 00 00       	call   4d78 <_ZN9__gnu_cxx13new_allocatorIP12netlist_elemED1Ev>
    4c5a:	90                   	nop
    4c5b:	c9                   	leave  
    4c5c:	c3                   	ret    
    4c5d:	90                   	nop

0000000000004c5e <_ZNSt12_Vector_baseIP12netlist_elemSaIS1_EE13_M_deallocateEPS1_m>:
    4c5e:	f3 0f 1e fa          	endbr64 
    4c62:	55                   	push   %rbp
    4c63:	48 89 e5             	mov    %rsp,%rbp
    4c66:	48 83 ec 20          	sub    $0x20,%rsp
    4c6a:	48 89 7d f8          	mov    %rdi,-0x8(%rbp)
    4c6e:	48 89 75 f0          	mov    %rsi,-0x10(%rbp)
    4c72:	48 89 55 e8          	mov    %rdx,-0x18(%rbp)
    4c76:	48 83 7d f0 00       	cmpq   $0x0,-0x10(%rbp)
    4c7b:	74 17                	je     4c94 <_ZNSt12_Vector_baseIP12netlist_elemSaIS1_EE13_M_deallocateEPS1_m+0x36>
    4c7d:	48 8b 45 f8          	mov    -0x8(%rbp),%rax
    4c81:	48 8b 55 e8          	mov    -0x18(%rbp),%rdx
    4c85:	48 8b 4d f0          	mov    -0x10(%rbp),%rcx
    4c89:	48 89 ce             	mov    %rcx,%rsi
    4c8c:	48 89 c7             	mov    %rax,%rdi
    4c8f:	e8 f3 00 00 00       	call   4d87 <_ZNSt16allocator_traitsISaIP12netlist_elemEE10deallocateERS2_PS1_m>
    4c94:	90                   	nop
    4c95:	c9                   	leave  
    4c96:	c3                   	ret    

0000000000004c97 <_ZSt8_DestroyIPP12netlist_elemEvT_S3_>:
    4c97:	f3 0f 1e fa          	endbr64 
    4c9b:	55                   	push   %rbp
    4c9c:	48 89 e5             	mov    %rsp,%rbp
    4c9f:	48 83 ec 10          	sub    $0x10,%rsp
    4ca3:	48 89 7d f8          	mov    %rdi,-0x8(%rbp)
    4ca7:	48 89 75 f0          	mov    %rsi,-0x10(%rbp)
    4cab:	48 8b 55 f0          	mov    -0x10(%rbp),%rdx
    4caf:	48 8b 45 f8          	mov    -0x8(%rbp),%rax
    4cb3:	48 89 d6             	mov    %rdx,%rsi
    4cb6:	48 89 c7             	mov    %rax,%rdi
    4cb9:	e8 fb 00 00 00       	call   4db9 <_ZNSt12_Destroy_auxILb1EE9__destroyIPP12netlist_elemEEvT_S5_>
    4cbe:	90                   	nop
    4cbf:	c9                   	leave  
    4cc0:	c3                   	ret    
    4cc1:	90                   	nop

0000000000004cc2 <_ZNSaI10location_tED1Ev>:
    4cc2:	f3 0f 1e fa          	endbr64 
    4cc6:	55                   	push   %rbp
    4cc7:	48 89 e5             	mov    %rsp,%rbp
    4cca:	48 83 ec 10          	sub    $0x10,%rsp
    4cce:	48 89 7d f8          	mov    %rdi,-0x8(%rbp)
    4cd2:	48 8b 45 f8          	mov    -0x8(%rbp),%rax
    4cd6:	48 89 c7             	mov    %rax,%rdi
    4cd9:	e8 ee 00 00 00       	call   4dcc <_ZN9__gnu_cxx13new_allocatorI10location_tED1Ev>
    4cde:	90                   	nop
    4cdf:	c9                   	leave  
    4ce0:	c3                   	ret    
    4ce1:	90                   	nop

0000000000004ce2 <_ZNSt12_Vector_baseI10location_tSaIS0_EE13_M_deallocateEPS0_m>:
    4ce2:	f3 0f 1e fa          	endbr64 
    4ce6:	55                   	push   %rbp
    4ce7:	48 89 e5             	mov    %rsp,%rbp
    4cea:	48 83 ec 20          	sub    $0x20,%rsp
    4cee:	48 89 7d f8          	mov    %rdi,-0x8(%rbp)
    4cf2:	48 89 75 f0          	mov    %rsi,-0x10(%rbp)
    4cf6:	48 89 55 e8          	mov    %rdx,-0x18(%rbp)
    4cfa:	48 83 7d f0 00       	cmpq   $0x0,-0x10(%rbp)
    4cff:	74 17                	je     4d18 <_ZNSt12_Vector_baseI10location_tSaIS0_EE13_M_deallocateEPS0_m+0x36>
    4d01:	48 8b 45 f8          	mov    -0x8(%rbp),%rax
    4d05:	48 8b 55 e8          	mov    -0x18(%rbp),%rdx
    4d09:	48 8b 4d f0          	mov    -0x10(%rbp),%rcx
    4d0d:	48 89 ce             	mov    %rcx,%rsi
    4d10:	48 89 c7             	mov    %rax,%rdi
    4d13:	e8 c3 00 00 00       	call   4ddb <_ZNSt16allocator_traitsISaI10location_tEE10deallocateERS1_PS0_m>
    4d18:	90                   	nop
    4d19:	c9                   	leave  
    4d1a:	c3                   	ret    

0000000000004d1b <_ZSt8_DestroyIP10location_tEvT_S2_>:
    4d1b:	f3 0f 1e fa          	endbr64 
    4d1f:	55                   	push   %rbp
    4d20:	48 89 e5             	mov    %rsp,%rbp
    4d23:	48 83 ec 10          	sub    $0x10,%rsp
    4d27:	48 89 7d f8          	mov    %rdi,-0x8(%rbp)
    4d2b:	48 89 75 f0          	mov    %rsi,-0x10(%rbp)
    4d2f:	48 8b 55 f0          	mov    -0x10(%rbp),%rdx
    4d33:	48 8b 45 f8          	mov    -0x8(%rbp),%rax
    4d37:	48 89 d6             	mov    %rdx,%rsi
    4d3a:	48 89 c7             	mov    %rax,%rdi
    4d3d:	e8 cb 00 00 00       	call   4e0d <_ZNSt12_Destroy_auxILb1EE9__destroyIP10location_tEEvT_S4_>
    4d42:	90                   	nop
    4d43:	c9                   	leave  
    4d44:	c3                   	ret    

0000000000004d45 <_ZSt8__fill_aIPmmEvT_S1_RKT0_>:
    4d45:	f3 0f 1e fa          	endbr64 
    4d49:	55                   	push   %rbp
    4d4a:	48 89 e5             	mov    %rsp,%rbp
    4d4d:	48 83 ec 20          	sub    $0x20,%rsp
    4d51:	48 89 7d f8          	mov    %rdi,-0x8(%rbp)
    4d55:	48 89 75 f0          	mov    %rsi,-0x10(%rbp)
    4d59:	48 89 55 e8          	mov    %rdx,-0x18(%rbp)
    4d5d:	48 8b 55 e8          	mov    -0x18(%rbp),%rdx
    4d61:	48 8b 4d f0          	mov    -0x10(%rbp),%rcx
    4d65:	48 8b 45 f8          	mov    -0x8(%rbp),%rax
    4d69:	48 89 ce             	mov    %rcx,%rsi
    4d6c:	48 89 c7             	mov    %rax,%rdi
    4d6f:	e8 ac 00 00 00       	call   4e20 <_ZSt9__fill_a1IPmmEN9__gnu_cxx11__enable_ifIXsrSt11__is_scalarIT0_E7__valueEvE6__typeET_S8_RKS4_>
    4d74:	90                   	nop
    4d75:	c9                   	leave  
    4d76:	c3                   	ret    
    4d77:	90                   	nop

0000000000004d78 <_ZN9__gnu_cxx13new_allocatorIP12netlist_elemED1Ev>:
    4d78:	f3 0f 1e fa          	endbr64 
    4d7c:	55                   	push   %rbp
    4d7d:	48 89 e5             	mov    %rsp,%rbp
    4d80:	48 89 7d f8          	mov    %rdi,-0x8(%rbp)
    4d84:	90                   	nop
    4d85:	5d                   	pop    %rbp
    4d86:	c3                   	ret    

0000000000004d87 <_ZNSt16allocator_traitsISaIP12netlist_elemEE10deallocateERS2_PS1_m>:
    4d87:	f3 0f 1e fa          	endbr64 
    4d8b:	55                   	push   %rbp
    4d8c:	48 89 e5             	mov    %rsp,%rbp
    4d8f:	48 83 ec 20          	sub    $0x20,%rsp
    4d93:	48 89 7d f8          	mov    %rdi,-0x8(%rbp)
    4d97:	48 89 75 f0          	mov    %rsi,-0x10(%rbp)
    4d9b:	48 89 55 e8          	mov    %rdx,-0x18(%rbp)
    4d9f:	48 8b 55 e8          	mov    -0x18(%rbp),%rdx
    4da3:	48 8b 4d f0          	mov    -0x10(%rbp),%rcx
    4da7:	48 8b 45 f8          	mov    -0x8(%rbp),%rax
    4dab:	48 89 ce             	mov    %rcx,%rsi
    4dae:	48 89 c7             	mov    %rax,%rdi
    4db1:	e8 aa 00 00 00       	call   4e60 <_ZN9__gnu_cxx13new_allocatorIP12netlist_elemE10deallocateEPS2_m>
    4db6:	90                   	nop
    4db7:	c9                   	leave  
    4db8:	c3                   	ret    

0000000000004db9 <_ZNSt12_Destroy_auxILb1EE9__destroyIPP12netlist_elemEEvT_S5_>:
    4db9:	f3 0f 1e fa          	endbr64 
    4dbd:	55                   	push   %rbp
    4dbe:	48 89 e5             	mov    %rsp,%rbp
    4dc1:	48 89 7d f8          	mov    %rdi,-0x8(%rbp)
    4dc5:	48 89 75 f0          	mov    %rsi,-0x10(%rbp)
    4dc9:	90                   	nop
    4dca:	5d                   	pop    %rbp
    4dcb:	c3                   	ret    

0000000000004dcc <_ZN9__gnu_cxx13new_allocatorI10location_tED1Ev>:
    4dcc:	f3 0f 1e fa          	endbr64 
    4dd0:	55                   	push   %rbp
    4dd1:	48 89 e5             	mov    %rsp,%rbp
    4dd4:	48 89 7d f8          	mov    %rdi,-0x8(%rbp)
    4dd8:	90                   	nop
    4dd9:	5d                   	pop    %rbp
    4dda:	c3                   	ret    

0000000000004ddb <_ZNSt16allocator_traitsISaI10location_tEE10deallocateERS1_PS0_m>:
    4ddb:	f3 0f 1e fa          	endbr64 
    4ddf:	55                   	push   %rbp
    4de0:	48 89 e5             	mov    %rsp,%rbp
    4de3:	48 83 ec 20          	sub    $0x20,%rsp
    4de7:	48 89 7d f8          	mov    %rdi,-0x8(%rbp)
    4deb:	48 89 75 f0          	mov    %rsi,-0x10(%rbp)
    4def:	48 89 55 e8          	mov    %rdx,-0x18(%rbp)
    4df3:	48 8b 55 e8          	mov    -0x18(%rbp),%rdx
    4df7:	48 8b 4d f0          	mov    -0x10(%rbp),%rcx
    4dfb:	48 8b 45 f8          	mov    -0x8(%rbp),%rax
    4dff:	48 89 ce             	mov    %rcx,%rsi
    4e02:	48 89 c7             	mov    %rax,%rdi
    4e05:	e8 8c 00 00 00       	call   4e96 <_ZN9__gnu_cxx13new_allocatorI10location_tE10deallocateEPS1_m>
    4e0a:	90                   	nop
    4e0b:	c9                   	leave  
    4e0c:	c3                   	ret    

0000000000004e0d <_ZNSt12_Destroy_auxILb1EE9__destroyIP10location_tEEvT_S4_>:
    4e0d:	f3 0f 1e fa          	endbr64 
    4e11:	55                   	push   %rbp
    4e12:	48 89 e5             	mov    %rsp,%rbp
    4e15:	48 89 7d f8          	mov    %rdi,-0x8(%rbp)
    4e19:	48 89 75 f0          	mov    %rsi,-0x10(%rbp)
    4e1d:	90                   	nop
    4e1e:	5d                   	pop    %rbp
    4e1f:	c3                   	ret    

0000000000004e20 <_ZSt9__fill_a1IPmmEN9__gnu_cxx11__enable_ifIXsrSt11__is_scalarIT0_E7__valueEvE6__typeET_S8_RKS4_>:
    4e20:	f3 0f 1e fa          	endbr64 
    4e24:	55                   	push   %rbp
    4e25:	48 89 e5             	mov    %rsp,%rbp
    4e28:	48 89 7d e8          	mov    %rdi,-0x18(%rbp)
    4e2c:	48 89 75 e0          	mov    %rsi,-0x20(%rbp)
    4e30:	48 89 55 d8          	mov    %rdx,-0x28(%rbp)
    4e34:	48 8b 45 d8          	mov    -0x28(%rbp),%rax
    4e38:	48 8b 00             	mov    (%rax),%rax
    4e3b:	48 89 45 f8          	mov    %rax,-0x8(%rbp)
    4e3f:	eb 10                	jmp    4e51 <_ZSt9__fill_a1IPmmEN9__gnu_cxx11__enable_ifIXsrSt11__is_scalarIT0_E7__valueEvE6__typeET_S8_RKS4_+0x31>
    4e41:	48 8b 45 e8          	mov    -0x18(%rbp),%rax
    4e45:	48 8b 55 f8          	mov    -0x8(%rbp),%rdx
    4e49:	48 89 10             	mov    %rdx,(%rax)
    4e4c:	48 83 45 e8 08       	addq   $0x8,-0x18(%rbp)
    4e51:	48 8b 45 e8          	mov    -0x18(%rbp),%rax
    4e55:	48 3b 45 e0          	cmp    -0x20(%rbp),%rax
    4e59:	75 e6                	jne    4e41 <_ZSt9__fill_a1IPmmEN9__gnu_cxx11__enable_ifIXsrSt11__is_scalarIT0_E7__valueEvE6__typeET_S8_RKS4_+0x21>
    4e5b:	90                   	nop
    4e5c:	90                   	nop
    4e5d:	5d                   	pop    %rbp
    4e5e:	c3                   	ret    
    4e5f:	90                   	nop

0000000000004e60 <_ZN9__gnu_cxx13new_allocatorIP12netlist_elemE10deallocateEPS2_m>:
    4e60:	f3 0f 1e fa          	endbr64 
    4e64:	55                   	push   %rbp
    4e65:	48 89 e5             	mov    %rsp,%rbp
    4e68:	48 83 ec 20          	sub    $0x20,%rsp
    4e6c:	48 89 7d f8          	mov    %rdi,-0x8(%rbp)
    4e70:	48 89 75 f0          	mov    %rsi,-0x10(%rbp)
    4e74:	48 89 55 e8          	mov    %rdx,-0x18(%rbp)
    4e78:	48 8b 45 e8          	mov    -0x18(%rbp),%rax
    4e7c:	48 8d 14 c5 00 00 00 	lea    0x0(,%rax,8),%rdx
    4e83:	00 
    4e84:	48 8b 45 f0          	mov    -0x10(%rbp),%rax
    4e88:	48 89 d6             	mov    %rdx,%rsi
    4e8b:	48 89 c7             	mov    %rax,%rdi
    4e8e:	e8 dd d6 ff ff       	call   2570 <_ZdlPvm@plt>
    4e93:	c9                   	leave  
    4e94:	c3                   	ret    
    4e95:	90                   	nop

0000000000004e96 <_ZN9__gnu_cxx13new_allocatorI10location_tE10deallocateEPS1_m>:
    4e96:	f3 0f 1e fa          	endbr64 
    4e9a:	55                   	push   %rbp
    4e9b:	48 89 e5             	mov    %rsp,%rbp
    4e9e:	48 83 ec 20          	sub    $0x20,%rsp
    4ea2:	48 89 7d f8          	mov    %rdi,-0x8(%rbp)
    4ea6:	48 89 75 f0          	mov    %rsi,-0x10(%rbp)
    4eaa:	48 89 55 e8          	mov    %rdx,-0x18(%rbp)
    4eae:	48 8b 45 e8          	mov    -0x18(%rbp),%rax
    4eb2:	48 8d 14 c5 00 00 00 	lea    0x0(,%rax,8),%rdx
    4eb9:	00 
    4eba:	48 8b 45 f0          	mov    -0x10(%rbp),%rax
    4ebe:	48 89 d6             	mov    %rdx,%rsi
    4ec1:	48 89 c7             	mov    %rax,%rdi
    4ec4:	e8 a7 d6 ff ff       	call   2570 <_ZdlPvm@plt>
    4ec9:	c9                   	leave  
    4eca:	c3                   	ret    
    4ecb:	90                   	nop

0000000000004ecc <_ZN7netlist7releaseEP12netlist_elem>:
    4ecc:	f3 0f 1e fa          	endbr64 
    4ed0:	55                   	push   %rbp
    4ed1:	48 89 e5             	mov    %rsp,%rbp
    4ed4:	48 89 7d f8          	mov    %rdi,-0x8(%rbp)
    4ed8:	48 89 75 f0          	mov    %rsi,-0x10(%rbp)
    4edc:	90                   	nop
    4edd:	5d                   	pop    %rbp
    4ede:	c3                   	ret    
    4edf:	90                   	nop

0000000000004ee0 <_ZN7netlist18total_routing_costEv>:
    4ee0:	f3 0f 1e fa          	endbr64 
    4ee4:	55                   	push   %rbp
    4ee5:	48 89 e5             	mov    %rsp,%rbp
    4ee8:	53                   	push   %rbx
    4ee9:	48 83 ec 48          	sub    $0x48,%rsp
    4eed:	48 89 7d b8          	mov    %rdi,-0x48(%rbp)
    4ef1:	64 48 8b 04 25 28 00 	mov    %fs:0x28,%rax
    4ef8:	00 00 
    4efa:	48 89 45 e8          	mov    %rax,-0x18(%rbp)
    4efe:	31 c0                	xor    %eax,%eax
    4f00:	66 0f ef c0          	pxor   %xmm0,%xmm0
    4f04:	f2 0f 11 45 d8       	movsd  %xmm0,-0x28(%rbp)
    4f09:	48 8b 45 b8          	mov    -0x48(%rbp),%rax
    4f0d:	48 83 c0 40          	add    $0x40,%rax
    4f11:	48 89 c7             	mov    %rax,%rdi
    4f14:	e8 0f 0d 00 00       	call   5c28 <_ZNSt3mapINSt7__cxx1112basic_stringIcSt11char_traitsIcESaIcEEEP12netlist_elemSt4lessIS5_ESaISt4pairIKS5_S7_EEE5beginEv>
    4f19:	48 89 45 c8          	mov    %rax,-0x38(%rbp)
    4f1d:	eb 4d                	jmp    4f6c <_ZN7netlist18total_routing_costEv+0x8c>
    4f1f:	48 8d 45 c8          	lea    -0x38(%rbp),%rax
    4f23:	48 89 c7             	mov    %rax,%rdi
    4f26:	e8 8b 0d 00 00       	call   5cb6 <_ZNKSt17_Rb_tree_iteratorISt4pairIKNSt7__cxx1112basic_stringIcSt11char_traitsIcESaIcEEEP12netlist_elemEEptEv>
    4f2b:	48 8b 40 20          	mov    0x20(%rax),%rax
    4f2f:	48 89 45 e0          	mov    %rax,-0x20(%rbp)
    4f33:	48 8b 5d e0          	mov    -0x20(%rbp),%rbx
    4f37:	48 8b 45 e0          	mov    -0x20(%rbp),%rax
    4f3b:	48 83 c0 50          	add    $0x50,%rax
    4f3f:	48 89 c7             	mov    %rax,%rdi
    4f42:	e8 9d e0 ff ff       	call   2fe4 <_ZNK7threads9AtomicPtrI10location_tE3GetEv>
    4f47:	48 8b 30             	mov    (%rax),%rsi
    4f4a:	48 89 df             	mov    %rbx,%rdi
    4f4d:	e8 06 6a 00 00       	call   b958 <_ZN12netlist_elem22routing_cost_given_locE10location_t>
    4f52:	f2 0f 10 4d d8       	movsd  -0x28(%rbp),%xmm1
    4f57:	f2 0f 58 c1          	addsd  %xmm1,%xmm0
    4f5b:	f2 0f 11 45 d8       	movsd  %xmm0,-0x28(%rbp)
    4f60:	48 8d 45 c8          	lea    -0x38(%rbp),%rax
    4f64:	48 89 c7             	mov    %rax,%rdi
    4f67:	e8 1e 0d 00 00       	call   5c8a <_ZNSt17_Rb_tree_iteratorISt4pairIKNSt7__cxx1112basic_stringIcSt11char_traitsIcESaIcEEEP12netlist_elemEEppEv>
    4f6c:	48 8b 45 b8          	mov    -0x48(%rbp),%rax
    4f70:	48 83 c0 40          	add    $0x40,%rax
    4f74:	48 89 c7             	mov    %rax,%rdi
    4f77:	e8 ca 0c 00 00       	call   5c46 <_ZNSt3mapINSt7__cxx1112basic_stringIcSt11char_traitsIcESaIcEEEP12netlist_elemSt4lessIS5_ESaISt4pairIKS5_S7_EEE3endEv>
    4f7c:	48 89 45 d0          	mov    %rax,-0x30(%rbp)
    4f80:	48 8d 55 d0          	lea    -0x30(%rbp),%rdx
    4f84:	48 8d 45 c8          	lea    -0x38(%rbp),%rax
    4f88:	48 89 d6             	mov    %rdx,%rsi
    4f8b:	48 89 c7             	mov    %rax,%rdi
    4f8e:	e8 d1 0c 00 00       	call   5c64 <_ZStneRKSt17_Rb_tree_iteratorISt4pairIKNSt7__cxx1112basic_stringIcSt11char_traitsIcESaIcEEEP12netlist_elemEESD_>
    4f93:	84 c0                	test   %al,%al
    4f95:	75 88                	jne    4f1f <_ZN7netlist18total_routing_costEv+0x3f>
    4f97:	f2 0f 10 45 d8       	movsd  -0x28(%rbp),%xmm0
    4f9c:	f2 0f 10 0d 14 83 00 	movsd  0x8314(%rip),%xmm1        # d2b8 <_ZL19NO_MATCHING_ELEMENT+0x128>
    4fa3:	00 
    4fa4:	f2 0f 5e c1          	divsd  %xmm1,%xmm0
    4fa8:	66 48 0f 7e c0       	movq   %xmm0,%rax
    4fad:	48 8b 55 e8          	mov    -0x18(%rbp),%rdx
    4fb1:	64 48 2b 14 25 28 00 	sub    %fs:0x28,%rdx
    4fb8:	00 00 
    4fba:	74 05                	je     4fc1 <_ZN7netlist18total_routing_costEv+0xe1>
    4fbc:	e8 3f d6 ff ff       	call   2600 <__stack_chk_fail@plt>
    4fc1:	66 48 0f 6e c0       	movq   %rax,%xmm0
    4fc6:	48 8b 5d f8          	mov    -0x8(%rbp),%rbx
    4fca:	c9                   	leave  
    4fcb:	c3                   	ret    

0000000000004fcc <_ZN7netlist7shuffleEP3Rng>:
    4fcc:	f3 0f 1e fa          	endbr64 
    4fd0:	55                   	push   %rbp
    4fd1:	48 89 e5             	mov    %rsp,%rbp
    4fd4:	48 83 ec 30          	sub    $0x30,%rsp
    4fd8:	48 89 7d d8          	mov    %rdi,-0x28(%rbp)
    4fdc:	48 89 75 d0          	mov    %rsi,-0x30(%rbp)
    4fe0:	64 48 8b 04 25 28 00 	mov    %fs:0x28,%rax
    4fe7:	00 00 
    4fe9:	48 89 45 f8          	mov    %rax,-0x8(%rbp)
    4fed:	31 c0                	xor    %eax,%eax
    4fef:	c7 45 e4 00 00 00 00 	movl   $0x0,-0x1c(%rbp)
    4ff6:	eb 33                	jmp    502b <_ZN7netlist7shuffleEP3Rng+0x5f>
    4ff8:	48 8b 4d d0          	mov    -0x30(%rbp),%rcx
    4ffc:	48 8d 55 f0          	lea    -0x10(%rbp),%rdx
    5000:	48 8d 75 e8          	lea    -0x18(%rbp),%rsi
    5004:	48 8b 45 d8          	mov    -0x28(%rbp),%rax
    5008:	48 89 c7             	mov    %rax,%rdi
    500b:	e8 2c 01 00 00       	call   513c <_ZN7netlist15get_random_pairEPP12netlist_elemS2_P3Rng>
    5010:	48 8b 55 f0          	mov    -0x10(%rbp),%rdx
    5014:	48 8b 4d e8          	mov    -0x18(%rbp),%rcx
    5018:	48 8b 45 d8          	mov    -0x28(%rbp),%rax
    501c:	48 89 ce             	mov    %rcx,%rsi
    501f:	48 89 c7             	mov    %rax,%rdi
    5022:	e8 39 00 00 00       	call   5060 <_ZN7netlist14swap_locationsEP12netlist_elemS1_>
    5027:	83 45 e4 01          	addl   $0x1,-0x1c(%rbp)
    502b:	48 8b 45 d8          	mov    -0x28(%rbp),%rax
    502f:	8b 50 04             	mov    0x4(%rax),%edx
    5032:	48 8b 45 d8          	mov    -0x28(%rbp),%rax
    5036:	8b 40 08             	mov    0x8(%rax),%eax
    5039:	0f af c2             	imul   %edx,%eax
    503c:	69 d0 e8 03 00 00    	imul   $0x3e8,%eax,%edx
    5042:	8b 45 e4             	mov    -0x1c(%rbp),%eax
    5045:	39 c2                	cmp    %eax,%edx
    5047:	77 af                	ja     4ff8 <_ZN7netlist7shuffleEP3Rng+0x2c>
    5049:	90                   	nop
    504a:	48 8b 45 f8          	mov    -0x8(%rbp),%rax
    504e:	64 48 2b 04 25 28 00 	sub    %fs:0x28,%rax
    5055:	00 00 
    5057:	74 05                	je     505e <_ZN7netlist7shuffleEP3Rng+0x92>
    5059:	e8 a2 d5 ff ff       	call   2600 <__stack_chk_fail@plt>
    505e:	c9                   	leave  
    505f:	c3                   	ret    

0000000000005060 <_ZN7netlist14swap_locationsEP12netlist_elemS1_>:
    5060:	f3 0f 1e fa          	endbr64 
    5064:	55                   	push   %rbp
    5065:	48 89 e5             	mov    %rsp,%rbp
    5068:	48 83 ec 20          	sub    $0x20,%rsp
    506c:	48 89 7d f8          	mov    %rdi,-0x8(%rbp)
    5070:	48 89 75 f0          	mov    %rsi,-0x10(%rbp)
    5074:	48 89 55 e8          	mov    %rdx,-0x18(%rbp)
    5078:	48 8b 45 f0          	mov    -0x10(%rbp),%rax
    507c:	48 83 c0 50          	add    $0x50,%rax
    5080:	48 8b 55 e8          	mov    -0x18(%rbp),%rdx
    5084:	48 83 c2 50          	add    $0x50,%rdx
    5088:	48 89 d6             	mov    %rdx,%rsi
    508b:	48 89 c7             	mov    %rax,%rdi
    508e:	e8 45 0c 00 00       	call   5cd8 <_ZN7threads9AtomicPtrI10location_tE4SwapERS2_>
    5093:	90                   	nop
    5094:	c9                   	leave  
    5095:	c3                   	ret    

0000000000005096 <_ZN7netlist18get_random_elementEPllP3Rng>:
    5096:	f3 0f 1e fa          	endbr64 
    509a:	55                   	push   %rbp
    509b:	48 89 e5             	mov    %rsp,%rbp
    509e:	48 83 ec 30          	sub    $0x30,%rsp
    50a2:	48 89 7d e8          	mov    %rdi,-0x18(%rbp)
    50a6:	48 89 75 e0          	mov    %rsi,-0x20(%rbp)
    50aa:	48 89 55 d8          	mov    %rdx,-0x28(%rbp)
    50ae:	48 89 4d d0          	mov    %rcx,-0x30(%rbp)
    50b2:	48 8b 45 e8          	mov    -0x18(%rbp),%rax
    50b6:	8b 40 0c             	mov    0xc(%rax),%eax
    50b9:	89 c2                	mov    %eax,%edx
    50bb:	48 8b 45 d0          	mov    -0x30(%rbp),%rax
    50bf:	89 d6                	mov    %edx,%esi
    50c1:	48 89 c7             	mov    %rax,%rdi
    50c4:	e8 5b 6d 00 00       	call   be24 <_ZN3Rng4randEi>
    50c9:	48 89 45 f0          	mov    %rax,-0x10(%rbp)
    50cd:	48 8b 45 e8          	mov    -0x18(%rbp),%rax
    50d1:	48 8d 50 10          	lea    0x10(%rax),%rdx
    50d5:	48 8b 45 f0          	mov    -0x10(%rbp),%rax
    50d9:	48 89 c6             	mov    %rax,%rsi
    50dc:	48 89 d7             	mov    %rdx,%rdi
    50df:	e8 72 0c 00 00       	call   5d56 <_ZNSt6vectorI12netlist_elemSaIS0_EEixEm>
    50e4:	48 89 45 f8          	mov    %rax,-0x8(%rbp)
    50e8:	eb 36                	jmp    5120 <_ZN7netlist18get_random_elementEPllP3Rng+0x8a>
    50ea:	48 8b 45 e8          	mov    -0x18(%rbp),%rax
    50ee:	8b 40 0c             	mov    0xc(%rax),%eax
    50f1:	89 c2                	mov    %eax,%edx
    50f3:	48 8b 45 d0          	mov    -0x30(%rbp),%rax
    50f7:	89 d6                	mov    %edx,%esi
    50f9:	48 89 c7             	mov    %rax,%rdi
    50fc:	e8 23 6d 00 00       	call   be24 <_ZN3Rng4randEi>
    5101:	48 89 45 f0          	mov    %rax,-0x10(%rbp)
    5105:	48 8b 45 e8          	mov    -0x18(%rbp),%rax
    5109:	48 8d 50 10          	lea    0x10(%rax),%rdx
    510d:	48 8b 45 f0          	mov    -0x10(%rbp),%rax
    5111:	48 89 c6             	mov    %rax,%rsi
    5114:	48 89 d7             	mov    %rdx,%rdi
    5117:	e8 3a 0c 00 00       	call   5d56 <_ZNSt6vectorI12netlist_elemSaIS0_EEixEm>
    511c:	48 89 45 f8          	mov    %rax,-0x8(%rbp)
    5120:	48 8b 45 f0          	mov    -0x10(%rbp),%rax
    5124:	48 3b 45 d8          	cmp    -0x28(%rbp),%rax
    5128:	74 c0                	je     50ea <_ZN7netlist18get_random_elementEPllP3Rng+0x54>
    512a:	48 8b 45 e0          	mov    -0x20(%rbp),%rax
    512e:	48 8b 55 f0          	mov    -0x10(%rbp),%rdx
    5132:	48 89 10             	mov    %rdx,(%rax)
    5135:	48 8b 45 f8          	mov    -0x8(%rbp),%rax
    5139:	c9                   	leave  
    513a:	c3                   	ret    
    513b:	90                   	nop

000000000000513c <_ZN7netlist15get_random_pairEPP12netlist_elemS2_P3Rng>:
    513c:	f3 0f 1e fa          	endbr64 
    5140:	55                   	push   %rbp
    5141:	48 89 e5             	mov    %rsp,%rbp
    5144:	48 83 ec 40          	sub    $0x40,%rsp
    5148:	48 89 7d d8          	mov    %rdi,-0x28(%rbp)
    514c:	48 89 75 d0          	mov    %rsi,-0x30(%rbp)
    5150:	48 89 55 c8          	mov    %rdx,-0x38(%rbp)
    5154:	48 89 4d c0          	mov    %rcx,-0x40(%rbp)
    5158:	48 8b 45 d8          	mov    -0x28(%rbp),%rax
    515c:	8b 40 0c             	mov    0xc(%rax),%eax
    515f:	89 c2                	mov    %eax,%edx
    5161:	48 8b 45 c0          	mov    -0x40(%rbp),%rax
    5165:	89 d6                	mov    %edx,%esi
    5167:	48 89 c7             	mov    %rax,%rdi
    516a:	e8 b5 6c 00 00       	call   be24 <_ZN3Rng4randEi>
    516f:	48 89 45 f0          	mov    %rax,-0x10(%rbp)
    5173:	48 8b 45 d8          	mov    -0x28(%rbp),%rax
    5177:	48 8d 50 10          	lea    0x10(%rax),%rdx
    517b:	48 8b 45 f0          	mov    -0x10(%rbp),%rax
    517f:	48 89 c6             	mov    %rax,%rsi
    5182:	48 89 d7             	mov    %rdx,%rdi
    5185:	e8 cc 0b 00 00       	call   5d56 <_ZNSt6vectorI12netlist_elemSaIS0_EEixEm>
    518a:	48 89 45 f8          	mov    %rax,-0x8(%rbp)
    518e:	48 8b 45 d8          	mov    -0x28(%rbp),%rax
    5192:	8b 40 0c             	mov    0xc(%rax),%eax
    5195:	89 c2                	mov    %eax,%edx
    5197:	48 8b 45 c0          	mov    -0x40(%rbp),%rax
    519b:	89 d6                	mov    %edx,%esi
    519d:	48 89 c7             	mov    %rax,%rdi
    51a0:	e8 7f 6c 00 00       	call   be24 <_ZN3Rng4randEi>
    51a5:	48 89 45 e0          	mov    %rax,-0x20(%rbp)
    51a9:	48 8b 45 d8          	mov    -0x28(%rbp),%rax
    51ad:	48 8d 50 10          	lea    0x10(%rax),%rdx
    51b1:	48 8b 45 e0          	mov    -0x20(%rbp),%rax
    51b5:	48 89 c6             	mov    %rax,%rsi
    51b8:	48 89 d7             	mov    %rdx,%rdi
    51bb:	e8 96 0b 00 00       	call   5d56 <_ZNSt6vectorI12netlist_elemSaIS0_EEixEm>
    51c0:	48 89 45 e8          	mov    %rax,-0x18(%rbp)
    51c4:	eb 36                	jmp    51fc <_ZN7netlist15get_random_pairEPP12netlist_elemS2_P3Rng+0xc0>
    51c6:	48 8b 45 d8          	mov    -0x28(%rbp),%rax
    51ca:	8b 40 0c             	mov    0xc(%rax),%eax
    51cd:	89 c2                	mov    %eax,%edx
    51cf:	48 8b 45 c0          	mov    -0x40(%rbp),%rax
    51d3:	89 d6                	mov    %edx,%esi
    51d5:	48 89 c7             	mov    %rax,%rdi
    51d8:	e8 47 6c 00 00       	call   be24 <_ZN3Rng4randEi>
    51dd:	48 89 45 e0          	mov    %rax,-0x20(%rbp)
    51e1:	48 8b 45 d8          	mov    -0x28(%rbp),%rax
    51e5:	48 8d 50 10          	lea    0x10(%rax),%rdx
    51e9:	48 8b 45 e0          	mov    -0x20(%rbp),%rax
    51ed:	48 89 c6             	mov    %rax,%rsi
    51f0:	48 89 d7             	mov    %rdx,%rdi
    51f3:	e8 5e 0b 00 00       	call   5d56 <_ZNSt6vectorI12netlist_elemSaIS0_EEixEm>
    51f8:	48 89 45 e8          	mov    %rax,-0x18(%rbp)
    51fc:	48 8b 45 e0          	mov    -0x20(%rbp),%rax
    5200:	48 3b 45 f0          	cmp    -0x10(%rbp),%rax
    5204:	74 c0                	je     51c6 <_ZN7netlist15get_random_pairEPP12netlist_elemS2_P3Rng+0x8a>
    5206:	48 8b 45 d0          	mov    -0x30(%rbp),%rax
    520a:	48 8b 55 f8          	mov    -0x8(%rbp),%rdx
    520e:	48 89 10             	mov    %rdx,(%rax)
    5211:	48 8b 45 c8          	mov    -0x38(%rbp),%rax
    5215:	48 8b 55 e8          	mov    -0x18(%rbp),%rdx
    5219:	48 89 10             	mov    %rdx,(%rax)
    521c:	90                   	nop
    521d:	c9                   	leave  
    521e:	c3                   	ret    
    521f:	90                   	nop

0000000000005220 <_ZN7netlist21netlist_elem_from_locER10location_t>:
    5220:	f3 0f 1e fa          	endbr64 
    5224:	55                   	push   %rbp
    5225:	48 89 e5             	mov    %rsp,%rbp
    5228:	48 89 7d f8          	mov    %rdi,-0x8(%rbp)
    522c:	48 89 75 f0          	mov    %rsi,-0x10(%rbp)
    5230:	b8 00 00 00 00       	mov    $0x0,%eax
    5235:	5d                   	pop    %rbp
    5236:	c3                   	ret    
    5237:	90                   	nop

0000000000005238 <_ZN7netlist22netlist_elem_from_nameERNSt7__cxx1112basic_stringIcSt11char_traitsIcESaIcEEE>:
    5238:	f3 0f 1e fa          	endbr64 
    523c:	55                   	push   %rbp
    523d:	48 89 e5             	mov    %rsp,%rbp
    5240:	48 83 ec 10          	sub    $0x10,%rsp
    5244:	48 89 7d f8          	mov    %rdi,-0x8(%rbp)
    5248:	48 89 75 f0          	mov    %rsi,-0x10(%rbp)
    524c:	48 8b 45 f8          	mov    -0x8(%rbp),%rax
    5250:	48 8d 50 40          	lea    0x40(%rax),%rdx
    5254:	48 8b 45 f0          	mov    -0x10(%rbp),%rax
    5258:	48 89 c6             	mov    %rax,%rsi
    525b:	48 89 d7             	mov    %rdx,%rdi
    525e:	e8 27 0b 00 00       	call   5d8a <_ZNSt3mapINSt7__cxx1112basic_stringIcSt11char_traitsIcESaIcEEEP12netlist_elemSt4lessIS5_ESaISt4pairIKS5_S7_EEEixERSB_>
    5263:	48 8b 00             	mov    (%rax),%rax
    5266:	c9                   	leave  
    5267:	c3                   	ret    

0000000000005268 <_ZN7netlistC1ERKNSt7__cxx1112basic_stringIcSt11char_traitsIcESaIcEEE>:
    5268:	f3 0f 1e fa          	endbr64 
    526c:	55                   	push   %rbp
    526d:	48 89 e5             	mov    %rsp,%rbp
    5270:	48 81 ec b0 02 00 00 	sub    $0x2b0,%rsp
    5277:	48 89 bd 58 fd ff ff 	mov    %rdi,-0x2a8(%rbp)
    527e:	48 89 b5 50 fd ff ff 	mov    %rsi,-0x2b0(%rbp)
    5285:	64 48 8b 04 25 28 00 	mov    %fs:0x28,%rax
    528c:	00 00 
    528e:	48 89 45 f8          	mov    %rax,-0x8(%rbp)
    5292:	31 c0                	xor    %eax,%eax
    5294:	48 8b 85 58 fd ff ff 	mov    -0x2a8(%rbp),%rax
    529b:	48 83 c0 10          	add    $0x10,%rax
    529f:	48 89 c7             	mov    %rax,%rdi
    52a2:	e8 e1 08 00 00       	call   5b88 <_ZNSt6vectorI12netlist_elemSaIS0_EEC1Ev>
    52a7:	48 8b 85 58 fd ff ff 	mov    -0x2a8(%rbp),%rax
    52ae:	48 83 c0 28          	add    $0x28,%rax
    52b2:	48 89 c7             	mov    %rax,%rdi
    52b5:	e8 0e 09 00 00       	call   5bc8 <_ZNSt6vectorIS_I10location_tSaIS0_EESaIS2_EEC1Ev>
    52ba:	48 8b 85 58 fd ff ff 	mov    -0x2a8(%rbp),%rax
    52c1:	48 83 c0 40          	add    $0x40,%rax
    52c5:	48 89 c7             	mov    %rax,%rdi
    52c8:	e8 3b 09 00 00       	call   5c08 <_ZNSt3mapINSt7__cxx1112basic_stringIcSt11char_traitsIcESaIcEEEP12netlist_elemSt4lessIS5_ESaISt4pairIKS5_S7_EEEC1Ev>
    52cd:	48 8b 85 50 fd ff ff 	mov    -0x2b0(%rbp),%rax
    52d4:	48 89 c7             	mov    %rax,%rdi
    52d7:	e8 74 d1 ff ff       	call   2450 <_ZNKSt7__cxx1112basic_stringIcSt11char_traitsIcESaIcEE5c_strEv@plt>
    52dc:	48 89 c1             	mov    %rax,%rcx
    52df:	48 8d 85 f0 fd ff ff 	lea    -0x210(%rbp),%rax
    52e6:	ba 08 00 00 00       	mov    $0x8,%edx
    52eb:	48 89 ce             	mov    %rcx,%rsi
    52ee:	48 89 c7             	mov    %rax,%rdi
    52f1:	e8 2a d4 ff ff       	call   2720 <_ZNSt14basic_ifstreamIcSt11char_traitsIcEEC1EPKcSt13_Ios_Openmode@plt>
    52f6:	48 8b 95 58 fd ff ff 	mov    -0x2a8(%rbp),%rdx
    52fd:	48 8d 85 f0 fd ff ff 	lea    -0x210(%rbp),%rax
    5304:	48 89 d6             	mov    %rdx,%rsi
    5307:	48 89 c7             	mov    %rax,%rdi
    530a:	e8 e1 d0 ff ff       	call   23f0 <_ZNSirsERj@plt>
    530f:	48 89 c2             	mov    %rax,%rdx
    5312:	48 8b 85 58 fd ff ff 	mov    -0x2a8(%rbp),%rax
    5319:	48 83 c0 04          	add    $0x4,%rax
    531d:	48 89 c6             	mov    %rax,%rsi
    5320:	48 89 d7             	mov    %rdx,%rdi
    5323:	e8 c8 d0 ff ff       	call   23f0 <_ZNSirsERj@plt>
    5328:	48 89 c2             	mov    %rax,%rdx
    532b:	48 8b 85 58 fd ff ff 	mov    -0x2a8(%rbp),%rax
    5332:	48 83 c0 08          	add    $0x8,%rax
    5336:	48 89 c6             	mov    %rax,%rsi
    5339:	48 89 d7             	mov    %rdx,%rdi
    533c:	e8 af d0 ff ff       	call   23f0 <_ZNSirsERj@plt>
    5341:	48 8b 85 58 fd ff ff 	mov    -0x2a8(%rbp),%rax
    5348:	8b 50 04             	mov    0x4(%rax),%edx
    534b:	48 8b 85 58 fd ff ff 	mov    -0x2a8(%rbp),%rax
    5352:	8b 40 08             	mov    0x8(%rax),%eax
    5355:	0f af d0             	imul   %eax,%edx
    5358:	48 8b 85 58 fd ff ff 	mov    -0x2a8(%rbp),%rax
    535f:	89 50 0c             	mov    %edx,0xc(%rax)
    5362:	48 8b 85 58 fd ff ff 	mov    -0x2a8(%rbp),%rax
    5369:	48 83 c0 10          	add    $0x10,%rax
    536d:	48 8b 95 58 fd ff ff 	mov    -0x2a8(%rbp),%rdx
    5374:	8b 52 0c             	mov    0xc(%rdx),%edx
    5377:	89 d2                	mov    %edx,%edx
    5379:	48 89 d6             	mov    %rdx,%rsi
    537c:	48 89 c7             	mov    %rax,%rdi
    537f:	e8 ba 0b 00 00       	call   5f3e <_ZNSt6vectorI12netlist_elemSaIS0_EE6resizeEm>
    5384:	48 8d 05 0d 7e 00 00 	lea    0x7e0d(%rip),%rax        # d198 <_ZL19NO_MATCHING_ELEMENT+0x8>
    538b:	48 89 c6             	mov    %rax,%rsi
    538e:	48 8d 05 ab ec 00 00 	lea    0xecab(%rip),%rax        # 14040 <_ZSt4cout@GLIBCXX_3.4>
    5395:	48 89 c7             	mov    %rax,%rdi
    5398:	e8 b3 d1 ff ff       	call   2550 <_ZStlsISt11char_traitsIcEERSt13basic_ostreamIcT_ES5_PKc@plt>
    539d:	48 8b 15 24 ec 00 00 	mov    0xec24(%rip),%rdx        # 13fc8 <_ZSt4endlIcSt11char_traitsIcEERSt13basic_ostreamIT_T0_ES6_@GLIBCXX_3.4>
    53a4:	48 89 d6             	mov    %rdx,%rsi
    53a7:	48 89 c7             	mov    %rax,%rdi
    53aa:	e8 f1 d1 ff ff       	call   25a0 <_ZNSolsEPFRSoS_E@plt>
    53af:	48 8d 85 80 fd ff ff 	lea    -0x280(%rbp),%rax
    53b6:	48 89 c7             	mov    %rax,%rdi
    53b9:	e8 22 0c 00 00       	call   5fe0 <_ZNSaI10location_tEC1Ev>
    53be:	48 8b 85 58 fd ff ff 	mov    -0x2a8(%rbp),%rax
    53c5:	8b 40 08             	mov    0x8(%rax),%eax
    53c8:	89 c1                	mov    %eax,%ecx
    53ca:	48 8d 95 80 fd ff ff 	lea    -0x280(%rbp),%rdx
    53d1:	48 8d 85 90 fd ff ff 	lea    -0x270(%rbp),%rax
    53d8:	48 89 ce             	mov    %rcx,%rsi
    53db:	48 89 c7             	mov    %rax,%rdi
    53de:	e8 1d 0c 00 00       	call   6000 <_ZNSt6vectorI10location_tSaIS0_EEC1EmRKS1_>
    53e3:	48 8d 85 80 fd ff ff 	lea    -0x280(%rbp),%rax
    53ea:	48 89 c7             	mov    %rax,%rdi
    53ed:	e8 d0 f8 ff ff       	call   4cc2 <_ZNSaI10location_tED1Ev>
    53f2:	48 8b 85 58 fd ff ff 	mov    -0x2a8(%rbp),%rax
    53f9:	48 8d 48 28          	lea    0x28(%rax),%rcx
    53fd:	48 8b 85 58 fd ff ff 	mov    -0x2a8(%rbp),%rax
    5404:	8b 40 04             	mov    0x4(%rax),%eax
    5407:	89 c6                	mov    %eax,%esi
    5409:	48 8d 85 90 fd ff ff 	lea    -0x270(%rbp),%rax
    5410:	48 89 c2             	mov    %rax,%rdx
    5413:	48 89 cf             	mov    %rcx,%rdi
    5416:	e8 45 0c 00 00       	call   6060 <_ZNSt6vectorIS_I10location_tSaIS0_EESaIS2_EE6resizeEmRKS2_>
    541b:	c7 85 68 fd ff ff 00 	movl   $0x0,-0x298(%rbp)
    5422:	00 00 00 
    5425:	c7 85 70 fd ff ff 00 	movl   $0x0,-0x290(%rbp)
    542c:	00 00 00 
    542f:	e9 c8 00 00 00       	jmp    54fc <_ZN7netlistC1ERKNSt7__cxx1112basic_stringIcSt11char_traitsIcESaIcEEE+0x294>
    5434:	c7 85 74 fd ff ff 00 	movl   $0x0,-0x28c(%rbp)
    543b:	00 00 00 
    543e:	e9 9a 00 00 00       	jmp    54dd <_ZN7netlistC1ERKNSt7__cxx1112basic_stringIcSt11char_traitsIcESaIcEEE+0x275>
    5443:	48 8b 85 58 fd ff ff 	mov    -0x2a8(%rbp),%rax
    544a:	48 8d 50 28          	lea    0x28(%rax),%rdx
    544e:	8b 85 70 fd ff ff    	mov    -0x290(%rbp),%eax
    5454:	48 98                	cltq   
    5456:	48 89 c6             	mov    %rax,%rsi
    5459:	48 89 d7             	mov    %rdx,%rdi
    545c:	e8 b9 0c 00 00       	call   611a <_ZNSt6vectorIS_I10location_tSaIS0_EESaIS2_EE2atEm>
    5461:	48 89 c2             	mov    %rax,%rdx
    5464:	8b 85 74 fd ff ff    	mov    -0x28c(%rbp),%eax
    546a:	48 98                	cltq   
    546c:	48 89 c6             	mov    %rax,%rsi
    546f:	48 89 d7             	mov    %rdx,%rdi
    5472:	e8 df 0c 00 00       	call   6156 <_ZNSt6vectorI10location_tSaIS0_EE2atEm>
    5477:	48 89 85 88 fd ff ff 	mov    %rax,-0x278(%rbp)
    547e:	48 8b 85 88 fd ff ff 	mov    -0x278(%rbp),%rax
    5485:	8b 95 70 fd ff ff    	mov    -0x290(%rbp),%edx
    548b:	89 10                	mov    %edx,(%rax)
    548d:	48 8b 85 88 fd ff ff 	mov    -0x278(%rbp),%rax
    5494:	8b 95 74 fd ff ff    	mov    -0x28c(%rbp),%edx
    549a:	89 50 04             	mov    %edx,0x4(%rax)
    549d:	48 8b 85 58 fd ff ff 	mov    -0x2a8(%rbp),%rax
    54a4:	48 8d 50 10          	lea    0x10(%rax),%rdx
    54a8:	8b 85 68 fd ff ff    	mov    -0x298(%rbp),%eax
    54ae:	48 89 c6             	mov    %rax,%rsi
    54b1:	48 89 d7             	mov    %rdx,%rdi
    54b4:	e8 d9 0c 00 00       	call   6192 <_ZNSt6vectorI12netlist_elemSaIS0_EE2atEm>
    54b9:	48 8d 50 50          	lea    0x50(%rax),%rdx
    54bd:	48 8b 85 88 fd ff ff 	mov    -0x278(%rbp),%rax
    54c4:	48 89 c6             	mov    %rax,%rsi
    54c7:	48 89 d7             	mov    %rdx,%rdi
    54ca:	e8 ff 0c 00 00       	call   61ce <_ZN7threads9AtomicPtrI10location_tE3SetEPS1_>
    54cf:	83 85 68 fd ff ff 01 	addl   $0x1,-0x298(%rbp)
    54d6:	83 85 74 fd ff ff 01 	addl   $0x1,-0x28c(%rbp)
    54dd:	48 8b 85 58 fd ff ff 	mov    -0x2a8(%rbp),%rax
    54e4:	8b 50 08             	mov    0x8(%rax),%edx
    54e7:	8b 85 74 fd ff ff    	mov    -0x28c(%rbp),%eax
    54ed:	39 c2                	cmp    %eax,%edx
    54ef:	0f 87 4e ff ff ff    	ja     5443 <_ZN7netlistC1ERKNSt7__cxx1112basic_stringIcSt11char_traitsIcESaIcEEE+0x1db>
    54f5:	83 85 70 fd ff ff 01 	addl   $0x1,-0x290(%rbp)
    54fc:	48 8b 85 58 fd ff ff 	mov    -0x2a8(%rbp),%rax
    5503:	8b 50 04             	mov    0x4(%rax),%edx
    5506:	8b 85 70 fd ff ff    	mov    -0x290(%rbp),%eax
    550c:	39 c2                	cmp    %eax,%edx
    550e:	0f 87 20 ff ff ff    	ja     5434 <_ZN7netlistC1ERKNSt7__cxx1112basic_stringIcSt11char_traitsIcESaIcEEE+0x1cc>
    5514:	48 8d 05 8a 7c 00 00 	lea    0x7c8a(%rip),%rax        # d1a5 <_ZL19NO_MATCHING_ELEMENT+0x15>
    551b:	48 89 c6             	mov    %rax,%rsi
    551e:	48 8d 05 1b eb 00 00 	lea    0xeb1b(%rip),%rax        # 14040 <_ZSt4cout@GLIBCXX_3.4>
    5525:	48 89 c7             	mov    %rax,%rdi
    5528:	e8 23 d0 ff ff       	call   2550 <_ZStlsISt11char_traitsIcEERSt13basic_ostreamIcT_ES5_PKc@plt>
    552d:	48 8b 15 94 ea 00 00 	mov    0xea94(%rip),%rdx        # 13fc8 <_ZSt4endlIcSt11char_traitsIcEERSt13basic_ostreamIT_T0_ES6_@GLIBCXX_3.4>
    5534:	48 89 d6             	mov    %rdx,%rsi
    5537:	48 89 c7             	mov    %rax,%rdi
    553a:	e8 61 d0 ff ff       	call   25a0 <_ZNSolsEPFRSoS_E@plt>
    553f:	c7 85 6c fd ff ff 00 	movl   $0x0,-0x294(%rbp)
    5546:	00 00 00 
    5549:	e9 d1 01 00 00       	jmp    571f <_ZN7netlistC1ERKNSt7__cxx1112basic_stringIcSt11char_traitsIcESaIcEEE+0x4b7>
    554e:	83 85 6c fd ff ff 01 	addl   $0x1,-0x294(%rbp)
    5555:	8b 95 6c fd ff ff    	mov    -0x294(%rbp),%edx
    555b:	48 63 c2             	movslq %edx,%rax
    555e:	48 69 c0 89 b5 f8 14 	imul   $0x14f8b589,%rax,%rax
    5565:	48 c1 e8 20          	shr    $0x20,%rax
    5569:	c1 f8 0d             	sar    $0xd,%eax
    556c:	89 d1                	mov    %edx,%ecx
    556e:	c1 f9 1f             	sar    $0x1f,%ecx
    5571:	29 c8                	sub    %ecx,%eax
    5573:	69 c8 a0 86 01 00    	imul   $0x186a0,%eax,%ecx
    5579:	89 d0                	mov    %edx,%eax
    557b:	29 c8                	sub    %ecx,%eax
    557d:	85 c0                	test   %eax,%eax
    557f:	75 3e                	jne    55bf <_ZN7netlistC1ERKNSt7__cxx1112basic_stringIcSt11char_traitsIcESaIcEEE+0x357>
    5581:	48 8d 05 2b 7c 00 00 	lea    0x7c2b(%rip),%rax        # d1b3 <_ZL19NO_MATCHING_ELEMENT+0x23>
    5588:	48 89 c6             	mov    %rax,%rsi
    558b:	48 8d 05 ae ea 00 00 	lea    0xeaae(%rip),%rax        # 14040 <_ZSt4cout@GLIBCXX_3.4>
    5592:	48 89 c7             	mov    %rax,%rdi
    5595:	e8 b6 cf ff ff       	call   2550 <_ZStlsISt11char_traitsIcEERSt13basic_ostreamIcT_ES5_PKc@plt>
    559a:	48 89 c2             	mov    %rax,%rdx
    559d:	8b 85 6c fd ff ff    	mov    -0x294(%rbp),%eax
    55a3:	89 c6                	mov    %eax,%esi
    55a5:	48 89 d7             	mov    %rdx,%rdi
    55a8:	e8 23 d1 ff ff       	call   26d0 <_ZNSolsEi@plt>
    55ad:	48 8b 15 14 ea 00 00 	mov    0xea14(%rip),%rdx        # 13fc8 <_ZSt4endlIcSt11char_traitsIcEERSt13basic_ostreamIT_T0_ES6_@GLIBCXX_3.4>
    55b4:	48 89 d6             	mov    %rdx,%rsi
    55b7:	48 89 c7             	mov    %rax,%rdi
    55ba:	e8 e1 cf ff ff       	call   25a0 <_ZNSolsEPFRSoS_E@plt>
    55bf:	48 8d 85 b0 fd ff ff 	lea    -0x250(%rbp),%rax
    55c6:	48 89 c7             	mov    %rax,%rdi
    55c9:	e8 82 d0 ff ff       	call   2650 <_ZNSt7__cxx1112basic_stringIcSt11char_traitsIcESaIcEEC1Ev@plt>
    55ce:	48 8d 95 b0 fd ff ff 	lea    -0x250(%rbp),%rdx
    55d5:	48 8d 85 f0 fd ff ff 	lea    -0x210(%rbp),%rax
    55dc:	48 89 d6             	mov    %rdx,%rsi
    55df:	48 89 c7             	mov    %rax,%rdi
    55e2:	e8 59 d0 ff ff       	call   2640 <_ZStrsIcSt11char_traitsIcESaIcEERSt13basic_istreamIT_T0_ES7_RNSt7__cxx1112basic_stringIS4_S5_T1_EE@plt>
    55e7:	48 8d 95 b0 fd ff ff 	lea    -0x250(%rbp),%rdx
    55ee:	48 8b 85 58 fd ff ff 	mov    -0x2a8(%rbp),%rax
    55f5:	48 89 d6             	mov    %rdx,%rsi
    55f8:	48 89 c7             	mov    %rax,%rdi
    55fb:	e8 ca 01 00 00       	call   57ca <_ZN7netlist24create_elem_if_necessaryERNSt7__cxx1112basic_stringIcSt11char_traitsIcESaIcEEE>
    5600:	48 89 85 78 fd ff ff 	mov    %rax,-0x288(%rbp)
    5607:	48 8b 85 78 fd ff ff 	mov    -0x288(%rbp),%rax
    560e:	48 89 c2             	mov    %rax,%rdx
    5611:	48 8d 85 b0 fd ff ff 	lea    -0x250(%rbp),%rax
    5618:	48 89 c6             	mov    %rax,%rsi
    561b:	48 89 d7             	mov    %rdx,%rdi
    561e:	e8 bd cd ff ff       	call   23e0 <_ZNSt7__cxx1112basic_stringIcSt11char_traitsIcESaIcEEaSERKS4_@plt>
    5623:	48 8d 95 64 fd ff ff 	lea    -0x29c(%rbp),%rdx
    562a:	48 8d 85 f0 fd ff ff 	lea    -0x210(%rbp),%rax
    5631:	48 89 d6             	mov    %rdx,%rsi
    5634:	48 89 c7             	mov    %rax,%rdi
    5637:	e8 54 ce ff ff       	call   2490 <_ZNSirsERi@plt>
    563c:	48 8d 85 d0 fd ff ff 	lea    -0x230(%rbp),%rax
    5643:	48 89 c7             	mov    %rax,%rdi
    5646:	e8 05 d0 ff ff       	call   2650 <_ZNSt7__cxx1112basic_stringIcSt11char_traitsIcESaIcEEC1Ev@plt>
    564b:	eb 7b                	jmp    56c8 <_ZN7netlistC1ERKNSt7__cxx1112basic_stringIcSt11char_traitsIcESaIcEEE+0x460>
    564d:	48 8d 85 d0 fd ff ff 	lea    -0x230(%rbp),%rax
    5654:	48 8d 15 6b 7b 00 00 	lea    0x7b6b(%rip),%rdx        # d1c6 <_ZL19NO_MATCHING_ELEMENT+0x36>
    565b:	48 89 d6             	mov    %rdx,%rsi
    565e:	48 89 c7             	mov    %rax,%rdi
    5661:	e8 91 0b 00 00       	call   61f7 <_ZSteqIcSt11char_traitsIcESaIcEEbRKNSt7__cxx1112basic_stringIT_T0_T1_EEPKS5_>
    5666:	84 c0                	test   %al,%al
    5668:	0f 85 92 00 00 00    	jne    5700 <_ZN7netlistC1ERKNSt7__cxx1112basic_stringIcSt11char_traitsIcESaIcEEE+0x498>
    566e:	48 8d 95 d0 fd ff ff 	lea    -0x230(%rbp),%rdx
    5675:	48 8b 85 58 fd ff ff 	mov    -0x2a8(%rbp),%rax
    567c:	48 89 d6             	mov    %rdx,%rsi
    567f:	48 89 c7             	mov    %rax,%rdi
    5682:	e8 43 01 00 00       	call   57ca <_ZN7netlist24create_elem_if_necessaryERNSt7__cxx1112basic_stringIcSt11char_traitsIcESaIcEEE>
    5687:	48 89 85 80 fd ff ff 	mov    %rax,-0x280(%rbp)
    568e:	48 8b 85 78 fd ff ff 	mov    -0x288(%rbp),%rax
    5695:	48 8d 50 20          	lea    0x20(%rax),%rdx
    5699:	48 8d 85 80 fd ff ff 	lea    -0x280(%rbp),%rax
    56a0:	48 89 c6             	mov    %rax,%rsi
    56a3:	48 89 d7             	mov    %rdx,%rdi
    56a6:	e8 7b 0b 00 00       	call   6226 <_ZNSt6vectorIP12netlist_elemSaIS1_EE9push_backERKS1_>
    56ab:	48 8b 85 80 fd ff ff 	mov    -0x280(%rbp),%rax
    56b2:	48 8d 50 38          	lea    0x38(%rax),%rdx
    56b6:	48 8d 85 78 fd ff ff 	lea    -0x288(%rbp),%rax
    56bd:	48 89 c6             	mov    %rax,%rsi
    56c0:	48 89 d7             	mov    %rdx,%rdi
    56c3:	e8 5e 0b 00 00       	call   6226 <_ZNSt6vectorIP12netlist_elemSaIS1_EE9push_backERKS1_>
    56c8:	48 8d 95 d0 fd ff ff 	lea    -0x230(%rbp),%rdx
    56cf:	48 8d 85 f0 fd ff ff 	lea    -0x210(%rbp),%rax
    56d6:	48 89 d6             	mov    %rdx,%rsi
    56d9:	48 89 c7             	mov    %rax,%rdi
    56dc:	e8 5f cf ff ff       	call   2640 <_ZStrsIcSt11char_traitsIcESaIcEERSt13basic_istreamIT_T0_ES7_RNSt7__cxx1112basic_stringIS4_S5_T1_EE@plt>
    56e1:	48 8b 10             	mov    (%rax),%rdx
    56e4:	48 83 ea 18          	sub    $0x18,%rdx
    56e8:	48 8b 12             	mov    (%rdx),%rdx
    56eb:	48 01 d0             	add    %rdx,%rax
    56ee:	48 89 c7             	mov    %rax,%rdi
    56f1:	e8 3a cf ff ff       	call   2630 <_ZNKSt9basic_iosIcSt11char_traitsIcEEcvbEv@plt>
    56f6:	84 c0                	test   %al,%al
    56f8:	0f 85 4f ff ff ff    	jne    564d <_ZN7netlistC1ERKNSt7__cxx1112basic_stringIcSt11char_traitsIcESaIcEEE+0x3e5>
    56fe:	eb 01                	jmp    5701 <_ZN7netlistC1ERKNSt7__cxx1112basic_stringIcSt11char_traitsIcESaIcEEE+0x499>
    5700:	90                   	nop
    5701:	48 8d 85 d0 fd ff ff 	lea    -0x230(%rbp),%rax
    5708:	48 89 c7             	mov    %rax,%rdi
    570b:	e8 90 cd ff ff       	call   24a0 <_ZNSt7__cxx1112basic_stringIcSt11char_traitsIcESaIcEED1Ev@plt>
    5710:	48 8d 85 b0 fd ff ff 	lea    -0x250(%rbp),%rax
    5717:	48 89 c7             	mov    %rax,%rdi
    571a:	e8 81 cd ff ff       	call   24a0 <_ZNSt7__cxx1112basic_stringIcSt11char_traitsIcESaIcEED1Ev@plt>
    571f:	48 8d 85 f0 fd ff ff 	lea    -0x210(%rbp),%rax
    5726:	48 05 00 01 00 00    	add    $0x100,%rax
    572c:	48 89 c7             	mov    %rax,%rdi
    572f:	e8 fc cf ff ff       	call   2730 <_ZNKSt9basic_iosIcSt11char_traitsIcEE3eofEv@plt>
    5734:	83 f0 01             	xor    $0x1,%eax
    5737:	84 c0                	test   %al,%al
    5739:	0f 85 0f fe ff ff    	jne    554e <_ZN7netlistC1ERKNSt7__cxx1112basic_stringIcSt11char_traitsIcESaIcEEE+0x2e6>
    573f:	48 8d 05 84 7a 00 00 	lea    0x7a84(%rip),%rax        # d1ca <_ZL19NO_MATCHING_ELEMENT+0x3a>
    5746:	48 89 c6             	mov    %rax,%rsi
    5749:	48 8d 05 f0 e8 00 00 	lea    0xe8f0(%rip),%rax        # 14040 <_ZSt4cout@GLIBCXX_3.4>
    5750:	48 89 c7             	mov    %rax,%rdi
    5753:	e8 f8 cd ff ff       	call   2550 <_ZStlsISt11char_traitsIcEERSt13basic_ostreamIcT_ES5_PKc@plt>
    5758:	48 89 c2             	mov    %rax,%rdx
    575b:	8b 85 6c fd ff ff    	mov    -0x294(%rbp),%eax
    5761:	83 e8 01             	sub    $0x1,%eax
    5764:	89 c6                	mov    %eax,%esi
    5766:	48 89 d7             	mov    %rdx,%rdi
    5769:	e8 62 cf ff ff       	call   26d0 <_ZNSolsEi@plt>
    576e:	48 89 c2             	mov    %rax,%rdx
    5771:	48 8d 05 64 7a 00 00 	lea    0x7a64(%rip),%rax        # d1dc <_ZL19NO_MATCHING_ELEMENT+0x4c>
    5778:	48 89 c6             	mov    %rax,%rsi
    577b:	48 89 d7             	mov    %rdx,%rdi
    577e:	e8 cd cd ff ff       	call   2550 <_ZStlsISt11char_traitsIcEERSt13basic_ostreamIcT_ES5_PKc@plt>
    5783:	48 8b 15 3e e8 00 00 	mov    0xe83e(%rip),%rdx        # 13fc8 <_ZSt4endlIcSt11char_traitsIcEERSt13basic_ostreamIT_T0_ES6_@GLIBCXX_3.4>
    578a:	48 89 d6             	mov    %rdx,%rsi
    578d:	48 89 c7             	mov    %rax,%rdi
    5790:	e8 0b ce ff ff       	call   25a0 <_ZNSolsEPFRSoS_E@plt>
    5795:	48 8d 85 90 fd ff ff 	lea    -0x270(%rbp),%rax
    579c:	48 89 c7             	mov    %rax,%rdi
    579f:	e8 dc f0 ff ff       	call   4880 <_ZNSt6vectorI10location_tSaIS0_EED1Ev>
    57a4:	48 8d 85 f0 fd ff ff 	lea    -0x210(%rbp),%rax
    57ab:	48 89 c7             	mov    %rax,%rdi
    57ae:	e8 6d cc ff ff       	call   2420 <_ZNSt14basic_ifstreamIcSt11char_traitsIcEED1Ev@plt>
    57b3:	90                   	nop
    57b4:	48 8b 45 f8          	mov    -0x8(%rbp),%rax
    57b8:	64 48 2b 04 25 28 00 	sub    %fs:0x28,%rax
    57bf:	00 00 
    57c1:	74 05                	je     57c8 <_ZN7netlistC1ERKNSt7__cxx1112basic_stringIcSt11char_traitsIcESaIcEEE+0x560>
    57c3:	e8 38 ce ff ff       	call   2600 <__stack_chk_fail@plt>
    57c8:	c9                   	leave  
    57c9:	c3                   	ret    

00000000000057ca <_ZN7netlist24create_elem_if_necessaryERNSt7__cxx1112basic_stringIcSt11char_traitsIcESaIcEEE>:
    57ca:	f3 0f 1e fa          	endbr64 
    57ce:	55                   	push   %rbp
    57cf:	48 89 e5             	mov    %rsp,%rbp
    57d2:	53                   	push   %rbx
    57d3:	48 83 ec 38          	sub    $0x38,%rsp
    57d7:	48 89 7d c8          	mov    %rdi,-0x38(%rbp)
    57db:	48 89 75 c0          	mov    %rsi,-0x40(%rbp)
    57df:	64 48 8b 04 25 28 00 	mov    %fs:0x28,%rax
    57e6:	00 00 
    57e8:	48 89 45 e8          	mov    %rax,-0x18(%rbp)
    57ec:	31 c0                	xor    %eax,%eax
    57ee:	48 8b 45 c8          	mov    -0x38(%rbp),%rax
    57f2:	48 8d 50 40          	lea    0x40(%rax),%rdx
    57f6:	48 8b 45 c0          	mov    -0x40(%rbp),%rax
    57fa:	48 89 c6             	mov    %rax,%rsi
    57fd:	48 89 d7             	mov    %rdx,%rdi
    5800:	e8 a1 0a 00 00       	call   62a6 <_ZNSt3mapINSt7__cxx1112basic_stringIcSt11char_traitsIcESaIcEEEP12netlist_elemSt4lessIS5_ESaISt4pairIKS5_S7_EEE4findERSB_>
    5805:	48 89 45 d0          	mov    %rax,-0x30(%rbp)
    5809:	48 8b 45 c8          	mov    -0x38(%rbp),%rax
    580d:	48 83 c0 40          	add    $0x40,%rax
    5811:	48 89 c7             	mov    %rax,%rdi
    5814:	e8 2d 04 00 00       	call   5c46 <_ZNSt3mapINSt7__cxx1112basic_stringIcSt11char_traitsIcESaIcEEEP12netlist_elemSt4lessIS5_ESaISt4pairIKS5_S7_EEE3endEv>
    5819:	48 89 45 d8          	mov    %rax,-0x28(%rbp)
    581d:	48 8d 55 d8          	lea    -0x28(%rbp),%rdx
    5821:	48 8d 45 d0          	lea    -0x30(%rbp),%rax
    5825:	48 89 d6             	mov    %rdx,%rsi
    5828:	48 89 c7             	mov    %rax,%rdi
    582b:	e8 9f 0a 00 00       	call   62cf <_ZSteqRKSt17_Rb_tree_iteratorISt4pairIKNSt7__cxx1112basic_stringIcSt11char_traitsIcESaIcEEEP12netlist_elemEESD_>
    5830:	84 c0                	test   %al,%al
    5832:	74 4e                	je     5882 <_ZN7netlist24create_elem_if_necessaryERNSt7__cxx1112basic_stringIcSt11char_traitsIcESaIcEEE+0xb8>
    5834:	48 8b 45 c8          	mov    -0x38(%rbp),%rax
    5838:	48 83 c0 10          	add    $0x10,%rax
    583c:	8b 15 16 e9 00 00    	mov    0xe916(%rip),%edx        # 14158 <_ZZN7netlist24create_elem_if_necessaryERNSt7__cxx1112basic_stringIcSt11char_traitsIcESaIcEEEE11unused_elem>
    5842:	89 d2                	mov    %edx,%edx
    5844:	48 89 d6             	mov    %rdx,%rsi
    5847:	48 89 c7             	mov    %rax,%rdi
    584a:	e8 43 09 00 00       	call   6192 <_ZNSt6vectorI12netlist_elemSaIS0_EE2atEm>
    584f:	48 89 45 e0          	mov    %rax,-0x20(%rbp)
    5853:	48 8b 5d e0          	mov    -0x20(%rbp),%rbx
    5857:	48 8b 45 c8          	mov    -0x38(%rbp),%rax
    585b:	48 8d 50 40          	lea    0x40(%rax),%rdx
    585f:	48 8b 45 c0          	mov    -0x40(%rbp),%rax
    5863:	48 89 c6             	mov    %rax,%rsi
    5866:	48 89 d7             	mov    %rdx,%rdi
    5869:	e8 1c 05 00 00       	call   5d8a <_ZNSt3mapINSt7__cxx1112basic_stringIcSt11char_traitsIcESaIcEEEP12netlist_elemSt4lessIS5_ESaISt4pairIKS5_S7_EEEixERSB_>
    586e:	48 89 18             	mov    %rbx,(%rax)
    5871:	8b 05 e1 e8 00 00    	mov    0xe8e1(%rip),%eax        # 14158 <_ZZN7netlist24create_elem_if_necessaryERNSt7__cxx1112basic_stringIcSt11char_traitsIcESaIcEEEE11unused_elem>
    5877:	83 c0 01             	add    $0x1,%eax
    587a:	89 05 d8 e8 00 00    	mov    %eax,0xe8d8(%rip)        # 14158 <_ZZN7netlist24create_elem_if_necessaryERNSt7__cxx1112basic_stringIcSt11char_traitsIcESaIcEEEE11unused_elem>
    5880:	eb 14                	jmp    5896 <_ZN7netlist24create_elem_if_necessaryERNSt7__cxx1112basic_stringIcSt11char_traitsIcESaIcEEE+0xcc>
    5882:	48 8d 45 d0          	lea    -0x30(%rbp),%rax
    5886:	48 89 c7             	mov    %rax,%rdi
    5889:	e8 28 04 00 00       	call   5cb6 <_ZNKSt17_Rb_tree_iteratorISt4pairIKNSt7__cxx1112basic_stringIcSt11char_traitsIcESaIcEEEP12netlist_elemEEptEv>
    588e:	48 8b 40 20          	mov    0x20(%rax),%rax
    5892:	48 89 45 e0          	mov    %rax,-0x20(%rbp)
    5896:	48 8b 45 e0          	mov    -0x20(%rbp),%rax
    589a:	48 8b 55 e8          	mov    -0x18(%rbp),%rdx
    589e:	64 48 2b 14 25 28 00 	sub    %fs:0x28,%rdx
    58a5:	00 00 
    58a7:	74 05                	je     58ae <_ZN7netlist24create_elem_if_necessaryERNSt7__cxx1112basic_stringIcSt11char_traitsIcESaIcEEE+0xe4>
    58a9:	e8 52 cd ff ff       	call   2600 <__stack_chk_fail@plt>
    58ae:	48 8b 5d f8          	mov    -0x8(%rbp),%rbx
    58b2:	c9                   	leave  
    58b3:	c3                   	ret    

00000000000058b4 <_ZN7netlist15print_locationsERKNSt7__cxx1112basic_stringIcSt11char_traitsIcESaIcEEE>:
    58b4:	f3 0f 1e fa          	endbr64 
    58b8:	55                   	push   %rbp
    58b9:	48 89 e5             	mov    %rsp,%rbp
    58bc:	53                   	push   %rbx
    58bd:	48 81 ec 48 02 00 00 	sub    $0x248,%rsp
    58c4:	48 89 bd b8 fd ff ff 	mov    %rdi,-0x248(%rbp)
    58cb:	48 89 b5 b0 fd ff ff 	mov    %rsi,-0x250(%rbp)
    58d2:	64 48 8b 04 25 28 00 	mov    %fs:0x28,%rax
    58d9:	00 00 
    58db:	48 89 45 e8          	mov    %rax,-0x18(%rbp)
    58df:	31 c0                	xor    %eax,%eax
    58e1:	48 8b 85 b0 fd ff ff 	mov    -0x250(%rbp),%rax
    58e8:	48 89 c7             	mov    %rax,%rdi
    58eb:	e8 60 cb ff ff       	call   2450 <_ZNKSt7__cxx1112basic_stringIcSt11char_traitsIcESaIcEE5c_strEv@plt>
    58f0:	48 89 c1             	mov    %rax,%rcx
    58f3:	48 8d 85 e0 fd ff ff 	lea    -0x220(%rbp),%rax
    58fa:	ba 10 00 00 00       	mov    $0x10,%edx
    58ff:	48 89 ce             	mov    %rcx,%rsi
    5902:	48 89 c7             	mov    %rax,%rdi
    5905:	e8 c6 cc ff ff       	call   25d0 <_ZNSt14basic_ofstreamIcSt11char_traitsIcEEC1EPKcSt13_Ios_Openmode@plt>
    590a:	48 8b 85 b8 fd ff ff 	mov    -0x248(%rbp),%rax
    5911:	48 83 c0 40          	add    $0x40,%rax
    5915:	48 89 c7             	mov    %rax,%rdi
    5918:	e8 0b 03 00 00       	call   5c28 <_ZNSt3mapINSt7__cxx1112basic_stringIcSt11char_traitsIcESaIcEEEP12netlist_elemSt4lessIS5_ESaISt4pairIKS5_S7_EEE5beginEv>
    591d:	48 89 85 c8 fd ff ff 	mov    %rax,-0x238(%rbp)
    5924:	e9 c3 00 00 00       	jmp    59ec <_ZN7netlist15print_locationsERKNSt7__cxx1112basic_stringIcSt11char_traitsIcESaIcEEE+0x138>
    5929:	48 8d 85 c8 fd ff ff 	lea    -0x238(%rbp),%rax
    5930:	48 89 c7             	mov    %rax,%rdi
    5933:	e8 7e 03 00 00       	call   5cb6 <_ZNKSt17_Rb_tree_iteratorISt4pairIKNSt7__cxx1112basic_stringIcSt11char_traitsIcESaIcEEEP12netlist_elemEEptEv>
    5938:	48 8b 40 20          	mov    0x20(%rax),%rax
    593c:	48 89 85 d8 fd ff ff 	mov    %rax,-0x228(%rbp)
    5943:	48 8b 95 d8 fd ff ff 	mov    -0x228(%rbp),%rdx
    594a:	48 8d 85 e0 fd ff ff 	lea    -0x220(%rbp),%rax
    5951:	48 89 d6             	mov    %rdx,%rsi
    5954:	48 89 c7             	mov    %rax,%rdi
    5957:	e8 d4 cb ff ff       	call   2530 <_ZStlsIcSt11char_traitsIcESaIcEERSt13basic_ostreamIT_T0_ES7_RKNSt7__cxx1112basic_stringIS4_S5_T1_EE@plt>
    595c:	48 89 c2             	mov    %rax,%rdx
    595f:	48 8d 05 81 78 00 00 	lea    0x7881(%rip),%rax        # d1e7 <_ZL19NO_MATCHING_ELEMENT+0x57>
    5966:	48 89 c6             	mov    %rax,%rsi
    5969:	48 89 d7             	mov    %rdx,%rdi
    596c:	e8 df cb ff ff       	call   2550 <_ZStlsISt11char_traitsIcEERSt13basic_ostreamIcT_ES5_PKc@plt>
    5971:	48 89 c3             	mov    %rax,%rbx
    5974:	48 8b 85 d8 fd ff ff 	mov    -0x228(%rbp),%rax
    597b:	48 83 c0 50          	add    $0x50,%rax
    597f:	48 89 c7             	mov    %rax,%rdi
    5982:	e8 5d d6 ff ff       	call   2fe4 <_ZNK7threads9AtomicPtrI10location_tE3GetEv>
    5987:	8b 00                	mov    (%rax),%eax
    5989:	89 c6                	mov    %eax,%esi
    598b:	48 89 df             	mov    %rbx,%rdi
    598e:	e8 3d cd ff ff       	call   26d0 <_ZNSolsEi@plt>
    5993:	48 89 c2             	mov    %rax,%rdx
    5996:	48 8d 05 4a 78 00 00 	lea    0x784a(%rip),%rax        # d1e7 <_ZL19NO_MATCHING_ELEMENT+0x57>
    599d:	48 89 c6             	mov    %rax,%rsi
    59a0:	48 89 d7             	mov    %rdx,%rdi
    59a3:	e8 a8 cb ff ff       	call   2550 <_ZStlsISt11char_traitsIcEERSt13basic_ostreamIcT_ES5_PKc@plt>
    59a8:	48 89 c3             	mov    %rax,%rbx
    59ab:	48 8b 85 d8 fd ff ff 	mov    -0x228(%rbp),%rax
    59b2:	48 83 c0 50          	add    $0x50,%rax
    59b6:	48 89 c7             	mov    %rax,%rdi
    59b9:	e8 26 d6 ff ff       	call   2fe4 <_ZNK7threads9AtomicPtrI10location_tE3GetEv>
    59be:	8b 40 04             	mov    0x4(%rax),%eax
    59c1:	89 c6                	mov    %eax,%esi
    59c3:	48 89 df             	mov    %rbx,%rdi
    59c6:	e8 05 cd ff ff       	call   26d0 <_ZNSolsEi@plt>
    59cb:	48 8b 15 f6 e5 00 00 	mov    0xe5f6(%rip),%rdx        # 13fc8 <_ZSt4endlIcSt11char_traitsIcEERSt13basic_ostreamIT_T0_ES6_@GLIBCXX_3.4>
    59d2:	48 89 d6             	mov    %rdx,%rsi
    59d5:	48 89 c7             	mov    %rax,%rdi
    59d8:	e8 c3 cb ff ff       	call   25a0 <_ZNSolsEPFRSoS_E@plt>
    59dd:	48 8d 85 c8 fd ff ff 	lea    -0x238(%rbp),%rax
    59e4:	48 89 c7             	mov    %rax,%rdi
    59e7:	e8 9e 02 00 00       	call   5c8a <_ZNSt17_Rb_tree_iteratorISt4pairIKNSt7__cxx1112basic_stringIcSt11char_traitsIcESaIcEEEP12netlist_elemEEppEv>
    59ec:	48 8b 85 b8 fd ff ff 	mov    -0x248(%rbp),%rax
    59f3:	48 83 c0 40          	add    $0x40,%rax
    59f7:	48 89 c7             	mov    %rax,%rdi
    59fa:	e8 47 02 00 00       	call   5c46 <_ZNSt3mapINSt7__cxx1112basic_stringIcSt11char_traitsIcESaIcEEEP12netlist_elemSt4lessIS5_ESaISt4pairIKS5_S7_EEE3endEv>
    59ff:	48 89 85 d0 fd ff ff 	mov    %rax,-0x230(%rbp)
    5a06:	48 8d 95 d0 fd ff ff 	lea    -0x230(%rbp),%rdx
    5a0d:	48 8d 85 c8 fd ff ff 	lea    -0x238(%rbp),%rax
    5a14:	48 89 d6             	mov    %rdx,%rsi
    5a17:	48 89 c7             	mov    %rax,%rdi
    5a1a:	e8 45 02 00 00       	call   5c64 <_ZStneRKSt17_Rb_tree_iteratorISt4pairIKNSt7__cxx1112basic_stringIcSt11char_traitsIcESaIcEEEP12netlist_elemEESD_>
    5a1f:	84 c0                	test   %al,%al
    5a21:	0f 85 02 ff ff ff    	jne    5929 <_ZN7netlist15print_locationsERKNSt7__cxx1112basic_stringIcSt11char_traitsIcESaIcEEE+0x75>
    5a27:	48 8d 85 e0 fd ff ff 	lea    -0x220(%rbp),%rax
    5a2e:	48 89 c7             	mov    %rax,%rdi
    5a31:	e8 3a cc ff ff       	call   2670 <_ZNSt14basic_ofstreamIcSt11char_traitsIcEED1Ev@plt>
    5a36:	48 8b 45 e8          	mov    -0x18(%rbp),%rax
    5a3a:	64 48 2b 04 25 28 00 	sub    %fs:0x28,%rax
    5a41:	00 00 
    5a43:	74 05                	je     5a4a <_ZN7netlist15print_locationsERKNSt7__cxx1112basic_stringIcSt11char_traitsIcESaIcEEE+0x196>
    5a45:	e8 b6 cb ff ff       	call   2600 <__stack_chk_fail@plt>
    5a4a:	48 8b 5d f8          	mov    -0x8(%rbp),%rbx
    5a4e:	c9                   	leave  
    5a4f:	c3                   	ret    

0000000000005a50 <_Z41__static_initialization_and_destruction_0ii>:
    5a50:	f3 0f 1e fa          	endbr64 
    5a54:	55                   	push   %rbp
    5a55:	48 89 e5             	mov    %rsp,%rbp
    5a58:	48 83 ec 10          	sub    $0x10,%rsp
    5a5c:	89 7d fc             	mov    %edi,-0x4(%rbp)
    5a5f:	89 75 f8             	mov    %esi,-0x8(%rbp)
    5a62:	83 7d fc 01          	cmpl   $0x1,-0x4(%rbp)
    5a66:	75 3b                	jne    5aa3 <_Z41__static_initialization_and_destruction_0ii+0x53>
    5a68:	81 7d f8 ff ff 00 00 	cmpl   $0xffff,-0x8(%rbp)
    5a6f:	75 32                	jne    5aa3 <_Z41__static_initialization_and_destruction_0ii+0x53>
    5a71:	48 8d 05 dc e6 00 00 	lea    0xe6dc(%rip),%rax        # 14154 <_ZStL8__ioinit>
    5a78:	48 89 c7             	mov    %rax,%rdi
    5a7b:	e8 10 cc ff ff       	call   2690 <_ZNSt8ios_base4InitC1Ev@plt>
    5a80:	48 8d 05 81 e5 00 00 	lea    0xe581(%rip),%rax        # 14008 <__dso_handle>
    5a87:	48 89 c2             	mov    %rax,%rdx
    5a8a:	48 8d 05 c3 e6 00 00 	lea    0xe6c3(%rip),%rax        # 14154 <_ZStL8__ioinit>
    5a91:	48 89 c6             	mov    %rax,%rsi
    5a94:	48 8b 05 5d e5 00 00 	mov    0xe55d(%rip),%rax        # 13ff8 <_ZNSt8ios_base4InitD1Ev@GLIBCXX_3.4>
    5a9b:	48 89 c7             	mov    %rax,%rdi
    5a9e:	e8 7d ca ff ff       	call   2520 <__cxa_atexit@plt>
    5aa3:	90                   	nop
    5aa4:	c9                   	leave  
    5aa5:	c3                   	ret    

0000000000005aa6 <_GLOBAL__sub_I__ZN7netlist7releaseEP12netlist_elem>:
    5aa6:	f3 0f 1e fa          	endbr64 
    5aaa:	55                   	push   %rbp
    5aab:	48 89 e5             	mov    %rsp,%rbp
    5aae:	be ff ff 00 00       	mov    $0xffff,%esi
    5ab3:	bf 01 00 00 00       	mov    $0x1,%edi
    5ab8:	e8 93 ff ff ff       	call   5a50 <_Z41__static_initialization_and_destruction_0ii>
    5abd:	5d                   	pop    %rbp
    5abe:	c3                   	ret    
    5abf:	90                   	nop

0000000000005ac0 <_ZNSt15_Rb_tree_headerC1Ev>:
    5ac0:	f3 0f 1e fa          	endbr64 
    5ac4:	55                   	push   %rbp
    5ac5:	48 89 e5             	mov    %rsp,%rbp
    5ac8:	48 83 ec 10          	sub    $0x10,%rsp
    5acc:	48 89 7d f8          	mov    %rdi,-0x8(%rbp)
    5ad0:	48 8b 45 f8          	mov    -0x8(%rbp),%rax
    5ad4:	c7 00 00 00 00 00    	movl   $0x0,(%rax)
    5ada:	48 8b 45 f8          	mov    -0x8(%rbp),%rax
    5ade:	48 89 c7             	mov    %rax,%rdi
    5ae1:	e8 04 00 00 00       	call   5aea <_ZNSt15_Rb_tree_header8_M_resetEv>
    5ae6:	90                   	nop
    5ae7:	c9                   	leave  
    5ae8:	c3                   	ret    
    5ae9:	90                   	nop

0000000000005aea <_ZNSt15_Rb_tree_header8_M_resetEv>:
    5aea:	f3 0f 1e fa          	endbr64 
    5aee:	55                   	push   %rbp
    5aef:	48 89 e5             	mov    %rsp,%rbp
    5af2:	48 89 7d f8          	mov    %rdi,-0x8(%rbp)
    5af6:	48 8b 45 f8          	mov    -0x8(%rbp),%rax
    5afa:	48 c7 40 08 00 00 00 	movq   $0x0,0x8(%rax)
    5b01:	00 
    5b02:	48 8b 55 f8          	mov    -0x8(%rbp),%rdx
    5b06:	48 8b 45 f8          	mov    -0x8(%rbp),%rax
    5b0a:	48 89 50 10          	mov    %rdx,0x10(%rax)
    5b0e:	48 8b 55 f8          	mov    -0x8(%rbp),%rdx
    5b12:	48 8b 45 f8          	mov    -0x8(%rbp),%rax
    5b16:	48 89 50 18          	mov    %rdx,0x18(%rax)
    5b1a:	48 8b 45 f8          	mov    -0x8(%rbp),%rax
    5b1e:	48 c7 40 20 00 00 00 	movq   $0x0,0x20(%rax)
    5b25:	00 
    5b26:	90                   	nop
    5b27:	5d                   	pop    %rbp
    5b28:	c3                   	ret    

0000000000005b29 <_ZL18atomic_cmpset_longPVmmm>:
    5b29:	55                   	push   %rbp
    5b2a:	48 89 e5             	mov    %rsp,%rbp
    5b2d:	48 89 7d e8          	mov    %rdi,-0x18(%rbp)
    5b31:	48 89 75 e0          	mov    %rsi,-0x20(%rbp)
    5b35:	48 89 55 d8          	mov    %rdx,-0x28(%rbp)
    5b39:	48 8b 45 e0          	mov    -0x20(%rbp),%rax
    5b3d:	48 89 45 f8          	mov    %rax,-0x8(%rbp)
    5b41:	48 8b 75 e8          	mov    -0x18(%rbp),%rsi
    5b45:	48 8b 55 d8          	mov    -0x28(%rbp),%rdx
    5b49:	48 8b 4d e8          	mov    -0x18(%rbp),%rcx
    5b4d:	48 8b 45 f8          	mov    -0x8(%rbp),%rax
    5b51:	f0 48 0f b1 16       	lock cmpxchg %rdx,(%rsi)
    5b56:	0f 94 c0             	sete   %al
    5b59:	48 0f b6 c0          	movzbq %al,%rax
    5b5d:	48 89 45 f8          	mov    %rax,-0x8(%rbp)
    5b61:	48 8b 45 f8          	mov    -0x8(%rbp),%rax
    5b65:	5d                   	pop    %rbp
    5b66:	c3                   	ret    
    5b67:	90                   	nop

0000000000005b68 <_ZNSt12_Vector_baseI12netlist_elemSaIS0_EEC1Ev>:
    5b68:	f3 0f 1e fa          	endbr64 
    5b6c:	55                   	push   %rbp
    5b6d:	48 89 e5             	mov    %rsp,%rbp
    5b70:	48 83 ec 10          	sub    $0x10,%rsp
    5b74:	48 89 7d f8          	mov    %rdi,-0x8(%rbp)
    5b78:	48 8b 45 f8          	mov    -0x8(%rbp),%rax
    5b7c:	48 89 c7             	mov    %rax,%rdi
    5b7f:	e8 26 03 00 00       	call   5eaa <_ZNSt12_Vector_baseI12netlist_elemSaIS0_EE12_Vector_implC1Ev>
    5b84:	90                   	nop
    5b85:	c9                   	leave  
    5b86:	c3                   	ret    
    5b87:	90                   	nop

0000000000005b88 <_ZNSt6vectorI12netlist_elemSaIS0_EEC1Ev>:
    5b88:	f3 0f 1e fa          	endbr64 
    5b8c:	55                   	push   %rbp
    5b8d:	48 89 e5             	mov    %rsp,%rbp
    5b90:	48 83 ec 10          	sub    $0x10,%rsp
    5b94:	48 89 7d f8          	mov    %rdi,-0x8(%rbp)
    5b98:	48 8b 45 f8          	mov    -0x8(%rbp),%rax
    5b9c:	48 89 c7             	mov    %rax,%rdi
    5b9f:	e8 c4 ff ff ff       	call   5b68 <_ZNSt12_Vector_baseI12netlist_elemSaIS0_EEC1Ev>
    5ba4:	90                   	nop
    5ba5:	c9                   	leave  
    5ba6:	c3                   	ret    
    5ba7:	90                   	nop

0000000000005ba8 <_ZNSt12_Vector_baseISt6vectorI10location_tSaIS1_EESaIS3_EEC1Ev>:
    5ba8:	f3 0f 1e fa          	endbr64 
    5bac:	55                   	push   %rbp
    5bad:	48 89 e5             	mov    %rsp,%rbp
    5bb0:	48 83 ec 10          	sub    $0x10,%rsp
    5bb4:	48 89 7d f8          	mov    %rdi,-0x8(%rbp)
    5bb8:	48 8b 45 f8          	mov    -0x8(%rbp),%rax
    5bbc:	48 89 c7             	mov    %rax,%rdi
    5bbf:	e8 12 03 00 00       	call   5ed6 <_ZNSt12_Vector_baseISt6vectorI10location_tSaIS1_EESaIS3_EE12_Vector_implC1Ev>
    5bc4:	90                   	nop
    5bc5:	c9                   	leave  
    5bc6:	c3                   	ret    
    5bc7:	90                   	nop

0000000000005bc8 <_ZNSt6vectorIS_I10location_tSaIS0_EESaIS2_EEC1Ev>:
    5bc8:	f3 0f 1e fa          	endbr64 
    5bcc:	55                   	push   %rbp
    5bcd:	48 89 e5             	mov    %rsp,%rbp
    5bd0:	48 83 ec 10          	sub    $0x10,%rsp
    5bd4:	48 89 7d f8          	mov    %rdi,-0x8(%rbp)
    5bd8:	48 8b 45 f8          	mov    -0x8(%rbp),%rax
    5bdc:	48 89 c7             	mov    %rax,%rdi
    5bdf:	e8 c4 ff ff ff       	call   5ba8 <_ZNSt12_Vector_baseISt6vectorI10location_tSaIS1_EESaIS3_EEC1Ev>
    5be4:	90                   	nop
    5be5:	c9                   	leave  
    5be6:	c3                   	ret    
    5be7:	90                   	nop

0000000000005be8 <_ZNSt8_Rb_treeINSt7__cxx1112basic_stringIcSt11char_traitsIcESaIcEEESt4pairIKS5_P12netlist_elemESt10_Select1stISA_ESt4lessIS5_ESaISA_EEC1Ev>:
    5be8:	f3 0f 1e fa          	endbr64 
    5bec:	55                   	push   %rbp
    5bed:	48 89 e5             	mov    %rsp,%rbp
    5bf0:	48 83 ec 10          	sub    $0x10,%rsp
    5bf4:	48 89 7d f8          	mov    %rdi,-0x8(%rbp)
    5bf8:	48 8b 45 f8          	mov    -0x8(%rbp),%rax
    5bfc:	48 89 c7             	mov    %rax,%rdi
    5bff:	e8 fe 02 00 00       	call   5f02 <_ZNSt8_Rb_treeINSt7__cxx1112basic_stringIcSt11char_traitsIcESaIcEEESt4pairIKS5_P12netlist_elemESt10_Select1stISA_ESt4lessIS5_ESaISA_EE13_Rb_tree_implISE_Lb1EEC1Ev>
    5c04:	90                   	nop
    5c05:	c9                   	leave  
    5c06:	c3                   	ret    
    5c07:	90                   	nop

0000000000005c08 <_ZNSt3mapINSt7__cxx1112basic_stringIcSt11char_traitsIcESaIcEEEP12netlist_elemSt4lessIS5_ESaISt4pairIKS5_S7_EEEC1Ev>:
    5c08:	f3 0f 1e fa          	endbr64 
    5c0c:	55                   	push   %rbp
    5c0d:	48 89 e5             	mov    %rsp,%rbp
    5c10:	48 83 ec 10          	sub    $0x10,%rsp
    5c14:	48 89 7d f8          	mov    %rdi,-0x8(%rbp)
    5c18:	48 8b 45 f8          	mov    -0x8(%rbp),%rax
    5c1c:	48 89 c7             	mov    %rax,%rdi
    5c1f:	e8 c4 ff ff ff       	call   5be8 <_ZNSt8_Rb_treeINSt7__cxx1112basic_stringIcSt11char_traitsIcESaIcEEESt4pairIKS5_P12netlist_elemESt10_Select1stISA_ESt4lessIS5_ESaISA_EEC1Ev>
    5c24:	90                   	nop
    5c25:	c9                   	leave  
    5c26:	c3                   	ret    
    5c27:	90                   	nop

0000000000005c28 <_ZNSt3mapINSt7__cxx1112basic_stringIcSt11char_traitsIcESaIcEEEP12netlist_elemSt4lessIS5_ESaISt4pairIKS5_S7_EEE5beginEv>:
    5c28:	f3 0f 1e fa          	endbr64 
    5c2c:	55                   	push   %rbp
    5c2d:	48 89 e5             	mov    %rsp,%rbp
    5c30:	48 83 ec 10          	sub    $0x10,%rsp
    5c34:	48 89 7d f8          	mov    %rdi,-0x8(%rbp)
    5c38:	48 8b 45 f8          	mov    -0x8(%rbp),%rax
    5c3c:	48 89 c7             	mov    %rax,%rdi
    5c3f:	e8 b2 06 00 00       	call   62f6 <_ZNSt8_Rb_treeINSt7__cxx1112basic_stringIcSt11char_traitsIcESaIcEEESt4pairIKS5_P12netlist_elemESt10_Select1stISA_ESt4lessIS5_ESaISA_EE5beginEv>
    5c44:	c9                   	leave  
    5c45:	c3                   	ret    

0000000000005c46 <_ZNSt3mapINSt7__cxx1112basic_stringIcSt11char_traitsIcESaIcEEEP12netlist_elemSt4lessIS5_ESaISt4pairIKS5_S7_EEE3endEv>:
    5c46:	f3 0f 1e fa          	endbr64 
    5c4a:	55                   	push   %rbp
    5c4b:	48 89 e5             	mov    %rsp,%rbp
    5c4e:	48 83 ec 10          	sub    $0x10,%rsp
    5c52:	48 89 7d f8          	mov    %rdi,-0x8(%rbp)
    5c56:	48 8b 45 f8          	mov    -0x8(%rbp),%rax
    5c5a:	48 89 c7             	mov    %rax,%rdi
    5c5d:	e8 e4 06 00 00       	call   6346 <_ZNSt8_Rb_treeINSt7__cxx1112basic_stringIcSt11char_traitsIcESaIcEEESt4pairIKS5_P12netlist_elemESt10_Select1stISA_ESt4lessIS5_ESaISA_EE3endEv>
    5c62:	c9                   	leave  
    5c63:	c3                   	ret    

0000000000005c64 <_ZStneRKSt17_Rb_tree_iteratorISt4pairIKNSt7__cxx1112basic_stringIcSt11char_traitsIcESaIcEEEP12netlist_elemEESD_>:
    5c64:	f3 0f 1e fa          	endbr64 
    5c68:	55                   	push   %rbp
    5c69:	48 89 e5             	mov    %rsp,%rbp
    5c6c:	48 89 7d f8          	mov    %rdi,-0x8(%rbp)
    5c70:	48 89 75 f0          	mov    %rsi,-0x10(%rbp)
    5c74:	48 8b 45 f8          	mov    -0x8(%rbp),%rax
    5c78:	48 8b 10             	mov    (%rax),%rdx
    5c7b:	48 8b 45 f0          	mov    -0x10(%rbp),%rax
    5c7f:	48 8b 00             	mov    (%rax),%rax
    5c82:	48 39 c2             	cmp    %rax,%rdx
    5c85:	0f 95 c0             	setne  %al
    5c88:	5d                   	pop    %rbp
    5c89:	c3                   	ret    

0000000000005c8a <_ZNSt17_Rb_tree_iteratorISt4pairIKNSt7__cxx1112basic_stringIcSt11char_traitsIcESaIcEEEP12netlist_elemEEppEv>:
    5c8a:	f3 0f 1e fa          	endbr64 
    5c8e:	55                   	push   %rbp
    5c8f:	48 89 e5             	mov    %rsp,%rbp
    5c92:	48 83 ec 10          	sub    $0x10,%rsp
    5c96:	48 89 7d f8          	mov    %rdi,-0x8(%rbp)
    5c9a:	48 8b 45 f8          	mov    -0x8(%rbp),%rax
    5c9e:	48 8b 00             	mov    (%rax),%rax
    5ca1:	48 89 c7             	mov    %rax,%rdi
    5ca4:	e8 17 c8 ff ff       	call   24c0 <_ZSt18_Rb_tree_incrementPSt18_Rb_tree_node_base@plt>
    5ca9:	48 8b 55 f8          	mov    -0x8(%rbp),%rdx
    5cad:	48 89 02             	mov    %rax,(%rdx)
    5cb0:	48 8b 45 f8          	mov    -0x8(%rbp),%rax
    5cb4:	c9                   	leave  
    5cb5:	c3                   	ret    

0000000000005cb6 <_ZNKSt17_Rb_tree_iteratorISt4pairIKNSt7__cxx1112basic_stringIcSt11char_traitsIcESaIcEEEP12netlist_elemEEptEv>:
    5cb6:	f3 0f 1e fa          	endbr64 
    5cba:	55                   	push   %rbp
    5cbb:	48 89 e5             	mov    %rsp,%rbp
    5cbe:	48 83 ec 10          	sub    $0x10,%rsp
    5cc2:	48 89 7d f8          	mov    %rdi,-0x8(%rbp)
    5cc6:	48 8b 45 f8          	mov    -0x8(%rbp),%rax
    5cca:	48 8b 00             	mov    (%rax),%rax
    5ccd:	48 89 c7             	mov    %rax,%rdi
    5cd0:	e8 f1 e9 ff ff       	call   46c6 <_ZNSt13_Rb_tree_nodeISt4pairIKNSt7__cxx1112basic_stringIcSt11char_traitsIcESaIcEEEP12netlist_elemEE9_M_valptrEv>
    5cd5:	c9                   	leave  
    5cd6:	c3                   	ret    
    5cd7:	90                   	nop

0000000000005cd8 <_ZN7threads9AtomicPtrI10location_tE4SwapERS2_>:
    5cd8:	f3 0f 1e fa          	endbr64 
    5cdc:	55                   	push   %rbp
    5cdd:	48 89 e5             	mov    %rsp,%rbp
    5ce0:	48 83 ec 30          	sub    $0x30,%rsp
    5ce4:	48 89 7d d8          	mov    %rdi,-0x28(%rbp)
    5ce8:	48 89 75 d0          	mov    %rsi,-0x30(%rbp)
    5cec:	48 8b 45 d8          	mov    -0x28(%rbp),%rax
    5cf0:	48 3b 45 d0          	cmp    -0x30(%rbp),%rax
    5cf4:	73 12                	jae    5d08 <_ZN7threads9AtomicPtrI10location_tE4SwapERS2_+0x30>
    5cf6:	48 8b 45 d8          	mov    -0x28(%rbp),%rax
    5cfa:	48 89 45 e0          	mov    %rax,-0x20(%rbp)
    5cfe:	48 8b 45 d0          	mov    -0x30(%rbp),%rax
    5d02:	48 89 45 e8          	mov    %rax,-0x18(%rbp)
    5d06:	eb 10                	jmp    5d18 <_ZN7threads9AtomicPtrI10location_tE4SwapERS2_+0x40>
    5d08:	48 8b 45 d0          	mov    -0x30(%rbp),%rax
    5d0c:	48 89 45 e0          	mov    %rax,-0x20(%rbp)
    5d10:	48 8b 45 d8          	mov    -0x28(%rbp),%rax
    5d14:	48 89 45 e8          	mov    %rax,-0x18(%rbp)
    5d18:	48 8b 45 e0          	mov    -0x20(%rbp),%rax
    5d1c:	48 89 c7             	mov    %rax,%rdi
    5d1f:	e8 72 06 00 00       	call   6396 <_ZN7threads9AtomicPtrI10location_tE8CheckoutEv>
    5d24:	48 89 45 f0          	mov    %rax,-0x10(%rbp)
    5d28:	48 8b 55 f0          	mov    -0x10(%rbp),%rdx
    5d2c:	48 8b 45 e8          	mov    -0x18(%rbp),%rax
    5d30:	48 89 d6             	mov    %rdx,%rsi
    5d33:	48 89 c7             	mov    %rax,%rdi
    5d36:	e8 83 06 00 00       	call   63be <_ZN7threads9AtomicPtrI10location_tE10PrivateSetEPS1_>
    5d3b:	48 89 45 f8          	mov    %rax,-0x8(%rbp)
    5d3f:	48 8b 55 f8          	mov    -0x8(%rbp),%rdx
    5d43:	48 8b 45 e0          	mov    -0x20(%rbp),%rax
    5d47:	48 89 d6             	mov    %rdx,%rsi
    5d4a:	48 89 c7             	mov    %rax,%rdi
    5d4d:	e8 b6 06 00 00       	call   6408 <_ZN7threads9AtomicPtrI10location_tE7CheckinEPS1_>
    5d52:	90                   	nop
    5d53:	c9                   	leave  
    5d54:	c3                   	ret    
    5d55:	90                   	nop

0000000000005d56 <_ZNSt6vectorI12netlist_elemSaIS0_EEixEm>:
    5d56:	f3 0f 1e fa          	endbr64 
    5d5a:	55                   	push   %rbp
    5d5b:	48 89 e5             	mov    %rsp,%rbp
    5d5e:	48 89 7d f8          	mov    %rdi,-0x8(%rbp)
    5d62:	48 89 75 f0          	mov    %rsi,-0x10(%rbp)
    5d66:	48 8b 45 f8          	mov    -0x8(%rbp),%rax
    5d6a:	48 8b 08             	mov    (%rax),%rcx
    5d6d:	48 8b 55 f0          	mov    -0x10(%rbp),%rdx
    5d71:	48 89 d0             	mov    %rdx,%rax
    5d74:	48 c1 e0 02          	shl    $0x2,%rax
    5d78:	48 01 d0             	add    %rdx,%rax
    5d7b:	48 01 c0             	add    %rax,%rax
    5d7e:	48 01 d0             	add    %rdx,%rax
    5d81:	48 c1 e0 03          	shl    $0x3,%rax
    5d85:	48 01 c8             	add    %rcx,%rax
    5d88:	5d                   	pop    %rbp
    5d89:	c3                   	ret    

0000000000005d8a <_ZNSt3mapINSt7__cxx1112basic_stringIcSt11char_traitsIcESaIcEEEP12netlist_elemSt4lessIS5_ESaISt4pairIKS5_S7_EEEixERSB_>:
    5d8a:	f3 0f 1e fa          	endbr64 
    5d8e:	55                   	push   %rbp
    5d8f:	48 89 e5             	mov    %rsp,%rbp
    5d92:	53                   	push   %rbx
    5d93:	48 83 ec 48          	sub    $0x48,%rsp
    5d97:	48 89 7d b8          	mov    %rdi,-0x48(%rbp)
    5d9b:	48 89 75 b0          	mov    %rsi,-0x50(%rbp)
    5d9f:	64 48 8b 04 25 28 00 	mov    %fs:0x28,%rax
    5da6:	00 00 
    5da8:	48 89 45 e8          	mov    %rax,-0x18(%rbp)
    5dac:	31 c0                	xor    %eax,%eax
    5dae:	48 8b 55 b0          	mov    -0x50(%rbp),%rdx
    5db2:	48 8b 45 b8          	mov    -0x48(%rbp),%rax
    5db6:	48 89 d6             	mov    %rdx,%rsi
    5db9:	48 89 c7             	mov    %rax,%rdi
    5dbc:	e8 65 06 00 00       	call   6426 <_ZNSt3mapINSt7__cxx1112basic_stringIcSt11char_traitsIcESaIcEEEP12netlist_elemSt4lessIS5_ESaISt4pairIKS5_S7_EEE11lower_boundERSB_>
    5dc1:	48 89 45 d0          	mov    %rax,-0x30(%rbp)
    5dc5:	48 8b 45 b8          	mov    -0x48(%rbp),%rax
    5dc9:	48 89 c7             	mov    %rax,%rdi
    5dcc:	e8 75 fe ff ff       	call   5c46 <_ZNSt3mapINSt7__cxx1112basic_stringIcSt11char_traitsIcESaIcEEEP12netlist_elemSt4lessIS5_ESaISt4pairIKS5_S7_EEE3endEv>
    5dd1:	48 89 45 e0          	mov    %rax,-0x20(%rbp)
    5dd5:	48 8d 55 e0          	lea    -0x20(%rbp),%rdx
    5dd9:	48 8d 45 d0          	lea    -0x30(%rbp),%rax
    5ddd:	48 89 d6             	mov    %rdx,%rsi
    5de0:	48 89 c7             	mov    %rax,%rdi
    5de3:	e8 e7 04 00 00       	call   62cf <_ZSteqRKSt17_Rb_tree_iteratorISt4pairIKNSt7__cxx1112basic_stringIcSt11char_traitsIcESaIcEEEP12netlist_elemEESD_>
    5de8:	84 c0                	test   %al,%al
    5dea:	75 32                	jne    5e1e <_ZNSt3mapINSt7__cxx1112basic_stringIcSt11char_traitsIcESaIcEEEP12netlist_elemSt4lessIS5_ESaISt4pairIKS5_S7_EEEixERSB_+0x94>
    5dec:	48 8b 45 b8          	mov    -0x48(%rbp),%rax
    5df0:	48 89 c7             	mov    %rax,%rdi
    5df3:	e8 58 06 00 00       	call   6450 <_ZNKSt3mapINSt7__cxx1112basic_stringIcSt11char_traitsIcESaIcEEEP12netlist_elemSt4lessIS5_ESaISt4pairIKS5_S7_EEE8key_compEv>
    5df8:	48 8d 45 d0          	lea    -0x30(%rbp),%rax
    5dfc:	48 89 c7             	mov    %rax,%rdi
    5dff:	e8 72 06 00 00       	call   6476 <_ZNKSt17_Rb_tree_iteratorISt4pairIKNSt7__cxx1112basic_stringIcSt11char_traitsIcESaIcEEEP12netlist_elemEEdeEv>
    5e04:	48 89 c2             	mov    %rax,%rdx
    5e07:	48 8b 4d b0          	mov    -0x50(%rbp),%rcx
    5e0b:	48 8d 45 d8          	lea    -0x28(%rbp),%rax
    5e0f:	48 89 ce             	mov    %rcx,%rsi
    5e12:	48 89 c7             	mov    %rax,%rdi
    5e15:	e8 7e 06 00 00       	call   6498 <_ZNKSt4lessINSt7__cxx1112basic_stringIcSt11char_traitsIcESaIcEEEEclERKS5_S8_>
    5e1a:	84 c0                	test   %al,%al
    5e1c:	74 07                	je     5e25 <_ZNSt3mapINSt7__cxx1112basic_stringIcSt11char_traitsIcESaIcEEEP12netlist_elemSt4lessIS5_ESaISt4pairIKS5_S7_EEEixERSB_+0x9b>
    5e1e:	b8 01 00 00 00       	mov    $0x1,%eax
    5e23:	eb 05                	jmp    5e2a <_ZNSt3mapINSt7__cxx1112basic_stringIcSt11char_traitsIcESaIcEEEP12netlist_elemSt4lessIS5_ESaISt4pairIKS5_S7_EEEixERSB_+0xa0>
    5e25:	b8 00 00 00 00       	mov    $0x0,%eax
    5e2a:	84 c0                	test   %al,%al
    5e2c:	74 52                	je     5e80 <_ZNSt3mapINSt7__cxx1112basic_stringIcSt11char_traitsIcESaIcEEEP12netlist_elemSt4lessIS5_ESaISt4pairIKS5_S7_EEEixERSB_+0xf6>
    5e2e:	48 8b 5d b8          	mov    -0x48(%rbp),%rbx
    5e32:	48 8b 55 b0          	mov    -0x50(%rbp),%rdx
    5e36:	48 8d 45 d8          	lea    -0x28(%rbp),%rax
    5e3a:	48 89 d6             	mov    %rdx,%rsi
    5e3d:	48 89 c7             	mov    %rax,%rdi
    5e40:	e8 81 06 00 00       	call   64c6 <_ZNSt5tupleIJRKNSt7__cxx1112basic_stringIcSt11char_traitsIcESaIcEEEEEC1ILb1ELb1EEES7_>
    5e45:	48 8d 55 d0          	lea    -0x30(%rbp),%rdx
    5e49:	48 8d 45 e0          	lea    -0x20(%rbp),%rax
    5e4d:	48 89 d6             	mov    %rdx,%rsi
    5e50:	48 89 c7             	mov    %rax,%rdi
    5e53:	e8 98 06 00 00       	call   64f0 <_ZNSt23_Rb_tree_const_iteratorISt4pairIKNSt7__cxx1112basic_stringIcSt11char_traitsIcESaIcEEEP12netlist_elemEEC1ERKSt17_Rb_tree_iteratorISA_E>
    5e58:	48 8d 4d cf          	lea    -0x31(%rbp),%rcx
    5e5c:	48 8d 55 d8          	lea    -0x28(%rbp),%rdx
    5e60:	48 8b 45 e0          	mov    -0x20(%rbp),%rax
    5e64:	49 89 c8             	mov    %rcx,%r8
    5e67:	48 89 d1             	mov    %rdx,%rcx
    5e6a:	48 8d 15 18 73 00 00 	lea    0x7318(%rip),%rdx        # d189 <_ZSt19piecewise_construct>
    5e71:	48 89 c6             	mov    %rax,%rsi
    5e74:	48 89 df             	mov    %rbx,%rdi
    5e77:	e8 96 06 00 00       	call   6512 <_ZNSt8_Rb_treeINSt7__cxx1112basic_stringIcSt11char_traitsIcESaIcEEESt4pairIKS5_P12netlist_elemESt10_Select1stISA_ESt4lessIS5_ESaISA_EE22_M_emplace_hint_uniqueIJRKSt21piecewise_construct_tSt5tupleIJRS7_EESL_IJEEEEESt17_Rb_tree_iteratorISA_ESt23_Rb_tree_const_iteratorISA_EDpOT_>
    5e7c:	48 89 45 d0          	mov    %rax,-0x30(%rbp)
    5e80:	48 8d 45 d0          	lea    -0x30(%rbp),%rax
    5e84:	48 89 c7             	mov    %rax,%rdi
    5e87:	e8 ea 05 00 00       	call   6476 <_ZNKSt17_Rb_tree_iteratorISt4pairIKNSt7__cxx1112basic_stringIcSt11char_traitsIcESaIcEEEP12netlist_elemEEdeEv>
    5e8c:	48 83 c0 20          	add    $0x20,%rax
    5e90:	48 8b 55 e8          	mov    -0x18(%rbp),%rdx
    5e94:	64 48 2b 14 25 28 00 	sub    %fs:0x28,%rdx
    5e9b:	00 00 
    5e9d:	74 05                	je     5ea4 <_ZNSt3mapINSt7__cxx1112basic_stringIcSt11char_traitsIcESaIcEEEP12netlist_elemSt4lessIS5_ESaISt4pairIKS5_S7_EEEixERSB_+0x11a>
    5e9f:	e8 5c c7 ff ff       	call   2600 <__stack_chk_fail@plt>
    5ea4:	48 8b 5d f8          	mov    -0x8(%rbp),%rbx
    5ea8:	c9                   	leave  
    5ea9:	c3                   	ret    

0000000000005eaa <_ZNSt12_Vector_baseI12netlist_elemSaIS0_EE12_Vector_implC1Ev>:
    5eaa:	f3 0f 1e fa          	endbr64 
    5eae:	55                   	push   %rbp
    5eaf:	48 89 e5             	mov    %rsp,%rbp
    5eb2:	48 83 ec 10          	sub    $0x10,%rsp
    5eb6:	48 89 7d f8          	mov    %rdi,-0x8(%rbp)
    5eba:	48 8b 45 f8          	mov    -0x8(%rbp),%rax
    5ebe:	48 89 c7             	mov    %rax,%rdi
    5ec1:	e8 56 07 00 00       	call   661c <_ZNSaI12netlist_elemEC1Ev>
    5ec6:	48 8b 45 f8          	mov    -0x8(%rbp),%rax
    5eca:	48 89 c7             	mov    %rax,%rdi
    5ecd:	e8 6a 07 00 00       	call   663c <_ZNSt12_Vector_baseI12netlist_elemSaIS0_EE17_Vector_impl_dataC1Ev>
    5ed2:	90                   	nop
    5ed3:	c9                   	leave  
    5ed4:	c3                   	ret    
    5ed5:	90                   	nop

0000000000005ed6 <_ZNSt12_Vector_baseISt6vectorI10location_tSaIS1_EESaIS3_EE12_Vector_implC1Ev>:
    5ed6:	f3 0f 1e fa          	endbr64 
    5eda:	55                   	push   %rbp
    5edb:	48 89 e5             	mov    %rsp,%rbp
    5ede:	48 83 ec 10          	sub    $0x10,%rsp
    5ee2:	48 89 7d f8          	mov    %rdi,-0x8(%rbp)
    5ee6:	48 8b 45 f8          	mov    -0x8(%rbp),%rax
    5eea:	48 89 c7             	mov    %rax,%rdi
    5eed:	e8 7c 07 00 00       	call   666e <_ZNSaISt6vectorI10location_tSaIS0_EEEC1Ev>
    5ef2:	48 8b 45 f8          	mov    -0x8(%rbp),%rax
    5ef6:	48 89 c7             	mov    %rax,%rdi
    5ef9:	e8 90 07 00 00       	call   668e <_ZNSt12_Vector_baseISt6vectorI10location_tSaIS1_EESaIS3_EE17_Vector_impl_dataC1Ev>
    5efe:	90                   	nop
    5eff:	c9                   	leave  
    5f00:	c3                   	ret    
    5f01:	90                   	nop

0000000000005f02 <_ZNSt8_Rb_treeINSt7__cxx1112basic_stringIcSt11char_traitsIcESaIcEEESt4pairIKS5_P12netlist_elemESt10_Select1stISA_ESt4lessIS5_ESaISA_EE13_Rb_tree_implISE_Lb1EEC1Ev>:
    5f02:	f3 0f 1e fa          	endbr64 
    5f06:	55                   	push   %rbp
    5f07:	48 89 e5             	mov    %rsp,%rbp
    5f0a:	48 83 ec 10          	sub    $0x10,%rsp
    5f0e:	48 89 7d f8          	mov    %rdi,-0x8(%rbp)
    5f12:	48 8b 45 f8          	mov    -0x8(%rbp),%rax
    5f16:	48 89 c7             	mov    %rax,%rdi
    5f19:	e8 a2 07 00 00       	call   66c0 <_ZNSaISt13_Rb_tree_nodeISt4pairIKNSt7__cxx1112basic_stringIcSt11char_traitsIcESaIcEEEP12netlist_elemEEEC1Ev>
    5f1e:	48 8b 45 f8          	mov    -0x8(%rbp),%rax
    5f22:	48 89 c7             	mov    %rax,%rdi
    5f25:	e8 b6 07 00 00       	call   66e0 <_ZNSt20_Rb_tree_key_compareISt4lessINSt7__cxx1112basic_stringIcSt11char_traitsIcESaIcEEEEEC1Ev>
    5f2a:	48 8b 45 f8          	mov    -0x8(%rbp),%rax
    5f2e:	48 83 c0 08          	add    $0x8,%rax
    5f32:	48 89 c7             	mov    %rax,%rdi
    5f35:	e8 86 fb ff ff       	call   5ac0 <_ZNSt15_Rb_tree_headerC1Ev>
    5f3a:	90                   	nop
    5f3b:	c9                   	leave  
    5f3c:	c3                   	ret    
    5f3d:	90                   	nop

0000000000005f3e <_ZNSt6vectorI12netlist_elemSaIS0_EE6resizeEm>:
    5f3e:	f3 0f 1e fa          	endbr64 
    5f42:	55                   	push   %rbp
    5f43:	48 89 e5             	mov    %rsp,%rbp
    5f46:	48 83 ec 10          	sub    $0x10,%rsp
    5f4a:	48 89 7d f8          	mov    %rdi,-0x8(%rbp)
    5f4e:	48 89 75 f0          	mov    %rsi,-0x10(%rbp)
    5f52:	48 8b 45 f8          	mov    -0x8(%rbp),%rax
    5f56:	48 89 c7             	mov    %rax,%rdi
    5f59:	e8 92 07 00 00       	call   66f0 <_ZNKSt6vectorI12netlist_elemSaIS0_EE4sizeEv>
    5f5e:	48 39 45 f0          	cmp    %rax,-0x10(%rbp)
    5f62:	0f 97 c0             	seta   %al
    5f65:	84 c0                	test   %al,%al
    5f67:	74 2a                	je     5f93 <_ZNSt6vectorI12netlist_elemSaIS0_EE6resizeEm+0x55>
    5f69:	48 8b 45 f8          	mov    -0x8(%rbp),%rax
    5f6d:	48 89 c7             	mov    %rax,%rdi
    5f70:	e8 7b 07 00 00       	call   66f0 <_ZNKSt6vectorI12netlist_elemSaIS0_EE4sizeEv>
    5f75:	48 89 c1             	mov    %rax,%rcx
    5f78:	48 8b 45 f0          	mov    -0x10(%rbp),%rax
    5f7c:	48 29 c8             	sub    %rcx,%rax
    5f7f:	48 89 c2             	mov    %rax,%rdx
    5f82:	48 8b 45 f8          	mov    -0x8(%rbp),%rax
    5f86:	48 89 d6             	mov    %rdx,%rsi
    5f89:	48 89 c7             	mov    %rax,%rdi
    5f8c:	e8 97 07 00 00       	call   6728 <_ZNSt6vectorI12netlist_elemSaIS0_EE17_M_default_appendEm>
    5f91:	eb 49                	jmp    5fdc <_ZNSt6vectorI12netlist_elemSaIS0_EE6resizeEm+0x9e>
    5f93:	48 8b 45 f8          	mov    -0x8(%rbp),%rax
    5f97:	48 89 c7             	mov    %rax,%rdi
    5f9a:	e8 51 07 00 00       	call   66f0 <_ZNKSt6vectorI12netlist_elemSaIS0_EE4sizeEv>
    5f9f:	48 39 45 f0          	cmp    %rax,-0x10(%rbp)
    5fa3:	0f 92 c0             	setb   %al
    5fa6:	84 c0                	test   %al,%al
    5fa8:	74 32                	je     5fdc <_ZNSt6vectorI12netlist_elemSaIS0_EE6resizeEm+0x9e>
    5faa:	48 8b 45 f8          	mov    -0x8(%rbp),%rax
    5fae:	48 8b 08             	mov    (%rax),%rcx
    5fb1:	48 8b 55 f0          	mov    -0x10(%rbp),%rdx
    5fb5:	48 89 d0             	mov    %rdx,%rax
    5fb8:	48 c1 e0 02          	shl    $0x2,%rax
    5fbc:	48 01 d0             	add    %rdx,%rax
    5fbf:	48 01 c0             	add    %rax,%rax
    5fc2:	48 01 d0             	add    %rdx,%rax
    5fc5:	48 c1 e0 03          	shl    $0x3,%rax
    5fc9:	48 8d 14 01          	lea    (%rcx,%rax,1),%rdx
    5fcd:	48 8b 45 f8          	mov    -0x8(%rbp),%rax
    5fd1:	48 89 d6             	mov    %rdx,%rsi
    5fd4:	48 89 c7             	mov    %rax,%rdi
    5fd7:	e8 c6 09 00 00       	call   69a2 <_ZNSt6vectorI12netlist_elemSaIS0_EE15_M_erase_at_endEPS0_>
    5fdc:	90                   	nop
    5fdd:	c9                   	leave  
    5fde:	c3                   	ret    
    5fdf:	90                   	nop

0000000000005fe0 <_ZNSaI10location_tEC1Ev>:
    5fe0:	f3 0f 1e fa          	endbr64 
    5fe4:	55                   	push   %rbp
    5fe5:	48 89 e5             	mov    %rsp,%rbp
    5fe8:	48 83 ec 10          	sub    $0x10,%rsp
    5fec:	48 89 7d f8          	mov    %rdi,-0x8(%rbp)
    5ff0:	48 8b 45 f8          	mov    -0x8(%rbp),%rax
    5ff4:	48 89 c7             	mov    %rax,%rdi
    5ff7:	e8 1c 0a 00 00       	call   6a18 <_ZN9__gnu_cxx13new_allocatorI10location_tEC1Ev>
    5ffc:	90                   	nop
    5ffd:	c9                   	leave  
    5ffe:	c3                   	ret    
    5fff:	90                   	nop

0000000000006000 <_ZNSt6vectorI10location_tSaIS0_EEC1EmRKS1_>:
    6000:	f3 0f 1e fa          	endbr64 
    6004:	55                   	push   %rbp
    6005:	48 89 e5             	mov    %rsp,%rbp
    6008:	53                   	push   %rbx
    6009:	48 83 ec 28          	sub    $0x28,%rsp
    600d:	48 89 7d e8          	mov    %rdi,-0x18(%rbp)
    6011:	48 89 75 e0          	mov    %rsi,-0x20(%rbp)
    6015:	48 89 55 d8          	mov    %rdx,-0x28(%rbp)
    6019:	48 8b 5d e8          	mov    -0x18(%rbp),%rbx
    601d:	48 8b 55 d8          	mov    -0x28(%rbp),%rdx
    6021:	48 8b 45 e0          	mov    -0x20(%rbp),%rax
    6025:	48 89 d6             	mov    %rdx,%rsi
    6028:	48 89 c7             	mov    %rax,%rdi
    602b:	e8 f7 09 00 00       	call   6a27 <_ZNSt6vectorI10location_tSaIS0_EE17_S_check_init_lenEmRKS1_>
    6030:	48 89 c1             	mov    %rax,%rcx
    6033:	48 8b 45 d8          	mov    -0x28(%rbp),%rax
    6037:	48 89 c2             	mov    %rax,%rdx
    603a:	48 89 ce             	mov    %rcx,%rsi
    603d:	48 89 df             	mov    %rbx,%rdi
    6040:	e8 69 0a 00 00       	call   6aae <_ZNSt12_Vector_baseI10location_tSaIS0_EEC1EmRKS1_>
    6045:	48 8b 55 e0          	mov    -0x20(%rbp),%rdx
    6049:	48 8b 45 e8          	mov    -0x18(%rbp),%rax
    604d:	48 89 d6             	mov    %rdx,%rsi
    6050:	48 89 c7             	mov    %rax,%rdi
    6053:	e8 98 0a 00 00       	call   6af0 <_ZNSt6vectorI10location_tSaIS0_EE21_M_default_initializeEm>
    6058:	90                   	nop
    6059:	48 8b 5d f8          	mov    -0x8(%rbp),%rbx
    605d:	c9                   	leave  
    605e:	c3                   	ret    
    605f:	90                   	nop

0000000000006060 <_ZNSt6vectorIS_I10location_tSaIS0_EESaIS2_EE6resizeEmRKS2_>:
    6060:	f3 0f 1e fa          	endbr64 
    6064:	55                   	push   %rbp
    6065:	48 89 e5             	mov    %rsp,%rbp
    6068:	53                   	push   %rbx
    6069:	48 83 ec 28          	sub    $0x28,%rsp
    606d:	48 89 7d e8          	mov    %rdi,-0x18(%rbp)
    6071:	48 89 75 e0          	mov    %rsi,-0x20(%rbp)
    6075:	48 89 55 d8          	mov    %rdx,-0x28(%rbp)
    6079:	48 8b 45 e8          	mov    -0x18(%rbp),%rax
    607d:	48 89 c7             	mov    %rax,%rdi
    6080:	e8 af 0a 00 00       	call   6b34 <_ZNKSt6vectorIS_I10location_tSaIS0_EESaIS2_EE4sizeEv>
    6085:	48 39 45 e0          	cmp    %rax,-0x20(%rbp)
    6089:	0f 97 c0             	seta   %al
    608c:	84 c0                	test   %al,%al
    608e:	74 40                	je     60d0 <_ZNSt6vectorIS_I10location_tSaIS0_EESaIS2_EE6resizeEmRKS2_+0x70>
    6090:	48 8b 45 e8          	mov    -0x18(%rbp),%rax
    6094:	48 89 c7             	mov    %rax,%rdi
    6097:	e8 98 0a 00 00       	call   6b34 <_ZNKSt6vectorIS_I10location_tSaIS0_EESaIS2_EE4sizeEv>
    609c:	48 89 c2             	mov    %rax,%rdx
    609f:	48 8b 45 e0          	mov    -0x20(%rbp),%rax
    60a3:	48 29 d0             	sub    %rdx,%rax
    60a6:	48 89 c3             	mov    %rax,%rbx
    60a9:	48 8b 45 e8          	mov    -0x18(%rbp),%rax
    60ad:	48 89 c7             	mov    %rax,%rdi
    60b0:	e8 fd 0f 00 00       	call   70b2 <_ZNSt6vectorIS_I10location_tSaIS0_EESaIS2_EE3endEv>
    60b5:	48 89 c6             	mov    %rax,%rsi
    60b8:	48 8b 55 d8          	mov    -0x28(%rbp),%rdx
    60bc:	48 8b 45 e8          	mov    -0x18(%rbp),%rax
    60c0:	48 89 d1             	mov    %rdx,%rcx
    60c3:	48 89 da             	mov    %rbx,%rdx
    60c6:	48 89 c7             	mov    %rax,%rdi
    60c9:	e8 9e 0a 00 00       	call   6b6c <_ZNSt6vectorIS_I10location_tSaIS0_EESaIS2_EE14_M_fill_insertEN9__gnu_cxx17__normal_iteratorIPS2_S4_EEmRKS2_>
    60ce:	eb 42                	jmp    6112 <_ZNSt6vectorIS_I10location_tSaIS0_EESaIS2_EE6resizeEmRKS2_+0xb2>
    60d0:	48 8b 45 e8          	mov    -0x18(%rbp),%rax
    60d4:	48 89 c7             	mov    %rax,%rdi
    60d7:	e8 58 0a 00 00       	call   6b34 <_ZNKSt6vectorIS_I10location_tSaIS0_EESaIS2_EE4sizeEv>
    60dc:	48 39 45 e0          	cmp    %rax,-0x20(%rbp)
    60e0:	0f 92 c0             	setb   %al
    60e3:	84 c0                	test   %al,%al
    60e5:	74 2b                	je     6112 <_ZNSt6vectorIS_I10location_tSaIS0_EESaIS2_EE6resizeEmRKS2_+0xb2>
    60e7:	48 8b 45 e8          	mov    -0x18(%rbp),%rax
    60eb:	48 8b 08             	mov    (%rax),%rcx
    60ee:	48 8b 55 e0          	mov    -0x20(%rbp),%rdx
    60f2:	48 89 d0             	mov    %rdx,%rax
    60f5:	48 01 c0             	add    %rax,%rax
    60f8:	48 01 d0             	add    %rdx,%rax
    60fb:	48 c1 e0 03          	shl    $0x3,%rax
    60ff:	48 8d 14 01          	lea    (%rcx,%rax,1),%rdx
    6103:	48 8b 45 e8          	mov    -0x18(%rbp),%rax
    6107:	48 89 d6             	mov    %rdx,%rsi
    610a:	48 89 c7             	mov    %rax,%rdi
    610d:	e8 f0 0f 00 00       	call   7102 <_ZNSt6vectorIS_I10location_tSaIS0_EESaIS2_EE15_M_erase_at_endEPS2_>
    6112:	90                   	nop
    6113:	48 8b 5d f8          	mov    -0x8(%rbp),%rbx
    6117:	c9                   	leave  
    6118:	c3                   	ret    
    6119:	90                   	nop

000000000000611a <_ZNSt6vectorIS_I10location_tSaIS0_EESaIS2_EE2atEm>:
    611a:	f3 0f 1e fa          	endbr64 
    611e:	55                   	push   %rbp
    611f:	48 89 e5             	mov    %rsp,%rbp
    6122:	48 83 ec 10          	sub    $0x10,%rsp
    6126:	48 89 7d f8          	mov    %rdi,-0x8(%rbp)
    612a:	48 89 75 f0          	mov    %rsi,-0x10(%rbp)
    612e:	48 8b 55 f0          	mov    -0x10(%rbp),%rdx
    6132:	48 8b 45 f8          	mov    -0x8(%rbp),%rax
    6136:	48 89 d6             	mov    %rdx,%rsi
    6139:	48 89 c7             	mov    %rax,%rdi
    613c:	e8 37 10 00 00       	call   7178 <_ZNKSt6vectorIS_I10location_tSaIS0_EESaIS2_EE14_M_range_checkEm>
    6141:	48 8b 55 f0          	mov    -0x10(%rbp),%rdx
    6145:	48 8b 45 f8          	mov    -0x8(%rbp),%rax
    6149:	48 89 d6             	mov    %rdx,%rsi
    614c:	48 89 c7             	mov    %rax,%rdi
    614f:	e8 7c 10 00 00       	call   71d0 <_ZNSt6vectorIS_I10location_tSaIS0_EESaIS2_EEixEm>
    6154:	c9                   	leave  
    6155:	c3                   	ret    

0000000000006156 <_ZNSt6vectorI10location_tSaIS0_EE2atEm>:
    6156:	f3 0f 1e fa          	endbr64 
    615a:	55                   	push   %rbp
    615b:	48 89 e5             	mov    %rsp,%rbp
    615e:	48 83 ec 10          	sub    $0x10,%rsp
    6162:	48 89 7d f8          	mov    %rdi,-0x8(%rbp)
    6166:	48 89 75 f0          	mov    %rsi,-0x10(%rbp)
    616a:	48 8b 55 f0          	mov    -0x10(%rbp),%rdx
    616e:	48 8b 45 f8          	mov    -0x8(%rbp),%rax
    6172:	48 89 d6             	mov    %rdx,%rsi
    6175:	48 89 c7             	mov    %rax,%rdi
    6178:	e8 81 10 00 00       	call   71fe <_ZNKSt6vectorI10location_tSaIS0_EE14_M_range_checkEm>
    617d:	48 8b 55 f0          	mov    -0x10(%rbp),%rdx
    6181:	48 8b 45 f8          	mov    -0x8(%rbp),%rax
    6185:	48 89 d6             	mov    %rdx,%rsi
    6188:	48 89 c7             	mov    %rax,%rdi
    618b:	e8 c6 10 00 00       	call   7256 <_ZNSt6vectorI10location_tSaIS0_EEixEm>
    6190:	c9                   	leave  
    6191:	c3                   	ret    

0000000000006192 <_ZNSt6vectorI12netlist_elemSaIS0_EE2atEm>:
    6192:	f3 0f 1e fa          	endbr64 
    6196:	55                   	push   %rbp
    6197:	48 89 e5             	mov    %rsp,%rbp
    619a:	48 83 ec 10          	sub    $0x10,%rsp
    619e:	48 89 7d f8          	mov    %rdi,-0x8(%rbp)
    61a2:	48 89 75 f0          	mov    %rsi,-0x10(%rbp)
    61a6:	48 8b 55 f0          	mov    -0x10(%rbp),%rdx
    61aa:	48 8b 45 f8          	mov    -0x8(%rbp),%rax
    61ae:	48 89 d6             	mov    %rdx,%rsi
    61b1:	48 89 c7             	mov    %rax,%rdi
    61b4:	e8 c1 10 00 00       	call   727a <_ZNKSt6vectorI12netlist_elemSaIS0_EE14_M_range_checkEm>
    61b9:	48 8b 55 f0          	mov    -0x10(%rbp),%rdx
    61bd:	48 8b 45 f8          	mov    -0x8(%rbp),%rax
    61c1:	48 89 d6             	mov    %rdx,%rsi
    61c4:	48 89 c7             	mov    %rax,%rdi
    61c7:	e8 8a fb ff ff       	call   5d56 <_ZNSt6vectorI12netlist_elemSaIS0_EEixEm>
    61cc:	c9                   	leave  
    61cd:	c3                   	ret    

00000000000061ce <_ZN7threads9AtomicPtrI10location_tE3SetEPS1_>:
    61ce:	f3 0f 1e fa          	endbr64 
    61d2:	55                   	push   %rbp
    61d3:	48 89 e5             	mov    %rsp,%rbp
    61d6:	48 83 ec 10          	sub    $0x10,%rsp
    61da:	48 89 7d f8          	mov    %rdi,-0x8(%rbp)
    61de:	48 89 75 f0          	mov    %rsi,-0x10(%rbp)
    61e2:	48 8b 55 f0          	mov    -0x10(%rbp),%rdx
    61e6:	48 8b 45 f8          	mov    -0x8(%rbp),%rax
    61ea:	48 89 d6             	mov    %rdx,%rsi
    61ed:	48 89 c7             	mov    %rax,%rdi
    61f0:	e8 c9 01 00 00       	call   63be <_ZN7threads9AtomicPtrI10location_tE10PrivateSetEPS1_>
    61f5:	c9                   	leave  
    61f6:	c3                   	ret    

00000000000061f7 <_ZSteqIcSt11char_traitsIcESaIcEEbRKNSt7__cxx1112basic_stringIT_T0_T1_EEPKS5_>:
    61f7:	f3 0f 1e fa          	endbr64 
    61fb:	55                   	push   %rbp
    61fc:	48 89 e5             	mov    %rsp,%rbp
    61ff:	48 83 ec 10          	sub    $0x10,%rsp
    6203:	48 89 7d f8          	mov    %rdi,-0x8(%rbp)
    6207:	48 89 75 f0          	mov    %rsi,-0x10(%rbp)
    620b:	48 8b 55 f0          	mov    -0x10(%rbp),%rdx
    620f:	48 8b 45 f8          	mov    -0x8(%rbp),%rax
    6213:	48 89 d6             	mov    %rdx,%rsi
    6216:	48 89 c7             	mov    %rax,%rdi
    6219:	e8 12 c2 ff ff       	call   2430 <_ZNKSt7__cxx1112basic_stringIcSt11char_traitsIcESaIcEE7compareEPKc@plt>
    621e:	85 c0                	test   %eax,%eax
    6220:	0f 94 c0             	sete   %al
    6223:	c9                   	leave  
    6224:	c3                   	ret    
    6225:	90                   	nop

0000000000006226 <_ZNSt6vectorIP12netlist_elemSaIS1_EE9push_backERKS1_>:
    6226:	f3 0f 1e fa          	endbr64 
    622a:	55                   	push   %rbp
    622b:	48 89 e5             	mov    %rsp,%rbp
    622e:	48 83 ec 10          	sub    $0x10,%rsp
    6232:	48 89 7d f8          	mov    %rdi,-0x8(%rbp)
    6236:	48 89 75 f0          	mov    %rsi,-0x10(%rbp)
    623a:	48 8b 45 f8          	mov    -0x8(%rbp),%rax
    623e:	48 8b 50 08          	mov    0x8(%rax),%rdx
    6242:	48 8b 45 f8          	mov    -0x8(%rbp),%rax
    6246:	48 8b 40 10          	mov    0x10(%rax),%rax
    624a:	48 39 c2             	cmp    %rax,%rdx
    624d:	74 31                	je     6280 <_ZNSt6vectorIP12netlist_elemSaIS1_EE9push_backERKS1_+0x5a>
    624f:	48 8b 45 f8          	mov    -0x8(%rbp),%rax
    6253:	48 8b 48 08          	mov    0x8(%rax),%rcx
    6257:	48 8b 45 f8          	mov    -0x8(%rbp),%rax
    625b:	48 8b 55 f0          	mov    -0x10(%rbp),%rdx
    625f:	48 89 ce             	mov    %rcx,%rsi
    6262:	48 89 c7             	mov    %rax,%rdi
    6265:	e8 68 10 00 00       	call   72d2 <_ZNSt16allocator_traitsISaIP12netlist_elemEE9constructIS1_JRKS1_EEEvRS2_PT_DpOT0_>
    626a:	48 8b 45 f8          	mov    -0x8(%rbp),%rax
    626e:	48 8b 40 08          	mov    0x8(%rax),%rax
    6272:	48 8d 50 08          	lea    0x8(%rax),%rdx
    6276:	48 8b 45 f8          	mov    -0x8(%rbp),%rax
    627a:	48 89 50 08          	mov    %rdx,0x8(%rax)
    627e:	eb 22                	jmp    62a2 <_ZNSt6vectorIP12netlist_elemSaIS1_EE9push_backERKS1_+0x7c>
    6280:	48 8b 45 f8          	mov    -0x8(%rbp),%rax
    6284:	48 89 c7             	mov    %rax,%rdi
    6287:	e8 84 10 00 00       	call   7310 <_ZNSt6vectorIP12netlist_elemSaIS1_EE3endEv>
    628c:	48 89 c1             	mov    %rax,%rcx
    628f:	48 8b 55 f0          	mov    -0x10(%rbp),%rdx
    6293:	48 8b 45 f8          	mov    -0x8(%rbp),%rax
    6297:	48 89 ce             	mov    %rcx,%rsi
    629a:	48 89 c7             	mov    %rax,%rdi
    629d:	e8 be 10 00 00       	call   7360 <_ZNSt6vectorIP12netlist_elemSaIS1_EE17_M_realloc_insertIJRKS1_EEEvN9__gnu_cxx17__normal_iteratorIPS1_S3_EEDpOT_>
    62a2:	90                   	nop
    62a3:	c9                   	leave  
    62a4:	c3                   	ret    
    62a5:	90                   	nop

00000000000062a6 <_ZNSt3mapINSt7__cxx1112basic_stringIcSt11char_traitsIcESaIcEEEP12netlist_elemSt4lessIS5_ESaISt4pairIKS5_S7_EEE4findERSB_>:
    62a6:	f3 0f 1e fa          	endbr64 
    62aa:	55                   	push   %rbp
    62ab:	48 89 e5             	mov    %rsp,%rbp
    62ae:	48 83 ec 10          	sub    $0x10,%rsp
    62b2:	48 89 7d f8          	mov    %rdi,-0x8(%rbp)
    62b6:	48 89 75 f0          	mov    %rsi,-0x10(%rbp)
    62ba:	48 8b 45 f8          	mov    -0x8(%rbp),%rax
    62be:	48 8b 55 f0          	mov    -0x10(%rbp),%rdx
    62c2:	48 89 d6             	mov    %rdx,%rsi
    62c5:	48 89 c7             	mov    %rax,%rdi
    62c8:	e8 4d 12 00 00       	call   751a <_ZNSt8_Rb_treeINSt7__cxx1112basic_stringIcSt11char_traitsIcESaIcEEESt4pairIKS5_P12netlist_elemESt10_Select1stISA_ESt4lessIS5_ESaISA_EE4findERS7_>
    62cd:	c9                   	leave  
    62ce:	c3                   	ret    

00000000000062cf <_ZSteqRKSt17_Rb_tree_iteratorISt4pairIKNSt7__cxx1112basic_stringIcSt11char_traitsIcESaIcEEEP12netlist_elemEESD_>:
    62cf:	f3 0f 1e fa          	endbr64 
    62d3:	55                   	push   %rbp
    62d4:	48 89 e5             	mov    %rsp,%rbp
    62d7:	48 89 7d f8          	mov    %rdi,-0x8(%rbp)
    62db:	48 89 75 f0          	mov    %rsi,-0x10(%rbp)
    62df:	48 8b 45 f8          	mov    -0x8(%rbp),%rax
    62e3:	48 8b 10             	mov    (%rax),%rdx
    62e6:	48 8b 45 f0          	mov    -0x10(%rbp),%rax
    62ea:	48 8b 00             	mov    (%rax),%rax
    62ed:	48 39 c2             	cmp    %rax,%rdx
    62f0:	0f 94 c0             	sete   %al
    62f3:	5d                   	pop    %rbp
    62f4:	c3                   	ret    
    62f5:	90                   	nop

00000000000062f6 <_ZNSt8_Rb_treeINSt7__cxx1112basic_stringIcSt11char_traitsIcESaIcEEESt4pairIKS5_P12netlist_elemESt10_Select1stISA_ESt4lessIS5_ESaISA_EE5beginEv>:
    62f6:	f3 0f 1e fa          	endbr64 
    62fa:	55                   	push   %rbp
    62fb:	48 89 e5             	mov    %rsp,%rbp
    62fe:	48 83 ec 20          	sub    $0x20,%rsp
    6302:	48 89 7d e8          	mov    %rdi,-0x18(%rbp)
    6306:	64 48 8b 04 25 28 00 	mov    %fs:0x28,%rax
    630d:	00 00 
    630f:	48 89 45 f8          	mov    %rax,-0x8(%rbp)
    6313:	31 c0                	xor    %eax,%eax
    6315:	48 8b 45 e8          	mov    -0x18(%rbp),%rax
    6319:	48 8b 50 18          	mov    0x18(%rax),%rdx
    631d:	48 8d 45 f0          	lea    -0x10(%rbp),%rax
    6321:	48 89 d6             	mov    %rdx,%rsi
    6324:	48 89 c7             	mov    %rax,%rdi
    6327:	e8 c4 12 00 00       	call   75f0 <_ZNSt17_Rb_tree_iteratorISt4pairIKNSt7__cxx1112basic_stringIcSt11char_traitsIcESaIcEEEP12netlist_elemEEC1EPSt18_Rb_tree_node_base>
    632c:	48 8b 45 f0          	mov    -0x10(%rbp),%rax
    6330:	48 8b 55 f8          	mov    -0x8(%rbp),%rdx
    6334:	64 48 2b 14 25 28 00 	sub    %fs:0x28,%rdx
    633b:	00 00 
    633d:	74 05                	je     6344 <_ZNSt8_Rb_treeINSt7__cxx1112basic_stringIcSt11char_traitsIcESaIcEEESt4pairIKS5_P12netlist_elemESt10_Select1stISA_ESt4lessIS5_ESaISA_EE5beginEv+0x4e>
    633f:	e8 bc c2 ff ff       	call   2600 <__stack_chk_fail@plt>
    6344:	c9                   	leave  
    6345:	c3                   	ret    

0000000000006346 <_ZNSt8_Rb_treeINSt7__cxx1112basic_stringIcSt11char_traitsIcESaIcEEESt4pairIKS5_P12netlist_elemESt10_Select1stISA_ESt4lessIS5_ESaISA_EE3endEv>:
    6346:	f3 0f 1e fa          	endbr64 
    634a:	55                   	push   %rbp
    634b:	48 89 e5             	mov    %rsp,%rbp
    634e:	48 83 ec 20          	sub    $0x20,%rsp
    6352:	48 89 7d e8          	mov    %rdi,-0x18(%rbp)
    6356:	64 48 8b 04 25 28 00 	mov    %fs:0x28,%rax
    635d:	00 00 
    635f:	48 89 45 f8          	mov    %rax,-0x8(%rbp)
    6363:	31 c0                	xor    %eax,%eax
    6365:	48 8b 45 e8          	mov    -0x18(%rbp),%rax
    6369:	48 8d 50 08          	lea    0x8(%rax),%rdx
    636d:	48 8d 45 f0          	lea    -0x10(%rbp),%rax
    6371:	48 89 d6             	mov    %rdx,%rsi
    6374:	48 89 c7             	mov    %rax,%rdi
    6377:	e8 74 12 00 00       	call   75f0 <_ZNSt17_Rb_tree_iteratorISt4pairIKNSt7__cxx1112basic_stringIcSt11char_traitsIcESaIcEEEP12netlist_elemEEC1EPSt18_Rb_tree_node_base>
    637c:	48 8b 45 f0          	mov    -0x10(%rbp),%rax
    6380:	48 8b 55 f8          	mov    -0x8(%rbp),%rdx
    6384:	64 48 2b 14 25 28 00 	sub    %fs:0x28,%rdx
    638b:	00 00 
    638d:	74 05                	je     6394 <_ZNSt8_Rb_treeINSt7__cxx1112basic_stringIcSt11char_traitsIcESaIcEEESt4pairIKS5_P12netlist_elemESt10_Select1stISA_ESt4lessIS5_ESaISA_EE3endEv+0x4e>
    638f:	e8 6c c2 ff ff       	call   2600 <__stack_chk_fail@plt>
    6394:	c9                   	leave  
    6395:	c3                   	ret    

0000000000006396 <_ZN7threads9AtomicPtrI10location_tE8CheckoutEv>:
    6396:	f3 0f 1e fa          	endbr64 
    639a:	55                   	push   %rbp
    639b:	48 89 e5             	mov    %rsp,%rbp
    639e:	48 83 ec 10          	sub    $0x10,%rsp
    63a2:	48 89 7d f8          	mov    %rdi,-0x8(%rbp)
    63a6:	48 8b 15 63 dc 00 00 	mov    0xdc63(%rip),%rdx        # 14010 <_ZN7threads9AtomicPtrI10location_tE11ATOMIC_NULLE>
    63ad:	48 8b 45 f8          	mov    -0x8(%rbp),%rax
    63b1:	48 89 d6             	mov    %rdx,%rsi
    63b4:	48 89 c7             	mov    %rax,%rdi
    63b7:	e8 02 00 00 00       	call   63be <_ZN7threads9AtomicPtrI10location_tE10PrivateSetEPS1_>
    63bc:	c9                   	leave  
    63bd:	c3                   	ret    

00000000000063be <_ZN7threads9AtomicPtrI10location_tE10PrivateSetEPS1_>:
    63be:	f3 0f 1e fa          	endbr64 
    63c2:	55                   	push   %rbp
    63c3:	48 89 e5             	mov    %rsp,%rbp
    63c6:	48 83 ec 20          	sub    $0x20,%rsp
    63ca:	48 89 7d e8          	mov    %rdi,-0x18(%rbp)
    63ce:	48 89 75 e0          	mov    %rsi,-0x20(%rbp)
    63d2:	48 8b 45 e8          	mov    -0x18(%rbp),%rax
    63d6:	48 89 c7             	mov    %rax,%rdi
    63d9:	e8 06 cc ff ff       	call   2fe4 <_ZNK7threads9AtomicPtrI10location_tE3GetEv>
    63de:	48 89 45 f8          	mov    %rax,-0x8(%rbp)
    63e2:	48 8b 55 e0          	mov    -0x20(%rbp),%rdx
    63e6:	48 8b 4d f8          	mov    -0x8(%rbp),%rcx
    63ea:	48 8b 45 e8          	mov    -0x18(%rbp),%rax
    63ee:	48 89 ce             	mov    %rcx,%rsi
    63f1:	48 89 c7             	mov    %rax,%rdi
    63f4:	e8 30 f7 ff ff       	call   5b29 <_ZL18atomic_cmpset_longPVmmm>
    63f9:	85 c0                	test   %eax,%eax
    63fb:	0f 94 c0             	sete   %al
    63fe:	84 c0                	test   %al,%al
    6400:	75 d0                	jne    63d2 <_ZN7threads9AtomicPtrI10location_tE10PrivateSetEPS1_+0x14>
    6402:	48 8b 45 f8          	mov    -0x8(%rbp),%rax
    6406:	c9                   	leave  
    6407:	c3                   	ret    

0000000000006408 <_ZN7threads9AtomicPtrI10location_tE7CheckinEPS1_>:
    6408:	f3 0f 1e fa          	endbr64 
    640c:	55                   	push   %rbp
    640d:	48 89 e5             	mov    %rsp,%rbp
    6410:	48 89 7d f8          	mov    %rdi,-0x8(%rbp)
    6414:	48 89 75 f0          	mov    %rsi,-0x10(%rbp)
    6418:	48 8b 45 f8          	mov    -0x8(%rbp),%rax
    641c:	48 8b 55 f0          	mov    -0x10(%rbp),%rdx
    6420:	48 89 10             	mov    %rdx,(%rax)
    6423:	90                   	nop
    6424:	5d                   	pop    %rbp
    6425:	c3                   	ret    

0000000000006426 <_ZNSt3mapINSt7__cxx1112basic_stringIcSt11char_traitsIcESaIcEEEP12netlist_elemSt4lessIS5_ESaISt4pairIKS5_S7_EEE11lower_boundERSB_>:
    6426:	f3 0f 1e fa          	endbr64 
    642a:	55                   	push   %rbp
    642b:	48 89 e5             	mov    %rsp,%rbp
    642e:	48 83 ec 10          	sub    $0x10,%rsp
    6432:	48 89 7d f8          	mov    %rdi,-0x8(%rbp)
    6436:	48 89 75 f0          	mov    %rsi,-0x10(%rbp)
    643a:	48 8b 45 f8          	mov    -0x8(%rbp),%rax
    643e:	48 8b 55 f0          	mov    -0x10(%rbp),%rdx
    6442:	48 89 d6             	mov    %rdx,%rsi
    6445:	48 89 c7             	mov    %rax,%rdi
    6448:	e8 c1 11 00 00       	call   760e <_ZNSt8_Rb_treeINSt7__cxx1112basic_stringIcSt11char_traitsIcESaIcEEESt4pairIKS5_P12netlist_elemESt10_Select1stISA_ESt4lessIS5_ESaISA_EE11lower_boundERS7_>
    644d:	c9                   	leave  
    644e:	c3                   	ret    
    644f:	90                   	nop

0000000000006450 <_ZNKSt3mapINSt7__cxx1112basic_stringIcSt11char_traitsIcESaIcEEEP12netlist_elemSt4lessIS5_ESaISt4pairIKS5_S7_EEE8key_compEv>:
    6450:	f3 0f 1e fa          	endbr64 
    6454:	55                   	push   %rbp
    6455:	48 89 e5             	mov    %rsp,%rbp
    6458:	53                   	push   %rbx
    6459:	48 83 ec 18          	sub    $0x18,%rsp
    645d:	48 89 7d e8          	mov    %rdi,-0x18(%rbp)
    6461:	48 8b 45 e8          	mov    -0x18(%rbp),%rax
    6465:	48 89 c7             	mov    %rax,%rdi
    6468:	e8 f1 11 00 00       	call   765e <_ZNKSt8_Rb_treeINSt7__cxx1112basic_stringIcSt11char_traitsIcESaIcEEESt4pairIKS5_P12netlist_elemESt10_Select1stISA_ESt4lessIS5_ESaISA_EE8key_compEv>
    646d:	90                   	nop
    646e:	89 d8                	mov    %ebx,%eax
    6470:	48 8b 5d f8          	mov    -0x8(%rbp),%rbx
    6474:	c9                   	leave  
    6475:	c3                   	ret    

0000000000006476 <_ZNKSt17_Rb_tree_iteratorISt4pairIKNSt7__cxx1112basic_stringIcSt11char_traitsIcESaIcEEEP12netlist_elemEEdeEv>:
    6476:	f3 0f 1e fa          	endbr64 
    647a:	55                   	push   %rbp
    647b:	48 89 e5             	mov    %rsp,%rbp
    647e:	48 83 ec 10          	sub    $0x10,%rsp
    6482:	48 89 7d f8          	mov    %rdi,-0x8(%rbp)
    6486:	48 8b 45 f8          	mov    -0x8(%rbp),%rax
    648a:	48 8b 00             	mov    (%rax),%rax
    648d:	48 89 c7             	mov    %rax,%rdi
    6490:	e8 31 e2 ff ff       	call   46c6 <_ZNSt13_Rb_tree_nodeISt4pairIKNSt7__cxx1112basic_stringIcSt11char_traitsIcESaIcEEEP12netlist_elemEE9_M_valptrEv>
    6495:	c9                   	leave  
    6496:	c3                   	ret    
    6497:	90                   	nop

0000000000006498 <_ZNKSt4lessINSt7__cxx1112basic_stringIcSt11char_traitsIcESaIcEEEEclERKS5_S8_>:
    6498:	f3 0f 1e fa          	endbr64 
    649c:	55                   	push   %rbp
    649d:	48 89 e5             	mov    %rsp,%rbp
    64a0:	48 83 ec 20          	sub    $0x20,%rsp
    64a4:	48 89 7d f8          	mov    %rdi,-0x8(%rbp)
    64a8:	48 89 75 f0          	mov    %rsi,-0x10(%rbp)
    64ac:	48 89 55 e8          	mov    %rdx,-0x18(%rbp)
    64b0:	48 8b 55 e8          	mov    -0x18(%rbp),%rdx
    64b4:	48 8b 45 f0          	mov    -0x10(%rbp),%rax
    64b8:	48 89 d6             	mov    %rdx,%rsi
    64bb:	48 89 c7             	mov    %rax,%rdi
    64be:	e8 aa 11 00 00       	call   766d <_ZStltIcSt11char_traitsIcESaIcEEbRKNSt7__cxx1112basic_stringIT_T0_T1_EESA_>
    64c3:	c9                   	leave  
    64c4:	c3                   	ret    
    64c5:	90                   	nop

00000000000064c6 <_ZNSt5tupleIJRKNSt7__cxx1112basic_stringIcSt11char_traitsIcESaIcEEEEEC1ILb1ELb1EEES7_>:
    64c6:	f3 0f 1e fa          	endbr64 
    64ca:	55                   	push   %rbp
    64cb:	48 89 e5             	mov    %rsp,%rbp
    64ce:	48 83 ec 10          	sub    $0x10,%rsp
    64d2:	48 89 7d f8          	mov    %rdi,-0x8(%rbp)
    64d6:	48 89 75 f0          	mov    %rsi,-0x10(%rbp)
    64da:	48 8b 45 f8          	mov    -0x8(%rbp),%rax
    64de:	48 8b 55 f0          	mov    -0x10(%rbp),%rdx
    64e2:	48 89 d6             	mov    %rdx,%rsi
    64e5:	48 89 c7             	mov    %rax,%rdi
    64e8:	e8 ad 11 00 00       	call   769a <_ZNSt11_Tuple_implILm0EJRKNSt7__cxx1112basic_stringIcSt11char_traitsIcESaIcEEEEEC1ES7_>
    64ed:	90                   	nop
    64ee:	c9                   	leave  
    64ef:	c3                   	ret    

00000000000064f0 <_ZNSt23_Rb_tree_const_iteratorISt4pairIKNSt7__cxx1112basic_stringIcSt11char_traitsIcESaIcEEEP12netlist_elemEEC1ERKSt17_Rb_tree_iteratorISA_E>:
    64f0:	f3 0f 1e fa          	endbr64 
    64f4:	55                   	push   %rbp
    64f5:	48 89 e5             	mov    %rsp,%rbp
    64f8:	48 89 7d f8          	mov    %rdi,-0x8(%rbp)
    64fc:	48 89 75 f0          	mov    %rsi,-0x10(%rbp)
    6500:	48 8b 45 f0          	mov    -0x10(%rbp),%rax
    6504:	48 8b 10             	mov    (%rax),%rdx
    6507:	48 8b 45 f8          	mov    -0x8(%rbp),%rax
    650b:	48 89 10             	mov    %rdx,(%rax)
    650e:	90                   	nop
    650f:	5d                   	pop    %rbp
    6510:	c3                   	ret    
    6511:	90                   	nop

0000000000006512 <_ZNSt8_Rb_treeINSt7__cxx1112basic_stringIcSt11char_traitsIcESaIcEEESt4pairIKS5_P12netlist_elemESt10_Select1stISA_ESt4lessIS5_ESaISA_EE22_M_emplace_hint_uniqueIJRKSt21piecewise_construct_tSt5tupleIJRS7_EESL_IJEEEEESt17_Rb_tree_iteratorISA_ESt23_Rb_tree_const_iteratorISA_EDpOT_>:
    6512:	f3 0f 1e fa          	endbr64 
    6516:	55                   	push   %rbp
    6517:	48 89 e5             	mov    %rsp,%rbp
    651a:	41 54                	push   %r12
    651c:	53                   	push   %rbx
    651d:	48 83 ec 60          	sub    $0x60,%rsp
    6521:	48 89 7d b8          	mov    %rdi,-0x48(%rbp)
    6525:	48 89 75 b0          	mov    %rsi,-0x50(%rbp)
    6529:	48 89 55 a8          	mov    %rdx,-0x58(%rbp)
    652d:	48 89 4d a0          	mov    %rcx,-0x60(%rbp)
    6531:	4c 89 45 98          	mov    %r8,-0x68(%rbp)
    6535:	64 48 8b 04 25 28 00 	mov    %fs:0x28,%rax
    653c:	00 00 
    653e:	48 89 45 e8          	mov    %rax,-0x18(%rbp)
    6542:	31 c0                	xor    %eax,%eax
    6544:	48 8b 45 98          	mov    -0x68(%rbp),%rax
    6548:	48 89 c7             	mov    %rax,%rdi
    654b:	e8 98 11 00 00       	call   76e8 <_ZSt7forwardISt5tupleIJEEEOT_RNSt16remove_referenceIS2_E4typeE>
    6550:	49 89 c4             	mov    %rax,%r12
    6553:	48 8b 45 a0          	mov    -0x60(%rbp),%rax
    6557:	48 89 c7             	mov    %rax,%rdi
    655a:	e8 77 11 00 00       	call   76d6 <_ZSt7forwardISt5tupleIJRKNSt7__cxx1112basic_stringIcSt11char_traitsIcESaIcEEEEEEOT_RNSt16remove_referenceISA_E4typeE>
    655f:	48 89 c3             	mov    %rax,%rbx
    6562:	48 8b 45 a8          	mov    -0x58(%rbp),%rax
    6566:	48 89 c7             	mov    %rax,%rdi
    6569:	e8 56 11 00 00       	call   76c4 <_ZSt7forwardIRKSt21piecewise_construct_tEOT_RNSt16remove_referenceIS3_E4typeE>
    656e:	48 89 c6             	mov    %rax,%rsi
    6571:	48 8b 45 b8          	mov    -0x48(%rbp),%rax
    6575:	4c 89 e1             	mov    %r12,%rcx
    6578:	48 89 da             	mov    %rbx,%rdx
    657b:	48 89 c7             	mov    %rax,%rdi
    657e:	e8 77 11 00 00       	call   76fa <_ZNSt8_Rb_treeINSt7__cxx1112basic_stringIcSt11char_traitsIcESaIcEEESt4pairIKS5_P12netlist_elemESt10_Select1stISA_ESt4lessIS5_ESaISA_EE14_M_create_nodeIJRKSt21piecewise_construct_tSt5tupleIJRS7_EESL_IJEEEEEPSt13_Rb_tree_nodeISA_EDpOT_>
    6583:	48 89 45 c8          	mov    %rax,-0x38(%rbp)
    6587:	48 8b 45 c8          	mov    -0x38(%rbp),%rax
    658b:	48 89 c7             	mov    %rax,%rdi
    658e:	e8 8f 15 00 00       	call   7b22 <_ZNSt8_Rb_treeINSt7__cxx1112basic_stringIcSt11char_traitsIcESaIcEEESt4pairIKS5_P12netlist_elemESt10_Select1stISA_ESt4lessIS5_ESaISA_EE6_S_keyEPKSt13_Rb_tree_nodeISA_E>
    6593:	48 89 c2             	mov    %rax,%rdx
    6596:	48 8b 4d b0          	mov    -0x50(%rbp),%rcx
    659a:	48 8b 45 b8          	mov    -0x48(%rbp),%rax
    659e:	48 89 ce             	mov    %rcx,%rsi
    65a1:	48 89 c7             	mov    %rax,%rdi
    65a4:	e8 d1 11 00 00       	call   777a <_ZNSt8_Rb_treeINSt7__cxx1112basic_stringIcSt11char_traitsIcESaIcEEESt4pairIKS5_P12netlist_elemESt10_Select1stISA_ESt4lessIS5_ESaISA_EE29_M_get_insert_hint_unique_posESt23_Rb_tree_const_iteratorISA_ERS7_>
    65a9:	48 89 45 d0          	mov    %rax,-0x30(%rbp)
    65ad:	48 89 55 d8          	mov    %rdx,-0x28(%rbp)
    65b1:	48 8b 45 d8          	mov    -0x28(%rbp),%rax
    65b5:	48 85 c0             	test   %rax,%rax
    65b8:	74 1a                	je     65d4 <_ZNSt8_Rb_treeINSt7__cxx1112basic_stringIcSt11char_traitsIcESaIcEEESt4pairIKS5_P12netlist_elemESt10_Select1stISA_ESt4lessIS5_ESaISA_EE22_M_emplace_hint_uniqueIJRKSt21piecewise_construct_tSt5tupleIJRS7_EESL_IJEEEEESt17_Rb_tree_iteratorISA_ESt23_Rb_tree_const_iteratorISA_EDpOT_+0xc2>
    65ba:	48 8b 55 d8          	mov    -0x28(%rbp),%rdx
    65be:	48 8b 75 d0          	mov    -0x30(%rbp),%rsi
    65c2:	48 8b 4d c8          	mov    -0x38(%rbp),%rcx
    65c6:	48 8b 45 b8          	mov    -0x48(%rbp),%rax
    65ca:	48 89 c7             	mov    %rax,%rdi
    65cd:	e8 a4 15 00 00       	call   7b76 <_ZNSt8_Rb_treeINSt7__cxx1112basic_stringIcSt11char_traitsIcESaIcEEESt4pairIKS5_P12netlist_elemESt10_Select1stISA_ESt4lessIS5_ESaISA_EE14_M_insert_nodeEPSt18_Rb_tree_node_baseSI_PSt13_Rb_tree_nodeISA_E>
    65d2:	eb 2a                	jmp    65fe <_ZNSt8_Rb_treeINSt7__cxx1112basic_stringIcSt11char_traitsIcESaIcEEESt4pairIKS5_P12netlist_elemESt10_Select1stISA_ESt4lessIS5_ESaISA_EE22_M_emplace_hint_uniqueIJRKSt21piecewise_construct_tSt5tupleIJRS7_EESL_IJEEEEESt17_Rb_tree_iteratorISA_ESt23_Rb_tree_const_iteratorISA_EDpOT_+0xec>
    65d4:	48 8b 55 c8          	mov    -0x38(%rbp),%rdx
    65d8:	48 8b 45 b8          	mov    -0x48(%rbp),%rax
    65dc:	48 89 d6             	mov    %rdx,%rsi
    65df:	48 89 c7             	mov    %rax,%rdi
    65e2:	e8 ed da ff ff       	call   40d4 <_ZNSt8_Rb_treeINSt7__cxx1112basic_stringIcSt11char_traitsIcESaIcEEESt4pairIKS5_P12netlist_elemESt10_Select1stISA_ESt4lessIS5_ESaISA_EE12_M_drop_nodeEPSt13_Rb_tree_nodeISA_E>
    65e7:	48 8b 55 d0          	mov    -0x30(%rbp),%rdx
    65eb:	48 8d 45 c0          	lea    -0x40(%rbp),%rax
    65ef:	48 89 d6             	mov    %rdx,%rsi
    65f2:	48 89 c7             	mov    %rax,%rdi
    65f5:	e8 f6 0f 00 00       	call   75f0 <_ZNSt17_Rb_tree_iteratorISt4pairIKNSt7__cxx1112basic_stringIcSt11char_traitsIcESaIcEEEP12netlist_elemEEC1EPSt18_Rb_tree_node_base>
    65fa:	48 8b 45 c0          	mov    -0x40(%rbp),%rax
    65fe:	48 8b 55 e8          	mov    -0x18(%rbp),%rdx
    6602:	64 48 2b 14 25 28 00 	sub    %fs:0x28,%rdx
    6609:	00 00 
    660b:	74 05                	je     6612 <_ZNSt8_Rb_treeINSt7__cxx1112basic_stringIcSt11char_traitsIcESaIcEEESt4pairIKS5_P12netlist_elemESt10_Select1stISA_ESt4lessIS5_ESaISA_EE22_M_emplace_hint_uniqueIJRKSt21piecewise_construct_tSt5tupleIJRS7_EESL_IJEEEEESt17_Rb_tree_iteratorISA_ESt23_Rb_tree_const_iteratorISA_EDpOT_+0x100>
    660d:	e8 ee bf ff ff       	call   2600 <__stack_chk_fail@plt>
    6612:	48 83 c4 60          	add    $0x60,%rsp
    6616:	5b                   	pop    %rbx
    6617:	41 5c                	pop    %r12
    6619:	5d                   	pop    %rbp
    661a:	c3                   	ret    
    661b:	90                   	nop

000000000000661c <_ZNSaI12netlist_elemEC1Ev>:
    661c:	f3 0f 1e fa          	endbr64 
    6620:	55                   	push   %rbp
    6621:	48 89 e5             	mov    %rsp,%rbp
    6624:	48 83 ec 10          	sub    $0x10,%rsp
    6628:	48 89 7d f8          	mov    %rdi,-0x8(%rbp)
    662c:	48 8b 45 f8          	mov    -0x8(%rbp),%rax
    6630:	48 89 c7             	mov    %rax,%rdi
    6633:	e8 28 16 00 00       	call   7c60 <_ZN9__gnu_cxx13new_allocatorI12netlist_elemEC1Ev>
    6638:	90                   	nop
    6639:	c9                   	leave  
    663a:	c3                   	ret    
    663b:	90                   	nop

000000000000663c <_ZNSt12_Vector_baseI12netlist_elemSaIS0_EE17_Vector_impl_dataC1Ev>:
    663c:	f3 0f 1e fa          	endbr64 
    6640:	55                   	push   %rbp
    6641:	48 89 e5             	mov    %rsp,%rbp
    6644:	48 89 7d f8          	mov    %rdi,-0x8(%rbp)
    6648:	48 8b 45 f8          	mov    -0x8(%rbp),%rax
    664c:	48 c7 00 00 00 00 00 	movq   $0x0,(%rax)
    6653:	48 8b 45 f8          	mov    -0x8(%rbp),%rax
    6657:	48 c7 40 08 00 00 00 	movq   $0x0,0x8(%rax)
    665e:	00 
    665f:	48 8b 45 f8          	mov    -0x8(%rbp),%rax
    6663:	48 c7 40 10 00 00 00 	movq   $0x0,0x10(%rax)
    666a:	00 
    666b:	90                   	nop
    666c:	5d                   	pop    %rbp
    666d:	c3                   	ret    

000000000000666e <_ZNSaISt6vectorI10location_tSaIS0_EEEC1Ev>:
    666e:	f3 0f 1e fa          	endbr64 
    6672:	55                   	push   %rbp
    6673:	48 89 e5             	mov    %rsp,%rbp
    6676:	48 83 ec 10          	sub    $0x10,%rsp
    667a:	48 89 7d f8          	mov    %rdi,-0x8(%rbp)
    667e:	48 8b 45 f8          	mov    -0x8(%rbp),%rax
    6682:	48 89 c7             	mov    %rax,%rdi
    6685:	e8 e6 15 00 00       	call   7c70 <_ZN9__gnu_cxx13new_allocatorISt6vectorI10location_tSaIS2_EEEC1Ev>
    668a:	90                   	nop
    668b:	c9                   	leave  
    668c:	c3                   	ret    
    668d:	90                   	nop

000000000000668e <_ZNSt12_Vector_baseISt6vectorI10location_tSaIS1_EESaIS3_EE17_Vector_impl_dataC1Ev>:
    668e:	f3 0f 1e fa          	endbr64 
    6692:	55                   	push   %rbp
    6693:	48 89 e5             	mov    %rsp,%rbp
    6696:	48 89 7d f8          	mov    %rdi,-0x8(%rbp)
    669a:	48 8b 45 f8          	mov    -0x8(%rbp),%rax
    669e:	48 c7 00 00 00 00 00 	movq   $0x0,(%rax)
    66a5:	48 8b 45 f8          	mov    -0x8(%rbp),%rax
    66a9:	48 c7 40 08 00 00 00 	movq   $0x0,0x8(%rax)
    66b0:	00 
    66b1:	48 8b 45 f8          	mov    -0x8(%rbp),%rax
    66b5:	48 c7 40 10 00 00 00 	movq   $0x0,0x10(%rax)
    66bc:	00 
    66bd:	90                   	nop
    66be:	5d                   	pop    %rbp
    66bf:	c3                   	ret    

00000000000066c0 <_ZNSaISt13_Rb_tree_nodeISt4pairIKNSt7__cxx1112basic_stringIcSt11char_traitsIcESaIcEEEP12netlist_elemEEEC1Ev>:
    66c0:	f3 0f 1e fa          	endbr64 
    66c4:	55                   	push   %rbp
    66c5:	48 89 e5             	mov    %rsp,%rbp
    66c8:	48 83 ec 10          	sub    $0x10,%rsp
    66cc:	48 89 7d f8          	mov    %rdi,-0x8(%rbp)
    66d0:	48 8b 45 f8          	mov    -0x8(%rbp),%rax
    66d4:	48 89 c7             	mov    %rax,%rdi
    66d7:	e8 a4 15 00 00       	call   7c80 <_ZN9__gnu_cxx13new_allocatorISt13_Rb_tree_nodeISt4pairIKNSt7__cxx1112basic_stringIcSt11char_traitsIcESaIcEEEP12netlist_elemEEEC1Ev>
    66dc:	90                   	nop
    66dd:	c9                   	leave  
    66de:	c3                   	ret    
    66df:	90                   	nop

00000000000066e0 <_ZNSt20_Rb_tree_key_compareISt4lessINSt7__cxx1112basic_stringIcSt11char_traitsIcESaIcEEEEEC1Ev>:
    66e0:	f3 0f 1e fa          	endbr64 
    66e4:	55                   	push   %rbp
    66e5:	48 89 e5             	mov    %rsp,%rbp
    66e8:	48 89 7d f8          	mov    %rdi,-0x8(%rbp)
    66ec:	90                   	nop
    66ed:	5d                   	pop    %rbp
    66ee:	c3                   	ret    
    66ef:	90                   	nop

00000000000066f0 <_ZNKSt6vectorI12netlist_elemSaIS0_EE4sizeEv>:
    66f0:	f3 0f 1e fa          	endbr64 
    66f4:	55                   	push   %rbp
    66f5:	48 89 e5             	mov    %rsp,%rbp
    66f8:	48 89 7d f8          	mov    %rdi,-0x8(%rbp)
    66fc:	48 8b 45 f8          	mov    -0x8(%rbp),%rax
    6700:	48 8b 50 08          	mov    0x8(%rax),%rdx
    6704:	48 8b 45 f8          	mov    -0x8(%rbp),%rax
    6708:	48 8b 08             	mov    (%rax),%rcx
    670b:	48 89 d0             	mov    %rdx,%rax
    670e:	48 29 c8             	sub    %rcx,%rax
    6711:	48 c1 f8 03          	sar    $0x3,%rax
    6715:	48 89 c2             	mov    %rax,%rdx
    6718:	48 b8 a3 8b 2e ba e8 	movabs $0x2e8ba2e8ba2e8ba3,%rax
    671f:	a2 8b 2e 
    6722:	48 0f af c2          	imul   %rdx,%rax
    6726:	5d                   	pop    %rbp
    6727:	c3                   	ret    

0000000000006728 <_ZNSt6vectorI12netlist_elemSaIS0_EE17_M_default_appendEm>:
    6728:	f3 0f 1e fa          	endbr64 
    672c:	55                   	push   %rbp
    672d:	48 89 e5             	mov    %rsp,%rbp
    6730:	48 83 ec 40          	sub    $0x40,%rsp
    6734:	48 89 7d c8          	mov    %rdi,-0x38(%rbp)
    6738:	48 89 75 c0          	mov    %rsi,-0x40(%rbp)
    673c:	48 83 7d c0 00       	cmpq   $0x0,-0x40(%rbp)
    6741:	0f 84 58 02 00 00    	je     699f <_ZNSt6vectorI12netlist_elemSaIS0_EE17_M_default_appendEm+0x277>
    6747:	48 8b 45 c8          	mov    -0x38(%rbp),%rax
    674b:	48 89 c7             	mov    %rax,%rdi
    674e:	e8 9d ff ff ff       	call   66f0 <_ZNKSt6vectorI12netlist_elemSaIS0_EE4sizeEv>
    6753:	48 89 45 d8          	mov    %rax,-0x28(%rbp)
    6757:	48 8b 45 c8          	mov    -0x38(%rbp),%rax
    675b:	48 8b 50 10          	mov    0x10(%rax),%rdx
    675f:	48 8b 45 c8          	mov    -0x38(%rbp),%rax
    6763:	48 8b 48 08          	mov    0x8(%rax),%rcx
    6767:	48 89 d0             	mov    %rdx,%rax
    676a:	48 29 c8             	sub    %rcx,%rax
    676d:	48 c1 f8 03          	sar    $0x3,%rax
    6771:	48 89 c2             	mov    %rax,%rdx
    6774:	48 b8 a3 8b 2e ba e8 	movabs $0x2e8ba2e8ba2e8ba3,%rax
    677b:	a2 8b 2e 
    677e:	48 0f af c2          	imul   %rdx,%rax
    6782:	48 89 45 e0          	mov    %rax,-0x20(%rbp)
    6786:	48 8b 45 c8          	mov    -0x38(%rbp),%rax
    678a:	48 89 c7             	mov    %rax,%rdi
    678d:	e8 fe 14 00 00       	call   7c90 <_ZNKSt6vectorI12netlist_elemSaIS0_EE8max_sizeEv>
    6792:	48 39 45 d8          	cmp    %rax,-0x28(%rbp)
    6796:	77 16                	ja     67ae <_ZNSt6vectorI12netlist_elemSaIS0_EE17_M_default_appendEm+0x86>
    6798:	48 8b 45 c8          	mov    -0x38(%rbp),%rax
    679c:	48 89 c7             	mov    %rax,%rdi
    679f:	e8 ec 14 00 00       	call   7c90 <_ZNKSt6vectorI12netlist_elemSaIS0_EE8max_sizeEv>
    67a4:	48 2b 45 d8          	sub    -0x28(%rbp),%rax
    67a8:	48 39 45 e0          	cmp    %rax,-0x20(%rbp)
    67ac:	76 07                	jbe    67b5 <_ZNSt6vectorI12netlist_elemSaIS0_EE17_M_default_appendEm+0x8d>
    67ae:	b8 01 00 00 00       	mov    $0x1,%eax
    67b3:	eb 05                	jmp    67ba <_ZNSt6vectorI12netlist_elemSaIS0_EE17_M_default_appendEm+0x92>
    67b5:	b8 00 00 00 00       	mov    $0x0,%eax
    67ba:	84 c0                	test   %al,%al
    67bc:	48 8b 45 e0          	mov    -0x20(%rbp),%rax
    67c0:	48 3b 45 c0          	cmp    -0x40(%rbp),%rax
    67c4:	72 33                	jb     67f9 <_ZNSt6vectorI12netlist_elemSaIS0_EE17_M_default_appendEm+0xd1>
    67c6:	48 8b 45 c8          	mov    -0x38(%rbp),%rax
    67ca:	48 89 c7             	mov    %rax,%rdi
    67cd:	e8 f8 d3 ff ff       	call   3bca <_ZNSt12_Vector_baseI12netlist_elemSaIS0_EE19_M_get_Tp_allocatorEv>
    67d2:	48 89 c2             	mov    %rax,%rdx
    67d5:	48 8b 45 c8          	mov    -0x38(%rbp),%rax
    67d9:	48 8b 40 08          	mov    0x8(%rax),%rax
    67dd:	48 8b 4d c0          	mov    -0x40(%rbp),%rcx
    67e1:	48 89 ce             	mov    %rcx,%rsi
    67e4:	48 89 c7             	mov    %rax,%rdi
    67e7:	e8 ca 14 00 00       	call   7cb6 <_ZSt27__uninitialized_default_n_aIP12netlist_elemmS0_ET_S2_T0_RSaIT1_E>
    67ec:	48 8b 55 c8          	mov    -0x38(%rbp),%rdx
    67f0:	48 89 42 08          	mov    %rax,0x8(%rdx)
    67f4:	e9 a6 01 00 00       	jmp    699f <_ZNSt6vectorI12netlist_elemSaIS0_EE17_M_default_appendEm+0x277>
    67f9:	48 8b 4d c0          	mov    -0x40(%rbp),%rcx
    67fd:	48 8b 45 c8          	mov    -0x38(%rbp),%rax
    6801:	48 8d 15 e1 69 00 00 	lea    0x69e1(%rip),%rdx        # d1e9 <_ZL19NO_MATCHING_ELEMENT+0x59>
    6808:	48 89 ce             	mov    %rcx,%rsi
    680b:	48 89 c7             	mov    %rax,%rdi
    680e:	e8 d1 14 00 00       	call   7ce4 <_ZNKSt6vectorI12netlist_elemSaIS0_EE12_M_check_lenEmPKc>
    6813:	48 89 45 e8          	mov    %rax,-0x18(%rbp)
    6817:	48 8b 45 c8          	mov    -0x38(%rbp),%rax
    681b:	48 8b 55 e8          	mov    -0x18(%rbp),%rdx
    681f:	48 89 d6             	mov    %rdx,%rsi
    6822:	48 89 c7             	mov    %rax,%rdi
    6825:	e8 aa 15 00 00       	call   7dd4 <_ZNSt12_Vector_baseI12netlist_elemSaIS0_EE11_M_allocateEm>
    682a:	48 89 45 f0          	mov    %rax,-0x10(%rbp)
    682e:	48 c7 45 f8 00 00 00 	movq   $0x0,-0x8(%rbp)
    6835:	00 
    6836:	48 8b 45 c8          	mov    -0x38(%rbp),%rax
    683a:	48 89 c7             	mov    %rax,%rdi
    683d:	e8 88 d3 ff ff       	call   3bca <_ZNSt12_Vector_baseI12netlist_elemSaIS0_EE19_M_get_Tp_allocatorEv>
    6842:	48 89 c6             	mov    %rax,%rsi
    6845:	48 8b 55 d8          	mov    -0x28(%rbp),%rdx
    6849:	48 89 d0             	mov    %rdx,%rax
    684c:	48 c1 e0 02          	shl    $0x2,%rax
    6850:	48 01 d0             	add    %rdx,%rax
    6853:	48 01 c0             	add    %rax,%rax
    6856:	48 01 d0             	add    %rdx,%rax
    6859:	48 c1 e0 03          	shl    $0x3,%rax
    685d:	48 89 c2             	mov    %rax,%rdx
    6860:	48 8b 45 f0          	mov    -0x10(%rbp),%rax
    6864:	48 8d 0c 02          	lea    (%rdx,%rax,1),%rcx
    6868:	48 8b 45 c0          	mov    -0x40(%rbp),%rax
    686c:	48 89 f2             	mov    %rsi,%rdx
    686f:	48 89 c6             	mov    %rax,%rsi
    6872:	48 89 cf             	mov    %rcx,%rdi
    6875:	e8 3c 14 00 00       	call   7cb6 <_ZSt27__uninitialized_default_n_aIP12netlist_elemmS0_ET_S2_T0_RSaIT1_E>
    687a:	48 8b 55 d8          	mov    -0x28(%rbp),%rdx
    687e:	48 89 d0             	mov    %rdx,%rax
    6881:	48 c1 e0 02          	shl    $0x2,%rax
    6885:	48 01 d0             	add    %rdx,%rax
    6888:	48 01 c0             	add    %rax,%rax
    688b:	48 01 d0             	add    %rdx,%rax
    688e:	48 c1 e0 03          	shl    $0x3,%rax
    6892:	48 89 c2             	mov    %rax,%rdx
    6895:	48 8b 45 f0          	mov    -0x10(%rbp),%rax
    6899:	48 01 d0             	add    %rdx,%rax
    689c:	48 89 45 f8          	mov    %rax,-0x8(%rbp)
    68a0:	48 8b 45 c8          	mov    -0x38(%rbp),%rax
    68a4:	48 89 c7             	mov    %rax,%rdi
    68a7:	e8 1e d3 ff ff       	call   3bca <_ZNSt12_Vector_baseI12netlist_elemSaIS0_EE19_M_get_Tp_allocatorEv>
    68ac:	48 89 c1             	mov    %rax,%rcx
    68af:	48 8b 45 c8          	mov    -0x38(%rbp),%rax
    68b3:	48 8b 70 08          	mov    0x8(%rax),%rsi
    68b7:	48 8b 45 c8          	mov    -0x38(%rbp),%rax
    68bb:	48 8b 00             	mov    (%rax),%rax
    68be:	48 8b 55 f0          	mov    -0x10(%rbp),%rdx
    68c2:	48 89 c7             	mov    %rax,%rdi
    68c5:	e8 41 15 00 00       	call   7e0b <_ZSt34__uninitialized_move_if_noexcept_aIP12netlist_elemS1_SaIS0_EET0_T_S4_S3_RT1_>
    68ca:	48 8b 45 c8          	mov    -0x38(%rbp),%rax
    68ce:	48 89 c7             	mov    %rax,%rdi
    68d1:	e8 f4 d2 ff ff       	call   3bca <_ZNSt12_Vector_baseI12netlist_elemSaIS0_EE19_M_get_Tp_allocatorEv>
    68d6:	48 89 c2             	mov    %rax,%rdx
    68d9:	48 8b 45 c8          	mov    -0x38(%rbp),%rax
    68dd:	48 8b 48 08          	mov    0x8(%rax),%rcx
    68e1:	48 8b 45 c8          	mov    -0x38(%rbp),%rax
    68e5:	48 8b 00             	mov    (%rax),%rax
    68e8:	48 89 ce             	mov    %rcx,%rsi
    68eb:	48 89 c7             	mov    %rax,%rdi
    68ee:	e8 e9 d2 ff ff       	call   3bdc <_ZSt8_DestroyIP12netlist_elemS0_EvT_S2_RSaIT0_E>
    68f3:	48 8b 45 c8          	mov    -0x38(%rbp),%rax
    68f7:	48 8b 55 c8          	mov    -0x38(%rbp),%rdx
    68fb:	48 8b 4a 10          	mov    0x10(%rdx),%rcx
    68ff:	48 8b 55 c8          	mov    -0x38(%rbp),%rdx
    6903:	48 8b 32             	mov    (%rdx),%rsi
    6906:	48 29 f1             	sub    %rsi,%rcx
    6909:	48 89 ca             	mov    %rcx,%rdx
    690c:	48 89 d1             	mov    %rdx,%rcx
    690f:	48 c1 f9 03          	sar    $0x3,%rcx
    6913:	48 ba a3 8b 2e ba e8 	movabs $0x2e8ba2e8ba2e8ba3,%rdx
    691a:	a2 8b 2e 
    691d:	48 0f af d1          	imul   %rcx,%rdx
    6921:	48 89 d6             	mov    %rdx,%rsi
    6924:	48 8b 55 c8          	mov    -0x38(%rbp),%rdx
    6928:	48 8b 0a             	mov    (%rdx),%rcx
    692b:	48 89 f2             	mov    %rsi,%rdx
    692e:	48 89 ce             	mov    %rcx,%rsi
    6931:	48 89 c7             	mov    %rax,%rdi
    6934:	e8 77 d6 ff ff       	call   3fb0 <_ZNSt12_Vector_baseI12netlist_elemSaIS0_EE13_M_deallocateEPS0_m>
    6939:	48 8b 45 c8          	mov    -0x38(%rbp),%rax
    693d:	48 8b 55 f0          	mov    -0x10(%rbp),%rdx
    6941:	48 89 10             	mov    %rdx,(%rax)
    6944:	48 8b 55 d8          	mov    -0x28(%rbp),%rdx
    6948:	48 8b 45 c0          	mov    -0x40(%rbp),%rax
    694c:	48 01 c2             	add    %rax,%rdx
    694f:	48 89 d0             	mov    %rdx,%rax
    6952:	48 c1 e0 02          	shl    $0x2,%rax
    6956:	48 01 d0             	add    %rdx,%rax
    6959:	48 01 c0             	add    %rax,%rax
    695c:	48 01 d0             	add    %rdx,%rax
    695f:	48 c1 e0 03          	shl    $0x3,%rax
    6963:	48 89 c2             	mov    %rax,%rdx
    6966:	48 8b 45 f0          	mov    -0x10(%rbp),%rax
    696a:	48 01 c2             	add    %rax,%rdx
    696d:	48 8b 45 c8          	mov    -0x38(%rbp),%rax
    6971:	48 89 50 08          	mov    %rdx,0x8(%rax)
    6975:	48 8b 55 e8          	mov    -0x18(%rbp),%rdx
    6979:	48 89 d0             	mov    %rdx,%rax
    697c:	48 c1 e0 02          	shl    $0x2,%rax
    6980:	48 01 d0             	add    %rdx,%rax
    6983:	48 01 c0             	add    %rax,%rax
    6986:	48 01 d0             	add    %rdx,%rax
    6989:	48 c1 e0 03          	shl    $0x3,%rax
    698d:	48 89 c2             	mov    %rax,%rdx
    6990:	48 8b 45 f0          	mov    -0x10(%rbp),%rax
    6994:	48 01 c2             	add    %rax,%rdx
    6997:	48 8b 45 c8          	mov    -0x38(%rbp),%rax
    699b:	48 89 50 10          	mov    %rdx,0x10(%rax)
    699f:	90                   	nop
    69a0:	c9                   	leave  
    69a1:	c3                   	ret    

00000000000069a2 <_ZNSt6vectorI12netlist_elemSaIS0_EE15_M_erase_at_endEPS0_>:
    69a2:	f3 0f 1e fa          	endbr64 
    69a6:	55                   	push   %rbp
    69a7:	48 89 e5             	mov    %rsp,%rbp
    69aa:	48 83 ec 20          	sub    $0x20,%rsp
    69ae:	48 89 7d e8          	mov    %rdi,-0x18(%rbp)
    69b2:	48 89 75 e0          	mov    %rsi,-0x20(%rbp)
    69b6:	48 8b 45 e8          	mov    -0x18(%rbp),%rax
    69ba:	48 8b 40 08          	mov    0x8(%rax),%rax
    69be:	48 2b 45 e0          	sub    -0x20(%rbp),%rax
    69c2:	48 c1 f8 03          	sar    $0x3,%rax
    69c6:	48 89 c2             	mov    %rax,%rdx
    69c9:	48 b8 a3 8b 2e ba e8 	movabs $0x2e8ba2e8ba2e8ba3,%rax
    69d0:	a2 8b 2e 
    69d3:	48 0f af c2          	imul   %rdx,%rax
    69d7:	48 89 45 f8          	mov    %rax,-0x8(%rbp)
    69db:	48 83 7d f8 00       	cmpq   $0x0,-0x8(%rbp)
    69e0:	74 32                	je     6a14 <_ZNSt6vectorI12netlist_elemSaIS0_EE15_M_erase_at_endEPS0_+0x72>
    69e2:	48 8b 45 e8          	mov    -0x18(%rbp),%rax
    69e6:	48 89 c7             	mov    %rax,%rdi
    69e9:	e8 dc d1 ff ff       	call   3bca <_ZNSt12_Vector_baseI12netlist_elemSaIS0_EE19_M_get_Tp_allocatorEv>
    69ee:	48 89 c2             	mov    %rax,%rdx
    69f1:	48 8b 45 e8          	mov    -0x18(%rbp),%rax
    69f5:	48 8b 48 08          	mov    0x8(%rax),%rcx
    69f9:	48 8b 45 e0          	mov    -0x20(%rbp),%rax
    69fd:	48 89 ce             	mov    %rcx,%rsi
    6a00:	48 89 c7             	mov    %rax,%rdi
    6a03:	e8 d4 d1 ff ff       	call   3bdc <_ZSt8_DestroyIP12netlist_elemS0_EvT_S2_RSaIT0_E>
    6a08:	48 8b 45 e8          	mov    -0x18(%rbp),%rax
    6a0c:	48 8b 55 e0          	mov    -0x20(%rbp),%rdx
    6a10:	48 89 50 08          	mov    %rdx,0x8(%rax)
    6a14:	90                   	nop
    6a15:	c9                   	leave  
    6a16:	c3                   	ret    
    6a17:	90                   	nop

0000000000006a18 <_ZN9__gnu_cxx13new_allocatorI10location_tEC1Ev>:
    6a18:	f3 0f 1e fa          	endbr64 
    6a1c:	55                   	push   %rbp
    6a1d:	48 89 e5             	mov    %rsp,%rbp
    6a20:	48 89 7d f8          	mov    %rdi,-0x8(%rbp)
    6a24:	90                   	nop
    6a25:	5d                   	pop    %rbp
    6a26:	c3                   	ret    

0000000000006a27 <_ZNSt6vectorI10location_tSaIS0_EE17_S_check_init_lenEmRKS1_>:
    6a27:	f3 0f 1e fa          	endbr64 
    6a2b:	55                   	push   %rbp
    6a2c:	48 89 e5             	mov    %rsp,%rbp
    6a2f:	53                   	push   %rbx
    6a30:	48 83 ec 28          	sub    $0x28,%rsp
    6a34:	48 89 7d d8          	mov    %rdi,-0x28(%rbp)
    6a38:	48 89 75 d0          	mov    %rsi,-0x30(%rbp)
    6a3c:	64 48 8b 04 25 28 00 	mov    %fs:0x28,%rax
    6a43:	00 00 
    6a45:	48 89 45 e8          	mov    %rax,-0x18(%rbp)
    6a49:	31 c0                	xor    %eax,%eax
    6a4b:	48 8b 55 d0          	mov    -0x30(%rbp),%rdx
    6a4f:	48 8d 45 e7          	lea    -0x19(%rbp),%rax
    6a53:	48 89 d6             	mov    %rdx,%rsi
    6a56:	48 89 c7             	mov    %rax,%rdi
    6a59:	e8 6e 14 00 00       	call   7ecc <_ZNSaI10location_tEC1ERKS0_>
    6a5e:	48 8d 45 e7          	lea    -0x19(%rbp),%rax
    6a62:	48 89 c7             	mov    %rax,%rdi
    6a65:	e8 f8 13 00 00       	call   7e62 <_ZNSt6vectorI10location_tSaIS0_EE11_S_max_sizeERKS1_>
    6a6a:	48 39 45 d8          	cmp    %rax,-0x28(%rbp)
    6a6e:	0f 97 c3             	seta   %bl
    6a71:	48 8d 45 e7          	lea    -0x19(%rbp),%rax
    6a75:	48 89 c7             	mov    %rax,%rdi
    6a78:	e8 45 e2 ff ff       	call   4cc2 <_ZNSaI10location_tED1Ev>
    6a7d:	84 db                	test   %bl,%bl
    6a7f:	74 0f                	je     6a90 <_ZNSt6vectorI10location_tSaIS0_EE17_S_check_init_lenEmRKS1_+0x69>
    6a81:	48 8d 05 80 67 00 00 	lea    0x6780(%rip),%rax        # d208 <_ZL19NO_MATCHING_ELEMENT+0x78>
    6a88:	48 89 c7             	mov    %rax,%rdi
    6a8b:	e8 f0 b9 ff ff       	call   2480 <_ZSt20__throw_length_errorPKc@plt>
    6a90:	48 8b 45 d8          	mov    -0x28(%rbp),%rax
    6a94:	48 8b 55 e8          	mov    -0x18(%rbp),%rdx
    6a98:	64 48 2b 14 25 28 00 	sub    %fs:0x28,%rdx
    6a9f:	00 00 
    6aa1:	74 05                	je     6aa8 <_ZNSt6vectorI10location_tSaIS0_EE17_S_check_init_lenEmRKS1_+0x81>
    6aa3:	e8 58 bb ff ff       	call   2600 <__stack_chk_fail@plt>
    6aa8:	48 8b 5d f8          	mov    -0x8(%rbp),%rbx
    6aac:	c9                   	leave  
    6aad:	c3                   	ret    

0000000000006aae <_ZNSt12_Vector_baseI10location_tSaIS0_EEC1EmRKS1_>:
    6aae:	f3 0f 1e fa          	endbr64 
    6ab2:	55                   	push   %rbp
    6ab3:	48 89 e5             	mov    %rsp,%rbp
    6ab6:	48 83 ec 20          	sub    $0x20,%rsp
    6aba:	48 89 7d f8          	mov    %rdi,-0x8(%rbp)
    6abe:	48 89 75 f0          	mov    %rsi,-0x10(%rbp)
    6ac2:	48 89 55 e8          	mov    %rdx,-0x18(%rbp)
    6ac6:	48 8b 45 f8          	mov    -0x8(%rbp),%rax
    6aca:	48 8b 55 e8          	mov    -0x18(%rbp),%rdx
    6ace:	48 89 d6             	mov    %rdx,%rsi
    6ad1:	48 89 c7             	mov    %rax,%rdi
    6ad4:	e8 1d 14 00 00       	call   7ef6 <_ZNSt12_Vector_baseI10location_tSaIS0_EE12_Vector_implC1ERKS1_>
    6ad9:	48 8b 55 f0          	mov    -0x10(%rbp),%rdx
    6add:	48 8b 45 f8          	mov    -0x8(%rbp),%rax
    6ae1:	48 89 d6             	mov    %rdx,%rsi
    6ae4:	48 89 c7             	mov    %rax,%rdi
    6ae7:	e8 40 14 00 00       	call   7f2c <_ZNSt12_Vector_baseI10location_tSaIS0_EE17_M_create_storageEm>
    6aec:	90                   	nop
    6aed:	c9                   	leave  
    6aee:	c3                   	ret    
    6aef:	90                   	nop

0000000000006af0 <_ZNSt6vectorI10location_tSaIS0_EE21_M_default_initializeEm>:
    6af0:	f3 0f 1e fa          	endbr64 
    6af4:	55                   	push   %rbp
    6af5:	48 89 e5             	mov    %rsp,%rbp
    6af8:	48 83 ec 10          	sub    $0x10,%rsp
    6afc:	48 89 7d f8          	mov    %rdi,-0x8(%rbp)
    6b00:	48 89 75 f0          	mov    %rsi,-0x10(%rbp)
    6b04:	48 8b 45 f8          	mov    -0x8(%rbp),%rax
    6b08:	48 89 c7             	mov    %rax,%rdi
    6b0b:	e8 6c e0 ff ff       	call   4b7c <_ZNSt12_Vector_baseI10location_tSaIS0_EE19_M_get_Tp_allocatorEv>
    6b10:	48 89 c2             	mov    %rax,%rdx
    6b13:	48 8b 45 f8          	mov    -0x8(%rbp),%rax
    6b17:	48 8b 00             	mov    (%rax),%rax
    6b1a:	48 8b 4d f0          	mov    -0x10(%rbp),%rcx
    6b1e:	48 89 ce             	mov    %rcx,%rsi
    6b21:	48 89 c7             	mov    %rax,%rdi
    6b24:	e8 5d 14 00 00       	call   7f86 <_ZSt27__uninitialized_default_n_aIP10location_tmS0_ET_S2_T0_RSaIT1_E>
    6b29:	48 8b 55 f8          	mov    -0x8(%rbp),%rdx
    6b2d:	48 89 42 08          	mov    %rax,0x8(%rdx)
    6b31:	90                   	nop
    6b32:	c9                   	leave  
    6b33:	c3                   	ret    

0000000000006b34 <_ZNKSt6vectorIS_I10location_tSaIS0_EESaIS2_EE4sizeEv>:
    6b34:	f3 0f 1e fa          	endbr64 
    6b38:	55                   	push   %rbp
    6b39:	48 89 e5             	mov    %rsp,%rbp
    6b3c:	48 89 7d f8          	mov    %rdi,-0x8(%rbp)
    6b40:	48 8b 45 f8          	mov    -0x8(%rbp),%rax
    6b44:	48 8b 50 08          	mov    0x8(%rax),%rdx
    6b48:	48 8b 45 f8          	mov    -0x8(%rbp),%rax
    6b4c:	48 8b 08             	mov    (%rax),%rcx
    6b4f:	48 89 d0             	mov    %rdx,%rax
    6b52:	48 29 c8             	sub    %rcx,%rax
    6b55:	48 c1 f8 03          	sar    $0x3,%rax
    6b59:	48 89 c2             	mov    %rax,%rdx
    6b5c:	48 b8 ab aa aa aa aa 	movabs $0xaaaaaaaaaaaaaaab,%rax
    6b63:	aa aa aa 
    6b66:	48 0f af c2          	imul   %rdx,%rax
    6b6a:	5d                   	pop    %rbp
    6b6b:	c3                   	ret    

0000000000006b6c <_ZNSt6vectorIS_I10location_tSaIS0_EESaIS2_EE14_M_fill_insertEN9__gnu_cxx17__normal_iteratorIPS2_S4_EEmRKS2_>:
    6b6c:	f3 0f 1e fa          	endbr64 
    6b70:	55                   	push   %rbp
    6b71:	48 89 e5             	mov    %rsp,%rbp
    6b74:	41 54                	push   %r12
    6b76:	53                   	push   %rbx
    6b77:	48 81 ec 90 00 00 00 	sub    $0x90,%rsp
    6b7e:	48 89 bd 78 ff ff ff 	mov    %rdi,-0x88(%rbp)
    6b85:	48 89 b5 70 ff ff ff 	mov    %rsi,-0x90(%rbp)
    6b8c:	48 89 95 68 ff ff ff 	mov    %rdx,-0x98(%rbp)
    6b93:	48 89 8d 60 ff ff ff 	mov    %rcx,-0xa0(%rbp)
    6b9a:	64 48 8b 04 25 28 00 	mov    %fs:0x28,%rax
    6ba1:	00 00 
    6ba3:	48 89 45 e8          	mov    %rax,-0x18(%rbp)
    6ba7:	31 c0                	xor    %eax,%eax
    6ba9:	48 83 bd 68 ff ff ff 	cmpq   $0x0,-0x98(%rbp)
    6bb0:	00 
    6bb1:	0f 84 d9 04 00 00    	je     7090 <_ZNSt6vectorIS_I10location_tSaIS0_EESaIS2_EE14_M_fill_insertEN9__gnu_cxx17__normal_iteratorIPS2_S4_EEmRKS2_+0x524>
    6bb7:	48 8b 85 78 ff ff ff 	mov    -0x88(%rbp),%rax
    6bbe:	48 8b 50 10          	mov    0x10(%rax),%rdx
    6bc2:	48 8b 85 78 ff ff ff 	mov    -0x88(%rbp),%rax
    6bc9:	48 8b 48 08          	mov    0x8(%rax),%rcx
    6bcd:	48 89 d0             	mov    %rdx,%rax
    6bd0:	48 29 c8             	sub    %rcx,%rax
    6bd3:	48 c1 f8 03          	sar    $0x3,%rax
    6bd7:	48 89 c2             	mov    %rax,%rdx
    6bda:	48 b8 ab aa aa aa aa 	movabs $0xaaaaaaaaaaaaaaab,%rax
    6be1:	aa aa aa 
    6be4:	48 0f af c2          	imul   %rdx,%rax
    6be8:	48 39 85 68 ff ff ff 	cmp    %rax,-0x98(%rbp)
    6bef:	0f 87 77 02 00 00    	ja     6e6c <_ZNSt6vectorIS_I10location_tSaIS0_EESaIS2_EE14_M_fill_insertEN9__gnu_cxx17__normal_iteratorIPS2_S4_EEmRKS2_+0x300>
    6bf5:	48 8b 95 60 ff ff ff 	mov    -0xa0(%rbp),%rdx
    6bfc:	48 8b 8d 78 ff ff ff 	mov    -0x88(%rbp),%rcx
    6c03:	48 8d 45 c0          	lea    -0x40(%rbp),%rax
    6c07:	48 89 ce             	mov    %rcx,%rsi
    6c0a:	48 89 c7             	mov    %rax,%rdi
    6c0d:	e8 a2 13 00 00       	call   7fb4 <_ZNSt6vectorIS_I10location_tSaIS0_EESaIS2_EE16_Temporary_valueC1IJRKS2_EEEPS4_DpOT_>
    6c12:	48 8d 45 c0          	lea    -0x40(%rbp),%rax
    6c16:	48 89 c7             	mov    %rax,%rdi
    6c19:	e8 28 14 00 00       	call   8046 <_ZNSt6vectorIS_I10location_tSaIS0_EESaIS2_EE16_Temporary_value6_M_valEv>
    6c1e:	48 89 45 a8          	mov    %rax,-0x58(%rbp)
    6c22:	48 8b 85 78 ff ff ff 	mov    -0x88(%rbp),%rax
    6c29:	48 89 c7             	mov    %rax,%rdi
    6c2c:	e8 81 04 00 00       	call   70b2 <_ZNSt6vectorIS_I10location_tSaIS0_EESaIS2_EE3endEv>
    6c31:	48 89 45 80          	mov    %rax,-0x80(%rbp)
    6c35:	48 8d 95 70 ff ff ff 	lea    -0x90(%rbp),%rdx
    6c3c:	48 8d 45 80          	lea    -0x80(%rbp),%rax
    6c40:	48 89 d6             	mov    %rdx,%rsi
    6c43:	48 89 c7             	mov    %rax,%rdi
    6c46:	e8 19 14 00 00       	call   8064 <_ZN9__gnu_cxxmiIPSt6vectorI10location_tSaIS2_EES1_IS4_SaIS4_EEEENS_17__normal_iteratorIT_T0_E15difference_typeERKSB_SE_>
    6c4b:	48 89 45 b0          	mov    %rax,-0x50(%rbp)
    6c4f:	48 8b 85 78 ff ff ff 	mov    -0x88(%rbp),%rax
    6c56:	48 8b 40 08          	mov    0x8(%rax),%rax
    6c5a:	48 89 45 b8          	mov    %rax,-0x48(%rbp)
    6c5e:	48 8b 45 b0          	mov    -0x50(%rbp),%rax
    6c62:	48 3b 85 68 ff ff ff 	cmp    -0x98(%rbp),%rax
    6c69:	0f 86 19 01 00 00    	jbe    6d88 <_ZNSt6vectorIS_I10location_tSaIS0_EESaIS2_EE14_M_fill_insertEN9__gnu_cxx17__normal_iteratorIPS2_S4_EEmRKS2_+0x21c>
    6c6f:	48 8b 85 78 ff ff ff 	mov    -0x88(%rbp),%rax
    6c76:	48 89 c7             	mov    %rax,%rdi
    6c79:	e8 0e d0 ff ff       	call   3c8c <_ZNSt12_Vector_baseISt6vectorI10location_tSaIS1_EESaIS3_EE19_M_get_Tp_allocatorEv>
    6c7e:	48 89 c7             	mov    %rax,%rdi
    6c81:	48 8b 85 78 ff ff ff 	mov    -0x88(%rbp),%rax
    6c88:	48 8b 50 08          	mov    0x8(%rax),%rdx
    6c8c:	48 8b 85 78 ff ff ff 	mov    -0x88(%rbp),%rax
    6c93:	48 8b 70 08          	mov    0x8(%rax),%rsi
    6c97:	48 8b 85 78 ff ff ff 	mov    -0x88(%rbp),%rax
    6c9e:	4c 8b 40 08          	mov    0x8(%rax),%r8
    6ca2:	48 8b 8d 68 ff ff ff 	mov    -0x98(%rbp),%rcx
    6ca9:	48 89 c8             	mov    %rcx,%rax
    6cac:	48 01 c0             	add    %rax,%rax
    6caf:	48 01 c8             	add    %rcx,%rax
    6cb2:	48 c1 e0 03          	shl    $0x3,%rax
    6cb6:	48 f7 d8             	neg    %rax
    6cb9:	4c 01 c0             	add    %r8,%rax
    6cbc:	48 89 f9             	mov    %rdi,%rcx
    6cbf:	48 89 c7             	mov    %rax,%rdi
    6cc2:	e8 f1 13 00 00       	call   80b8 <_ZSt22__uninitialized_move_aIPSt6vectorI10location_tSaIS1_EES4_SaIS3_EET0_T_S7_S6_RT1_>
    6cc7:	48 8b 85 78 ff ff ff 	mov    -0x88(%rbp),%rax
    6cce:	48 8b 48 08          	mov    0x8(%rax),%rcx
    6cd2:	48 8b 95 68 ff ff ff 	mov    -0x98(%rbp),%rdx
    6cd9:	48 89 d0             	mov    %rdx,%rax
    6cdc:	48 01 c0             	add    %rax,%rax
    6cdf:	48 01 d0             	add    %rdx,%rax
    6ce2:	48 c1 e0 03          	shl    $0x3,%rax
    6ce6:	48 8d 14 01          	lea    (%rcx,%rax,1),%rdx
    6cea:	48 8b 85 78 ff ff ff 	mov    -0x88(%rbp),%rax
    6cf1:	48 89 50 08          	mov    %rdx,0x8(%rax)
    6cf5:	48 8b 95 68 ff ff ff 	mov    -0x98(%rbp),%rdx
    6cfc:	48 89 d0             	mov    %rdx,%rax
    6cff:	48 01 c0             	add    %rax,%rax
    6d02:	48 01 d0             	add    %rdx,%rax
    6d05:	48 c1 e0 03          	shl    $0x3,%rax
    6d09:	48 f7 d8             	neg    %rax
    6d0c:	48 89 c2             	mov    %rax,%rdx
    6d0f:	48 8b 45 b8          	mov    -0x48(%rbp),%rax
    6d13:	48 8d 1c 02          	lea    (%rdx,%rax,1),%rbx
    6d17:	48 8d 85 70 ff ff ff 	lea    -0x90(%rbp),%rax
    6d1e:	48 89 c7             	mov    %rax,%rdi
    6d21:	e8 ea 13 00 00       	call   8110 <_ZNK9__gnu_cxx17__normal_iteratorIPSt6vectorI10location_tSaIS2_EES1_IS4_SaIS4_EEE4baseEv>
    6d26:	48 8b 00             	mov    (%rax),%rax
    6d29:	48 8b 55 b8          	mov    -0x48(%rbp),%rdx
    6d2d:	48 89 de             	mov    %rbx,%rsi
    6d30:	48 89 c7             	mov    %rax,%rdi
    6d33:	e8 ea 13 00 00       	call   8122 <_ZSt13move_backwardIPSt6vectorI10location_tSaIS1_EES4_ET0_T_S6_S5_>
    6d38:	48 8d 85 70 ff ff ff 	lea    -0x90(%rbp),%rax
    6d3f:	48 89 c7             	mov    %rax,%rdi
    6d42:	e8 c9 13 00 00       	call   8110 <_ZNK9__gnu_cxx17__normal_iteratorIPSt6vectorI10location_tSaIS2_EES1_IS4_SaIS4_EEE4baseEv>
    6d47:	48 8b 08             	mov    (%rax),%rcx
    6d4a:	48 8b 95 68 ff ff ff 	mov    -0x98(%rbp),%rdx
    6d51:	48 89 d0             	mov    %rdx,%rax
    6d54:	48 01 c0             	add    %rax,%rax
    6d57:	48 01 d0             	add    %rdx,%rax
    6d5a:	48 c1 e0 03          	shl    $0x3,%rax
    6d5e:	48 8d 1c 01          	lea    (%rcx,%rax,1),%rbx
    6d62:	48 8d 85 70 ff ff ff 	lea    -0x90(%rbp),%rax
    6d69:	48 89 c7             	mov    %rax,%rdi
    6d6c:	e8 9f 13 00 00       	call   8110 <_ZNK9__gnu_cxx17__normal_iteratorIPSt6vectorI10location_tSaIS2_EES1_IS4_SaIS4_EEE4baseEv>
    6d71:	48 8b 00             	mov    (%rax),%rax
    6d74:	48 8b 55 a8          	mov    -0x58(%rbp),%rdx
    6d78:	48 89 de             	mov    %rbx,%rsi
    6d7b:	48 89 c7             	mov    %rax,%rdi
    6d7e:	e8 ee 13 00 00       	call   8171 <_ZSt4fillIPSt6vectorI10location_tSaIS1_EES3_EvT_S5_RKT0_>
    6d83:	e9 d3 00 00 00       	jmp    6e5b <_ZNSt6vectorIS_I10location_tSaIS0_EESaIS2_EE14_M_fill_insertEN9__gnu_cxx17__normal_iteratorIPS2_S4_EEmRKS2_+0x2ef>
    6d88:	48 8b 85 78 ff ff ff 	mov    -0x88(%rbp),%rax
    6d8f:	48 89 c7             	mov    %rax,%rdi
    6d92:	e8 f5 ce ff ff       	call   3c8c <_ZNSt12_Vector_baseISt6vectorI10location_tSaIS1_EESaIS3_EE19_M_get_Tp_allocatorEv>
    6d97:	48 89 c1             	mov    %rax,%rcx
    6d9a:	48 8b 85 68 ff ff ff 	mov    -0x98(%rbp),%rax
    6da1:	48 2b 45 b0          	sub    -0x50(%rbp),%rax
    6da5:	48 89 c6             	mov    %rax,%rsi
    6da8:	48 8b 85 78 ff ff ff 	mov    -0x88(%rbp),%rax
    6daf:	48 8b 40 08          	mov    0x8(%rax),%rax
    6db3:	48 8b 55 a8          	mov    -0x58(%rbp),%rdx
    6db7:	48 89 c7             	mov    %rax,%rdi
    6dba:	e8 e4 13 00 00       	call   81a3 <_ZSt24__uninitialized_fill_n_aIPSt6vectorI10location_tSaIS1_EEmS3_S3_ET_S5_T0_RKT1_RSaIT2_E>
    6dbf:	48 8b 95 78 ff ff ff 	mov    -0x88(%rbp),%rdx
    6dc6:	48 89 42 08          	mov    %rax,0x8(%rdx)
    6dca:	48 8b 85 78 ff ff ff 	mov    -0x88(%rbp),%rax
    6dd1:	48 89 c7             	mov    %rax,%rdi
    6dd4:	e8 b3 ce ff ff       	call   3c8c <_ZNSt12_Vector_baseISt6vectorI10location_tSaIS1_EESaIS3_EE19_M_get_Tp_allocatorEv>
    6dd9:	49 89 c4             	mov    %rax,%r12
    6ddc:	48 8b 85 78 ff ff ff 	mov    -0x88(%rbp),%rax
    6de3:	48 8b 58 08          	mov    0x8(%rax),%rbx
    6de7:	48 8d 85 70 ff ff ff 	lea    -0x90(%rbp),%rax
    6dee:	48 89 c7             	mov    %rax,%rdi
    6df1:	e8 1a 13 00 00       	call   8110 <_ZNK9__gnu_cxx17__normal_iteratorIPSt6vectorI10location_tSaIS2_EES1_IS4_SaIS4_EEE4baseEv>
    6df6:	48 8b 00             	mov    (%rax),%rax
    6df9:	48 8b 75 b8          	mov    -0x48(%rbp),%rsi
    6dfd:	4c 89 e1             	mov    %r12,%rcx
    6e00:	48 89 da             	mov    %rbx,%rdx
    6e03:	48 89 c7             	mov    %rax,%rdi
    6e06:	e8 ad 12 00 00       	call   80b8 <_ZSt22__uninitialized_move_aIPSt6vectorI10location_tSaIS1_EES4_SaIS3_EET0_T_S7_S6_RT1_>
    6e0b:	48 8b 85 78 ff ff ff 	mov    -0x88(%rbp),%rax
    6e12:	48 8b 48 08          	mov    0x8(%rax),%rcx
    6e16:	48 8b 55 b0          	mov    -0x50(%rbp),%rdx
    6e1a:	48 89 d0             	mov    %rdx,%rax
    6e1d:	48 01 c0             	add    %rax,%rax
    6e20:	48 01 d0             	add    %rdx,%rax
    6e23:	48 c1 e0 03          	shl    $0x3,%rax
    6e27:	48 8d 14 01          	lea    (%rcx,%rax,1),%rdx
    6e2b:	48 8b 85 78 ff ff ff 	mov    -0x88(%rbp),%rax
    6e32:	48 89 50 08          	mov    %rdx,0x8(%rax)
    6e36:	48 8d 85 70 ff ff ff 	lea    -0x90(%rbp),%rax
    6e3d:	48 89 c7             	mov    %rax,%rdi
    6e40:	e8 cb 12 00 00       	call   8110 <_ZNK9__gnu_cxx17__normal_iteratorIPSt6vectorI10location_tSaIS2_EES1_IS4_SaIS4_EEE4baseEv>
    6e45:	48 8b 00             	mov    (%rax),%rax
    6e48:	48 8b 55 a8          	mov    -0x58(%rbp),%rdx
    6e4c:	48 8b 4d b8          	mov    -0x48(%rbp),%rcx
    6e50:	48 89 ce             	mov    %rcx,%rsi
    6e53:	48 89 c7             	mov    %rax,%rdi
    6e56:	e8 16 13 00 00       	call   8171 <_ZSt4fillIPSt6vectorI10location_tSaIS1_EES3_EvT_S5_RKT0_>
    6e5b:	48 8d 45 c0          	lea    -0x40(%rbp),%rax
    6e5f:	48 89 c7             	mov    %rax,%rdi
    6e62:	e8 ab 11 00 00       	call   8012 <_ZNSt6vectorIS_I10location_tSaIS0_EESaIS2_EE16_Temporary_valueD1Ev>
    6e67:	e9 24 02 00 00       	jmp    7090 <_ZNSt6vectorIS_I10location_tSaIS0_EESaIS2_EE14_M_fill_insertEN9__gnu_cxx17__normal_iteratorIPS2_S4_EEmRKS2_+0x524>
    6e6c:	48 8b 8d 68 ff ff ff 	mov    -0x98(%rbp),%rcx
    6e73:	48 8b 85 78 ff ff ff 	mov    -0x88(%rbp),%rax
    6e7a:	48 8d 15 b8 63 00 00 	lea    0x63b8(%rip),%rdx        # d239 <_ZL19NO_MATCHING_ELEMENT+0xa9>
    6e81:	48 89 ce             	mov    %rcx,%rsi
    6e84:	48 89 c7             	mov    %rax,%rdi
    6e87:	e8 4c 13 00 00       	call   81d8 <_ZNKSt6vectorIS_I10location_tSaIS0_EESaIS2_EE12_M_check_lenEmPKc>
    6e8c:	48 89 45 88          	mov    %rax,-0x78(%rbp)
    6e90:	48 8b 85 78 ff ff ff 	mov    -0x88(%rbp),%rax
    6e97:	48 89 c7             	mov    %rax,%rdi
    6e9a:	e8 29 14 00 00       	call   82c8 <_ZNSt6vectorIS_I10location_tSaIS0_EESaIS2_EE5beginEv>
    6e9f:	48 89 45 80          	mov    %rax,-0x80(%rbp)
    6ea3:	48 8d 55 80          	lea    -0x80(%rbp),%rdx
    6ea7:	48 8d 85 70 ff ff ff 	lea    -0x90(%rbp),%rax
    6eae:	48 89 d6             	mov    %rdx,%rsi
    6eb1:	48 89 c7             	mov    %rax,%rdi
    6eb4:	e8 ab 11 00 00       	call   8064 <_ZN9__gnu_cxxmiIPSt6vectorI10location_tSaIS2_EES1_IS4_SaIS4_EEEENS_17__normal_iteratorIT_T0_E15difference_typeERKSB_SE_>
    6eb9:	48 89 45 90          	mov    %rax,-0x70(%rbp)
    6ebd:	48 8b 85 78 ff ff ff 	mov    -0x88(%rbp),%rax
    6ec4:	48 8b 55 88          	mov    -0x78(%rbp),%rdx
    6ec8:	48 89 d6             	mov    %rdx,%rsi
    6ecb:	48 89 c7             	mov    %rax,%rdi
    6ece:	e8 41 14 00 00       	call   8314 <_ZNSt12_Vector_baseISt6vectorI10location_tSaIS1_EESaIS3_EE11_M_allocateEm>
    6ed3:	48 89 45 98          	mov    %rax,-0x68(%rbp)
    6ed7:	48 8b 45 98          	mov    -0x68(%rbp),%rax
    6edb:	48 89 45 a0          	mov    %rax,-0x60(%rbp)
    6edf:	48 8b 85 78 ff ff ff 	mov    -0x88(%rbp),%rax
    6ee6:	48 89 c7             	mov    %rax,%rdi
    6ee9:	e8 9e cd ff ff       	call   3c8c <_ZNSt12_Vector_baseISt6vectorI10location_tSaIS1_EESaIS3_EE19_M_get_Tp_allocatorEv>
    6eee:	48 89 c1             	mov    %rax,%rcx
    6ef1:	48 8b 55 90          	mov    -0x70(%rbp),%rdx
    6ef5:	48 89 d0             	mov    %rdx,%rax
    6ef8:	48 01 c0             	add    %rax,%rax
    6efb:	48 01 d0             	add    %rdx,%rax
    6efe:	48 c1 e0 03          	shl    $0x3,%rax
    6f02:	48 89 c2             	mov    %rax,%rdx
    6f05:	48 8b 45 98          	mov    -0x68(%rbp),%rax
    6f09:	48 8d 3c 02          	lea    (%rdx,%rax,1),%rdi
    6f0d:	48 8b 95 60 ff ff ff 	mov    -0xa0(%rbp),%rdx
    6f14:	48 8b 85 68 ff ff ff 	mov    -0x98(%rbp),%rax
    6f1b:	48 89 c6             	mov    %rax,%rsi
    6f1e:	e8 80 12 00 00       	call   81a3 <_ZSt24__uninitialized_fill_n_aIPSt6vectorI10location_tSaIS1_EEmS3_S3_ET_S5_T0_RKT1_RSaIT2_E>
    6f23:	48 c7 45 a0 00 00 00 	movq   $0x0,-0x60(%rbp)
    6f2a:	00 
    6f2b:	48 8b 85 78 ff ff ff 	mov    -0x88(%rbp),%rax
    6f32:	48 89 c7             	mov    %rax,%rdi
    6f35:	e8 52 cd ff ff       	call   3c8c <_ZNSt12_Vector_baseISt6vectorI10location_tSaIS1_EESaIS3_EE19_M_get_Tp_allocatorEv>
    6f3a:	48 89 c3             	mov    %rax,%rbx
    6f3d:	48 8d 85 70 ff ff ff 	lea    -0x90(%rbp),%rax
    6f44:	48 89 c7             	mov    %rax,%rdi
    6f47:	e8 c4 11 00 00       	call   8110 <_ZNK9__gnu_cxx17__normal_iteratorIPSt6vectorI10location_tSaIS2_EES1_IS4_SaIS4_EEE4baseEv>
    6f4c:	48 8b 30             	mov    (%rax),%rsi
    6f4f:	48 8b 85 78 ff ff ff 	mov    -0x88(%rbp),%rax
    6f56:	48 8b 00             	mov    (%rax),%rax
    6f59:	48 8b 55 98          	mov    -0x68(%rbp),%rdx
    6f5d:	48 89 d9             	mov    %rbx,%rcx
    6f60:	48 89 c7             	mov    %rax,%rdi
    6f63:	e8 e3 13 00 00       	call   834b <_ZSt34__uninitialized_move_if_noexcept_aIPSt6vectorI10location_tSaIS1_EES4_SaIS3_EET0_T_S7_S6_RT1_>
    6f68:	48 89 45 a0          	mov    %rax,-0x60(%rbp)
    6f6c:	48 8b 95 68 ff ff ff 	mov    -0x98(%rbp),%rdx
    6f73:	48 89 d0             	mov    %rdx,%rax
    6f76:	48 01 c0             	add    %rax,%rax
    6f79:	48 01 d0             	add    %rdx,%rax
    6f7c:	48 c1 e0 03          	shl    $0x3,%rax
    6f80:	48 01 45 a0          	add    %rax,-0x60(%rbp)
    6f84:	48 8b 85 78 ff ff ff 	mov    -0x88(%rbp),%rax
    6f8b:	48 89 c7             	mov    %rax,%rdi
    6f8e:	e8 f9 cc ff ff       	call   3c8c <_ZNSt12_Vector_baseISt6vectorI10location_tSaIS1_EESaIS3_EE19_M_get_Tp_allocatorEv>
    6f93:	49 89 c4             	mov    %rax,%r12
    6f96:	48 8b 85 78 ff ff ff 	mov    -0x88(%rbp),%rax
    6f9d:	48 8b 58 08          	mov    0x8(%rax),%rbx
    6fa1:	48 8d 85 70 ff ff ff 	lea    -0x90(%rbp),%rax
    6fa8:	48 89 c7             	mov    %rax,%rdi
    6fab:	e8 60 11 00 00       	call   8110 <_ZNK9__gnu_cxx17__normal_iteratorIPSt6vectorI10location_tSaIS2_EES1_IS4_SaIS4_EEE4baseEv>
    6fb0:	48 8b 00             	mov    (%rax),%rax
    6fb3:	48 8b 55 a0          	mov    -0x60(%rbp),%rdx
    6fb7:	4c 89 e1             	mov    %r12,%rcx
    6fba:	48 89 de             	mov    %rbx,%rsi
    6fbd:	48 89 c7             	mov    %rax,%rdi
    6fc0:	e8 86 13 00 00       	call   834b <_ZSt34__uninitialized_move_if_noexcept_aIPSt6vectorI10location_tSaIS1_EES4_SaIS3_EET0_T_S7_S6_RT1_>
    6fc5:	48 89 45 a0          	mov    %rax,-0x60(%rbp)
    6fc9:	48 8b 85 78 ff ff ff 	mov    -0x88(%rbp),%rax
    6fd0:	48 89 c7             	mov    %rax,%rdi
    6fd3:	e8 b4 cc ff ff       	call   3c8c <_ZNSt12_Vector_baseISt6vectorI10location_tSaIS1_EESaIS3_EE19_M_get_Tp_allocatorEv>
    6fd8:	48 89 c2             	mov    %rax,%rdx
    6fdb:	48 8b 85 78 ff ff ff 	mov    -0x88(%rbp),%rax
    6fe2:	48 8b 48 08          	mov    0x8(%rax),%rcx
    6fe6:	48 8b 85 78 ff ff ff 	mov    -0x88(%rbp),%rax
    6fed:	48 8b 00             	mov    (%rax),%rax
    6ff0:	48 89 ce             	mov    %rcx,%rsi
    6ff3:	48 89 c7             	mov    %rax,%rdi
    6ff6:	e8 a3 cc ff ff       	call   3c9e <_ZSt8_DestroyIPSt6vectorI10location_tSaIS1_EES3_EvT_S5_RSaIT0_E>
    6ffb:	48 8b 85 78 ff ff ff 	mov    -0x88(%rbp),%rax
    7002:	48 8b 95 78 ff ff ff 	mov    -0x88(%rbp),%rdx
    7009:	48 8b 4a 10          	mov    0x10(%rdx),%rcx
    700d:	48 8b 95 78 ff ff ff 	mov    -0x88(%rbp),%rdx
    7014:	48 8b 32             	mov    (%rdx),%rsi
    7017:	48 29 f1             	sub    %rsi,%rcx
    701a:	48 89 ca             	mov    %rcx,%rdx
    701d:	48 89 d1             	mov    %rdx,%rcx
    7020:	48 c1 f9 03          	sar    $0x3,%rcx
    7024:	48 ba ab aa aa aa aa 	movabs $0xaaaaaaaaaaaaaaab,%rdx
    702b:	aa aa aa 
    702e:	48 0f af d1          	imul   %rcx,%rdx
    7032:	48 89 d6             	mov    %rdx,%rsi
    7035:	48 8b 95 78 ff ff ff 	mov    -0x88(%rbp),%rdx
    703c:	48 8b 0a             	mov    (%rdx),%rcx
    703f:	48 89 f2             	mov    %rsi,%rdx
    7042:	48 89 ce             	mov    %rcx,%rsi
    7045:	48 89 c7             	mov    %rax,%rdi
    7048:	e8 e7 cf ff ff       	call   4034 <_ZNSt12_Vector_baseISt6vectorI10location_tSaIS1_EESaIS3_EE13_M_deallocateEPS3_m>
    704d:	48 8b 85 78 ff ff ff 	mov    -0x88(%rbp),%rax
    7054:	48 8b 55 98          	mov    -0x68(%rbp),%rdx
    7058:	48 89 10             	mov    %rdx,(%rax)
    705b:	48 8b 85 78 ff ff ff 	mov    -0x88(%rbp),%rax
    7062:	48 8b 55 a0          	mov    -0x60(%rbp),%rdx
    7066:	48 89 50 08          	mov    %rdx,0x8(%rax)
    706a:	48 8b 55 88          	mov    -0x78(%rbp),%rdx
    706e:	48 89 d0             	mov    %rdx,%rax
    7071:	48 01 c0             	add    %rax,%rax
    7074:	48 01 d0             	add    %rdx,%rax
    7077:	48 c1 e0 03          	shl    $0x3,%rax
    707b:	48 89 c2             	mov    %rax,%rdx
    707e:	48 8b 45 98          	mov    -0x68(%rbp),%rax
    7082:	48 01 c2             	add    %rax,%rdx
    7085:	48 8b 85 78 ff ff ff 	mov    -0x88(%rbp),%rax
    708c:	48 89 50 10          	mov    %rdx,0x10(%rax)
    7090:	90                   	nop
    7091:	48 8b 45 e8          	mov    -0x18(%rbp),%rax
    7095:	64 48 2b 04 25 28 00 	sub    %fs:0x28,%rax
    709c:	00 00 
    709e:	74 05                	je     70a5 <_ZNSt6vectorIS_I10location_tSaIS0_EESaIS2_EE14_M_fill_insertEN9__gnu_cxx17__normal_iteratorIPS2_S4_EEmRKS2_+0x539>
    70a0:	e8 5b b5 ff ff       	call   2600 <__stack_chk_fail@plt>
    70a5:	48 81 c4 90 00 00 00 	add    $0x90,%rsp
    70ac:	5b                   	pop    %rbx
    70ad:	41 5c                	pop    %r12
    70af:	5d                   	pop    %rbp
    70b0:	c3                   	ret    
    70b1:	90                   	nop

00000000000070b2 <_ZNSt6vectorIS_I10location_tSaIS0_EESaIS2_EE3endEv>:
    70b2:	f3 0f 1e fa          	endbr64 
    70b6:	55                   	push   %rbp
    70b7:	48 89 e5             	mov    %rsp,%rbp
    70ba:	48 83 ec 20          	sub    $0x20,%rsp
    70be:	48 89 7d e8          	mov    %rdi,-0x18(%rbp)
    70c2:	64 48 8b 04 25 28 00 	mov    %fs:0x28,%rax
    70c9:	00 00 
    70cb:	48 89 45 f8          	mov    %rax,-0x8(%rbp)
    70cf:	31 c0                	xor    %eax,%eax
    70d1:	48 8b 45 e8          	mov    -0x18(%rbp),%rax
    70d5:	48 8d 50 08          	lea    0x8(%rax),%rdx
    70d9:	48 8d 45 f0          	lea    -0x10(%rbp),%rax
    70dd:	48 89 d6             	mov    %rdx,%rsi
    70e0:	48 89 c7             	mov    %rax,%rdi
    70e3:	e8 ba 12 00 00       	call   83a2 <_ZN9__gnu_cxx17__normal_iteratorIPSt6vectorI10location_tSaIS2_EES1_IS4_SaIS4_EEEC1ERKS5_>
    70e8:	48 8b 45 f0          	mov    -0x10(%rbp),%rax
    70ec:	48 8b 55 f8          	mov    -0x8(%rbp),%rdx
    70f0:	64 48 2b 14 25 28 00 	sub    %fs:0x28,%rdx
    70f7:	00 00 
    70f9:	74 05                	je     7100 <_ZNSt6vectorIS_I10location_tSaIS0_EESaIS2_EE3endEv+0x4e>
    70fb:	e8 00 b5 ff ff       	call   2600 <__stack_chk_fail@plt>
    7100:	c9                   	leave  
    7101:	c3                   	ret    

0000000000007102 <_ZNSt6vectorIS_I10location_tSaIS0_EESaIS2_EE15_M_erase_at_endEPS2_>:
    7102:	f3 0f 1e fa          	endbr64 
    7106:	55                   	push   %rbp
    7107:	48 89 e5             	mov    %rsp,%rbp
    710a:	48 83 ec 20          	sub    $0x20,%rsp
    710e:	48 89 7d e8          	mov    %rdi,-0x18(%rbp)
    7112:	48 89 75 e0          	mov    %rsi,-0x20(%rbp)
    7116:	48 8b 45 e8          	mov    -0x18(%rbp),%rax
    711a:	48 8b 40 08          	mov    0x8(%rax),%rax
    711e:	48 2b 45 e0          	sub    -0x20(%rbp),%rax
    7122:	48 c1 f8 03          	sar    $0x3,%rax
    7126:	48 89 c2             	mov    %rax,%rdx
    7129:	48 b8 ab aa aa aa aa 	movabs $0xaaaaaaaaaaaaaaab,%rax
    7130:	aa aa aa 
    7133:	48 0f af c2          	imul   %rdx,%rax
    7137:	48 89 45 f8          	mov    %rax,-0x8(%rbp)
    713b:	48 83 7d f8 00       	cmpq   $0x0,-0x8(%rbp)
    7140:	74 32                	je     7174 <_ZNSt6vectorIS_I10location_tSaIS0_EESaIS2_EE15_M_erase_at_endEPS2_+0x72>
    7142:	48 8b 45 e8          	mov    -0x18(%rbp),%rax
    7146:	48 89 c7             	mov    %rax,%rdi
    7149:	e8 3e cb ff ff       	call   3c8c <_ZNSt12_Vector_baseISt6vectorI10location_tSaIS1_EESaIS3_EE19_M_get_Tp_allocatorEv>
    714e:	48 89 c2             	mov    %rax,%rdx
    7151:	48 8b 45 e8          	mov    -0x18(%rbp),%rax
    7155:	48 8b 48 08          	mov    0x8(%rax),%rcx
    7159:	48 8b 45 e0          	mov    -0x20(%rbp),%rax
    715d:	48 89 ce             	mov    %rcx,%rsi
    7160:	48 89 c7             	mov    %rax,%rdi
    7163:	e8 36 cb ff ff       	call   3c9e <_ZSt8_DestroyIPSt6vectorI10location_tSaIS1_EES3_EvT_S5_RSaIT0_E>
    7168:	48 8b 45 e8          	mov    -0x18(%rbp),%rax
    716c:	48 8b 55 e0          	mov    -0x20(%rbp),%rdx
    7170:	48 89 50 08          	mov    %rdx,0x8(%rax)
    7174:	90                   	nop
    7175:	c9                   	leave  
    7176:	c3                   	ret    
    7177:	90                   	nop

0000000000007178 <_ZNKSt6vectorIS_I10location_tSaIS0_EESaIS2_EE14_M_range_checkEm>:
    7178:	f3 0f 1e fa          	endbr64 
    717c:	55                   	push   %rbp
    717d:	48 89 e5             	mov    %rsp,%rbp
    7180:	48 83 ec 10          	sub    $0x10,%rsp
    7184:	48 89 7d f8          	mov    %rdi,-0x8(%rbp)
    7188:	48 89 75 f0          	mov    %rsi,-0x10(%rbp)
    718c:	48 8b 45 f8          	mov    -0x8(%rbp),%rax
    7190:	48 89 c7             	mov    %rax,%rdi
    7193:	e8 9c f9 ff ff       	call   6b34 <_ZNKSt6vectorIS_I10location_tSaIS0_EESaIS2_EE4sizeEv>
    7198:	48 39 45 f0          	cmp    %rax,-0x10(%rbp)
    719c:	0f 93 c0             	setae  %al
    719f:	84 c0                	test   %al,%al
    71a1:	74 2a                	je     71cd <_ZNKSt6vectorIS_I10location_tSaIS0_EESaIS2_EE14_M_range_checkEm+0x55>
    71a3:	48 8b 45 f8          	mov    -0x8(%rbp),%rax
    71a7:	48 89 c7             	mov    %rax,%rdi
    71aa:	e8 85 f9 ff ff       	call   6b34 <_ZNKSt6vectorIS_I10location_tSaIS0_EESaIS2_EE4sizeEv>
    71af:	48 89 c2             	mov    %rax,%rdx
    71b2:	48 8b 45 f0          	mov    -0x10(%rbp),%rax
    71b6:	48 89 c6             	mov    %rax,%rsi
    71b9:	48 8d 05 90 60 00 00 	lea    0x6090(%rip),%rax        # d250 <_ZL19NO_MATCHING_ELEMENT+0xc0>
    71c0:	48 89 c7             	mov    %rax,%rdi
    71c3:	b8 00 00 00 00       	mov    $0x0,%eax
    71c8:	e8 b3 b4 ff ff       	call   2680 <_ZSt24__throw_out_of_range_fmtPKcz@plt>
    71cd:	90                   	nop
    71ce:	c9                   	leave  
    71cf:	c3                   	ret    

00000000000071d0 <_ZNSt6vectorIS_I10location_tSaIS0_EESaIS2_EEixEm>:
    71d0:	f3 0f 1e fa          	endbr64 
    71d4:	55                   	push   %rbp
    71d5:	48 89 e5             	mov    %rsp,%rbp
    71d8:	48 89 7d f8          	mov    %rdi,-0x8(%rbp)
    71dc:	48 89 75 f0          	mov    %rsi,-0x10(%rbp)
    71e0:	48 8b 45 f8          	mov    -0x8(%rbp),%rax
    71e4:	48 8b 08             	mov    (%rax),%rcx
    71e7:	48 8b 55 f0          	mov    -0x10(%rbp),%rdx
    71eb:	48 89 d0             	mov    %rdx,%rax
    71ee:	48 01 c0             	add    %rax,%rax
    71f1:	48 01 d0             	add    %rdx,%rax
    71f4:	48 c1 e0 03          	shl    $0x3,%rax
    71f8:	48 01 c8             	add    %rcx,%rax
    71fb:	5d                   	pop    %rbp
    71fc:	c3                   	ret    
    71fd:	90                   	nop

00000000000071fe <_ZNKSt6vectorI10location_tSaIS0_EE14_M_range_checkEm>:
    71fe:	f3 0f 1e fa          	endbr64 
    7202:	55                   	push   %rbp
    7203:	48 89 e5             	mov    %rsp,%rbp
    7206:	48 83 ec 10          	sub    $0x10,%rsp
    720a:	48 89 7d f8          	mov    %rdi,-0x8(%rbp)
    720e:	48 89 75 f0          	mov    %rsi,-0x10(%rbp)
    7212:	48 8b 45 f8          	mov    -0x8(%rbp),%rax
    7216:	48 89 c7             	mov    %rax,%rdi
    7219:	e8 a6 11 00 00       	call   83c4 <_ZNKSt6vectorI10location_tSaIS0_EE4sizeEv>
    721e:	48 39 45 f0          	cmp    %rax,-0x10(%rbp)
    7222:	0f 93 c0             	setae  %al
    7225:	84 c0                	test   %al,%al
    7227:	74 2a                	je     7253 <_ZNKSt6vectorI10location_tSaIS0_EE14_M_range_checkEm+0x55>
    7229:	48 8b 45 f8          	mov    -0x8(%rbp),%rax
    722d:	48 89 c7             	mov    %rax,%rdi
    7230:	e8 8f 11 00 00       	call   83c4 <_ZNKSt6vectorI10location_tSaIS0_EE4sizeEv>
    7235:	48 89 c2             	mov    %rax,%rdx
    7238:	48 8b 45 f0          	mov    -0x10(%rbp),%rax
    723c:	48 89 c6             	mov    %rax,%rsi
    723f:	48 8d 05 0a 60 00 00 	lea    0x600a(%rip),%rax        # d250 <_ZL19NO_MATCHING_ELEMENT+0xc0>
    7246:	48 89 c7             	mov    %rax,%rdi
    7249:	b8 00 00 00 00       	mov    $0x0,%eax
    724e:	e8 2d b4 ff ff       	call   2680 <_ZSt24__throw_out_of_range_fmtPKcz@plt>
    7253:	90                   	nop
    7254:	c9                   	leave  
    7255:	c3                   	ret    

0000000000007256 <_ZNSt6vectorI10location_tSaIS0_EEixEm>:
    7256:	f3 0f 1e fa          	endbr64 
    725a:	55                   	push   %rbp
    725b:	48 89 e5             	mov    %rsp,%rbp
    725e:	48 89 7d f8          	mov    %rdi,-0x8(%rbp)
    7262:	48 89 75 f0          	mov    %rsi,-0x10(%rbp)
    7266:	48 8b 45 f8          	mov    -0x8(%rbp),%rax
    726a:	48 8b 10             	mov    (%rax),%rdx
    726d:	48 8b 45 f0          	mov    -0x10(%rbp),%rax
    7271:	48 c1 e0 03          	shl    $0x3,%rax
    7275:	48 01 d0             	add    %rdx,%rax
    7278:	5d                   	pop    %rbp
    7279:	c3                   	ret    

000000000000727a <_ZNKSt6vectorI12netlist_elemSaIS0_EE14_M_range_checkEm>:
    727a:	f3 0f 1e fa          	endbr64 
    727e:	55                   	push   %rbp
    727f:	48 89 e5             	mov    %rsp,%rbp
    7282:	48 83 ec 10          	sub    $0x10,%rsp
    7286:	48 89 7d f8          	mov    %rdi,-0x8(%rbp)
    728a:	48 89 75 f0          	mov    %rsi,-0x10(%rbp)
    728e:	48 8b 45 f8          	mov    -0x8(%rbp),%rax
    7292:	48 89 c7             	mov    %rax,%rdi
    7295:	e8 56 f4 ff ff       	call   66f0 <_ZNKSt6vectorI12netlist_elemSaIS0_EE4sizeEv>
    729a:	48 39 45 f0          	cmp    %rax,-0x10(%rbp)
    729e:	0f 93 c0             	setae  %al
    72a1:	84 c0                	test   %al,%al
    72a3:	74 2a                	je     72cf <_ZNKSt6vectorI12netlist_elemSaIS0_EE14_M_range_checkEm+0x55>
    72a5:	48 8b 45 f8          	mov    -0x8(%rbp),%rax
    72a9:	48 89 c7             	mov    %rax,%rdi
    72ac:	e8 3f f4 ff ff       	call   66f0 <_ZNKSt6vectorI12netlist_elemSaIS0_EE4sizeEv>
    72b1:	48 89 c2             	mov    %rax,%rdx
    72b4:	48 8b 45 f0          	mov    -0x10(%rbp),%rax
    72b8:	48 89 c6             	mov    %rax,%rsi
    72bb:	48 8d 05 8e 5f 00 00 	lea    0x5f8e(%rip),%rax        # d250 <_ZL19NO_MATCHING_ELEMENT+0xc0>
    72c2:	48 89 c7             	mov    %rax,%rdi
    72c5:	b8 00 00 00 00       	mov    $0x0,%eax
    72ca:	e8 b1 b3 ff ff       	call   2680 <_ZSt24__throw_out_of_range_fmtPKcz@plt>
    72cf:	90                   	nop
    72d0:	c9                   	leave  
    72d1:	c3                   	ret    

00000000000072d2 <_ZNSt16allocator_traitsISaIP12netlist_elemEE9constructIS1_JRKS1_EEEvRS2_PT_DpOT0_>:
    72d2:	f3 0f 1e fa          	endbr64 
    72d6:	55                   	push   %rbp
    72d7:	48 89 e5             	mov    %rsp,%rbp
    72da:	48 83 ec 20          	sub    $0x20,%rsp
    72de:	48 89 7d f8          	mov    %rdi,-0x8(%rbp)
    72e2:	48 89 75 f0          	mov    %rsi,-0x10(%rbp)
    72e6:	48 89 55 e8          	mov    %rdx,-0x18(%rbp)
    72ea:	48 8b 45 e8          	mov    -0x18(%rbp),%rax
    72ee:	48 89 c7             	mov    %rax,%rdi
    72f1:	e8 f5 10 00 00       	call   83eb <_ZSt7forwardIRKP12netlist_elemEOT_RNSt16remove_referenceIS4_E4typeE>
    72f6:	48 89 c2             	mov    %rax,%rdx
    72f9:	48 8b 4d f0          	mov    -0x10(%rbp),%rcx
    72fd:	48 8b 45 f8          	mov    -0x8(%rbp),%rax
    7301:	48 89 ce             	mov    %rcx,%rsi
    7304:	48 89 c7             	mov    %rax,%rdi
    7307:	e8 f2 10 00 00       	call   83fe <_ZN9__gnu_cxx13new_allocatorIP12netlist_elemE9constructIS2_JRKS2_EEEvPT_DpOT0_>
    730c:	90                   	nop
    730d:	c9                   	leave  
    730e:	c3                   	ret    
    730f:	90                   	nop

0000000000007310 <_ZNSt6vectorIP12netlist_elemSaIS1_EE3endEv>:
    7310:	f3 0f 1e fa          	endbr64 
    7314:	55                   	push   %rbp
    7315:	48 89 e5             	mov    %rsp,%rbp
    7318:	48 83 ec 20          	sub    $0x20,%rsp
    731c:	48 89 7d e8          	mov    %rdi,-0x18(%rbp)
    7320:	64 48 8b 04 25 28 00 	mov    %fs:0x28,%rax
    7327:	00 00 
    7329:	48 89 45 f8          	mov    %rax,-0x8(%rbp)
    732d:	31 c0                	xor    %eax,%eax
    732f:	48 8b 45 e8          	mov    -0x18(%rbp),%rax
    7333:	48 8d 50 08          	lea    0x8(%rax),%rdx
    7337:	48 8d 45 f0          	lea    -0x10(%rbp),%rax
    733b:	48 89 d6             	mov    %rdx,%rsi
    733e:	48 89 c7             	mov    %rax,%rdi
    7341:	e8 fc 10 00 00       	call   8442 <_ZN9__gnu_cxx17__normal_iteratorIPP12netlist_elemSt6vectorIS2_SaIS2_EEEC1ERKS3_>
    7346:	48 8b 45 f0          	mov    -0x10(%rbp),%rax
    734a:	48 8b 55 f8          	mov    -0x8(%rbp),%rdx
    734e:	64 48 2b 14 25 28 00 	sub    %fs:0x28,%rdx
    7355:	00 00 
    7357:	74 05                	je     735e <_ZNSt6vectorIP12netlist_elemSaIS1_EE3endEv+0x4e>
    7359:	e8 a2 b2 ff ff       	call   2600 <__stack_chk_fail@plt>
    735e:	c9                   	leave  
    735f:	c3                   	ret    

0000000000007360 <_ZNSt6vectorIP12netlist_elemSaIS1_EE17_M_realloc_insertIJRKS1_EEEvN9__gnu_cxx17__normal_iteratorIPS1_S3_EEDpOT_>:
    7360:	f3 0f 1e fa          	endbr64 
    7364:	55                   	push   %rbp
    7365:	48 89 e5             	mov    %rsp,%rbp
    7368:	53                   	push   %rbx
    7369:	48 83 ec 68          	sub    $0x68,%rsp
    736d:	48 89 7d a8          	mov    %rdi,-0x58(%rbp)
    7371:	48 89 75 a0          	mov    %rsi,-0x60(%rbp)
    7375:	48 89 55 98          	mov    %rdx,-0x68(%rbp)
    7379:	64 48 8b 04 25 28 00 	mov    %fs:0x28,%rax
    7380:	00 00 
    7382:	48 89 45 e8          	mov    %rax,-0x18(%rbp)
    7386:	31 c0                	xor    %eax,%eax
    7388:	48 8b 45 a8          	mov    -0x58(%rbp),%rax
    738c:	48 8d 15 07 5f 00 00 	lea    0x5f07(%rip),%rdx        # d29a <_ZL19NO_MATCHING_ELEMENT+0x10a>
    7393:	be 01 00 00 00       	mov    $0x1,%esi
    7398:	48 89 c7             	mov    %rax,%rdi
    739b:	e8 c4 10 00 00       	call   8464 <_ZNKSt6vectorIP12netlist_elemSaIS1_EE12_M_check_lenEmPKc>
    73a0:	48 89 45 b8          	mov    %rax,-0x48(%rbp)
    73a4:	48 8b 45 a8          	mov    -0x58(%rbp),%rax
    73a8:	48 8b 00             	mov    (%rax),%rax
    73ab:	48 89 45 c0          	mov    %rax,-0x40(%rbp)
    73af:	48 8b 45 a8          	mov    -0x58(%rbp),%rax
    73b3:	48 8b 40 08          	mov    0x8(%rax),%rax
    73b7:	48 89 45 c8          	mov    %rax,-0x38(%rbp)
    73bb:	48 8b 45 a8          	mov    -0x58(%rbp),%rax
    73bf:	48 89 c7             	mov    %rax,%rdi
    73c2:	e8 8d 11 00 00       	call   8554 <_ZNSt6vectorIP12netlist_elemSaIS1_EE5beginEv>
    73c7:	48 89 45 b0          	mov    %rax,-0x50(%rbp)
    73cb:	48 8d 55 b0          	lea    -0x50(%rbp),%rdx
    73cf:	48 8d 45 a0          	lea    -0x60(%rbp),%rax
    73d3:	48 89 d6             	mov    %rdx,%rsi
    73d6:	48 89 c7             	mov    %rax,%rdi
    73d9:	e8 c2 11 00 00       	call   85a0 <_ZN9__gnu_cxxmiIPP12netlist_elemSt6vectorIS2_SaIS2_EEEENS_17__normal_iteratorIT_T0_E15difference_typeERKSA_SD_>
    73de:	48 89 45 d0          	mov    %rax,-0x30(%rbp)
    73e2:	48 8b 45 a8          	mov    -0x58(%rbp),%rax
    73e6:	48 8b 55 b8          	mov    -0x48(%rbp),%rdx
    73ea:	48 89 d6             	mov    %rdx,%rsi
    73ed:	48 89 c7             	mov    %rax,%rdi
    73f0:	e8 ef 11 00 00       	call   85e4 <_ZNSt12_Vector_baseIP12netlist_elemSaIS1_EE11_M_allocateEm>
    73f5:	48 89 45 d8          	mov    %rax,-0x28(%rbp)
    73f9:	48 8b 45 d8          	mov    -0x28(%rbp),%rax
    73fd:	48 89 45 e0          	mov    %rax,-0x20(%rbp)
    7401:	48 8b 45 98          	mov    -0x68(%rbp),%rax
    7405:	48 89 c7             	mov    %rax,%rdi
    7408:	e8 de 0f 00 00       	call   83eb <_ZSt7forwardIRKP12netlist_elemEOT_RNSt16remove_referenceIS4_E4typeE>
    740d:	48 89 c2             	mov    %rax,%rdx
    7410:	48 8b 45 d0          	mov    -0x30(%rbp),%rax
    7414:	48 8d 0c c5 00 00 00 	lea    0x0(,%rax,8),%rcx
    741b:	00 
    741c:	48 8b 45 d8          	mov    -0x28(%rbp),%rax
    7420:	48 01 c1             	add    %rax,%rcx
    7423:	48 8b 45 a8          	mov    -0x58(%rbp),%rax
    7427:	48 89 ce             	mov    %rcx,%rsi
    742a:	48 89 c7             	mov    %rax,%rdi
    742d:	e8 a0 fe ff ff       	call   72d2 <_ZNSt16allocator_traitsISaIP12netlist_elemEE9constructIS1_JRKS1_EEEvRS2_PT_DpOT0_>
    7432:	48 c7 45 e0 00 00 00 	movq   $0x0,-0x20(%rbp)
    7439:	00 
    743a:	48 8b 45 a8          	mov    -0x58(%rbp),%rax
    743e:	48 89 c7             	mov    %rax,%rdi
    7441:	e8 84 d6 ff ff       	call   4aca <_ZNSt12_Vector_baseIP12netlist_elemSaIS1_EE19_M_get_Tp_allocatorEv>
    7446:	48 89 c3             	mov    %rax,%rbx
    7449:	48 8d 45 a0          	lea    -0x60(%rbp),%rax
    744d:	48 89 c7             	mov    %rax,%rdi
    7450:	e8 fd 11 00 00       	call   8652 <_ZNK9__gnu_cxx17__normal_iteratorIPP12netlist_elemSt6vectorIS2_SaIS2_EEE4baseEv>
    7455:	48 8b 30             	mov    (%rax),%rsi
    7458:	48 8b 55 d8          	mov    -0x28(%rbp),%rdx
    745c:	48 8b 45 c0          	mov    -0x40(%rbp),%rax
    7460:	48 89 d9             	mov    %rbx,%rcx
    7463:	48 89 c7             	mov    %rax,%rdi
    7466:	e8 b0 11 00 00       	call   861b <_ZNSt6vectorIP12netlist_elemSaIS1_EE11_S_relocateEPS1_S4_S4_RS2_>
    746b:	48 89 45 e0          	mov    %rax,-0x20(%rbp)
    746f:	48 83 45 e0 08       	addq   $0x8,-0x20(%rbp)
    7474:	48 8b 45 a8          	mov    -0x58(%rbp),%rax
    7478:	48 89 c7             	mov    %rax,%rdi
    747b:	e8 4a d6 ff ff       	call   4aca <_ZNSt12_Vector_baseIP12netlist_elemSaIS1_EE19_M_get_Tp_allocatorEv>
    7480:	48 89 c3             	mov    %rax,%rbx
    7483:	48 8d 45 a0          	lea    -0x60(%rbp),%rax
    7487:	48 89 c7             	mov    %rax,%rdi
    748a:	e8 c3 11 00 00       	call   8652 <_ZNK9__gnu_cxx17__normal_iteratorIPP12netlist_elemSt6vectorIS2_SaIS2_EEE4baseEv>
    748f:	48 8b 00             	mov    (%rax),%rax
    7492:	48 8b 55 e0          	mov    -0x20(%rbp),%rdx
    7496:	48 8b 75 c8          	mov    -0x38(%rbp),%rsi
    749a:	48 89 d9             	mov    %rbx,%rcx
    749d:	48 89 c7             	mov    %rax,%rdi
    74a0:	e8 76 11 00 00       	call   861b <_ZNSt6vectorIP12netlist_elemSaIS1_EE11_S_relocateEPS1_S4_S4_RS2_>
    74a5:	48 89 45 e0          	mov    %rax,-0x20(%rbp)
    74a9:	48 8b 45 a8          	mov    -0x58(%rbp),%rax
    74ad:	48 8b 55 a8          	mov    -0x58(%rbp),%rdx
    74b1:	48 8b 52 10          	mov    0x10(%rdx),%rdx
    74b5:	48 2b 55 c0          	sub    -0x40(%rbp),%rdx
    74b9:	48 c1 fa 03          	sar    $0x3,%rdx
    74bd:	48 8b 4d c0          	mov    -0x40(%rbp),%rcx
    74c1:	48 89 ce             	mov    %rcx,%rsi
    74c4:	48 89 c7             	mov    %rax,%rdi
    74c7:	e8 92 d7 ff ff       	call   4c5e <_ZNSt12_Vector_baseIP12netlist_elemSaIS1_EE13_M_deallocateEPS1_m>
    74cc:	48 8b 45 a8          	mov    -0x58(%rbp),%rax
    74d0:	48 8b 55 d8          	mov    -0x28(%rbp),%rdx
    74d4:	48 89 10             	mov    %rdx,(%rax)
    74d7:	48 8b 45 a8          	mov    -0x58(%rbp),%rax
    74db:	48 8b 55 e0          	mov    -0x20(%rbp),%rdx
    74df:	48 89 50 08          	mov    %rdx,0x8(%rax)
    74e3:	48 8b 45 b8          	mov    -0x48(%rbp),%rax
    74e7:	48 8d 14 c5 00 00 00 	lea    0x0(,%rax,8),%rdx
    74ee:	00 
    74ef:	48 8b 45 d8          	mov    -0x28(%rbp),%rax
    74f3:	48 01 c2             	add    %rax,%rdx
    74f6:	48 8b 45 a8          	mov    -0x58(%rbp),%rax
    74fa:	48 89 50 10          	mov    %rdx,0x10(%rax)
    74fe:	90                   	nop
    74ff:	48 8b 45 e8          	mov    -0x18(%rbp),%rax
    7503:	64 48 2b 04 25 28 00 	sub    %fs:0x28,%rax
    750a:	00 00 
    750c:	74 05                	je     7513 <_ZNSt6vectorIP12netlist_elemSaIS1_EE17_M_realloc_insertIJRKS1_EEEvN9__gnu_cxx17__normal_iteratorIPS1_S3_EEDpOT_+0x1b3>
    750e:	e8 ed b0 ff ff       	call   2600 <__stack_chk_fail@plt>
    7513:	48 8b 5d f8          	mov    -0x8(%rbp),%rbx
    7517:	c9                   	leave  
    7518:	c3                   	ret    
    7519:	90                   	nop

000000000000751a <_ZNSt8_Rb_treeINSt7__cxx1112basic_stringIcSt11char_traitsIcESaIcEEESt4pairIKS5_P12netlist_elemESt10_Select1stISA_ESt4lessIS5_ESaISA_EE4findERS7_>:
    751a:	f3 0f 1e fa          	endbr64 
    751e:	55                   	push   %rbp
    751f:	48 89 e5             	mov    %rsp,%rbp
    7522:	53                   	push   %rbx
    7523:	48 83 ec 38          	sub    $0x38,%rsp
    7527:	48 89 7d c8          	mov    %rdi,-0x38(%rbp)
    752b:	48 89 75 c0          	mov    %rsi,-0x40(%rbp)
    752f:	64 48 8b 04 25 28 00 	mov    %fs:0x28,%rax
    7536:	00 00 
    7538:	48 89 45 e8          	mov    %rax,-0x18(%rbp)
    753c:	31 c0                	xor    %eax,%eax
    753e:	48 8b 45 c8          	mov    -0x38(%rbp),%rax
    7542:	48 89 c7             	mov    %rax,%rdi
    7545:	e8 1a 11 00 00       	call   8664 <_ZNSt8_Rb_treeINSt7__cxx1112basic_stringIcSt11char_traitsIcESaIcEEESt4pairIKS5_P12netlist_elemESt10_Select1stISA_ESt4lessIS5_ESaISA_EE6_M_endEv>
    754a:	48 89 c3             	mov    %rax,%rbx
    754d:	48 8b 45 c8          	mov    -0x38(%rbp),%rax
    7551:	48 89 c7             	mov    %rax,%rdi
    7554:	e8 fd c7 ff ff       	call   3d56 <_ZNSt8_Rb_treeINSt7__cxx1112basic_stringIcSt11char_traitsIcESaIcEEESt4pairIKS5_P12netlist_elemESt10_Select1stISA_ESt4lessIS5_ESaISA_EE8_M_beginEv>
    7559:	48 89 c6             	mov    %rax,%rsi
    755c:	48 8b 55 c0          	mov    -0x40(%rbp),%rdx
    7560:	48 8b 45 c8          	mov    -0x38(%rbp),%rax
    7564:	48 89 d1             	mov    %rdx,%rcx
    7567:	48 89 da             	mov    %rbx,%rdx
    756a:	48 89 c7             	mov    %rax,%rdi
    756d:	e8 08 11 00 00       	call   867a <_ZNSt8_Rb_treeINSt7__cxx1112basic_stringIcSt11char_traitsIcESaIcEEESt4pairIKS5_P12netlist_elemESt10_Select1stISA_ESt4lessIS5_ESaISA_EE14_M_lower_boundEPSt13_Rb_tree_nodeISA_EPSt18_Rb_tree_node_baseRS7_>
    7572:	48 89 45 d8          	mov    %rax,-0x28(%rbp)
    7576:	48 8b 45 c8          	mov    -0x38(%rbp),%rax
    757a:	48 89 c7             	mov    %rax,%rdi
    757d:	e8 c4 ed ff ff       	call   6346 <_ZNSt8_Rb_treeINSt7__cxx1112basic_stringIcSt11char_traitsIcESaIcEEESt4pairIKS5_P12netlist_elemESt10_Select1stISA_ESt4lessIS5_ESaISA_EE3endEv>
    7582:	48 89 45 e0          	mov    %rax,-0x20(%rbp)
    7586:	48 8d 55 e0          	lea    -0x20(%rbp),%rdx
    758a:	48 8d 45 d8          	lea    -0x28(%rbp),%rax
    758e:	48 89 d6             	mov    %rdx,%rsi
    7591:	48 89 c7             	mov    %rax,%rdi
    7594:	e8 36 ed ff ff       	call   62cf <_ZSteqRKSt17_Rb_tree_iteratorISt4pairIKNSt7__cxx1112basic_stringIcSt11char_traitsIcESaIcEEEP12netlist_elemEESD_>
    7599:	84 c0                	test   %al,%al
    759b:	75 26                	jne    75c3 <_ZNSt8_Rb_treeINSt7__cxx1112basic_stringIcSt11char_traitsIcESaIcEEESt4pairIKS5_P12netlist_elemESt10_Select1stISA_ESt4lessIS5_ESaISA_EE4findERS7_+0xa9>
    759d:	48 8b 5d c8          	mov    -0x38(%rbp),%rbx
    75a1:	48 8b 45 d8          	mov    -0x28(%rbp),%rax
    75a5:	48 89 c7             	mov    %rax,%rdi
    75a8:	e8 89 11 00 00       	call   8736 <_ZNSt8_Rb_treeINSt7__cxx1112basic_stringIcSt11char_traitsIcESaIcEEESt4pairIKS5_P12netlist_elemESt10_Select1stISA_ESt4lessIS5_ESaISA_EE6_S_keyEPKSt18_Rb_tree_node_base>
    75ad:	48 89 c2             	mov    %rax,%rdx
    75b0:	48 8b 45 c0          	mov    -0x40(%rbp),%rax
    75b4:	48 89 c6             	mov    %rax,%rsi
    75b7:	48 89 df             	mov    %rbx,%rdi
    75ba:	e8 d9 ee ff ff       	call   6498 <_ZNKSt4lessINSt7__cxx1112basic_stringIcSt11char_traitsIcESaIcEEEEclERKS5_S8_>
    75bf:	84 c0                	test   %al,%al
    75c1:	74 0e                	je     75d1 <_ZNSt8_Rb_treeINSt7__cxx1112basic_stringIcSt11char_traitsIcESaIcEEESt4pairIKS5_P12netlist_elemESt10_Select1stISA_ESt4lessIS5_ESaISA_EE4findERS7_+0xb7>
    75c3:	48 8b 45 c8          	mov    -0x38(%rbp),%rax
    75c7:	48 89 c7             	mov    %rax,%rdi
    75ca:	e8 77 ed ff ff       	call   6346 <_ZNSt8_Rb_treeINSt7__cxx1112basic_stringIcSt11char_traitsIcESaIcEEESt4pairIKS5_P12netlist_elemESt10_Select1stISA_ESt4lessIS5_ESaISA_EE3endEv>
    75cf:	eb 04                	jmp    75d5 <_ZNSt8_Rb_treeINSt7__cxx1112basic_stringIcSt11char_traitsIcESaIcEEESt4pairIKS5_P12netlist_elemESt10_Select1stISA_ESt4lessIS5_ESaISA_EE4findERS7_+0xbb>
    75d1:	48 8b 45 d8          	mov    -0x28(%rbp),%rax
    75d5:	48 8b 55 e8          	mov    -0x18(%rbp),%rdx
    75d9:	64 48 2b 14 25 28 00 	sub    %fs:0x28,%rdx
    75e0:	00 00 
    75e2:	74 05                	je     75e9 <_ZNSt8_Rb_treeINSt7__cxx1112basic_stringIcSt11char_traitsIcESaIcEEESt4pairIKS5_P12netlist_elemESt10_Select1stISA_ESt4lessIS5_ESaISA_EE4findERS7_+0xcf>
    75e4:	e8 17 b0 ff ff       	call   2600 <__stack_chk_fail@plt>
    75e9:	48 8b 5d f8          	mov    -0x8(%rbp),%rbx
    75ed:	c9                   	leave  
    75ee:	c3                   	ret    
    75ef:	90                   	nop

00000000000075f0 <_ZNSt17_Rb_tree_iteratorISt4pairIKNSt7__cxx1112basic_stringIcSt11char_traitsIcESaIcEEEP12netlist_elemEEC1EPSt18_Rb_tree_node_base>:
    75f0:	f3 0f 1e fa          	endbr64 
    75f4:	55                   	push   %rbp
    75f5:	48 89 e5             	mov    %rsp,%rbp
    75f8:	48 89 7d f8          	mov    %rdi,-0x8(%rbp)
    75fc:	48 89 75 f0          	mov    %rsi,-0x10(%rbp)
    7600:	48 8b 45 f8          	mov    -0x8(%rbp),%rax
    7604:	48 8b 55 f0          	mov    -0x10(%rbp),%rdx
    7608:	48 89 10             	mov    %rdx,(%rax)
    760b:	90                   	nop
    760c:	5d                   	pop    %rbp
    760d:	c3                   	ret    

000000000000760e <_ZNSt8_Rb_treeINSt7__cxx1112basic_stringIcSt11char_traitsIcESaIcEEESt4pairIKS5_P12netlist_elemESt10_Select1stISA_ESt4lessIS5_ESaISA_EE11lower_boundERS7_>:
    760e:	f3 0f 1e fa          	endbr64 
    7612:	55                   	push   %rbp
    7613:	48 89 e5             	mov    %rsp,%rbp
    7616:	53                   	push   %rbx
    7617:	48 83 ec 18          	sub    $0x18,%rsp
    761b:	48 89 7d e8          	mov    %rdi,-0x18(%rbp)
    761f:	48 89 75 e0          	mov    %rsi,-0x20(%rbp)
    7623:	48 8b 45 e8          	mov    -0x18(%rbp),%rax
    7627:	48 89 c7             	mov    %rax,%rdi
    762a:	e8 35 10 00 00       	call   8664 <_ZNSt8_Rb_treeINSt7__cxx1112basic_stringIcSt11char_traitsIcESaIcEEESt4pairIKS5_P12netlist_elemESt10_Select1stISA_ESt4lessIS5_ESaISA_EE6_M_endEv>
    762f:	48 89 c3             	mov    %rax,%rbx
    7632:	48 8b 45 e8          	mov    -0x18(%rbp),%rax
    7636:	48 89 c7             	mov    %rax,%rdi
    7639:	e8 18 c7 ff ff       	call   3d56 <_ZNSt8_Rb_treeINSt7__cxx1112basic_stringIcSt11char_traitsIcESaIcEEESt4pairIKS5_P12netlist_elemESt10_Select1stISA_ESt4lessIS5_ESaISA_EE8_M_beginEv>
    763e:	48 89 c6             	mov    %rax,%rsi
    7641:	48 8b 55 e0          	mov    -0x20(%rbp),%rdx
    7645:	48 8b 45 e8          	mov    -0x18(%rbp),%rax
    7649:	48 89 d1             	mov    %rdx,%rcx
    764c:	48 89 da             	mov    %rbx,%rdx
    764f:	48 89 c7             	mov    %rax,%rdi
    7652:	e8 23 10 00 00       	call   867a <_ZNSt8_Rb_treeINSt7__cxx1112basic_stringIcSt11char_traitsIcESaIcEEESt4pairIKS5_P12netlist_elemESt10_Select1stISA_ESt4lessIS5_ESaISA_EE14_M_lower_boundEPSt13_Rb_tree_nodeISA_EPSt18_Rb_tree_node_baseRS7_>
    7657:	48 8b 5d f8          	mov    -0x8(%rbp),%rbx
    765b:	c9                   	leave  
    765c:	c3                   	ret    
    765d:	90                   	nop

000000000000765e <_ZNKSt8_Rb_treeINSt7__cxx1112basic_stringIcSt11char_traitsIcESaIcEEESt4pairIKS5_P12netlist_elemESt10_Select1stISA_ESt4lessIS5_ESaISA_EE8key_compEv>:
    765e:	f3 0f 1e fa          	endbr64 
    7662:	55                   	push   %rbp
    7663:	48 89 e5             	mov    %rsp,%rbp
    7666:	48 89 7d f8          	mov    %rdi,-0x8(%rbp)
    766a:	90                   	nop
    766b:	5d                   	pop    %rbp
    766c:	c3                   	ret    

000000000000766d <_ZStltIcSt11char_traitsIcESaIcEEbRKNSt7__cxx1112basic_stringIT_T0_T1_EESA_>:
    766d:	f3 0f 1e fa          	endbr64 
    7671:	55                   	push   %rbp
    7672:	48 89 e5             	mov    %rsp,%rbp
    7675:	48 83 ec 10          	sub    $0x10,%rsp
    7679:	48 89 7d f8          	mov    %rdi,-0x8(%rbp)
    767d:	48 89 75 f0          	mov    %rsi,-0x10(%rbp)
    7681:	48 8b 55 f0          	mov    -0x10(%rbp),%rdx
    7685:	48 8b 45 f8          	mov    -0x8(%rbp),%rax
    7689:	48 89 d6             	mov    %rdx,%rsi
    768c:	48 89 c7             	mov    %rax,%rdi
    768f:	e8 3c ad ff ff       	call   23d0 <_ZNKSt7__cxx1112basic_stringIcSt11char_traitsIcESaIcEE7compareERKS4_@plt>
    7694:	c1 e8 1f             	shr    $0x1f,%eax
    7697:	c9                   	leave  
    7698:	c3                   	ret    
    7699:	90                   	nop

000000000000769a <_ZNSt11_Tuple_implILm0EJRKNSt7__cxx1112basic_stringIcSt11char_traitsIcESaIcEEEEEC1ES7_>:
    769a:	f3 0f 1e fa          	endbr64 
    769e:	55                   	push   %rbp
    769f:	48 89 e5             	mov    %rsp,%rbp
    76a2:	48 83 ec 10          	sub    $0x10,%rsp
    76a6:	48 89 7d f8          	mov    %rdi,-0x8(%rbp)
    76aa:	48 89 75 f0          	mov    %rsi,-0x10(%rbp)
    76ae:	48 8b 45 f8          	mov    -0x8(%rbp),%rax
    76b2:	48 8b 55 f0          	mov    -0x10(%rbp),%rdx
    76b6:	48 89 d6             	mov    %rdx,%rsi
    76b9:	48 89 c7             	mov    %rax,%rdi
    76bc:	e8 93 10 00 00       	call   8754 <_ZNSt10_Head_baseILm0ERKNSt7__cxx1112basic_stringIcSt11char_traitsIcESaIcEEELb0EEC1ES7_>
    76c1:	90                   	nop
    76c2:	c9                   	leave  
    76c3:	c3                   	ret    

00000000000076c4 <_ZSt7forwardIRKSt21piecewise_construct_tEOT_RNSt16remove_referenceIS3_E4typeE>:
    76c4:	f3 0f 1e fa          	endbr64 
    76c8:	55                   	push   %rbp
    76c9:	48 89 e5             	mov    %rsp,%rbp
    76cc:	48 89 7d f8          	mov    %rdi,-0x8(%rbp)
    76d0:	48 8b 45 f8          	mov    -0x8(%rbp),%rax
    76d4:	5d                   	pop    %rbp
    76d5:	c3                   	ret    

00000000000076d6 <_ZSt7forwardISt5tupleIJRKNSt7__cxx1112basic_stringIcSt11char_traitsIcESaIcEEEEEEOT_RNSt16remove_referenceISA_E4typeE>:
    76d6:	f3 0f 1e fa          	endbr64 
    76da:	55                   	push   %rbp
    76db:	48 89 e5             	mov    %rsp,%rbp
    76de:	48 89 7d f8          	mov    %rdi,-0x8(%rbp)
    76e2:	48 8b 45 f8          	mov    -0x8(%rbp),%rax
    76e6:	5d                   	pop    %rbp
    76e7:	c3                   	ret    

00000000000076e8 <_ZSt7forwardISt5tupleIJEEEOT_RNSt16remove_referenceIS2_E4typeE>:
    76e8:	f3 0f 1e fa          	endbr64 
    76ec:	55                   	push   %rbp
    76ed:	48 89 e5             	mov    %rsp,%rbp
    76f0:	48 89 7d f8          	mov    %rdi,-0x8(%rbp)
    76f4:	48 8b 45 f8          	mov    -0x8(%rbp),%rax
    76f8:	5d                   	pop    %rbp
    76f9:	c3                   	ret    

00000000000076fa <_ZNSt8_Rb_treeINSt7__cxx1112basic_stringIcSt11char_traitsIcESaIcEEESt4pairIKS5_P12netlist_elemESt10_Select1stISA_ESt4lessIS5_ESaISA_EE14_M_create_nodeIJRKSt21piecewise_construct_tSt5tupleIJRS7_EESL_IJEEEEEPSt13_Rb_tree_nodeISA_EDpOT_>:
    76fa:	f3 0f 1e fa          	endbr64 
    76fe:	55                   	push   %rbp
    76ff:	48 89 e5             	mov    %rsp,%rbp
    7702:	41 54                	push   %r12
    7704:	53                   	push   %rbx
    7705:	48 83 ec 30          	sub    $0x30,%rsp
    7709:	48 89 7d d8          	mov    %rdi,-0x28(%rbp)
    770d:	48 89 75 d0          	mov    %rsi,-0x30(%rbp)
    7711:	48 89 55 c8          	mov    %rdx,-0x38(%rbp)
    7715:	48 89 4d c0          	mov    %rcx,-0x40(%rbp)
    7719:	48 8b 45 d8          	mov    -0x28(%rbp),%rax
    771d:	48 89 c7             	mov    %rax,%rdi
    7720:	e8 4d 10 00 00       	call   8772 <_ZNSt8_Rb_treeINSt7__cxx1112basic_stringIcSt11char_traitsIcESaIcEEESt4pairIKS5_P12netlist_elemESt10_Select1stISA_ESt4lessIS5_ESaISA_EE11_M_get_nodeEv>
    7725:	48 89 45 e8          	mov    %rax,-0x18(%rbp)
    7729:	48 8b 45 c0          	mov    -0x40(%rbp),%rax
    772d:	48 89 c7             	mov    %rax,%rdi
    7730:	e8 b3 ff ff ff       	call   76e8 <_ZSt7forwardISt5tupleIJEEEOT_RNSt16remove_referenceIS2_E4typeE>
    7735:	49 89 c4             	mov    %rax,%r12
    7738:	48 8b 45 c8          	mov    -0x38(%rbp),%rax
    773c:	48 89 c7             	mov    %rax,%rdi
    773f:	e8 92 ff ff ff       	call   76d6 <_ZSt7forwardISt5tupleIJRKNSt7__cxx1112basic_stringIcSt11char_traitsIcESaIcEEEEEEOT_RNSt16remove_referenceISA_E4typeE>
    7744:	48 89 c3             	mov    %rax,%rbx
    7747:	48 8b 45 d0          	mov    -0x30(%rbp),%rax
    774b:	48 89 c7             	mov    %rax,%rdi
    774e:	e8 71 ff ff ff       	call   76c4 <_ZSt7forwardIRKSt21piecewise_construct_tEOT_RNSt16remove_referenceIS3_E4typeE>
    7753:	48 89 c2             	mov    %rax,%rdx
    7756:	48 8b 75 e8          	mov    -0x18(%rbp),%rsi
    775a:	48 8b 45 d8          	mov    -0x28(%rbp),%rax
    775e:	4d 89 e0             	mov    %r12,%r8
    7761:	48 89 d9             	mov    %rbx,%rcx
    7764:	48 89 c7             	mov    %rax,%rdi
    7767:	e8 32 10 00 00       	call   879e <_ZNSt8_Rb_treeINSt7__cxx1112basic_stringIcSt11char_traitsIcESaIcEEESt4pairIKS5_P12netlist_elemESt10_Select1stISA_ESt4lessIS5_ESaISA_EE17_M_construct_nodeIJRKSt21piecewise_construct_tSt5tupleIJRS7_EESL_IJEEEEEvPSt13_Rb_tree_nodeISA_EDpOT_>
    776c:	48 8b 45 e8          	mov    -0x18(%rbp),%rax
    7770:	48 83 c4 30          	add    $0x30,%rsp
    7774:	5b                   	pop    %rbx
    7775:	41 5c                	pop    %r12
    7777:	5d                   	pop    %rbp
    7778:	c3                   	ret    
    7779:	90                   	nop

000000000000777a <_ZNSt8_Rb_treeINSt7__cxx1112basic_stringIcSt11char_traitsIcESaIcEEESt4pairIKS5_P12netlist_elemESt10_Select1stISA_ESt4lessIS5_ESaISA_EE29_M_get_insert_hint_unique_posESt23_Rb_tree_const_iteratorISA_ERS7_>:
    777a:	f3 0f 1e fa          	endbr64 
    777e:	55                   	push   %rbp
    777f:	48 89 e5             	mov    %rsp,%rbp
    7782:	53                   	push   %rbx
    7783:	48 83 ec 68          	sub    $0x68,%rsp
    7787:	48 89 7d a8          	mov    %rdi,-0x58(%rbp)
    778b:	48 89 75 a0          	mov    %rsi,-0x60(%rbp)
    778f:	48 89 55 98          	mov    %rdx,-0x68(%rbp)
    7793:	64 48 8b 04 25 28 00 	mov    %fs:0x28,%rax
    779a:	00 00 
    779c:	48 89 45 e8          	mov    %rax,-0x18(%rbp)
    77a0:	31 c0                	xor    %eax,%eax
    77a2:	48 8d 45 a0          	lea    -0x60(%rbp),%rax
    77a6:	48 89 c7             	mov    %rax,%rdi
    77a9:	e8 92 10 00 00       	call   8840 <_ZNKSt23_Rb_tree_const_iteratorISt4pairIKNSt7__cxx1112basic_stringIcSt11char_traitsIcESaIcEEEP12netlist_elemEE13_M_const_castEv>
    77ae:	48 89 45 b8          	mov    %rax,-0x48(%rbp)
    77b2:	48 8b 5d b8          	mov    -0x48(%rbp),%rbx
    77b6:	48 8b 45 a8          	mov    -0x58(%rbp),%rax
    77ba:	48 89 c7             	mov    %rax,%rdi
    77bd:	e8 a2 0e 00 00       	call   8664 <_ZNSt8_Rb_treeINSt7__cxx1112basic_stringIcSt11char_traitsIcESaIcEEESt4pairIKS5_P12netlist_elemESt10_Select1stISA_ESt4lessIS5_ESaISA_EE6_M_endEv>
    77c2:	48 39 c3             	cmp    %rax,%rbx
    77c5:	0f 94 c0             	sete   %al
    77c8:	84 c0                	test   %al,%al
    77ca:	0f 84 a4 00 00 00    	je     7874 <_ZNSt8_Rb_treeINSt7__cxx1112basic_stringIcSt11char_traitsIcESaIcEEESt4pairIKS5_P12netlist_elemESt10_Select1stISA_ESt4lessIS5_ESaISA_EE29_M_get_insert_hint_unique_posESt23_Rb_tree_const_iteratorISA_ERS7_+0xfa>
    77d0:	48 8b 45 a8          	mov    -0x58(%rbp),%rax
    77d4:	48 89 c7             	mov    %rax,%rdi
    77d7:	e8 b4 10 00 00       	call   8890 <_ZNKSt8_Rb_treeINSt7__cxx1112basic_stringIcSt11char_traitsIcESaIcEEESt4pairIKS5_P12netlist_elemESt10_Select1stISA_ESt4lessIS5_ESaISA_EE4sizeEv>
    77dc:	48 85 c0             	test   %rax,%rax
    77df:	74 3b                	je     781c <_ZNSt8_Rb_treeINSt7__cxx1112basic_stringIcSt11char_traitsIcESaIcEEESt4pairIKS5_P12netlist_elemESt10_Select1stISA_ESt4lessIS5_ESaISA_EE29_M_get_insert_hint_unique_posESt23_Rb_tree_const_iteratorISA_ERS7_+0xa2>
    77e1:	48 8b 5d a8          	mov    -0x58(%rbp),%rbx
    77e5:	48 8b 45 a8          	mov    -0x58(%rbp),%rax
    77e9:	48 89 c7             	mov    %rax,%rdi
    77ec:	e8 b5 10 00 00       	call   88a6 <_ZNSt8_Rb_treeINSt7__cxx1112basic_stringIcSt11char_traitsIcESaIcEEESt4pairIKS5_P12netlist_elemESt10_Select1stISA_ESt4lessIS5_ESaISA_EE12_M_rightmostEv>
    77f1:	48 8b 00             	mov    (%rax),%rax
    77f4:	48 89 c7             	mov    %rax,%rdi
    77f7:	e8 3a 0f 00 00       	call   8736 <_ZNSt8_Rb_treeINSt7__cxx1112basic_stringIcSt11char_traitsIcESaIcEEESt4pairIKS5_P12netlist_elemESt10_Select1stISA_ESt4lessIS5_ESaISA_EE6_S_keyEPKSt18_Rb_tree_node_base>
    77fc:	48 89 c1             	mov    %rax,%rcx
    77ff:	48 8b 45 98          	mov    -0x68(%rbp),%rax
    7803:	48 89 c2             	mov    %rax,%rdx
    7806:	48 89 ce             	mov    %rcx,%rsi
    7809:	48 89 df             	mov    %rbx,%rdi
    780c:	e8 87 ec ff ff       	call   6498 <_ZNKSt4lessINSt7__cxx1112basic_stringIcSt11char_traitsIcESaIcEEEEclERKS5_S8_>
    7811:	84 c0                	test   %al,%al
    7813:	74 07                	je     781c <_ZNSt8_Rb_treeINSt7__cxx1112basic_stringIcSt11char_traitsIcESaIcEEESt4pairIKS5_P12netlist_elemESt10_Select1stISA_ESt4lessIS5_ESaISA_EE29_M_get_insert_hint_unique_posESt23_Rb_tree_const_iteratorISA_ERS7_+0xa2>
    7815:	b8 01 00 00 00       	mov    $0x1,%eax
    781a:	eb 05                	jmp    7821 <_ZNSt8_Rb_treeINSt7__cxx1112basic_stringIcSt11char_traitsIcESaIcEEESt4pairIKS5_P12netlist_elemESt10_Select1stISA_ESt4lessIS5_ESaISA_EE29_M_get_insert_hint_unique_posESt23_Rb_tree_const_iteratorISA_ERS7_+0xa7>
    781c:	b8 00 00 00 00       	mov    $0x0,%eax
    7821:	84 c0                	test   %al,%al
    7823:	74 37                	je     785c <_ZNSt8_Rb_treeINSt7__cxx1112basic_stringIcSt11char_traitsIcESaIcEEESt4pairIKS5_P12netlist_elemESt10_Select1stISA_ESt4lessIS5_ESaISA_EE29_M_get_insert_hint_unique_posESt23_Rb_tree_const_iteratorISA_ERS7_+0xe2>
    7825:	48 8b 45 a8          	mov    -0x58(%rbp),%rax
    7829:	48 89 c7             	mov    %rax,%rdi
    782c:	e8 75 10 00 00       	call   88a6 <_ZNSt8_Rb_treeINSt7__cxx1112basic_stringIcSt11char_traitsIcESaIcEEESt4pairIKS5_P12netlist_elemESt10_Select1stISA_ESt4lessIS5_ESaISA_EE12_M_rightmostEv>
    7831:	48 89 c2             	mov    %rax,%rdx
    7834:	48 c7 45 c8 00 00 00 	movq   $0x0,-0x38(%rbp)
    783b:	00 
    783c:	48 8d 4d c8          	lea    -0x38(%rbp),%rcx
    7840:	48 8d 45 d0          	lea    -0x30(%rbp),%rax
    7844:	48 89 ce             	mov    %rcx,%rsi
    7847:	48 89 c7             	mov    %rax,%rdi
    784a:	e8 6d 10 00 00       	call   88bc <_ZNSt4pairIPSt18_Rb_tree_node_baseS1_EC1IRS1_Lb1EEERKS1_OT_>
    784f:	48 8b 45 d0          	mov    -0x30(%rbp),%rax
    7853:	48 8b 55 d8          	mov    -0x28(%rbp),%rdx
    7857:	e9 ac 02 00 00       	jmp    7b08 <_ZNSt8_Rb_treeINSt7__cxx1112basic_stringIcSt11char_traitsIcESaIcEEESt4pairIKS5_P12netlist_elemESt10_Select1stISA_ESt4lessIS5_ESaISA_EE29_M_get_insert_hint_unique_posESt23_Rb_tree_const_iteratorISA_ERS7_+0x38e>
    785c:	48 8b 55 98          	mov    -0x68(%rbp),%rdx
    7860:	48 8b 45 a8          	mov    -0x58(%rbp),%rax
    7864:	48 89 d6             	mov    %rdx,%rsi
    7867:	48 89 c7             	mov    %rax,%rdi
    786a:	e8 8d 10 00 00       	call   88fc <_ZNSt8_Rb_treeINSt7__cxx1112basic_stringIcSt11char_traitsIcESaIcEEESt4pairIKS5_P12netlist_elemESt10_Select1stISA_ESt4lessIS5_ESaISA_EE24_M_get_insert_unique_posERS7_>
    786f:	e9 94 02 00 00       	jmp    7b08 <_ZNSt8_Rb_treeINSt7__cxx1112basic_stringIcSt11char_traitsIcESaIcEEESt4pairIKS5_P12netlist_elemESt10_Select1stISA_ESt4lessIS5_ESaISA_EE29_M_get_insert_hint_unique_posESt23_Rb_tree_const_iteratorISA_ERS7_+0x38e>
    7874:	48 8b 5d a8          	mov    -0x58(%rbp),%rbx
    7878:	48 8b 45 b8          	mov    -0x48(%rbp),%rax
    787c:	48 89 c7             	mov    %rax,%rdi
    787f:	e8 b2 0e 00 00       	call   8736 <_ZNSt8_Rb_treeINSt7__cxx1112basic_stringIcSt11char_traitsIcESaIcEEESt4pairIKS5_P12netlist_elemESt10_Select1stISA_ESt4lessIS5_ESaISA_EE6_S_keyEPKSt18_Rb_tree_node_base>
    7884:	48 89 c2             	mov    %rax,%rdx
    7887:	48 8b 45 98          	mov    -0x68(%rbp),%rax
    788b:	48 89 c6             	mov    %rax,%rsi
    788e:	48 89 df             	mov    %rbx,%rdi
    7891:	e8 02 ec ff ff       	call   6498 <_ZNKSt4lessINSt7__cxx1112basic_stringIcSt11char_traitsIcESaIcEEEEclERKS5_S8_>
    7896:	84 c0                	test   %al,%al
    7898:	0f 84 14 01 00 00    	je     79b2 <_ZNSt8_Rb_treeINSt7__cxx1112basic_stringIcSt11char_traitsIcESaIcEEESt4pairIKS5_P12netlist_elemESt10_Select1stISA_ESt4lessIS5_ESaISA_EE29_M_get_insert_hint_unique_posESt23_Rb_tree_const_iteratorISA_ERS7_+0x238>
    789e:	48 8b 45 b8          	mov    -0x48(%rbp),%rax
    78a2:	48 89 45 c0          	mov    %rax,-0x40(%rbp)
    78a6:	48 8b 5d b8          	mov    -0x48(%rbp),%rbx
    78aa:	48 8b 45 a8          	mov    -0x58(%rbp),%rax
    78ae:	48 89 c7             	mov    %rax,%rdi
    78b1:	e8 e2 11 00 00       	call   8a98 <_ZNSt8_Rb_treeINSt7__cxx1112basic_stringIcSt11char_traitsIcESaIcEEESt4pairIKS5_P12netlist_elemESt10_Select1stISA_ESt4lessIS5_ESaISA_EE11_M_leftmostEv>
    78b6:	48 8b 00             	mov    (%rax),%rax
    78b9:	48 39 c3             	cmp    %rax,%rbx
    78bc:	0f 94 c0             	sete   %al
    78bf:	84 c0                	test   %al,%al
    78c1:	74 3d                	je     7900 <_ZNSt8_Rb_treeINSt7__cxx1112basic_stringIcSt11char_traitsIcESaIcEEESt4pairIKS5_P12netlist_elemESt10_Select1stISA_ESt4lessIS5_ESaISA_EE29_M_get_insert_hint_unique_posESt23_Rb_tree_const_iteratorISA_ERS7_+0x186>
    78c3:	48 8b 45 a8          	mov    -0x58(%rbp),%rax
    78c7:	48 89 c7             	mov    %rax,%rdi
    78ca:	e8 c9 11 00 00       	call   8a98 <_ZNSt8_Rb_treeINSt7__cxx1112basic_stringIcSt11char_traitsIcESaIcEEESt4pairIKS5_P12netlist_elemESt10_Select1stISA_ESt4lessIS5_ESaISA_EE11_M_leftmostEv>
    78cf:	48 89 c3             	mov    %rax,%rbx
    78d2:	48 8b 45 a8          	mov    -0x58(%rbp),%rax
    78d6:	48 89 c7             	mov    %rax,%rdi
    78d9:	e8 ba 11 00 00       	call   8a98 <_ZNSt8_Rb_treeINSt7__cxx1112basic_stringIcSt11char_traitsIcESaIcEEESt4pairIKS5_P12netlist_elemESt10_Select1stISA_ESt4lessIS5_ESaISA_EE11_M_leftmostEv>
    78de:	48 89 c1             	mov    %rax,%rcx
    78e1:	48 8d 45 d0          	lea    -0x30(%rbp),%rax
    78e5:	48 89 da             	mov    %rbx,%rdx
    78e8:	48 89 ce             	mov    %rcx,%rsi
    78eb:	48 89 c7             	mov    %rax,%rdi
    78ee:	e8 bb 11 00 00       	call   8aae <_ZNSt4pairIPSt18_Rb_tree_node_baseS1_EC1IRS1_S4_Lb1EEEOT_OT0_>
    78f3:	48 8b 45 d0          	mov    -0x30(%rbp),%rax
    78f7:	48 8b 55 d8          	mov    -0x28(%rbp),%rdx
    78fb:	e9 08 02 00 00       	jmp    7b08 <_ZNSt8_Rb_treeINSt7__cxx1112basic_stringIcSt11char_traitsIcESaIcEEESt4pairIKS5_P12netlist_elemESt10_Select1stISA_ESt4lessIS5_ESaISA_EE29_M_get_insert_hint_unique_posESt23_Rb_tree_const_iteratorISA_ERS7_+0x38e>
    7900:	48 8b 5d a8          	mov    -0x58(%rbp),%rbx
    7904:	48 8d 45 c0          	lea    -0x40(%rbp),%rax
    7908:	48 89 c7             	mov    %rax,%rdi
    790b:	e8 e6 11 00 00       	call   8af6 <_ZNSt17_Rb_tree_iteratorISt4pairIKNSt7__cxx1112basic_stringIcSt11char_traitsIcESaIcEEEP12netlist_elemEEmmEv>
    7910:	48 8b 00             	mov    (%rax),%rax
    7913:	48 89 c7             	mov    %rax,%rdi
    7916:	e8 1b 0e 00 00       	call   8736 <_ZNSt8_Rb_treeINSt7__cxx1112basic_stringIcSt11char_traitsIcESaIcEEESt4pairIKS5_P12netlist_elemESt10_Select1stISA_ESt4lessIS5_ESaISA_EE6_S_keyEPKSt18_Rb_tree_node_base>
    791b:	48 89 c1             	mov    %rax,%rcx
    791e:	48 8b 45 98          	mov    -0x68(%rbp),%rax
    7922:	48 89 c2             	mov    %rax,%rdx
    7925:	48 89 ce             	mov    %rcx,%rsi
    7928:	48 89 df             	mov    %rbx,%rdi
    792b:	e8 68 eb ff ff       	call   6498 <_ZNKSt4lessINSt7__cxx1112basic_stringIcSt11char_traitsIcESaIcEEEEclERKS5_S8_>
    7930:	84 c0                	test   %al,%al
    7932:	74 66                	je     799a <_ZNSt8_Rb_treeINSt7__cxx1112basic_stringIcSt11char_traitsIcESaIcEEESt4pairIKS5_P12netlist_elemESt10_Select1stISA_ESt4lessIS5_ESaISA_EE29_M_get_insert_hint_unique_posESt23_Rb_tree_const_iteratorISA_ERS7_+0x220>
    7934:	48 8b 45 c0          	mov    -0x40(%rbp),%rax
    7938:	48 89 c7             	mov    %rax,%rdi
    793b:	e8 67 c7 ff ff       	call   40a7 <_ZNSt8_Rb_treeINSt7__cxx1112basic_stringIcSt11char_traitsIcESaIcEEESt4pairIKS5_P12netlist_elemESt10_Select1stISA_ESt4lessIS5_ESaISA_EE8_S_rightEPSt18_Rb_tree_node_base>
    7940:	48 85 c0             	test   %rax,%rax
    7943:	0f 94 c0             	sete   %al
    7946:	84 c0                	test   %al,%al
    7948:	74 2c                	je     7976 <_ZNSt8_Rb_treeINSt7__cxx1112basic_stringIcSt11char_traitsIcESaIcEEESt4pairIKS5_P12netlist_elemESt10_Select1stISA_ESt4lessIS5_ESaISA_EE29_M_get_insert_hint_unique_posESt23_Rb_tree_const_iteratorISA_ERS7_+0x1fc>
    794a:	48 c7 45 c8 00 00 00 	movq   $0x0,-0x38(%rbp)
    7951:	00 
    7952:	48 8d 55 c0          	lea    -0x40(%rbp),%rdx
    7956:	48 8d 4d c8          	lea    -0x38(%rbp),%rcx
    795a:	48 8d 45 d0          	lea    -0x30(%rbp),%rax
    795e:	48 89 ce             	mov    %rcx,%rsi
    7961:	48 89 c7             	mov    %rax,%rdi
    7964:	e8 53 0f 00 00       	call   88bc <_ZNSt4pairIPSt18_Rb_tree_node_baseS1_EC1IRS1_Lb1EEERKS1_OT_>
    7969:	48 8b 45 d0          	mov    -0x30(%rbp),%rax
    796d:	48 8b 55 d8          	mov    -0x28(%rbp),%rdx
    7971:	e9 92 01 00 00       	jmp    7b08 <_ZNSt8_Rb_treeINSt7__cxx1112basic_stringIcSt11char_traitsIcESaIcEEESt4pairIKS5_P12netlist_elemESt10_Select1stISA_ESt4lessIS5_ESaISA_EE29_M_get_insert_hint_unique_posESt23_Rb_tree_const_iteratorISA_ERS7_+0x38e>
    7976:	48 8d 55 b8          	lea    -0x48(%rbp),%rdx
    797a:	48 8d 4d b8          	lea    -0x48(%rbp),%rcx
    797e:	48 8d 45 d0          	lea    -0x30(%rbp),%rax
    7982:	48 89 ce             	mov    %rcx,%rsi
    7985:	48 89 c7             	mov    %rax,%rdi
    7988:	e8 21 11 00 00       	call   8aae <_ZNSt4pairIPSt18_Rb_tree_node_baseS1_EC1IRS1_S4_Lb1EEEOT_OT0_>
    798d:	48 8b 45 d0          	mov    -0x30(%rbp),%rax
    7991:	48 8b 55 d8          	mov    -0x28(%rbp),%rdx
    7995:	e9 6e 01 00 00       	jmp    7b08 <_ZNSt8_Rb_treeINSt7__cxx1112basic_stringIcSt11char_traitsIcESaIcEEESt4pairIKS5_P12netlist_elemESt10_Select1stISA_ESt4lessIS5_ESaISA_EE29_M_get_insert_hint_unique_posESt23_Rb_tree_const_iteratorISA_ERS7_+0x38e>
    799a:	48 8b 55 98          	mov    -0x68(%rbp),%rdx
    799e:	48 8b 45 a8          	mov    -0x58(%rbp),%rax
    79a2:	48 89 d6             	mov    %rdx,%rsi
    79a5:	48 89 c7             	mov    %rax,%rdi
    79a8:	e8 4f 0f 00 00       	call   88fc <_ZNSt8_Rb_treeINSt7__cxx1112basic_stringIcSt11char_traitsIcESaIcEEESt4pairIKS5_P12netlist_elemESt10_Select1stISA_ESt4lessIS5_ESaISA_EE24_M_get_insert_unique_posERS7_>
    79ad:	e9 56 01 00 00       	jmp    7b08 <_ZNSt8_Rb_treeINSt7__cxx1112basic_stringIcSt11char_traitsIcESaIcEEESt4pairIKS5_P12netlist_elemESt10_Select1stISA_ESt4lessIS5_ESaISA_EE29_M_get_insert_hint_unique_posESt23_Rb_tree_const_iteratorISA_ERS7_+0x38e>
    79b2:	48 8b 5d a8          	mov    -0x58(%rbp),%rbx
    79b6:	48 8b 45 b8          	mov    -0x48(%rbp),%rax
    79ba:	48 89 c7             	mov    %rax,%rdi
    79bd:	e8 74 0d 00 00       	call   8736 <_ZNSt8_Rb_treeINSt7__cxx1112basic_stringIcSt11char_traitsIcESaIcEEESt4pairIKS5_P12netlist_elemESt10_Select1stISA_ESt4lessIS5_ESaISA_EE6_S_keyEPKSt18_Rb_tree_node_base>
    79c2:	48 89 c1             	mov    %rax,%rcx
    79c5:	48 8b 45 98          	mov    -0x68(%rbp),%rax
    79c9:	48 89 c2             	mov    %rax,%rdx
    79cc:	48 89 ce             	mov    %rcx,%rsi
    79cf:	48 89 df             	mov    %rbx,%rdi
    79d2:	e8 c1 ea ff ff       	call   6498 <_ZNKSt4lessINSt7__cxx1112basic_stringIcSt11char_traitsIcESaIcEEEEclERKS5_S8_>
    79d7:	84 c0                	test   %al,%al
    79d9:	0f 84 02 01 00 00    	je     7ae1 <_ZNSt8_Rb_treeINSt7__cxx1112basic_stringIcSt11char_traitsIcESaIcEEESt4pairIKS5_P12netlist_elemESt10_Select1stISA_ESt4lessIS5_ESaISA_EE29_M_get_insert_hint_unique_posESt23_Rb_tree_const_iteratorISA_ERS7_+0x367>
    79df:	48 8b 45 b8          	mov    -0x48(%rbp),%rax
    79e3:	48 89 45 c0          	mov    %rax,-0x40(%rbp)
    79e7:	48 8b 5d b8          	mov    -0x48(%rbp),%rbx
    79eb:	48 8b 45 a8          	mov    -0x58(%rbp),%rax
    79ef:	48 89 c7             	mov    %rax,%rdi
    79f2:	e8 af 0e 00 00       	call   88a6 <_ZNSt8_Rb_treeINSt7__cxx1112basic_stringIcSt11char_traitsIcESaIcEEESt4pairIKS5_P12netlist_elemESt10_Select1stISA_ESt4lessIS5_ESaISA_EE12_M_rightmostEv>
    79f7:	48 8b 00             	mov    (%rax),%rax
    79fa:	48 39 c3             	cmp    %rax,%rbx
    79fd:	0f 94 c0             	sete   %al
    7a00:	84 c0                	test   %al,%al
    7a02:	74 37                	je     7a3b <_ZNSt8_Rb_treeINSt7__cxx1112basic_stringIcSt11char_traitsIcESaIcEEESt4pairIKS5_P12netlist_elemESt10_Select1stISA_ESt4lessIS5_ESaISA_EE29_M_get_insert_hint_unique_posESt23_Rb_tree_const_iteratorISA_ERS7_+0x2c1>
    7a04:	48 8b 45 a8          	mov    -0x58(%rbp),%rax
    7a08:	48 89 c7             	mov    %rax,%rdi
    7a0b:	e8 96 0e 00 00       	call   88a6 <_ZNSt8_Rb_treeINSt7__cxx1112basic_stringIcSt11char_traitsIcESaIcEEESt4pairIKS5_P12netlist_elemESt10_Select1stISA_ESt4lessIS5_ESaISA_EE12_M_rightmostEv>
    7a10:	48 89 c2             	mov    %rax,%rdx
    7a13:	48 c7 45 c8 00 00 00 	movq   $0x0,-0x38(%rbp)
    7a1a:	00 
    7a1b:	48 8d 4d c8          	lea    -0x38(%rbp),%rcx
    7a1f:	48 8d 45 d0          	lea    -0x30(%rbp),%rax
    7a23:	48 89 ce             	mov    %rcx,%rsi
    7a26:	48 89 c7             	mov    %rax,%rdi
    7a29:	e8 8e 0e 00 00       	call   88bc <_ZNSt4pairIPSt18_Rb_tree_node_baseS1_EC1IRS1_Lb1EEERKS1_OT_>
    7a2e:	48 8b 45 d0          	mov    -0x30(%rbp),%rax
    7a32:	48 8b 55 d8          	mov    -0x28(%rbp),%rdx
    7a36:	e9 cd 00 00 00       	jmp    7b08 <_ZNSt8_Rb_treeINSt7__cxx1112basic_stringIcSt11char_traitsIcESaIcEEESt4pairIKS5_P12netlist_elemESt10_Select1stISA_ESt4lessIS5_ESaISA_EE29_M_get_insert_hint_unique_posESt23_Rb_tree_const_iteratorISA_ERS7_+0x38e>
    7a3b:	48 8b 5d a8          	mov    -0x58(%rbp),%rbx
    7a3f:	48 8d 45 c0          	lea    -0x40(%rbp),%rax
    7a43:	48 89 c7             	mov    %rax,%rdi
    7a46:	e8 3f e2 ff ff       	call   5c8a <_ZNSt17_Rb_tree_iteratorISt4pairIKNSt7__cxx1112basic_stringIcSt11char_traitsIcESaIcEEEP12netlist_elemEEppEv>
    7a4b:	48 8b 00             	mov    (%rax),%rax
    7a4e:	48 89 c7             	mov    %rax,%rdi
    7a51:	e8 e0 0c 00 00       	call   8736 <_ZNSt8_Rb_treeINSt7__cxx1112basic_stringIcSt11char_traitsIcESaIcEEESt4pairIKS5_P12netlist_elemESt10_Select1stISA_ESt4lessIS5_ESaISA_EE6_S_keyEPKSt18_Rb_tree_node_base>
    7a56:	48 89 c2             	mov    %rax,%rdx
    7a59:	48 8b 45 98          	mov    -0x68(%rbp),%rax
    7a5d:	48 89 c6             	mov    %rax,%rsi
    7a60:	48 89 df             	mov    %rbx,%rdi
    7a63:	e8 30 ea ff ff       	call   6498 <_ZNKSt4lessINSt7__cxx1112basic_stringIcSt11char_traitsIcESaIcEEEEclERKS5_S8_>
    7a68:	84 c0                	test   %al,%al
    7a6a:	74 60                	je     7acc <_ZNSt8_Rb_treeINSt7__cxx1112basic_stringIcSt11char_traitsIcESaIcEEESt4pairIKS5_P12netlist_elemESt10_Select1stISA_ESt4lessIS5_ESaISA_EE29_M_get_insert_hint_unique_posESt23_Rb_tree_const_iteratorISA_ERS7_+0x352>
    7a6c:	48 8b 45 b8          	mov    -0x48(%rbp),%rax
    7a70:	48 89 c7             	mov    %rax,%rdi
    7a73:	e8 2f c6 ff ff       	call   40a7 <_ZNSt8_Rb_treeINSt7__cxx1112basic_stringIcSt11char_traitsIcESaIcEEESt4pairIKS5_P12netlist_elemESt10_Select1stISA_ESt4lessIS5_ESaISA_EE8_S_rightEPSt18_Rb_tree_node_base>
    7a78:	48 85 c0             	test   %rax,%rax
    7a7b:	0f 94 c0             	sete   %al
    7a7e:	84 c0                	test   %al,%al
    7a80:	74 29                	je     7aab <_ZNSt8_Rb_treeINSt7__cxx1112basic_stringIcSt11char_traitsIcESaIcEEESt4pairIKS5_P12netlist_elemESt10_Select1stISA_ESt4lessIS5_ESaISA_EE29_M_get_insert_hint_unique_posESt23_Rb_tree_const_iteratorISA_ERS7_+0x331>
    7a82:	48 c7 45 c8 00 00 00 	movq   $0x0,-0x38(%rbp)
    7a89:	00 
    7a8a:	48 8d 55 b8          	lea    -0x48(%rbp),%rdx
    7a8e:	48 8d 4d c8          	lea    -0x38(%rbp),%rcx
    7a92:	48 8d 45 d0          	lea    -0x30(%rbp),%rax
    7a96:	48 89 ce             	mov    %rcx,%rsi
    7a99:	48 89 c7             	mov    %rax,%rdi
    7a9c:	e8 1b 0e 00 00       	call   88bc <_ZNSt4pairIPSt18_Rb_tree_node_baseS1_EC1IRS1_Lb1EEERKS1_OT_>
    7aa1:	48 8b 45 d0          	mov    -0x30(%rbp),%rax
    7aa5:	48 8b 55 d8          	mov    -0x28(%rbp),%rdx
    7aa9:	eb 5d                	jmp    7b08 <_ZNSt8_Rb_treeINSt7__cxx1112basic_stringIcSt11char_traitsIcESaIcEEESt4pairIKS5_P12netlist_elemESt10_Select1stISA_ESt4lessIS5_ESaISA_EE29_M_get_insert_hint_unique_posESt23_Rb_tree_const_iteratorISA_ERS7_+0x38e>
    7aab:	48 8d 55 c0          	lea    -0x40(%rbp),%rdx
    7aaf:	48 8d 4d c0          	lea    -0x40(%rbp),%rcx
    7ab3:	48 8d 45 d0          	lea    -0x30(%rbp),%rax
    7ab7:	48 89 ce             	mov    %rcx,%rsi
    7aba:	48 89 c7             	mov    %rax,%rdi
    7abd:	e8 ec 0f 00 00       	call   8aae <_ZNSt4pairIPSt18_Rb_tree_node_baseS1_EC1IRS1_S4_Lb1EEEOT_OT0_>
    7ac2:	48 8b 45 d0          	mov    -0x30(%rbp),%rax
    7ac6:	48 8b 55 d8          	mov    -0x28(%rbp),%rdx
    7aca:	eb 3c                	jmp    7b08 <_ZNSt8_Rb_treeINSt7__cxx1112basic_stringIcSt11char_traitsIcESaIcEEESt4pairIKS5_P12netlist_elemESt10_Select1stISA_ESt4lessIS5_ESaISA_EE29_M_get_insert_hint_unique_posESt23_Rb_tree_const_iteratorISA_ERS7_+0x38e>
    7acc:	48 8b 55 98          	mov    -0x68(%rbp),%rdx
    7ad0:	48 8b 45 a8          	mov    -0x58(%rbp),%rax
    7ad4:	48 89 d6             	mov    %rdx,%rsi
    7ad7:	48 89 c7             	mov    %rax,%rdi
    7ada:	e8 1d 0e 00 00       	call   88fc <_ZNSt8_Rb_treeINSt7__cxx1112basic_stringIcSt11char_traitsIcESaIcEEESt4pairIKS5_P12netlist_elemESt10_Select1stISA_ESt4lessIS5_ESaISA_EE24_M_get_insert_unique_posERS7_>
    7adf:	eb 27                	jmp    7b08 <_ZNSt8_Rb_treeINSt7__cxx1112basic_stringIcSt11char_traitsIcESaIcEEESt4pairIKS5_P12netlist_elemESt10_Select1stISA_ESt4lessIS5_ESaISA_EE29_M_get_insert_hint_unique_posESt23_Rb_tree_const_iteratorISA_ERS7_+0x38e>
    7ae1:	48 c7 45 c8 00 00 00 	movq   $0x0,-0x38(%rbp)
    7ae8:	00 
    7ae9:	48 8d 55 c8          	lea    -0x38(%rbp),%rdx
    7aed:	48 8d 4d b8          	lea    -0x48(%rbp),%rcx
    7af1:	48 8d 45 d0          	lea    -0x30(%rbp),%rax
    7af5:	48 89 ce             	mov    %rcx,%rsi
    7af8:	48 89 c7             	mov    %rax,%rdi
    7afb:	e8 22 10 00 00       	call   8b22 <_ZNSt4pairIPSt18_Rb_tree_node_baseS1_EC1IRS1_Lb1EEEOT_RKS1_>
    7b00:	48 8b 45 d0          	mov    -0x30(%rbp),%rax
    7b04:	48 8b 55 d8          	mov    -0x28(%rbp),%rdx
    7b08:	48 8b 4d e8          	mov    -0x18(%rbp),%rcx
    7b0c:	64 48 2b 0c 25 28 00 	sub    %fs:0x28,%rcx
    7b13:	00 00 
    7b15:	74 05                	je     7b1c <_ZNSt8_Rb_treeINSt7__cxx1112basic_stringIcSt11char_traitsIcESaIcEEESt4pairIKS5_P12netlist_elemESt10_Select1stISA_ESt4lessIS5_ESaISA_EE29_M_get_insert_hint_unique_posESt23_Rb_tree_const_iteratorISA_ERS7_+0x3a2>
    7b17:	e8 e4 aa ff ff       	call   2600 <__stack_chk_fail@plt>
    7b1c:	48 8b 5d f8          	mov    -0x8(%rbp),%rbx
    7b20:	c9                   	leave  
    7b21:	c3                   	ret    

0000000000007b22 <_ZNSt8_Rb_treeINSt7__cxx1112basic_stringIcSt11char_traitsIcESaIcEEESt4pairIKS5_P12netlist_elemESt10_Select1stISA_ESt4lessIS5_ESaISA_EE6_S_keyEPKSt13_Rb_tree_nodeISA_E>:
    7b22:	f3 0f 1e fa          	endbr64 
    7b26:	55                   	push   %rbp
    7b27:	48 89 e5             	mov    %rsp,%rbp
    7b2a:	48 83 ec 20          	sub    $0x20,%rsp
    7b2e:	48 89 7d e8          	mov    %rdi,-0x18(%rbp)
    7b32:	64 48 8b 04 25 28 00 	mov    %fs:0x28,%rax
    7b39:	00 00 
    7b3b:	48 89 45 f8          	mov    %rax,-0x8(%rbp)
    7b3f:	31 c0                	xor    %eax,%eax
    7b41:	48 8b 45 e8          	mov    -0x18(%rbp),%rax
    7b45:	48 89 c7             	mov    %rax,%rdi
    7b48:	e8 15 10 00 00       	call   8b62 <_ZNKSt13_Rb_tree_nodeISt4pairIKNSt7__cxx1112basic_stringIcSt11char_traitsIcESaIcEEEP12netlist_elemEE9_M_valptrEv>
    7b4d:	48 89 c2             	mov    %rax,%rdx
    7b50:	48 8d 45 f7          	lea    -0x9(%rbp),%rax
    7b54:	48 89 d6             	mov    %rdx,%rsi
    7b57:	48 89 c7             	mov    %rax,%rdi
    7b5a:	e8 25 10 00 00       	call   8b84 <_ZNKSt10_Select1stISt4pairIKNSt7__cxx1112basic_stringIcSt11char_traitsIcESaIcEEEP12netlist_elemEEclERKSA_>
    7b5f:	48 8b 55 f8          	mov    -0x8(%rbp),%rdx
    7b63:	64 48 2b 14 25 28 00 	sub    %fs:0x28,%rdx
    7b6a:	00 00 
    7b6c:	74 05                	je     7b73 <_ZNSt8_Rb_treeINSt7__cxx1112basic_stringIcSt11char_traitsIcESaIcEEESt4pairIKS5_P12netlist_elemESt10_Select1stISA_ESt4lessIS5_ESaISA_EE6_S_keyEPKSt13_Rb_tree_nodeISA_E+0x51>
    7b6e:	e8 8d aa ff ff       	call   2600 <__stack_chk_fail@plt>
    7b73:	c9                   	leave  
    7b74:	c3                   	ret    
    7b75:	90                   	nop

0000000000007b76 <_ZNSt8_Rb_treeINSt7__cxx1112basic_stringIcSt11char_traitsIcESaIcEEESt4pairIKS5_P12netlist_elemESt10_Select1stISA_ESt4lessIS5_ESaISA_EE14_M_insert_nodeEPSt18_Rb_tree_node_baseSI_PSt13_Rb_tree_nodeISA_E>:
    7b76:	f3 0f 1e fa          	endbr64 
    7b7a:	55                   	push   %rbp
    7b7b:	48 89 e5             	mov    %rsp,%rbp
    7b7e:	41 54                	push   %r12
    7b80:	53                   	push   %rbx
    7b81:	48 83 ec 40          	sub    $0x40,%rsp
    7b85:	48 89 7d c8          	mov    %rdi,-0x38(%rbp)
    7b89:	48 89 75 c0          	mov    %rsi,-0x40(%rbp)
    7b8d:	48 89 55 b8          	mov    %rdx,-0x48(%rbp)
    7b91:	48 89 4d b0          	mov    %rcx,-0x50(%rbp)
    7b95:	64 48 8b 04 25 28 00 	mov    %fs:0x28,%rax
    7b9c:	00 00 
    7b9e:	48 89 45 e8          	mov    %rax,-0x18(%rbp)
    7ba2:	31 c0                	xor    %eax,%eax
    7ba4:	48 83 7d c0 00       	cmpq   $0x0,-0x40(%rbp)
    7ba9:	75 43                	jne    7bee <_ZNSt8_Rb_treeINSt7__cxx1112basic_stringIcSt11char_traitsIcESaIcEEESt4pairIKS5_P12netlist_elemESt10_Select1stISA_ESt4lessIS5_ESaISA_EE14_M_insert_nodeEPSt18_Rb_tree_node_baseSI_PSt13_Rb_tree_nodeISA_E+0x78>
    7bab:	48 8b 45 c8          	mov    -0x38(%rbp),%rax
    7baf:	48 89 c7             	mov    %rax,%rdi
    7bb2:	e8 ad 0a 00 00       	call   8664 <_ZNSt8_Rb_treeINSt7__cxx1112basic_stringIcSt11char_traitsIcESaIcEEESt4pairIKS5_P12netlist_elemESt10_Select1stISA_ESt4lessIS5_ESaISA_EE6_M_endEv>
    7bb7:	48 39 45 b8          	cmp    %rax,-0x48(%rbp)
    7bbb:	74 31                	je     7bee <_ZNSt8_Rb_treeINSt7__cxx1112basic_stringIcSt11char_traitsIcESaIcEEESt4pairIKS5_P12netlist_elemESt10_Select1stISA_ESt4lessIS5_ESaISA_EE14_M_insert_nodeEPSt18_Rb_tree_node_baseSI_PSt13_Rb_tree_nodeISA_E+0x78>
    7bbd:	48 8b 5d c8          	mov    -0x38(%rbp),%rbx
    7bc1:	48 8b 45 b8          	mov    -0x48(%rbp),%rax
    7bc5:	48 89 c7             	mov    %rax,%rdi
    7bc8:	e8 69 0b 00 00       	call   8736 <_ZNSt8_Rb_treeINSt7__cxx1112basic_stringIcSt11char_traitsIcESaIcEEESt4pairIKS5_P12netlist_elemESt10_Select1stISA_ESt4lessIS5_ESaISA_EE6_S_keyEPKSt18_Rb_tree_node_base>
    7bcd:	49 89 c4             	mov    %rax,%r12
    7bd0:	48 8b 45 b0          	mov    -0x50(%rbp),%rax
    7bd4:	48 89 c7             	mov    %rax,%rdi
    7bd7:	e8 46 ff ff ff       	call   7b22 <_ZNSt8_Rb_treeINSt7__cxx1112basic_stringIcSt11char_traitsIcESaIcEEESt4pairIKS5_P12netlist_elemESt10_Select1stISA_ESt4lessIS5_ESaISA_EE6_S_keyEPKSt13_Rb_tree_nodeISA_E>
    7bdc:	4c 89 e2             	mov    %r12,%rdx
    7bdf:	48 89 c6             	mov    %rax,%rsi
    7be2:	48 89 df             	mov    %rbx,%rdi
    7be5:	e8 ae e8 ff ff       	call   6498 <_ZNKSt4lessINSt7__cxx1112basic_stringIcSt11char_traitsIcESaIcEEEEclERKS5_S8_>
    7bea:	84 c0                	test   %al,%al
    7bec:	74 07                	je     7bf5 <_ZNSt8_Rb_treeINSt7__cxx1112basic_stringIcSt11char_traitsIcESaIcEEESt4pairIKS5_P12netlist_elemESt10_Select1stISA_ESt4lessIS5_ESaISA_EE14_M_insert_nodeEPSt18_Rb_tree_node_baseSI_PSt13_Rb_tree_nodeISA_E+0x7f>
    7bee:	b8 01 00 00 00       	mov    $0x1,%eax
    7bf3:	eb 05                	jmp    7bfa <_ZNSt8_Rb_treeINSt7__cxx1112basic_stringIcSt11char_traitsIcESaIcEEESt4pairIKS5_P12netlist_elemESt10_Select1stISA_ESt4lessIS5_ESaISA_EE14_M_insert_nodeEPSt18_Rb_tree_node_baseSI_PSt13_Rb_tree_nodeISA_E+0x84>
    7bf5:	b8 00 00 00 00       	mov    $0x0,%eax
    7bfa:	88 45 df             	mov    %al,-0x21(%rbp)
    7bfd:	48 8b 45 c8          	mov    -0x38(%rbp),%rax
    7c01:	48 8d 48 08          	lea    0x8(%rax),%rcx
    7c05:	0f b6 45 df          	movzbl -0x21(%rbp),%eax
    7c09:	48 8b 55 b8          	mov    -0x48(%rbp),%rdx
    7c0d:	48 8b 75 b0          	mov    -0x50(%rbp),%rsi
    7c11:	89 c7                	mov    %eax,%edi
    7c13:	e8 e8 a7 ff ff       	call   2400 <_ZSt29_Rb_tree_insert_and_rebalancebPSt18_Rb_tree_node_baseS0_RS_@plt>
    7c18:	48 8b 45 c8          	mov    -0x38(%rbp),%rax
    7c1c:	48 8b 40 28          	mov    0x28(%rax),%rax
    7c20:	48 8d 50 01          	lea    0x1(%rax),%rdx
    7c24:	48 8b 45 c8          	mov    -0x38(%rbp),%rax
    7c28:	48 89 50 28          	mov    %rdx,0x28(%rax)
    7c2c:	48 8b 55 b0          	mov    -0x50(%rbp),%rdx
    7c30:	48 8d 45 e0          	lea    -0x20(%rbp),%rax
    7c34:	48 89 d6             	mov    %rdx,%rsi
    7c37:	48 89 c7             	mov    %rax,%rdi
    7c3a:	e8 b1 f9 ff ff       	call   75f0 <_ZNSt17_Rb_tree_iteratorISt4pairIKNSt7__cxx1112basic_stringIcSt11char_traitsIcESaIcEEEP12netlist_elemEEC1EPSt18_Rb_tree_node_base>
    7c3f:	48 8b 45 e0          	mov    -0x20(%rbp),%rax
    7c43:	48 8b 55 e8          	mov    -0x18(%rbp),%rdx
    7c47:	64 48 2b 14 25 28 00 	sub    %fs:0x28,%rdx
    7c4e:	00 00 
    7c50:	74 05                	je     7c57 <_ZNSt8_Rb_treeINSt7__cxx1112basic_stringIcSt11char_traitsIcESaIcEEESt4pairIKS5_P12netlist_elemESt10_Select1stISA_ESt4lessIS5_ESaISA_EE14_M_insert_nodeEPSt18_Rb_tree_node_baseSI_PSt13_Rb_tree_nodeISA_E+0xe1>
    7c52:	e8 a9 a9 ff ff       	call   2600 <__stack_chk_fail@plt>
    7c57:	48 83 c4 40          	add    $0x40,%rsp
    7c5b:	5b                   	pop    %rbx
    7c5c:	41 5c                	pop    %r12
    7c5e:	5d                   	pop    %rbp
    7c5f:	c3                   	ret    

0000000000007c60 <_ZN9__gnu_cxx13new_allocatorI12netlist_elemEC1Ev>:
    7c60:	f3 0f 1e fa          	endbr64 
    7c64:	55                   	push   %rbp
    7c65:	48 89 e5             	mov    %rsp,%rbp
    7c68:	48 89 7d f8          	mov    %rdi,-0x8(%rbp)
    7c6c:	90                   	nop
    7c6d:	5d                   	pop    %rbp
    7c6e:	c3                   	ret    
    7c6f:	90                   	nop

0000000000007c70 <_ZN9__gnu_cxx13new_allocatorISt6vectorI10location_tSaIS2_EEEC1Ev>:
    7c70:	f3 0f 1e fa          	endbr64 
    7c74:	55                   	push   %rbp
    7c75:	48 89 e5             	mov    %rsp,%rbp
    7c78:	48 89 7d f8          	mov    %rdi,-0x8(%rbp)
    7c7c:	90                   	nop
    7c7d:	5d                   	pop    %rbp
    7c7e:	c3                   	ret    
    7c7f:	90                   	nop

0000000000007c80 <_ZN9__gnu_cxx13new_allocatorISt13_Rb_tree_nodeISt4pairIKNSt7__cxx1112basic_stringIcSt11char_traitsIcESaIcEEEP12netlist_elemEEEC1Ev>:
    7c80:	f3 0f 1e fa          	endbr64 
    7c84:	55                   	push   %rbp
    7c85:	48 89 e5             	mov    %rsp,%rbp
    7c88:	48 89 7d f8          	mov    %rdi,-0x8(%rbp)
    7c8c:	90                   	nop
    7c8d:	5d                   	pop    %rbp
    7c8e:	c3                   	ret    
    7c8f:	90                   	nop

0000000000007c90 <_ZNKSt6vectorI12netlist_elemSaIS0_EE8max_sizeEv>:
    7c90:	f3 0f 1e fa          	endbr64 
    7c94:	55                   	push   %rbp
    7c95:	48 89 e5             	mov    %rsp,%rbp
    7c98:	48 83 ec 10          	sub    $0x10,%rsp
    7c9c:	48 89 7d f8          	mov    %rdi,-0x8(%rbp)
    7ca0:	48 8b 45 f8          	mov    -0x8(%rbp),%rax
    7ca4:	48 89 c7             	mov    %rax,%rdi
    7ca7:	e8 58 0f 00 00       	call   8c04 <_ZNKSt12_Vector_baseI12netlist_elemSaIS0_EE19_M_get_Tp_allocatorEv>
    7cac:	48 89 c7             	mov    %rax,%rdi
    7caf:	e8 e6 0e 00 00       	call   8b9a <_ZNSt6vectorI12netlist_elemSaIS0_EE11_S_max_sizeERKS1_>
    7cb4:	c9                   	leave  
    7cb5:	c3                   	ret    

0000000000007cb6 <_ZSt27__uninitialized_default_n_aIP12netlist_elemmS0_ET_S2_T0_RSaIT1_E>:
    7cb6:	f3 0f 1e fa          	endbr64 
    7cba:	55                   	push   %rbp
    7cbb:	48 89 e5             	mov    %rsp,%rbp
    7cbe:	48 83 ec 20          	sub    $0x20,%rsp
    7cc2:	48 89 7d f8          	mov    %rdi,-0x8(%rbp)
    7cc6:	48 89 75 f0          	mov    %rsi,-0x10(%rbp)
    7cca:	48 89 55 e8          	mov    %rdx,-0x18(%rbp)
    7cce:	48 8b 55 f0          	mov    -0x10(%rbp),%rdx
    7cd2:	48 8b 45 f8          	mov    -0x8(%rbp),%rax
    7cd6:	48 89 d6             	mov    %rdx,%rsi
    7cd9:	48 89 c7             	mov    %rax,%rdi
    7cdc:	e8 35 0f 00 00       	call   8c16 <_ZSt25__uninitialized_default_nIP12netlist_elemmET_S2_T0_>
    7ce1:	c9                   	leave  
    7ce2:	c3                   	ret    
    7ce3:	90                   	nop

0000000000007ce4 <_ZNKSt6vectorI12netlist_elemSaIS0_EE12_M_check_lenEmPKc>:
    7ce4:	f3 0f 1e fa          	endbr64 
    7ce8:	55                   	push   %rbp
    7ce9:	48 89 e5             	mov    %rsp,%rbp
    7cec:	53                   	push   %rbx
    7ced:	48 83 ec 48          	sub    $0x48,%rsp
    7cf1:	48 89 7d c8          	mov    %rdi,-0x38(%rbp)
    7cf5:	48 89 75 c0          	mov    %rsi,-0x40(%rbp)
    7cf9:	48 89 55 b8          	mov    %rdx,-0x48(%rbp)
    7cfd:	64 48 8b 04 25 28 00 	mov    %fs:0x28,%rax
    7d04:	00 00 
    7d06:	48 89 45 e8          	mov    %rax,-0x18(%rbp)
    7d0a:	31 c0                	xor    %eax,%eax
    7d0c:	48 8b 45 c8          	mov    -0x38(%rbp),%rax
    7d10:	48 89 c7             	mov    %rax,%rdi
    7d13:	e8 78 ff ff ff       	call   7c90 <_ZNKSt6vectorI12netlist_elemSaIS0_EE8max_sizeEv>
    7d18:	48 89 c3             	mov    %rax,%rbx
    7d1b:	48 8b 45 c8          	mov    -0x38(%rbp),%rax
    7d1f:	48 89 c7             	mov    %rax,%rdi
    7d22:	e8 c9 e9 ff ff       	call   66f0 <_ZNKSt6vectorI12netlist_elemSaIS0_EE4sizeEv>
    7d27:	48 29 c3             	sub    %rax,%rbx
    7d2a:	48 89 da             	mov    %rbx,%rdx
    7d2d:	48 8b 45 c0          	mov    -0x40(%rbp),%rax
    7d31:	48 39 c2             	cmp    %rax,%rdx
    7d34:	0f 92 c0             	setb   %al
    7d37:	84 c0                	test   %al,%al
    7d39:	74 0c                	je     7d47 <_ZNKSt6vectorI12netlist_elemSaIS0_EE12_M_check_lenEmPKc+0x63>
    7d3b:	48 8b 45 b8          	mov    -0x48(%rbp),%rax
    7d3f:	48 89 c7             	mov    %rax,%rdi
    7d42:	e8 39 a7 ff ff       	call   2480 <_ZSt20__throw_length_errorPKc@plt>
    7d47:	48 8b 45 c8          	mov    -0x38(%rbp),%rax
    7d4b:	48 89 c7             	mov    %rax,%rdi
    7d4e:	e8 9d e9 ff ff       	call   66f0 <_ZNKSt6vectorI12netlist_elemSaIS0_EE4sizeEv>
    7d53:	48 89 c3             	mov    %rax,%rbx
    7d56:	48 8b 45 c8          	mov    -0x38(%rbp),%rax
    7d5a:	48 89 c7             	mov    %rax,%rdi
    7d5d:	e8 8e e9 ff ff       	call   66f0 <_ZNKSt6vectorI12netlist_elemSaIS0_EE4sizeEv>
    7d62:	48 89 45 d8          	mov    %rax,-0x28(%rbp)
    7d66:	48 8d 55 c0          	lea    -0x40(%rbp),%rdx
    7d6a:	48 8d 45 d8          	lea    -0x28(%rbp),%rax
    7d6e:	48 89 d6             	mov    %rdx,%rsi
    7d71:	48 89 c7             	mov    %rax,%rdi
    7d74:	e8 ca 0e 00 00       	call   8c43 <_ZSt3maxImERKT_S2_S2_>
    7d79:	48 8b 00             	mov    (%rax),%rax
    7d7c:	48 01 d8             	add    %rbx,%rax
    7d7f:	48 89 45 e0          	mov    %rax,-0x20(%rbp)
    7d83:	48 8b 45 c8          	mov    -0x38(%rbp),%rax
    7d87:	48 89 c7             	mov    %rax,%rdi
    7d8a:	e8 61 e9 ff ff       	call   66f0 <_ZNKSt6vectorI12netlist_elemSaIS0_EE4sizeEv>
    7d8f:	48 39 45 e0          	cmp    %rax,-0x20(%rbp)
    7d93:	72 12                	jb     7da7 <_ZNKSt6vectorI12netlist_elemSaIS0_EE12_M_check_lenEmPKc+0xc3>
    7d95:	48 8b 45 c8          	mov    -0x38(%rbp),%rax
    7d99:	48 89 c7             	mov    %rax,%rdi
    7d9c:	e8 ef fe ff ff       	call   7c90 <_ZNKSt6vectorI12netlist_elemSaIS0_EE8max_sizeEv>
    7da1:	48 39 45 e0          	cmp    %rax,-0x20(%rbp)
    7da5:	76 0e                	jbe    7db5 <_ZNKSt6vectorI12netlist_elemSaIS0_EE12_M_check_lenEmPKc+0xd1>
    7da7:	48 8b 45 c8          	mov    -0x38(%rbp),%rax
    7dab:	48 89 c7             	mov    %rax,%rdi
    7dae:	e8 dd fe ff ff       	call   7c90 <_ZNKSt6vectorI12netlist_elemSaIS0_EE8max_sizeEv>
    7db3:	eb 04                	jmp    7db9 <_ZNKSt6vectorI12netlist_elemSaIS0_EE12_M_check_lenEmPKc+0xd5>
    7db5:	48 8b 45 e0          	mov    -0x20(%rbp),%rax
    7db9:	48 8b 55 e8          	mov    -0x18(%rbp),%rdx
    7dbd:	64 48 2b 14 25 28 00 	sub    %fs:0x28,%rdx
    7dc4:	00 00 
    7dc6:	74 05                	je     7dcd <_ZNKSt6vectorI12netlist_elemSaIS0_EE12_M_check_lenEmPKc+0xe9>
    7dc8:	e8 33 a8 ff ff       	call   2600 <__stack_chk_fail@plt>
    7dcd:	48 8b 5d f8          	mov    -0x8(%rbp),%rbx
    7dd1:	c9                   	leave  
    7dd2:	c3                   	ret    
    7dd3:	90                   	nop

0000000000007dd4 <_ZNSt12_Vector_baseI12netlist_elemSaIS0_EE11_M_allocateEm>:
    7dd4:	f3 0f 1e fa          	endbr64 
    7dd8:	55                   	push   %rbp
    7dd9:	48 89 e5             	mov    %rsp,%rbp
    7ddc:	48 83 ec 10          	sub    $0x10,%rsp
    7de0:	48 89 7d f8          	mov    %rdi,-0x8(%rbp)
    7de4:	48 89 75 f0          	mov    %rsi,-0x10(%rbp)
    7de8:	48 83 7d f0 00       	cmpq   $0x0,-0x10(%rbp)
    7ded:	74 15                	je     7e04 <_ZNSt12_Vector_baseI12netlist_elemSaIS0_EE11_M_allocateEm+0x30>
    7def:	48 8b 45 f8          	mov    -0x8(%rbp),%rax
    7df3:	48 8b 55 f0          	mov    -0x10(%rbp),%rdx
    7df7:	48 89 d6             	mov    %rdx,%rsi
    7dfa:	48 89 c7             	mov    %rax,%rdi
    7dfd:	e8 70 0e 00 00       	call   8c72 <_ZNSt16allocator_traitsISaI12netlist_elemEE8allocateERS1_m>
    7e02:	eb 05                	jmp    7e09 <_ZNSt12_Vector_baseI12netlist_elemSaIS0_EE11_M_allocateEm+0x35>
    7e04:	b8 00 00 00 00       	mov    $0x0,%eax
    7e09:	c9                   	leave  
    7e0a:	c3                   	ret    

0000000000007e0b <_ZSt34__uninitialized_move_if_noexcept_aIP12netlist_elemS1_SaIS0_EET0_T_S4_S3_RT1_>:
    7e0b:	f3 0f 1e fa          	endbr64 
    7e0f:	55                   	push   %rbp
    7e10:	48 89 e5             	mov    %rsp,%rbp
    7e13:	53                   	push   %rbx
    7e14:	48 83 ec 28          	sub    $0x28,%rsp
    7e18:	48 89 7d e8          	mov    %rdi,-0x18(%rbp)
    7e1c:	48 89 75 e0          	mov    %rsi,-0x20(%rbp)
    7e20:	48 89 55 d8          	mov    %rdx,-0x28(%rbp)
    7e24:	48 89 4d d0          	mov    %rcx,-0x30(%rbp)
    7e28:	48 8b 45 e0          	mov    -0x20(%rbp),%rax
    7e2c:	48 89 c7             	mov    %rax,%rdi
    7e2f:	e8 6c 0e 00 00       	call   8ca0 <_ZSt32__make_move_if_noexcept_iteratorI12netlist_elemPKS0_ET0_PT_>
    7e34:	48 89 c3             	mov    %rax,%rbx
    7e37:	48 8b 45 e8          	mov    -0x18(%rbp),%rax
    7e3b:	48 89 c7             	mov    %rax,%rdi
    7e3e:	e8 5d 0e 00 00       	call   8ca0 <_ZSt32__make_move_if_noexcept_iteratorI12netlist_elemPKS0_ET0_PT_>
    7e43:	48 89 c7             	mov    %rax,%rdi
    7e46:	48 8b 55 d0          	mov    -0x30(%rbp),%rdx
    7e4a:	48 8b 45 d8          	mov    -0x28(%rbp),%rax
    7e4e:	48 89 d1             	mov    %rdx,%rcx
    7e51:	48 89 c2             	mov    %rax,%rdx
    7e54:	48 89 de             	mov    %rbx,%rsi
    7e57:	e8 56 0e 00 00       	call   8cb2 <_ZSt22__uninitialized_copy_aIPK12netlist_elemPS0_S0_ET0_T_S5_S4_RSaIT1_E>
    7e5c:	48 8b 5d f8          	mov    -0x8(%rbp),%rbx
    7e60:	c9                   	leave  
    7e61:	c3                   	ret    

0000000000007e62 <_ZNSt6vectorI10location_tSaIS0_EE11_S_max_sizeERKS1_>:
    7e62:	f3 0f 1e fa          	endbr64 
    7e66:	55                   	push   %rbp
    7e67:	48 89 e5             	mov    %rsp,%rbp
    7e6a:	48 83 ec 30          	sub    $0x30,%rsp
    7e6e:	48 89 7d d8          	mov    %rdi,-0x28(%rbp)
    7e72:	64 48 8b 04 25 28 00 	mov    %fs:0x28,%rax
    7e79:	00 00 
    7e7b:	48 89 45 f8          	mov    %rax,-0x8(%rbp)
    7e7f:	31 c0                	xor    %eax,%eax
    7e81:	48 b8 ff ff ff ff ff 	movabs $0xfffffffffffffff,%rax
    7e88:	ff ff 0f 
    7e8b:	48 89 45 e8          	mov    %rax,-0x18(%rbp)
    7e8f:	48 8b 45 d8          	mov    -0x28(%rbp),%rax
    7e93:	48 89 c7             	mov    %rax,%rdi
    7e96:	e8 4c 0e 00 00       	call   8ce7 <_ZNSt16allocator_traitsISaI10location_tEE8max_sizeERKS1_>
    7e9b:	48 89 45 f0          	mov    %rax,-0x10(%rbp)
    7e9f:	48 8d 55 f0          	lea    -0x10(%rbp),%rdx
    7ea3:	48 8d 45 e8          	lea    -0x18(%rbp),%rax
    7ea7:	48 89 d6             	mov    %rdx,%rsi
    7eaa:	48 89 c7             	mov    %rax,%rdi
    7ead:	e8 c0 c5 ff ff       	call   4472 <_ZSt3minImERKT_S2_S2_>
    7eb2:	48 8b 00             	mov    (%rax),%rax
    7eb5:	48 8b 55 f8          	mov    -0x8(%rbp),%rdx
    7eb9:	64 48 2b 14 25 28 00 	sub    %fs:0x28,%rdx
    7ec0:	00 00 
    7ec2:	74 05                	je     7ec9 <_ZNSt6vectorI10location_tSaIS0_EE11_S_max_sizeERKS1_+0x67>
    7ec4:	e8 37 a7 ff ff       	call   2600 <__stack_chk_fail@plt>
    7ec9:	c9                   	leave  
    7eca:	c3                   	ret    
    7ecb:	90                   	nop

0000000000007ecc <_ZNSaI10location_tEC1ERKS0_>:
    7ecc:	f3 0f 1e fa          	endbr64 
    7ed0:	55                   	push   %rbp
    7ed1:	48 89 e5             	mov    %rsp,%rbp
    7ed4:	48 83 ec 10          	sub    $0x10,%rsp
    7ed8:	48 89 7d f8          	mov    %rdi,-0x8(%rbp)
    7edc:	48 89 75 f0          	mov    %rsi,-0x10(%rbp)
    7ee0:	48 8b 55 f0          	mov    -0x10(%rbp),%rdx
    7ee4:	48 8b 45 f8          	mov    -0x8(%rbp),%rax
    7ee8:	48 89 d6             	mov    %rdx,%rsi
    7eeb:	48 89 c7             	mov    %rax,%rdi
    7eee:	e8 13 0e 00 00       	call   8d06 <_ZN9__gnu_cxx13new_allocatorI10location_tEC1ERKS2_>
    7ef3:	90                   	nop
    7ef4:	c9                   	leave  
    7ef5:	c3                   	ret    

0000000000007ef6 <_ZNSt12_Vector_baseI10location_tSaIS0_EE12_Vector_implC1ERKS1_>:
    7ef6:	f3 0f 1e fa          	endbr64 
    7efa:	55                   	push   %rbp
    7efb:	48 89 e5             	mov    %rsp,%rbp
    7efe:	48 83 ec 10          	sub    $0x10,%rsp
    7f02:	48 89 7d f8          	mov    %rdi,-0x8(%rbp)
    7f06:	48 89 75 f0          	mov    %rsi,-0x10(%rbp)
    7f0a:	48 8b 55 f0          	mov    -0x10(%rbp),%rdx
    7f0e:	48 8b 45 f8          	mov    -0x8(%rbp),%rax
    7f12:	48 89 d6             	mov    %rdx,%rsi
    7f15:	48 89 c7             	mov    %rax,%rdi
    7f18:	e8 af ff ff ff       	call   7ecc <_ZNSaI10location_tEC1ERKS0_>
    7f1d:	48 8b 45 f8          	mov    -0x8(%rbp),%rax
    7f21:	48 89 c7             	mov    %rax,%rdi
    7f24:	e8 f1 0d 00 00       	call   8d1a <_ZNSt12_Vector_baseI10location_tSaIS0_EE17_Vector_impl_dataC1Ev>
    7f29:	90                   	nop
    7f2a:	c9                   	leave  
    7f2b:	c3                   	ret    

0000000000007f2c <_ZNSt12_Vector_baseI10location_tSaIS0_EE17_M_create_storageEm>:
    7f2c:	f3 0f 1e fa          	endbr64 
    7f30:	55                   	push   %rbp
    7f31:	48 89 e5             	mov    %rsp,%rbp
    7f34:	48 83 ec 10          	sub    $0x10,%rsp
    7f38:	48 89 7d f8          	mov    %rdi,-0x8(%rbp)
    7f3c:	48 89 75 f0          	mov    %rsi,-0x10(%rbp)
    7f40:	48 8b 55 f0          	mov    -0x10(%rbp),%rdx
    7f44:	48 8b 45 f8          	mov    -0x8(%rbp),%rax
    7f48:	48 89 d6             	mov    %rdx,%rsi
    7f4b:	48 89 c7             	mov    %rax,%rdi
    7f4e:	e8 f9 0d 00 00       	call   8d4c <_ZNSt12_Vector_baseI10location_tSaIS0_EE11_M_allocateEm>
    7f53:	48 8b 55 f8          	mov    -0x8(%rbp),%rdx
    7f57:	48 89 02             	mov    %rax,(%rdx)
    7f5a:	48 8b 45 f8          	mov    -0x8(%rbp),%rax
    7f5e:	48 8b 10             	mov    (%rax),%rdx
    7f61:	48 8b 45 f8          	mov    -0x8(%rbp),%rax
    7f65:	48 89 50 08          	mov    %rdx,0x8(%rax)
    7f69:	48 8b 45 f8          	mov    -0x8(%rbp),%rax
    7f6d:	48 8b 10             	mov    (%rax),%rdx
    7f70:	48 8b 45 f0          	mov    -0x10(%rbp),%rax
    7f74:	48 c1 e0 03          	shl    $0x3,%rax
    7f78:	48 01 c2             	add    %rax,%rdx
    7f7b:	48 8b 45 f8          	mov    -0x8(%rbp),%rax
    7f7f:	48 89 50 10          	mov    %rdx,0x10(%rax)
    7f83:	90                   	nop
    7f84:	c9                   	leave  
    7f85:	c3                   	ret    

0000000000007f86 <_ZSt27__uninitialized_default_n_aIP10location_tmS0_ET_S2_T0_RSaIT1_E>:
    7f86:	f3 0f 1e fa          	endbr64 
    7f8a:	55                   	push   %rbp
    7f8b:	48 89 e5             	mov    %rsp,%rbp
    7f8e:	48 83 ec 20          	sub    $0x20,%rsp
    7f92:	48 89 7d f8          	mov    %rdi,-0x8(%rbp)
    7f96:	48 89 75 f0          	mov    %rsi,-0x10(%rbp)
    7f9a:	48 89 55 e8          	mov    %rdx,-0x18(%rbp)
    7f9e:	48 8b 55 f0          	mov    -0x10(%rbp),%rdx
    7fa2:	48 8b 45 f8          	mov    -0x8(%rbp),%rax
    7fa6:	48 89 d6             	mov    %rdx,%rsi
    7fa9:	48 89 c7             	mov    %rax,%rdi
    7fac:	e8 d2 0d 00 00       	call   8d83 <_ZSt25__uninitialized_default_nIP10location_tmET_S2_T0_>
    7fb1:	c9                   	leave  
    7fb2:	c3                   	ret    
    7fb3:	90                   	nop

0000000000007fb4 <_ZNSt6vectorIS_I10location_tSaIS0_EESaIS2_EE16_Temporary_valueC1IJRKS2_EEEPS4_DpOT_>:
    7fb4:	f3 0f 1e fa          	endbr64 
    7fb8:	55                   	push   %rbp
    7fb9:	48 89 e5             	mov    %rsp,%rbp
    7fbc:	53                   	push   %rbx
    7fbd:	48 83 ec 28          	sub    $0x28,%rsp
    7fc1:	48 89 7d e8          	mov    %rdi,-0x18(%rbp)
    7fc5:	48 89 75 e0          	mov    %rsi,-0x20(%rbp)
    7fc9:	48 89 55 d8          	mov    %rdx,-0x28(%rbp)
    7fcd:	48 8b 45 e8          	mov    -0x18(%rbp),%rax
    7fd1:	48 8b 55 e0          	mov    -0x20(%rbp),%rdx
    7fd5:	48 89 10             	mov    %rdx,(%rax)
    7fd8:	48 8b 45 d8          	mov    -0x28(%rbp),%rax
    7fdc:	48 89 c7             	mov    %rax,%rdi
    7fdf:	e8 e2 0d 00 00       	call   8dc6 <_ZSt7forwardIRKSt6vectorI10location_tSaIS1_EEEOT_RNSt16remove_referenceIS6_E4typeE>
    7fe4:	48 89 c3             	mov    %rax,%rbx
    7fe7:	48 8b 45 e8          	mov    -0x18(%rbp),%rax
    7feb:	48 89 c7             	mov    %rax,%rdi
    7fee:	e8 bd 0d 00 00       	call   8db0 <_ZNSt6vectorIS_I10location_tSaIS0_EESaIS2_EE16_Temporary_value6_M_ptrEv>
    7ff3:	48 89 c1             	mov    %rax,%rcx
    7ff6:	48 8b 45 e8          	mov    -0x18(%rbp),%rax
    7ffa:	48 8b 00             	mov    (%rax),%rax
    7ffd:	48 89 da             	mov    %rbx,%rdx
    8000:	48 89 ce             	mov    %rcx,%rsi
    8003:	48 89 c7             	mov    %rax,%rdi
    8006:	e8 cd 0d 00 00       	call   8dd8 <_ZNSt16allocator_traitsISaISt6vectorI10location_tSaIS1_EEEE9constructIS3_JRKS3_EEEvRS4_PT_DpOT0_>
    800b:	90                   	nop
    800c:	48 8b 5d f8          	mov    -0x8(%rbp),%rbx
    8010:	c9                   	leave  
    8011:	c3                   	ret    

0000000000008012 <_ZNSt6vectorIS_I10location_tSaIS0_EESaIS2_EE16_Temporary_valueD1Ev>:
    8012:	f3 0f 1e fa          	endbr64 
    8016:	55                   	push   %rbp
    8017:	48 89 e5             	mov    %rsp,%rbp
    801a:	48 83 ec 10          	sub    $0x10,%rsp
    801e:	48 89 7d f8          	mov    %rdi,-0x8(%rbp)
    8022:	48 8b 45 f8          	mov    -0x8(%rbp),%rax
    8026:	48 89 c7             	mov    %rax,%rdi
    8029:	e8 82 0d 00 00       	call   8db0 <_ZNSt6vectorIS_I10location_tSaIS0_EESaIS2_EE16_Temporary_value6_M_ptrEv>
    802e:	48 89 c2             	mov    %rax,%rdx
    8031:	48 8b 45 f8          	mov    -0x8(%rbp),%rax
    8035:	48 8b 00             	mov    (%rax),%rax
    8038:	48 89 d6             	mov    %rdx,%rsi
    803b:	48 89 c7             	mov    %rax,%rdi
    803e:	e8 d2 0d 00 00       	call   8e15 <_ZNSt16allocator_traitsISaISt6vectorI10location_tSaIS1_EEEE7destroyIS3_EEvRS4_PT_>
    8043:	90                   	nop
    8044:	c9                   	leave  
    8045:	c3                   	ret    

0000000000008046 <_ZNSt6vectorIS_I10location_tSaIS0_EESaIS2_EE16_Temporary_value6_M_valEv>:
    8046:	f3 0f 1e fa          	endbr64 
    804a:	55                   	push   %rbp
    804b:	48 89 e5             	mov    %rsp,%rbp
    804e:	48 83 ec 10          	sub    $0x10,%rsp
    8052:	48 89 7d f8          	mov    %rdi,-0x8(%rbp)
    8056:	48 8b 45 f8          	mov    -0x8(%rbp),%rax
    805a:	48 89 c7             	mov    %rax,%rdi
    805d:	e8 4e 0d 00 00       	call   8db0 <_ZNSt6vectorIS_I10location_tSaIS0_EESaIS2_EE16_Temporary_value6_M_ptrEv>
    8062:	c9                   	leave  
    8063:	c3                   	ret    

0000000000008064 <_ZN9__gnu_cxxmiIPSt6vectorI10location_tSaIS2_EES1_IS4_SaIS4_EEEENS_17__normal_iteratorIT_T0_E15difference_typeERKSB_SE_>:
    8064:	f3 0f 1e fa          	endbr64 
    8068:	55                   	push   %rbp
    8069:	48 89 e5             	mov    %rsp,%rbp
    806c:	53                   	push   %rbx
    806d:	48 83 ec 18          	sub    $0x18,%rsp
    8071:	48 89 7d e8          	mov    %rdi,-0x18(%rbp)
    8075:	48 89 75 e0          	mov    %rsi,-0x20(%rbp)
    8079:	48 8b 45 e8          	mov    -0x18(%rbp),%rax
    807d:	48 89 c7             	mov    %rax,%rdi
    8080:	e8 8b 00 00 00       	call   8110 <_ZNK9__gnu_cxx17__normal_iteratorIPSt6vectorI10location_tSaIS2_EES1_IS4_SaIS4_EEE4baseEv>
    8085:	48 8b 18             	mov    (%rax),%rbx
    8088:	48 8b 45 e0          	mov    -0x20(%rbp),%rax
    808c:	48 89 c7             	mov    %rax,%rdi
    808f:	e8 7c 00 00 00       	call   8110 <_ZNK9__gnu_cxx17__normal_iteratorIPSt6vectorI10location_tSaIS2_EES1_IS4_SaIS4_EEE4baseEv>
    8094:	48 8b 10             	mov    (%rax),%rdx
    8097:	48 89 d8             	mov    %rbx,%rax
    809a:	48 29 d0             	sub    %rdx,%rax
    809d:	48 c1 f8 03          	sar    $0x3,%rax
    80a1:	48 89 c2             	mov    %rax,%rdx
    80a4:	48 b8 ab aa aa aa aa 	movabs $0xaaaaaaaaaaaaaaab,%rax
    80ab:	aa aa aa 
    80ae:	48 0f af c2          	imul   %rdx,%rax
    80b2:	48 8b 5d f8          	mov    -0x8(%rbp),%rbx
    80b6:	c9                   	leave  
    80b7:	c3                   	ret    

00000000000080b8 <_ZSt22__uninitialized_move_aIPSt6vectorI10location_tSaIS1_EES4_SaIS3_EET0_T_S7_S6_RT1_>:
    80b8:	f3 0f 1e fa          	endbr64 
    80bc:	55                   	push   %rbp
    80bd:	48 89 e5             	mov    %rsp,%rbp
    80c0:	53                   	push   %rbx
    80c1:	48 83 ec 28          	sub    $0x28,%rsp
    80c5:	48 89 7d e8          	mov    %rdi,-0x18(%rbp)
    80c9:	48 89 75 e0          	mov    %rsi,-0x20(%rbp)
    80cd:	48 89 55 d8          	mov    %rdx,-0x28(%rbp)
    80d1:	48 89 4d d0          	mov    %rcx,-0x30(%rbp)
    80d5:	48 8b 45 e0          	mov    -0x20(%rbp),%rax
    80d9:	48 89 c7             	mov    %rax,%rdi
    80dc:	e8 5e 0d 00 00       	call   8e3f <_ZSt18make_move_iteratorIPSt6vectorI10location_tSaIS1_EEESt13move_iteratorIT_ES6_>
    80e1:	48 89 c3             	mov    %rax,%rbx
    80e4:	48 8b 45 e8          	mov    -0x18(%rbp),%rax
    80e8:	48 89 c7             	mov    %rax,%rdi
    80eb:	e8 4f 0d 00 00       	call   8e3f <_ZSt18make_move_iteratorIPSt6vectorI10location_tSaIS1_EEESt13move_iteratorIT_ES6_>
    80f0:	48 89 c7             	mov    %rax,%rdi
    80f3:	48 8b 55 d0          	mov    -0x30(%rbp),%rdx
    80f7:	48 8b 45 d8          	mov    -0x28(%rbp),%rax
    80fb:	48 89 d1             	mov    %rdx,%rcx
    80fe:	48 89 c2             	mov    %rax,%rdx
    8101:	48 89 de             	mov    %rbx,%rsi
    8104:	e8 8d 0d 00 00       	call   8e96 <_ZSt22__uninitialized_copy_aISt13move_iteratorIPSt6vectorI10location_tSaIS2_EEES5_S4_ET0_T_S8_S7_RSaIT1_E>
    8109:	48 8b 5d f8          	mov    -0x8(%rbp),%rbx
    810d:	c9                   	leave  
    810e:	c3                   	ret    
    810f:	90                   	nop

0000000000008110 <_ZNK9__gnu_cxx17__normal_iteratorIPSt6vectorI10location_tSaIS2_EES1_IS4_SaIS4_EEE4baseEv>:
    8110:	f3 0f 1e fa          	endbr64 
    8114:	55                   	push   %rbp
    8115:	48 89 e5             	mov    %rsp,%rbp
    8118:	48 89 7d f8          	mov    %rdi,-0x8(%rbp)
    811c:	48 8b 45 f8          	mov    -0x8(%rbp),%rax
    8120:	5d                   	pop    %rbp
    8121:	c3                   	ret    

0000000000008122 <_ZSt13move_backwardIPSt6vectorI10location_tSaIS1_EES4_ET0_T_S6_S5_>:
    8122:	f3 0f 1e fa          	endbr64 
    8126:	55                   	push   %rbp
    8127:	48 89 e5             	mov    %rsp,%rbp
    812a:	53                   	push   %rbx
    812b:	48 83 ec 28          	sub    $0x28,%rsp
    812f:	48 89 7d e8          	mov    %rdi,-0x18(%rbp)
    8133:	48 89 75 e0          	mov    %rsi,-0x20(%rbp)
    8137:	48 89 55 d8          	mov    %rdx,-0x28(%rbp)
    813b:	48 8b 45 e0          	mov    -0x20(%rbp),%rax
    813f:	48 89 c7             	mov    %rax,%rdi
    8142:	e8 84 0d 00 00       	call   8ecb <_ZSt12__miter_baseIPSt6vectorI10location_tSaIS1_EEET_S5_>
    8147:	48 89 c3             	mov    %rax,%rbx
    814a:	48 8b 45 e8          	mov    -0x18(%rbp),%rax
    814e:	48 89 c7             	mov    %rax,%rdi
    8151:	e8 75 0d 00 00       	call   8ecb <_ZSt12__miter_baseIPSt6vectorI10location_tSaIS1_EEET_S5_>
    8156:	48 89 c1             	mov    %rax,%rcx
    8159:	48 8b 45 d8          	mov    -0x28(%rbp),%rax
    815d:	48 89 c2             	mov    %rax,%rdx
    8160:	48 89 de             	mov    %rbx,%rsi
    8163:	48 89 cf             	mov    %rcx,%rdi
    8166:	e8 72 0d 00 00       	call   8edd <_ZSt22__copy_move_backward_aILb1EPSt6vectorI10location_tSaIS1_EES4_ET1_T0_S6_S5_>
    816b:	48 8b 5d f8          	mov    -0x8(%rbp),%rbx
    816f:	c9                   	leave  
    8170:	c3                   	ret    

0000000000008171 <_ZSt4fillIPSt6vectorI10location_tSaIS1_EES3_EvT_S5_RKT0_>:
    8171:	f3 0f 1e fa          	endbr64 
    8175:	55                   	push   %rbp
    8176:	48 89 e5             	mov    %rsp,%rbp
    8179:	48 83 ec 20          	sub    $0x20,%rsp
    817d:	48 89 7d f8          	mov    %rdi,-0x8(%rbp)
    8181:	48 89 75 f0          	mov    %rsi,-0x10(%rbp)
    8185:	48 89 55 e8          	mov    %rdx,-0x18(%rbp)
    8189:	48 8b 55 e8          	mov    -0x18(%rbp),%rdx
    818d:	48 8b 4d f0          	mov    -0x10(%rbp),%rcx
    8191:	48 8b 45 f8          	mov    -0x8(%rbp),%rax
    8195:	48 89 ce             	mov    %rcx,%rsi
    8198:	48 89 c7             	mov    %rax,%rdi
    819b:	e8 ab 0d 00 00       	call   8f4b <_ZSt8__fill_aIPSt6vectorI10location_tSaIS1_EES3_EvT_S5_RKT0_>
    81a0:	90                   	nop
    81a1:	c9                   	leave  
    81a2:	c3                   	ret    

00000000000081a3 <_ZSt24__uninitialized_fill_n_aIPSt6vectorI10location_tSaIS1_EEmS3_S3_ET_S5_T0_RKT1_RSaIT2_E>:
    81a3:	f3 0f 1e fa          	endbr64 
    81a7:	55                   	push   %rbp
    81a8:	48 89 e5             	mov    %rsp,%rbp
    81ab:	48 83 ec 20          	sub    $0x20,%rsp
    81af:	48 89 7d f8          	mov    %rdi,-0x8(%rbp)
    81b3:	48 89 75 f0          	mov    %rsi,-0x10(%rbp)
    81b7:	48 89 55 e8          	mov    %rdx,-0x18(%rbp)
    81bb:	48 89 4d e0          	mov    %rcx,-0x20(%rbp)
    81bf:	48 8b 55 e8          	mov    -0x18(%rbp),%rdx
    81c3:	48 8b 4d f0          	mov    -0x10(%rbp),%rcx
    81c7:	48 8b 45 f8          	mov    -0x8(%rbp),%rax
    81cb:	48 89 ce             	mov    %rcx,%rsi
    81ce:	48 89 c7             	mov    %rax,%rdi
    81d1:	e8 a7 0d 00 00       	call   8f7d <_ZSt20uninitialized_fill_nIPSt6vectorI10location_tSaIS1_EEmS3_ET_S5_T0_RKT1_>
    81d6:	c9                   	leave  
    81d7:	c3                   	ret    

00000000000081d8 <_ZNKSt6vectorIS_I10location_tSaIS0_EESaIS2_EE12_M_check_lenEmPKc>:
    81d8:	f3 0f 1e fa          	endbr64 
    81dc:	55                   	push   %rbp
    81dd:	48 89 e5             	mov    %rsp,%rbp
    81e0:	53                   	push   %rbx
    81e1:	48 83 ec 48          	sub    $0x48,%rsp
    81e5:	48 89 7d c8          	mov    %rdi,-0x38(%rbp)
    81e9:	48 89 75 c0          	mov    %rsi,-0x40(%rbp)
    81ed:	48 89 55 b8          	mov    %rdx,-0x48(%rbp)
    81f1:	64 48 8b 04 25 28 00 	mov    %fs:0x28,%rax
    81f8:	00 00 
    81fa:	48 89 45 e8          	mov    %rax,-0x18(%rbp)
    81fe:	31 c0                	xor    %eax,%eax
    8200:	48 8b 45 c8          	mov    -0x38(%rbp),%rax
    8204:	48 89 c7             	mov    %rax,%rdi
    8207:	e8 a6 0d 00 00       	call   8fb2 <_ZNKSt6vectorIS_I10location_tSaIS0_EESaIS2_EE8max_sizeEv>
    820c:	48 89 c3             	mov    %rax,%rbx
    820f:	48 8b 45 c8          	mov    -0x38(%rbp),%rax
    8213:	48 89 c7             	mov    %rax,%rdi
    8216:	e8 19 e9 ff ff       	call   6b34 <_ZNKSt6vectorIS_I10location_tSaIS0_EESaIS2_EE4sizeEv>
    821b:	48 29 c3             	sub    %rax,%rbx
    821e:	48 89 da             	mov    %rbx,%rdx
    8221:	48 8b 45 c0          	mov    -0x40(%rbp),%rax
    8225:	48 39 c2             	cmp    %rax,%rdx
    8228:	0f 92 c0             	setb   %al
    822b:	84 c0                	test   %al,%al
    822d:	74 0c                	je     823b <_ZNKSt6vectorIS_I10location_tSaIS0_EESaIS2_EE12_M_check_lenEmPKc+0x63>
    822f:	48 8b 45 b8          	mov    -0x48(%rbp),%rax
    8233:	48 89 c7             	mov    %rax,%rdi
    8236:	e8 45 a2 ff ff       	call   2480 <_ZSt20__throw_length_errorPKc@plt>
    823b:	48 8b 45 c8          	mov    -0x38(%rbp),%rax
    823f:	48 89 c7             	mov    %rax,%rdi
    8242:	e8 ed e8 ff ff       	call   6b34 <_ZNKSt6vectorIS_I10location_tSaIS0_EESaIS2_EE4sizeEv>
    8247:	48 89 c3             	mov    %rax,%rbx
    824a:	48 8b 45 c8          	mov    -0x38(%rbp),%rax
    824e:	48 89 c7             	mov    %rax,%rdi
    8251:	e8 de e8 ff ff       	call   6b34 <_ZNKSt6vectorIS_I10location_tSaIS0_EESaIS2_EE4sizeEv>
    8256:	48 89 45 d8          	mov    %rax,-0x28(%rbp)
    825a:	48 8d 55 c0          	lea    -0x40(%rbp),%rdx
    825e:	48 8d 45 d8          	lea    -0x28(%rbp),%rax
    8262:	48 89 d6             	mov    %rdx,%rsi
    8265:	48 89 c7             	mov    %rax,%rdi
    8268:	e8 d6 09 00 00       	call   8c43 <_ZSt3maxImERKT_S2_S2_>
    826d:	48 8b 00             	mov    (%rax),%rax
    8270:	48 01 d8             	add    %rbx,%rax
    8273:	48 89 45 e0          	mov    %rax,-0x20(%rbp)
    8277:	48 8b 45 c8          	mov    -0x38(%rbp),%rax
    827b:	48 89 c7             	mov    %rax,%rdi
    827e:	e8 b1 e8 ff ff       	call   6b34 <_ZNKSt6vectorIS_I10location_tSaIS0_EESaIS2_EE4sizeEv>
    8283:	48 39 45 e0          	cmp    %rax,-0x20(%rbp)
    8287:	72 12                	jb     829b <_ZNKSt6vectorIS_I10location_tSaIS0_EESaIS2_EE12_M_check_lenEmPKc+0xc3>
    8289:	48 8b 45 c8          	mov    -0x38(%rbp),%rax
    828d:	48 89 c7             	mov    %rax,%rdi
    8290:	e8 1d 0d 00 00       	call   8fb2 <_ZNKSt6vectorIS_I10location_tSaIS0_EESaIS2_EE8max_sizeEv>
    8295:	48 39 45 e0          	cmp    %rax,-0x20(%rbp)
    8299:	76 0e                	jbe    82a9 <_ZNKSt6vectorIS_I10location_tSaIS0_EESaIS2_EE12_M_check_lenEmPKc+0xd1>
    829b:	48 8b 45 c8          	mov    -0x38(%rbp),%rax
    829f:	48 89 c7             	mov    %rax,%rdi
    82a2:	e8 0b 0d 00 00       	call   8fb2 <_ZNKSt6vectorIS_I10location_tSaIS0_EESaIS2_EE8max_sizeEv>
    82a7:	eb 04                	jmp    82ad <_ZNKSt6vectorIS_I10location_tSaIS0_EESaIS2_EE12_M_check_lenEmPKc+0xd5>
    82a9:	48 8b 45 e0          	mov    -0x20(%rbp),%rax
    82ad:	48 8b 55 e8          	mov    -0x18(%rbp),%rdx
    82b1:	64 48 2b 14 25 28 00 	sub    %fs:0x28,%rdx
    82b8:	00 00 
    82ba:	74 05                	je     82c1 <_ZNKSt6vectorIS_I10location_tSaIS0_EESaIS2_EE12_M_check_lenEmPKc+0xe9>
    82bc:	e8 3f a3 ff ff       	call   2600 <__stack_chk_fail@plt>
    82c1:	48 8b 5d f8          	mov    -0x8(%rbp),%rbx
    82c5:	c9                   	leave  
    82c6:	c3                   	ret    
    82c7:	90                   	nop

00000000000082c8 <_ZNSt6vectorIS_I10location_tSaIS0_EESaIS2_EE5beginEv>:
    82c8:	f3 0f 1e fa          	endbr64 
    82cc:	55                   	push   %rbp
    82cd:	48 89 e5             	mov    %rsp,%rbp
    82d0:	48 83 ec 20          	sub    $0x20,%rsp
    82d4:	48 89 7d e8          	mov    %rdi,-0x18(%rbp)
    82d8:	64 48 8b 04 25 28 00 	mov    %fs:0x28,%rax
    82df:	00 00 
    82e1:	48 89 45 f8          	mov    %rax,-0x8(%rbp)
    82e5:	31 c0                	xor    %eax,%eax
    82e7:	48 8b 55 e8          	mov    -0x18(%rbp),%rdx
    82eb:	48 8d 45 f0          	lea    -0x10(%rbp),%rax
    82ef:	48 89 d6             	mov    %rdx,%rsi
    82f2:	48 89 c7             	mov    %rax,%rdi
    82f5:	e8 a8 00 00 00       	call   83a2 <_ZN9__gnu_cxx17__normal_iteratorIPSt6vectorI10location_tSaIS2_EES1_IS4_SaIS4_EEEC1ERKS5_>
    82fa:	48 8b 45 f0          	mov    -0x10(%rbp),%rax
    82fe:	48 8b 55 f8          	mov    -0x8(%rbp),%rdx
    8302:	64 48 2b 14 25 28 00 	sub    %fs:0x28,%rdx
    8309:	00 00 
    830b:	74 05                	je     8312 <_ZNSt6vectorIS_I10location_tSaIS0_EESaIS2_EE5beginEv+0x4a>
    830d:	e8 ee a2 ff ff       	call   2600 <__stack_chk_fail@plt>
    8312:	c9                   	leave  
    8313:	c3                   	ret    

0000000000008314 <_ZNSt12_Vector_baseISt6vectorI10location_tSaIS1_EESaIS3_EE11_M_allocateEm>:
    8314:	f3 0f 1e fa          	endbr64 
    8318:	55                   	push   %rbp
    8319:	48 89 e5             	mov    %rsp,%rbp
    831c:	48 83 ec 10          	sub    $0x10,%rsp
    8320:	48 89 7d f8          	mov    %rdi,-0x8(%rbp)
    8324:	48 89 75 f0          	mov    %rsi,-0x10(%rbp)
    8328:	48 83 7d f0 00       	cmpq   $0x0,-0x10(%rbp)
    832d:	74 15                	je     8344 <_ZNSt12_Vector_baseISt6vectorI10location_tSaIS1_EESaIS3_EE11_M_allocateEm+0x30>
    832f:	48 8b 45 f8          	mov    -0x8(%rbp),%rax
    8333:	48 8b 55 f0          	mov    -0x10(%rbp),%rdx
    8337:	48 89 d6             	mov    %rdx,%rsi
    833a:	48 89 c7             	mov    %rax,%rdi
    833d:	e8 96 0c 00 00       	call   8fd8 <_ZNSt16allocator_traitsISaISt6vectorI10location_tSaIS1_EEEE8allocateERS4_m>
    8342:	eb 05                	jmp    8349 <_ZNSt12_Vector_baseISt6vectorI10location_tSaIS1_EESaIS3_EE11_M_allocateEm+0x35>
    8344:	b8 00 00 00 00       	mov    $0x0,%eax
    8349:	c9                   	leave  
    834a:	c3                   	ret    

000000000000834b <_ZSt34__uninitialized_move_if_noexcept_aIPSt6vectorI10location_tSaIS1_EES4_SaIS3_EET0_T_S7_S6_RT1_>:
    834b:	f3 0f 1e fa          	endbr64 
    834f:	55                   	push   %rbp
    8350:	48 89 e5             	mov    %rsp,%rbp
    8353:	53                   	push   %rbx
    8354:	48 83 ec 28          	sub    $0x28,%rsp
    8358:	48 89 7d e8          	mov    %rdi,-0x18(%rbp)
    835c:	48 89 75 e0          	mov    %rsi,-0x20(%rbp)
    8360:	48 89 55 d8          	mov    %rdx,-0x28(%rbp)
    8364:	48 89 4d d0          	mov    %rcx,-0x30(%rbp)
    8368:	48 8b 45 e0          	mov    -0x20(%rbp),%rax
    836c:	48 89 c7             	mov    %rax,%rdi
    836f:	e8 92 0c 00 00       	call   9006 <_ZSt32__make_move_if_noexcept_iteratorISt6vectorI10location_tSaIS1_EESt13move_iteratorIPS3_EET0_PT_>
    8374:	48 89 c3             	mov    %rax,%rbx
    8377:	48 8b 45 e8          	mov    -0x18(%rbp),%rax
    837b:	48 89 c7             	mov    %rax,%rdi
    837e:	e8 83 0c 00 00       	call   9006 <_ZSt32__make_move_if_noexcept_iteratorISt6vectorI10location_tSaIS1_EESt13move_iteratorIPS3_EET0_PT_>
    8383:	48 89 c7             	mov    %rax,%rdi
    8386:	48 8b 55 d0          	mov    -0x30(%rbp),%rdx
    838a:	48 8b 45 d8          	mov    -0x28(%rbp),%rax
    838e:	48 89 d1             	mov    %rdx,%rcx
    8391:	48 89 c2             	mov    %rax,%rdx
    8394:	48 89 de             	mov    %rbx,%rsi
    8397:	e8 fa 0a 00 00       	call   8e96 <_ZSt22__uninitialized_copy_aISt13move_iteratorIPSt6vectorI10location_tSaIS2_EEES5_S4_ET0_T_S8_S7_RSaIT1_E>
    839c:	48 8b 5d f8          	mov    -0x8(%rbp),%rbx
    83a0:	c9                   	leave  
    83a1:	c3                   	ret    

00000000000083a2 <_ZN9__gnu_cxx17__normal_iteratorIPSt6vectorI10location_tSaIS2_EES1_IS4_SaIS4_EEEC1ERKS5_>:
    83a2:	f3 0f 1e fa          	endbr64 
    83a6:	55                   	push   %rbp
    83a7:	48 89 e5             	mov    %rsp,%rbp
    83aa:	48 89 7d f8          	mov    %rdi,-0x8(%rbp)
    83ae:	48 89 75 f0          	mov    %rsi,-0x10(%rbp)
    83b2:	48 8b 45 f0          	mov    -0x10(%rbp),%rax
    83b6:	48 8b 10             	mov    (%rax),%rdx
    83b9:	48 8b 45 f8          	mov    -0x8(%rbp),%rax
    83bd:	48 89 10             	mov    %rdx,(%rax)
    83c0:	90                   	nop
    83c1:	5d                   	pop    %rbp
    83c2:	c3                   	ret    
    83c3:	90                   	nop

00000000000083c4 <_ZNKSt6vectorI10location_tSaIS0_EE4sizeEv>:
    83c4:	f3 0f 1e fa          	endbr64 
    83c8:	55                   	push   %rbp
    83c9:	48 89 e5             	mov    %rsp,%rbp
    83cc:	48 89 7d f8          	mov    %rdi,-0x8(%rbp)
    83d0:	48 8b 45 f8          	mov    -0x8(%rbp),%rax
    83d4:	48 8b 50 08          	mov    0x8(%rax),%rdx
    83d8:	48 8b 45 f8          	mov    -0x8(%rbp),%rax
    83dc:	48 8b 08             	mov    (%rax),%rcx
    83df:	48 89 d0             	mov    %rdx,%rax
    83e2:	48 29 c8             	sub    %rcx,%rax
    83e5:	48 c1 f8 03          	sar    $0x3,%rax
    83e9:	5d                   	pop    %rbp
    83ea:	c3                   	ret    

00000000000083eb <_ZSt7forwardIRKP12netlist_elemEOT_RNSt16remove_referenceIS4_E4typeE>:
    83eb:	f3 0f 1e fa          	endbr64 
    83ef:	55                   	push   %rbp
    83f0:	48 89 e5             	mov    %rsp,%rbp
    83f3:	48 89 7d f8          	mov    %rdi,-0x8(%rbp)
    83f7:	48 8b 45 f8          	mov    -0x8(%rbp),%rax
    83fb:	5d                   	pop    %rbp
    83fc:	c3                   	ret    
    83fd:	90                   	nop

00000000000083fe <_ZN9__gnu_cxx13new_allocatorIP12netlist_elemE9constructIS2_JRKS2_EEEvPT_DpOT0_>:
    83fe:	f3 0f 1e fa          	endbr64 
    8402:	55                   	push   %rbp
    8403:	48 89 e5             	mov    %rsp,%rbp
    8406:	53                   	push   %rbx
    8407:	48 83 ec 28          	sub    $0x28,%rsp
    840b:	48 89 7d e8          	mov    %rdi,-0x18(%rbp)
    840f:	48 89 75 e0          	mov    %rsi,-0x20(%rbp)
    8413:	48 89 55 d8          	mov    %rdx,-0x28(%rbp)
    8417:	48 8b 45 d8          	mov    -0x28(%rbp),%rax
    841b:	48 89 c7             	mov    %rax,%rdi
    841e:	e8 c8 ff ff ff       	call   83eb <_ZSt7forwardIRKP12netlist_elemEOT_RNSt16remove_referenceIS4_E4typeE>
    8423:	48 8b 18             	mov    (%rax),%rbx
    8426:	48 8b 45 e0          	mov    -0x20(%rbp),%rax
    842a:	48 89 c6             	mov    %rax,%rsi
    842d:	bf 08 00 00 00       	mov    $0x8,%edi
    8432:	e8 3d b1 ff ff       	call   3574 <_ZnwmPv>
    8437:	48 89 18             	mov    %rbx,(%rax)
    843a:	90                   	nop
    843b:	48 8b 5d f8          	mov    -0x8(%rbp),%rbx
    843f:	c9                   	leave  
    8440:	c3                   	ret    
    8441:	90                   	nop

0000000000008442 <_ZN9__gnu_cxx17__normal_iteratorIPP12netlist_elemSt6vectorIS2_SaIS2_EEEC1ERKS3_>:
    8442:	f3 0f 1e fa          	endbr64 
    8446:	55                   	push   %rbp
    8447:	48 89 e5             	mov    %rsp,%rbp
    844a:	48 89 7d f8          	mov    %rdi,-0x8(%rbp)
    844e:	48 89 75 f0          	mov    %rsi,-0x10(%rbp)
    8452:	48 8b 45 f0          	mov    -0x10(%rbp),%rax
    8456:	48 8b 10             	mov    (%rax),%rdx
    8459:	48 8b 45 f8          	mov    -0x8(%rbp),%rax
    845d:	48 89 10             	mov    %rdx,(%rax)
    8460:	90                   	nop
    8461:	5d                   	pop    %rbp
    8462:	c3                   	ret    
    8463:	90                   	nop

0000000000008464 <_ZNKSt6vectorIP12netlist_elemSaIS1_EE12_M_check_lenEmPKc>:
    8464:	f3 0f 1e fa          	endbr64 
    8468:	55                   	push   %rbp
    8469:	48 89 e5             	mov    %rsp,%rbp
    846c:	53                   	push   %rbx
    846d:	48 83 ec 48          	sub    $0x48,%rsp
    8471:	48 89 7d c8          	mov    %rdi,-0x38(%rbp)
    8475:	48 89 75 c0          	mov    %rsi,-0x40(%rbp)
    8479:	48 89 55 b8          	mov    %rdx,-0x48(%rbp)
    847d:	64 48 8b 04 25 28 00 	mov    %fs:0x28,%rax
    8484:	00 00 
    8486:	48 89 45 e8          	mov    %rax,-0x18(%rbp)
    848a:	31 c0                	xor    %eax,%eax
    848c:	48 8b 45 c8          	mov    -0x38(%rbp),%rax
    8490:	48 89 c7             	mov    %rax,%rdi
    8493:	e8 ba 0b 00 00       	call   9052 <_ZNKSt6vectorIP12netlist_elemSaIS1_EE8max_sizeEv>
    8498:	48 89 c3             	mov    %rax,%rbx
    849b:	48 8b 45 c8          	mov    -0x38(%rbp),%rax
    849f:	48 89 c7             	mov    %rax,%rdi
    84a2:	e8 d1 0b 00 00       	call   9078 <_ZNKSt6vectorIP12netlist_elemSaIS1_EE4sizeEv>
    84a7:	48 29 c3             	sub    %rax,%rbx
    84aa:	48 89 da             	mov    %rbx,%rdx
    84ad:	48 8b 45 c0          	mov    -0x40(%rbp),%rax
    84b1:	48 39 c2             	cmp    %rax,%rdx
    84b4:	0f 92 c0             	setb   %al
    84b7:	84 c0                	test   %al,%al
    84b9:	74 0c                	je     84c7 <_ZNKSt6vectorIP12netlist_elemSaIS1_EE12_M_check_lenEmPKc+0x63>
    84bb:	48 8b 45 b8          	mov    -0x48(%rbp),%rax
    84bf:	48 89 c7             	mov    %rax,%rdi
    84c2:	e8 b9 9f ff ff       	call   2480 <_ZSt20__throw_length_errorPKc@plt>
    84c7:	48 8b 45 c8          	mov    -0x38(%rbp),%rax
    84cb:	48 89 c7             	mov    %rax,%rdi
    84ce:	e8 a5 0b 00 00       	call   9078 <_ZNKSt6vectorIP12netlist_elemSaIS1_EE4sizeEv>
    84d3:	48 89 c3             	mov    %rax,%rbx
    84d6:	48 8b 45 c8          	mov    -0x38(%rbp),%rax
    84da:	48 89 c7             	mov    %rax,%rdi
    84dd:	e8 96 0b 00 00       	call   9078 <_ZNKSt6vectorIP12netlist_elemSaIS1_EE4sizeEv>
    84e2:	48 89 45 d8          	mov    %rax,-0x28(%rbp)
    84e6:	48 8d 55 c0          	lea    -0x40(%rbp),%rdx
    84ea:	48 8d 45 d8          	lea    -0x28(%rbp),%rax
    84ee:	48 89 d6             	mov    %rdx,%rsi
    84f1:	48 89 c7             	mov    %rax,%rdi
    84f4:	e8 4a 07 00 00       	call   8c43 <_ZSt3maxImERKT_S2_S2_>
    84f9:	48 8b 00             	mov    (%rax),%rax
    84fc:	48 01 d8             	add    %rbx,%rax
    84ff:	48 89 45 e0          	mov    %rax,-0x20(%rbp)
    8503:	48 8b 45 c8          	mov    -0x38(%rbp),%rax
    8507:	48 89 c7             	mov    %rax,%rdi
    850a:	e8 69 0b 00 00       	call   9078 <_ZNKSt6vectorIP12netlist_elemSaIS1_EE4sizeEv>
    850f:	48 39 45 e0          	cmp    %rax,-0x20(%rbp)
    8513:	72 12                	jb     8527 <_ZNKSt6vectorIP12netlist_elemSaIS1_EE12_M_check_lenEmPKc+0xc3>
    8515:	48 8b 45 c8          	mov    -0x38(%rbp),%rax
    8519:	48 89 c7             	mov    %rax,%rdi
    851c:	e8 31 0b 00 00       	call   9052 <_ZNKSt6vectorIP12netlist_elemSaIS1_EE8max_sizeEv>
    8521:	48 39 45 e0          	cmp    %rax,-0x20(%rbp)
    8525:	76 0e                	jbe    8535 <_ZNKSt6vectorIP12netlist_elemSaIS1_EE12_M_check_lenEmPKc+0xd1>
    8527:	48 8b 45 c8          	mov    -0x38(%rbp),%rax
    852b:	48 89 c7             	mov    %rax,%rdi
    852e:	e8 1f 0b 00 00       	call   9052 <_ZNKSt6vectorIP12netlist_elemSaIS1_EE8max_sizeEv>
    8533:	eb 04                	jmp    8539 <_ZNKSt6vectorIP12netlist_elemSaIS1_EE12_M_check_lenEmPKc+0xd5>
    8535:	48 8b 45 e0          	mov    -0x20(%rbp),%rax
    8539:	48 8b 55 e8          	mov    -0x18(%rbp),%rdx
    853d:	64 48 2b 14 25 28 00 	sub    %fs:0x28,%rdx
    8544:	00 00 
    8546:	74 05                	je     854d <_ZNKSt6vectorIP12netlist_elemSaIS1_EE12_M_check_lenEmPKc+0xe9>
    8548:	e8 b3 a0 ff ff       	call   2600 <__stack_chk_fail@plt>
    854d:	48 8b 5d f8          	mov    -0x8(%rbp),%rbx
    8551:	c9                   	leave  
    8552:	c3                   	ret    
    8553:	90                   	nop

0000000000008554 <_ZNSt6vectorIP12netlist_elemSaIS1_EE5beginEv>:
    8554:	f3 0f 1e fa          	endbr64 
    8558:	55                   	push   %rbp
    8559:	48 89 e5             	mov    %rsp,%rbp
    855c:	48 83 ec 20          	sub    $0x20,%rsp
    8560:	48 89 7d e8          	mov    %rdi,-0x18(%rbp)
    8564:	64 48 8b 04 25 28 00 	mov    %fs:0x28,%rax
    856b:	00 00 
    856d:	48 89 45 f8          	mov    %rax,-0x8(%rbp)
    8571:	31 c0                	xor    %eax,%eax
    8573:	48 8b 55 e8          	mov    -0x18(%rbp),%rdx
    8577:	48 8d 45 f0          	lea    -0x10(%rbp),%rax
    857b:	48 89 d6             	mov    %rdx,%rsi
    857e:	48 89 c7             	mov    %rax,%rdi
    8581:	e8 bc fe ff ff       	call   8442 <_ZN9__gnu_cxx17__normal_iteratorIPP12netlist_elemSt6vectorIS2_SaIS2_EEEC1ERKS3_>
    8586:	48 8b 45 f0          	mov    -0x10(%rbp),%rax
    858a:	48 8b 55 f8          	mov    -0x8(%rbp),%rdx
    858e:	64 48 2b 14 25 28 00 	sub    %fs:0x28,%rdx
    8595:	00 00 
    8597:	74 05                	je     859e <_ZNSt6vectorIP12netlist_elemSaIS1_EE5beginEv+0x4a>
    8599:	e8 62 a0 ff ff       	call   2600 <__stack_chk_fail@plt>
    859e:	c9                   	leave  
    859f:	c3                   	ret    

00000000000085a0 <_ZN9__gnu_cxxmiIPP12netlist_elemSt6vectorIS2_SaIS2_EEEENS_17__normal_iteratorIT_T0_E15difference_typeERKSA_SD_>:
    85a0:	f3 0f 1e fa          	endbr64 
    85a4:	55                   	push   %rbp
    85a5:	48 89 e5             	mov    %rsp,%rbp
    85a8:	53                   	push   %rbx
    85a9:	48 83 ec 18          	sub    $0x18,%rsp
    85ad:	48 89 7d e8          	mov    %rdi,-0x18(%rbp)
    85b1:	48 89 75 e0          	mov    %rsi,-0x20(%rbp)
    85b5:	48 8b 45 e8          	mov    -0x18(%rbp),%rax
    85b9:	48 89 c7             	mov    %rax,%rdi
    85bc:	e8 91 00 00 00       	call   8652 <_ZNK9__gnu_cxx17__normal_iteratorIPP12netlist_elemSt6vectorIS2_SaIS2_EEE4baseEv>
    85c1:	48 8b 18             	mov    (%rax),%rbx
    85c4:	48 8b 45 e0          	mov    -0x20(%rbp),%rax
    85c8:	48 89 c7             	mov    %rax,%rdi
    85cb:	e8 82 00 00 00       	call   8652 <_ZNK9__gnu_cxx17__normal_iteratorIPP12netlist_elemSt6vectorIS2_SaIS2_EEE4baseEv>
    85d0:	48 8b 10             	mov    (%rax),%rdx
    85d3:	48 89 d8             	mov    %rbx,%rax
    85d6:	48 29 d0             	sub    %rdx,%rax
    85d9:	48 c1 f8 03          	sar    $0x3,%rax
    85dd:	48 8b 5d f8          	mov    -0x8(%rbp),%rbx
    85e1:	c9                   	leave  
    85e2:	c3                   	ret    
    85e3:	90                   	nop

00000000000085e4 <_ZNSt12_Vector_baseIP12netlist_elemSaIS1_EE11_M_allocateEm>:
    85e4:	f3 0f 1e fa          	endbr64 
    85e8:	55                   	push   %rbp
    85e9:	48 89 e5             	mov    %rsp,%rbp
    85ec:	48 83 ec 10          	sub    $0x10,%rsp
    85f0:	48 89 7d f8          	mov    %rdi,-0x8(%rbp)
    85f4:	48 89 75 f0          	mov    %rsi,-0x10(%rbp)
    85f8:	48 83 7d f0 00       	cmpq   $0x0,-0x10(%rbp)
    85fd:	74 15                	je     8614 <_ZNSt12_Vector_baseIP12netlist_elemSaIS1_EE11_M_allocateEm+0x30>
    85ff:	48 8b 45 f8          	mov    -0x8(%rbp),%rax
    8603:	48 8b 55 f0          	mov    -0x10(%rbp),%rdx
    8607:	48 89 d6             	mov    %rdx,%rsi
    860a:	48 89 c7             	mov    %rax,%rdi
    860d:	e8 8d 0a 00 00       	call   909f <_ZNSt16allocator_traitsISaIP12netlist_elemEE8allocateERS2_m>
    8612:	eb 05                	jmp    8619 <_ZNSt12_Vector_baseIP12netlist_elemSaIS1_EE11_M_allocateEm+0x35>
    8614:	b8 00 00 00 00       	mov    $0x0,%eax
    8619:	c9                   	leave  
    861a:	c3                   	ret    

000000000000861b <_ZNSt6vectorIP12netlist_elemSaIS1_EE11_S_relocateEPS1_S4_S4_RS2_>:
    861b:	f3 0f 1e fa          	endbr64 
    861f:	55                   	push   %rbp
    8620:	48 89 e5             	mov    %rsp,%rbp
    8623:	48 83 ec 20          	sub    $0x20,%rsp
    8627:	48 89 7d f8          	mov    %rdi,-0x8(%rbp)
    862b:	48 89 75 f0          	mov    %rsi,-0x10(%rbp)
    862f:	48 89 55 e8          	mov    %rdx,-0x18(%rbp)
    8633:	48 89 4d e0          	mov    %rcx,-0x20(%rbp)
    8637:	48 8b 4d e0          	mov    -0x20(%rbp),%rcx
    863b:	48 8b 55 e8          	mov    -0x18(%rbp),%rdx
    863f:	48 8b 75 f0          	mov    -0x10(%rbp),%rsi
    8643:	48 8b 45 f8          	mov    -0x8(%rbp),%rax
    8647:	48 89 c7             	mov    %rax,%rdi
    864a:	e8 7e 0a 00 00       	call   90cd <_ZNSt6vectorIP12netlist_elemSaIS1_EE14_S_do_relocateEPS1_S4_S4_RS2_St17integral_constantIbLb1EE>
    864f:	c9                   	leave  
    8650:	c3                   	ret    
    8651:	90                   	nop

0000000000008652 <_ZNK9__gnu_cxx17__normal_iteratorIPP12netlist_elemSt6vectorIS2_SaIS2_EEE4baseEv>:
    8652:	f3 0f 1e fa          	endbr64 
    8656:	55                   	push   %rbp
    8657:	48 89 e5             	mov    %rsp,%rbp
    865a:	48 89 7d f8          	mov    %rdi,-0x8(%rbp)
    865e:	48 8b 45 f8          	mov    -0x8(%rbp),%rax
    8662:	5d                   	pop    %rbp
    8663:	c3                   	ret    

0000000000008664 <_ZNSt8_Rb_treeINSt7__cxx1112basic_stringIcSt11char_traitsIcESaIcEEESt4pairIKS5_P12netlist_elemESt10_Select1stISA_ESt4lessIS5_ESaISA_EE6_M_endEv>:
    8664:	f3 0f 1e fa          	endbr64 
    8668:	55                   	push   %rbp
    8669:	48 89 e5             	mov    %rsp,%rbp
    866c:	48 89 7d f8          	mov    %rdi,-0x8(%rbp)
    8670:	48 8b 45 f8          	mov    -0x8(%rbp),%rax
    8674:	48 83 c0 08          	add    $0x8,%rax
    8678:	5d                   	pop    %rbp
    8679:	c3                   	ret    

000000000000867a <_ZNSt8_Rb_treeINSt7__cxx1112basic_stringIcSt11char_traitsIcESaIcEEESt4pairIKS5_P12netlist_elemESt10_Select1stISA_ESt4lessIS5_ESaISA_EE14_M_lower_boundEPSt13_Rb_tree_nodeISA_EPSt18_Rb_tree_node_baseRS7_>:
    867a:	f3 0f 1e fa          	endbr64 
    867e:	55                   	push   %rbp
    867f:	48 89 e5             	mov    %rsp,%rbp
    8682:	53                   	push   %rbx
    8683:	48 83 ec 38          	sub    $0x38,%rsp
    8687:	48 89 7d d8          	mov    %rdi,-0x28(%rbp)
    868b:	48 89 75 d0          	mov    %rsi,-0x30(%rbp)
    868f:	48 89 55 c8          	mov    %rdx,-0x38(%rbp)
    8693:	48 89 4d c0          	mov    %rcx,-0x40(%rbp)
    8697:	64 48 8b 04 25 28 00 	mov    %fs:0x28,%rax
    869e:	00 00 
    86a0:	48 89 45 e8          	mov    %rax,-0x18(%rbp)
    86a4:	31 c0                	xor    %eax,%eax
    86a6:	eb 56                	jmp    86fe <_ZNSt8_Rb_treeINSt7__cxx1112basic_stringIcSt11char_traitsIcESaIcEEESt4pairIKS5_P12netlist_elemESt10_Select1stISA_ESt4lessIS5_ESaISA_EE14_M_lower_boundEPSt13_Rb_tree_nodeISA_EPSt18_Rb_tree_node_baseRS7_+0x84>
    86a8:	48 8b 5d d8          	mov    -0x28(%rbp),%rbx
    86ac:	48 8b 45 d0          	mov    -0x30(%rbp),%rax
    86b0:	48 89 c7             	mov    %rax,%rdi
    86b3:	e8 6a f4 ff ff       	call   7b22 <_ZNSt8_Rb_treeINSt7__cxx1112basic_stringIcSt11char_traitsIcESaIcEEESt4pairIKS5_P12netlist_elemESt10_Select1stISA_ESt4lessIS5_ESaISA_EE6_S_keyEPKSt13_Rb_tree_nodeISA_E>
    86b8:	48 89 c1             	mov    %rax,%rcx
    86bb:	48 8b 45 c0          	mov    -0x40(%rbp),%rax
    86bf:	48 89 c2             	mov    %rax,%rdx
    86c2:	48 89 ce             	mov    %rcx,%rsi
    86c5:	48 89 df             	mov    %rbx,%rdi
    86c8:	e8 cb dd ff ff       	call   6498 <_ZNKSt4lessINSt7__cxx1112basic_stringIcSt11char_traitsIcESaIcEEEEclERKS5_S8_>
    86cd:	83 f0 01             	xor    $0x1,%eax
    86d0:	84 c0                	test   %al,%al
    86d2:	74 1a                	je     86ee <_ZNSt8_Rb_treeINSt7__cxx1112basic_stringIcSt11char_traitsIcESaIcEEESt4pairIKS5_P12netlist_elemESt10_Select1stISA_ESt4lessIS5_ESaISA_EE14_M_lower_boundEPSt13_Rb_tree_nodeISA_EPSt18_Rb_tree_node_baseRS7_+0x74>
    86d4:	48 8b 45 d0          	mov    -0x30(%rbp),%rax
    86d8:	48 89 45 c8          	mov    %rax,-0x38(%rbp)
    86dc:	48 8b 45 d0          	mov    -0x30(%rbp),%rax
    86e0:	48 89 c7             	mov    %rax,%rdi
    86e3:	e8 d5 b9 ff ff       	call   40bd <_ZNSt8_Rb_treeINSt7__cxx1112basic_stringIcSt11char_traitsIcESaIcEEESt4pairIKS5_P12netlist_elemESt10_Select1stISA_ESt4lessIS5_ESaISA_EE7_S_leftEPSt18_Rb_tree_node_base>
    86e8:	48 89 45 d0          	mov    %rax,-0x30(%rbp)
    86ec:	eb 10                	jmp    86fe <_ZNSt8_Rb_treeINSt7__cxx1112basic_stringIcSt11char_traitsIcESaIcEEESt4pairIKS5_P12netlist_elemESt10_Select1stISA_ESt4lessIS5_ESaISA_EE14_M_lower_boundEPSt13_Rb_tree_nodeISA_EPSt18_Rb_tree_node_baseRS7_+0x84>
    86ee:	48 8b 45 d0          	mov    -0x30(%rbp),%rax
    86f2:	48 89 c7             	mov    %rax,%rdi
    86f5:	e8 ad b9 ff ff       	call   40a7 <_ZNSt8_Rb_treeINSt7__cxx1112basic_stringIcSt11char_traitsIcESaIcEEESt4pairIKS5_P12netlist_elemESt10_Select1stISA_ESt4lessIS5_ESaISA_EE8_S_rightEPSt18_Rb_tree_node_base>
    86fa:	48 89 45 d0          	mov    %rax,-0x30(%rbp)
    86fe:	48 83 7d d0 00       	cmpq   $0x0,-0x30(%rbp)
    8703:	75 a3                	jne    86a8 <_ZNSt8_Rb_treeINSt7__cxx1112basic_stringIcSt11char_traitsIcESaIcEEESt4pairIKS5_P12netlist_elemESt10_Select1stISA_ESt4lessIS5_ESaISA_EE14_M_lower_boundEPSt13_Rb_tree_nodeISA_EPSt18_Rb_tree_node_baseRS7_+0x2e>
    8705:	48 8b 55 c8          	mov    -0x38(%rbp),%rdx
    8709:	48 8d 45 e0          	lea    -0x20(%rbp),%rax
    870d:	48 89 d6             	mov    %rdx,%rsi
    8710:	48 89 c7             	mov    %rax,%rdi
    8713:	e8 d8 ee ff ff       	call   75f0 <_ZNSt17_Rb_tree_iteratorISt4pairIKNSt7__cxx1112basic_stringIcSt11char_traitsIcESaIcEEEP12netlist_elemEEC1EPSt18_Rb_tree_node_base>
    8718:	48 8b 45 e0          	mov    -0x20(%rbp),%rax
    871c:	48 8b 55 e8          	mov    -0x18(%rbp),%rdx
    8720:	64 48 2b 14 25 28 00 	sub    %fs:0x28,%rdx
    8727:	00 00 
    8729:	74 05                	je     8730 <_ZNSt8_Rb_treeINSt7__cxx1112basic_stringIcSt11char_traitsIcESaIcEEESt4pairIKS5_P12netlist_elemESt10_Select1stISA_ESt4lessIS5_ESaISA_EE14_M_lower_boundEPSt13_Rb_tree_nodeISA_EPSt18_Rb_tree_node_baseRS7_+0xb6>
    872b:	e8 d0 9e ff ff       	call   2600 <__stack_chk_fail@plt>
    8730:	48 8b 5d f8          	mov    -0x8(%rbp),%rbx
    8734:	c9                   	leave  
    8735:	c3                   	ret    

0000000000008736 <_ZNSt8_Rb_treeINSt7__cxx1112basic_stringIcSt11char_traitsIcESaIcEEESt4pairIKS5_P12netlist_elemESt10_Select1stISA_ESt4lessIS5_ESaISA_EE6_S_keyEPKSt18_Rb_tree_node_base>:
    8736:	f3 0f 1e fa          	endbr64 
    873a:	55                   	push   %rbp
    873b:	48 89 e5             	mov    %rsp,%rbp
    873e:	48 83 ec 10          	sub    $0x10,%rsp
    8742:	48 89 7d f8          	mov    %rdi,-0x8(%rbp)
    8746:	48 8b 45 f8          	mov    -0x8(%rbp),%rax
    874a:	48 89 c7             	mov    %rax,%rdi
    874d:	e8 d0 f3 ff ff       	call   7b22 <_ZNSt8_Rb_treeINSt7__cxx1112basic_stringIcSt11char_traitsIcESaIcEEESt4pairIKS5_P12netlist_elemESt10_Select1stISA_ESt4lessIS5_ESaISA_EE6_S_keyEPKSt13_Rb_tree_nodeISA_E>
    8752:	c9                   	leave  
    8753:	c3                   	ret    

0000000000008754 <_ZNSt10_Head_baseILm0ERKNSt7__cxx1112basic_stringIcSt11char_traitsIcESaIcEEELb0EEC1ES7_>:
    8754:	f3 0f 1e fa          	endbr64 
    8758:	55                   	push   %rbp
    8759:	48 89 e5             	mov    %rsp,%rbp
    875c:	48 89 7d f8          	mov    %rdi,-0x8(%rbp)
    8760:	48 89 75 f0          	mov    %rsi,-0x10(%rbp)
    8764:	48 8b 45 f8          	mov    -0x8(%rbp),%rax
    8768:	48 8b 55 f0          	mov    -0x10(%rbp),%rdx
    876c:	48 89 10             	mov    %rdx,(%rax)
    876f:	90                   	nop
    8770:	5d                   	pop    %rbp
    8771:	c3                   	ret    

0000000000008772 <_ZNSt8_Rb_treeINSt7__cxx1112basic_stringIcSt11char_traitsIcESaIcEEESt4pairIKS5_P12netlist_elemESt10_Select1stISA_ESt4lessIS5_ESaISA_EE11_M_get_nodeEv>:
    8772:	f3 0f 1e fa          	endbr64 
    8776:	55                   	push   %rbp
    8777:	48 89 e5             	mov    %rsp,%rbp
    877a:	48 83 ec 10          	sub    $0x10,%rsp
    877e:	48 89 7d f8          	mov    %rdi,-0x8(%rbp)
    8782:	48 8b 45 f8          	mov    -0x8(%rbp),%rax
    8786:	48 89 c7             	mov    %rax,%rdi
    8789:	e8 26 bf ff ff       	call   46b4 <_ZNSt8_Rb_treeINSt7__cxx1112basic_stringIcSt11char_traitsIcESaIcEEESt4pairIKS5_P12netlist_elemESt10_Select1stISA_ESt4lessIS5_ESaISA_EE21_M_get_Node_allocatorEv>
    878e:	be 01 00 00 00       	mov    $0x1,%esi
    8793:	48 89 c7             	mov    %rax,%rdi
    8796:	e8 68 09 00 00       	call   9103 <_ZNSt16allocator_traitsISaISt13_Rb_tree_nodeISt4pairIKNSt7__cxx1112basic_stringIcSt11char_traitsIcESaIcEEEP12netlist_elemEEEE8allocateERSD_m>
    879b:	c9                   	leave  
    879c:	c3                   	ret    
    879d:	90                   	nop

000000000000879e <_ZNSt8_Rb_treeINSt7__cxx1112basic_stringIcSt11char_traitsIcESaIcEEESt4pairIKS5_P12netlist_elemESt10_Select1stISA_ESt4lessIS5_ESaISA_EE17_M_construct_nodeIJRKSt21piecewise_construct_tSt5tupleIJRS7_EESL_IJEEEEEvPSt13_Rb_tree_nodeISA_EDpOT_>:
    879e:	f3 0f 1e fa          	endbr64 
    87a2:	55                   	push   %rbp
    87a3:	48 89 e5             	mov    %rsp,%rbp
    87a6:	41 56                	push   %r14
    87a8:	41 55                	push   %r13
    87aa:	41 54                	push   %r12
    87ac:	53                   	push   %rbx
    87ad:	48 83 ec 30          	sub    $0x30,%rsp
    87b1:	48 89 7d d8          	mov    %rdi,-0x28(%rbp)
    87b5:	48 89 75 d0          	mov    %rsi,-0x30(%rbp)
    87b9:	48 89 55 c8          	mov    %rdx,-0x38(%rbp)
    87bd:	48 89 4d c0          	mov    %rcx,-0x40(%rbp)
    87c1:	4c 89 45 b8          	mov    %r8,-0x48(%rbp)
    87c5:	48 8b 45 d0          	mov    -0x30(%rbp),%rax
    87c9:	48 89 c6             	mov    %rax,%rsi
    87cc:	bf 48 00 00 00       	mov    $0x48,%edi
    87d1:	e8 9e ad ff ff       	call   3574 <_ZnwmPv>
    87d6:	48 8b 45 b8          	mov    -0x48(%rbp),%rax
    87da:	48 89 c7             	mov    %rax,%rdi
    87dd:	e8 06 ef ff ff       	call   76e8 <_ZSt7forwardISt5tupleIJEEEOT_RNSt16remove_referenceIS2_E4typeE>
    87e2:	49 89 c6             	mov    %rax,%r14
    87e5:	48 8b 45 c0          	mov    -0x40(%rbp),%rax
    87e9:	48 89 c7             	mov    %rax,%rdi
    87ec:	e8 e5 ee ff ff       	call   76d6 <_ZSt7forwardISt5tupleIJRKNSt7__cxx1112basic_stringIcSt11char_traitsIcESaIcEEEEEEOT_RNSt16remove_referenceISA_E4typeE>
    87f1:	49 89 c5             	mov    %rax,%r13
    87f4:	48 8b 45 c8          	mov    -0x38(%rbp),%rax
    87f8:	48 89 c7             	mov    %rax,%rdi
    87fb:	e8 c4 ee ff ff       	call   76c4 <_ZSt7forwardIRKSt21piecewise_construct_tEOT_RNSt16remove_referenceIS3_E4typeE>
    8800:	49 89 c4             	mov    %rax,%r12
    8803:	48 8b 45 d0          	mov    -0x30(%rbp),%rax
    8807:	48 89 c7             	mov    %rax,%rdi
    880a:	e8 b7 be ff ff       	call   46c6 <_ZNSt13_Rb_tree_nodeISt4pairIKNSt7__cxx1112basic_stringIcSt11char_traitsIcESaIcEEEP12netlist_elemEE9_M_valptrEv>
    880f:	48 89 c3             	mov    %rax,%rbx
    8812:	48 8b 45 d8          	mov    -0x28(%rbp),%rax
    8816:	48 89 c7             	mov    %rax,%rdi
    8819:	e8 96 be ff ff       	call   46b4 <_ZNSt8_Rb_treeINSt7__cxx1112basic_stringIcSt11char_traitsIcESaIcEEESt4pairIKS5_P12netlist_elemESt10_Select1stISA_ESt4lessIS5_ESaISA_EE21_M_get_Node_allocatorEv>
    881e:	4d 89 f0             	mov    %r14,%r8
    8821:	4c 89 e9             	mov    %r13,%rcx
    8824:	4c 89 e2             	mov    %r12,%rdx
    8827:	48 89 de             	mov    %rbx,%rsi
    882a:	48 89 c7             	mov    %rax,%rdi
    882d:	e8 ff 08 00 00       	call   9131 <_ZNSt16allocator_traitsISaISt13_Rb_tree_nodeISt4pairIKNSt7__cxx1112basic_stringIcSt11char_traitsIcESaIcEEEP12netlist_elemEEEE9constructISB_JRKSt21piecewise_construct_tSt5tupleIJRS8_EESJ_IJEEEEEvRSD_PT_DpOT0_>
    8832:	90                   	nop
    8833:	48 83 c4 30          	add    $0x30,%rsp
    8837:	5b                   	pop    %rbx
    8838:	41 5c                	pop    %r12
    883a:	41 5d                	pop    %r13
    883c:	41 5e                	pop    %r14
    883e:	5d                   	pop    %rbp
    883f:	c3                   	ret    

0000000000008840 <_ZNKSt23_Rb_tree_const_iteratorISt4pairIKNSt7__cxx1112basic_stringIcSt11char_traitsIcESaIcEEEP12netlist_elemEE13_M_const_castEv>:
    8840:	f3 0f 1e fa          	endbr64 
    8844:	55                   	push   %rbp
    8845:	48 89 e5             	mov    %rsp,%rbp
    8848:	48 83 ec 20          	sub    $0x20,%rsp
    884c:	48 89 7d e8          	mov    %rdi,-0x18(%rbp)
    8850:	64 48 8b 04 25 28 00 	mov    %fs:0x28,%rax
    8857:	00 00 
    8859:	48 89 45 f8          	mov    %rax,-0x8(%rbp)
    885d:	31 c0                	xor    %eax,%eax
    885f:	48 8b 45 e8          	mov    -0x18(%rbp),%rax
    8863:	48 8b 10             	mov    (%rax),%rdx
    8866:	48 8d 45 f0          	lea    -0x10(%rbp),%rax
    886a:	48 89 d6             	mov    %rdx,%rsi
    886d:	48 89 c7             	mov    %rax,%rdi
    8870:	e8 7b ed ff ff       	call   75f0 <_ZNSt17_Rb_tree_iteratorISt4pairIKNSt7__cxx1112basic_stringIcSt11char_traitsIcESaIcEEEP12netlist_elemEEC1EPSt18_Rb_tree_node_base>
    8875:	48 8b 45 f0          	mov    -0x10(%rbp),%rax
    8879:	48 8b 55 f8          	mov    -0x8(%rbp),%rdx
    887d:	64 48 2b 14 25 28 00 	sub    %fs:0x28,%rdx
    8884:	00 00 
    8886:	74 05                	je     888d <_ZNKSt23_Rb_tree_const_iteratorISt4pairIKNSt7__cxx1112basic_stringIcSt11char_traitsIcESaIcEEEP12netlist_elemEE13_M_const_castEv+0x4d>
    8888:	e8 73 9d ff ff       	call   2600 <__stack_chk_fail@plt>
    888d:	c9                   	leave  
    888e:	c3                   	ret    
    888f:	90                   	nop

0000000000008890 <_ZNKSt8_Rb_treeINSt7__cxx1112basic_stringIcSt11char_traitsIcESaIcEEESt4pairIKS5_P12netlist_elemESt10_Select1stISA_ESt4lessIS5_ESaISA_EE4sizeEv>:
    8890:	f3 0f 1e fa          	endbr64 
    8894:	55                   	push   %rbp
    8895:	48 89 e5             	mov    %rsp,%rbp
    8898:	48 89 7d f8          	mov    %rdi,-0x8(%rbp)
    889c:	48 8b 45 f8          	mov    -0x8(%rbp),%rax
    88a0:	48 8b 40 28          	mov    0x28(%rax),%rax
    88a4:	5d                   	pop    %rbp
    88a5:	c3                   	ret    

00000000000088a6 <_ZNSt8_Rb_treeINSt7__cxx1112basic_stringIcSt11char_traitsIcESaIcEEESt4pairIKS5_P12netlist_elemESt10_Select1stISA_ESt4lessIS5_ESaISA_EE12_M_rightmostEv>:
    88a6:	f3 0f 1e fa          	endbr64 
    88aa:	55                   	push   %rbp
    88ab:	48 89 e5             	mov    %rsp,%rbp
    88ae:	48 89 7d f8          	mov    %rdi,-0x8(%rbp)
    88b2:	48 8b 45 f8          	mov    -0x8(%rbp),%rax
    88b6:	48 83 c0 20          	add    $0x20,%rax
    88ba:	5d                   	pop    %rbp
    88bb:	c3                   	ret    

00000000000088bc <_ZNSt4pairIPSt18_Rb_tree_node_baseS1_EC1IRS1_Lb1EEERKS1_OT_>:
    88bc:	f3 0f 1e fa          	endbr64 
    88c0:	55                   	push   %rbp
    88c1:	48 89 e5             	mov    %rsp,%rbp
    88c4:	48 83 ec 20          	sub    $0x20,%rsp
    88c8:	48 89 7d f8          	mov    %rdi,-0x8(%rbp)
    88cc:	48 89 75 f0          	mov    %rsi,-0x10(%rbp)
    88d0:	48 89 55 e8          	mov    %rdx,-0x18(%rbp)
    88d4:	48 8b 45 f0          	mov    -0x10(%rbp),%rax
    88d8:	48 8b 10             	mov    (%rax),%rdx
    88db:	48 8b 45 f8          	mov    -0x8(%rbp),%rax
    88df:	48 89 10             	mov    %rdx,(%rax)
    88e2:	48 8b 45 e8          	mov    -0x18(%rbp),%rax
    88e6:	48 89 c7             	mov    %rax,%rdi
    88e9:	e8 b3 08 00 00       	call   91a1 <_ZSt7forwardIRPSt18_Rb_tree_node_baseEOT_RNSt16remove_referenceIS3_E4typeE>
    88ee:	48 8b 10             	mov    (%rax),%rdx
    88f1:	48 8b 45 f8          	mov    -0x8(%rbp),%rax
    88f5:	48 89 50 08          	mov    %rdx,0x8(%rax)
    88f9:	90                   	nop
    88fa:	c9                   	leave  
    88fb:	c3                   	ret    

00000000000088fc <_ZNSt8_Rb_treeINSt7__cxx1112basic_stringIcSt11char_traitsIcESaIcEEESt4pairIKS5_P12netlist_elemESt10_Select1stISA_ESt4lessIS5_ESaISA_EE24_M_get_insert_unique_posERS7_>:
    88fc:	f3 0f 1e fa          	endbr64 
    8900:	55                   	push   %rbp
    8901:	48 89 e5             	mov    %rsp,%rbp
    8904:	53                   	push   %rbx
    8905:	48 83 ec 68          	sub    $0x68,%rsp
    8909:	48 89 7d 98          	mov    %rdi,-0x68(%rbp)
    890d:	48 89 75 90          	mov    %rsi,-0x70(%rbp)
    8911:	64 48 8b 04 25 28 00 	mov    %fs:0x28,%rax
    8918:	00 00 
    891a:	48 89 45 e8          	mov    %rax,-0x18(%rbp)
    891e:	31 c0                	xor    %eax,%eax
    8920:	48 8b 45 98          	mov    -0x68(%rbp),%rax
    8924:	48 89 c7             	mov    %rax,%rdi
    8927:	e8 2a b4 ff ff       	call   3d56 <_ZNSt8_Rb_treeINSt7__cxx1112basic_stringIcSt11char_traitsIcESaIcEEESt4pairIKS5_P12netlist_elemESt10_Select1stISA_ESt4lessIS5_ESaISA_EE8_M_beginEv>
    892c:	48 89 45 b0          	mov    %rax,-0x50(%rbp)
    8930:	48 8b 45 98          	mov    -0x68(%rbp),%rax
    8934:	48 89 c7             	mov    %rax,%rdi
    8937:	e8 28 fd ff ff       	call   8664 <_ZNSt8_Rb_treeINSt7__cxx1112basic_stringIcSt11char_traitsIcESaIcEEESt4pairIKS5_P12netlist_elemESt10_Select1stISA_ESt4lessIS5_ESaISA_EE6_M_endEv>
    893c:	48 89 45 b8          	mov    %rax,-0x48(%rbp)
    8940:	c6 45 af 01          	movb   $0x1,-0x51(%rbp)
    8944:	eb 51                	jmp    8997 <_ZNSt8_Rb_treeINSt7__cxx1112basic_stringIcSt11char_traitsIcESaIcEEESt4pairIKS5_P12netlist_elemESt10_Select1stISA_ESt4lessIS5_ESaISA_EE24_M_get_insert_unique_posERS7_+0x9b>
    8946:	48 8b 45 b0          	mov    -0x50(%rbp),%rax
    894a:	48 89 45 b8          	mov    %rax,-0x48(%rbp)
    894e:	48 8b 5d 98          	mov    -0x68(%rbp),%rbx
    8952:	48 8b 45 b0          	mov    -0x50(%rbp),%rax
    8956:	48 89 c7             	mov    %rax,%rdi
    8959:	e8 c4 f1 ff ff       	call   7b22 <_ZNSt8_Rb_treeINSt7__cxx1112basic_stringIcSt11char_traitsIcESaIcEEESt4pairIKS5_P12netlist_elemESt10_Select1stISA_ESt4lessIS5_ESaISA_EE6_S_keyEPKSt13_Rb_tree_nodeISA_E>
    895e:	48 89 c2             	mov    %rax,%rdx
    8961:	48 8b 45 90          	mov    -0x70(%rbp),%rax
    8965:	48 89 c6             	mov    %rax,%rsi
    8968:	48 89 df             	mov    %rbx,%rdi
    896b:	e8 28 db ff ff       	call   6498 <_ZNKSt4lessINSt7__cxx1112basic_stringIcSt11char_traitsIcESaIcEEEEclERKS5_S8_>
    8970:	88 45 af             	mov    %al,-0x51(%rbp)
    8973:	80 7d af 00          	cmpb   $0x0,-0x51(%rbp)
    8977:	74 0e                	je     8987 <_ZNSt8_Rb_treeINSt7__cxx1112basic_stringIcSt11char_traitsIcESaIcEEESt4pairIKS5_P12netlist_elemESt10_Select1stISA_ESt4lessIS5_ESaISA_EE24_M_get_insert_unique_posERS7_+0x8b>
    8979:	48 8b 45 b0          	mov    -0x50(%rbp),%rax
    897d:	48 89 c7             	mov    %rax,%rdi
    8980:	e8 38 b7 ff ff       	call   40bd <_ZNSt8_Rb_treeINSt7__cxx1112basic_stringIcSt11char_traitsIcESaIcEEESt4pairIKS5_P12netlist_elemESt10_Select1stISA_ESt4lessIS5_ESaISA_EE7_S_leftEPSt18_Rb_tree_node_base>
    8985:	eb 0c                	jmp    8993 <_ZNSt8_Rb_treeINSt7__cxx1112basic_stringIcSt11char_traitsIcESaIcEEESt4pairIKS5_P12netlist_elemESt10_Select1stISA_ESt4lessIS5_ESaISA_EE24_M_get_insert_unique_posERS7_+0x97>
    8987:	48 8b 45 b0          	mov    -0x50(%rbp),%rax
    898b:	48 89 c7             	mov    %rax,%rdi
    898e:	e8 14 b7 ff ff       	call   40a7 <_ZNSt8_Rb_treeINSt7__cxx1112basic_stringIcSt11char_traitsIcESaIcEEESt4pairIKS5_P12netlist_elemESt10_Select1stISA_ESt4lessIS5_ESaISA_EE8_S_rightEPSt18_Rb_tree_node_base>
    8993:	48 89 45 b0          	mov    %rax,-0x50(%rbp)
    8997:	48 8b 45 b0          	mov    -0x50(%rbp),%rax
    899b:	48 85 c0             	test   %rax,%rax
    899e:	75 a6                	jne    8946 <_ZNSt8_Rb_treeINSt7__cxx1112basic_stringIcSt11char_traitsIcESaIcEEESt4pairIKS5_P12netlist_elemESt10_Select1stISA_ESt4lessIS5_ESaISA_EE24_M_get_insert_unique_posERS7_+0x4a>
    89a0:	48 8b 55 b8          	mov    -0x48(%rbp),%rdx
    89a4:	48 8d 45 c0          	lea    -0x40(%rbp),%rax
    89a8:	48 89 d6             	mov    %rdx,%rsi
    89ab:	48 89 c7             	mov    %rax,%rdi
    89ae:	e8 3d ec ff ff       	call   75f0 <_ZNSt17_Rb_tree_iteratorISt4pairIKNSt7__cxx1112basic_stringIcSt11char_traitsIcESaIcEEEP12netlist_elemEEC1EPSt18_Rb_tree_node_base>
    89b3:	80 7d af 00          	cmpb   $0x0,-0x51(%rbp)
    89b7:	74 54                	je     8a0d <_ZNSt8_Rb_treeINSt7__cxx1112basic_stringIcSt11char_traitsIcESaIcEEESt4pairIKS5_P12netlist_elemESt10_Select1stISA_ESt4lessIS5_ESaISA_EE24_M_get_insert_unique_posERS7_+0x111>
    89b9:	48 8b 45 98          	mov    -0x68(%rbp),%rax
    89bd:	48 89 c7             	mov    %rax,%rdi
    89c0:	e8 31 d9 ff ff       	call   62f6 <_ZNSt8_Rb_treeINSt7__cxx1112basic_stringIcSt11char_traitsIcESaIcEEESt4pairIKS5_P12netlist_elemESt10_Select1stISA_ESt4lessIS5_ESaISA_EE5beginEv>
    89c5:	48 89 45 d0          	mov    %rax,-0x30(%rbp)
    89c9:	48 8d 55 d0          	lea    -0x30(%rbp),%rdx
    89cd:	48 8d 45 c0          	lea    -0x40(%rbp),%rax
    89d1:	48 89 d6             	mov    %rdx,%rsi
    89d4:	48 89 c7             	mov    %rax,%rdi
    89d7:	e8 f3 d8 ff ff       	call   62cf <_ZSteqRKSt17_Rb_tree_iteratorISt4pairIKNSt7__cxx1112basic_stringIcSt11char_traitsIcESaIcEEEP12netlist_elemEESD_>
    89dc:	84 c0                	test   %al,%al
    89de:	74 21                	je     8a01 <_ZNSt8_Rb_treeINSt7__cxx1112basic_stringIcSt11char_traitsIcESaIcEEESt4pairIKS5_P12netlist_elemESt10_Select1stISA_ESt4lessIS5_ESaISA_EE24_M_get_insert_unique_posERS7_+0x105>
    89e0:	48 8d 55 b8          	lea    -0x48(%rbp),%rdx
    89e4:	48 8d 4d b0          	lea    -0x50(%rbp),%rcx
    89e8:	48 8d 45 d0          	lea    -0x30(%rbp),%rax
    89ec:	48 89 ce             	mov    %rcx,%rsi
    89ef:	48 89 c7             	mov    %rax,%rdi
    89f2:	e8 bd 07 00 00       	call   91b4 <_ZNSt4pairIPSt18_Rb_tree_node_baseS1_EC1IRPSt13_Rb_tree_nodeIS_IKNSt7__cxx1112basic_stringIcSt11char_traitsIcESaIcEEEP12netlist_elemEERS1_Lb1EEEOT_OT0_>
    89f7:	48 8b 45 d0          	mov    -0x30(%rbp),%rax
    89fb:	48 8b 55 d8          	mov    -0x28(%rbp),%rdx
    89ff:	eb 7d                	jmp    8a7e <_ZNSt8_Rb_treeINSt7__cxx1112basic_stringIcSt11char_traitsIcESaIcEEESt4pairIKS5_P12netlist_elemESt10_Select1stISA_ESt4lessIS5_ESaISA_EE24_M_get_insert_unique_posERS7_+0x182>
    8a01:	48 8d 45 c0          	lea    -0x40(%rbp),%rax
    8a05:	48 89 c7             	mov    %rax,%rdi
    8a08:	e8 e9 00 00 00       	call   8af6 <_ZNSt17_Rb_tree_iteratorISt4pairIKNSt7__cxx1112basic_stringIcSt11char_traitsIcESaIcEEEP12netlist_elemEEmmEv>
    8a0d:	48 8b 5d 98          	mov    -0x68(%rbp),%rbx
    8a11:	48 8b 45 c0          	mov    -0x40(%rbp),%rax
    8a15:	48 89 c7             	mov    %rax,%rdi
    8a18:	e8 19 fd ff ff       	call   8736 <_ZNSt8_Rb_treeINSt7__cxx1112basic_stringIcSt11char_traitsIcESaIcEEESt4pairIKS5_P12netlist_elemESt10_Select1stISA_ESt4lessIS5_ESaISA_EE6_S_keyEPKSt18_Rb_tree_node_base>
    8a1d:	48 89 c1             	mov    %rax,%rcx
    8a20:	48 8b 45 90          	mov    -0x70(%rbp),%rax
    8a24:	48 89 c2             	mov    %rax,%rdx
    8a27:	48 89 ce             	mov    %rcx,%rsi
    8a2a:	48 89 df             	mov    %rbx,%rdi
    8a2d:	e8 66 da ff ff       	call   6498 <_ZNKSt4lessINSt7__cxx1112basic_stringIcSt11char_traitsIcESaIcEEEEclERKS5_S8_>
    8a32:	84 c0                	test   %al,%al
    8a34:	74 21                	je     8a57 <_ZNSt8_Rb_treeINSt7__cxx1112basic_stringIcSt11char_traitsIcESaIcEEESt4pairIKS5_P12netlist_elemESt10_Select1stISA_ESt4lessIS5_ESaISA_EE24_M_get_insert_unique_posERS7_+0x15b>
    8a36:	48 8d 55 b8          	lea    -0x48(%rbp),%rdx
    8a3a:	48 8d 4d b0          	lea    -0x50(%rbp),%rcx
    8a3e:	48 8d 45 d0          	lea    -0x30(%rbp),%rax
    8a42:	48 89 ce             	mov    %rcx,%rsi
    8a45:	48 89 c7             	mov    %rax,%rdi
    8a48:	e8 67 07 00 00       	call   91b4 <_ZNSt4pairIPSt18_Rb_tree_node_baseS1_EC1IRPSt13_Rb_tree_nodeIS_IKNSt7__cxx1112basic_stringIcSt11char_traitsIcESaIcEEEP12netlist_elemEERS1_Lb1EEEOT_OT0_>
    8a4d:	48 8b 45 d0          	mov    -0x30(%rbp),%rax
    8a51:	48 8b 55 d8          	mov    -0x28(%rbp),%rdx
    8a55:	eb 27                	jmp    8a7e <_ZNSt8_Rb_treeINSt7__cxx1112basic_stringIcSt11char_traitsIcESaIcEEESt4pairIKS5_P12netlist_elemESt10_Select1stISA_ESt4lessIS5_ESaISA_EE24_M_get_insert_unique_posERS7_+0x182>
    8a57:	48 c7 45 c8 00 00 00 	movq   $0x0,-0x38(%rbp)
    8a5e:	00 
    8a5f:	48 8d 55 c8          	lea    -0x38(%rbp),%rdx
    8a63:	48 8d 4d c0          	lea    -0x40(%rbp),%rcx
    8a67:	48 8d 45 d0          	lea    -0x30(%rbp),%rax
    8a6b:	48 89 ce             	mov    %rcx,%rsi
    8a6e:	48 89 c7             	mov    %rax,%rdi
    8a71:	e8 ac 00 00 00       	call   8b22 <_ZNSt4pairIPSt18_Rb_tree_node_baseS1_EC1IRS1_Lb1EEEOT_RKS1_>
    8a76:	48 8b 45 d0          	mov    -0x30(%rbp),%rax
    8a7a:	48 8b 55 d8          	mov    -0x28(%rbp),%rdx
    8a7e:	48 8b 4d e8          	mov    -0x18(%rbp),%rcx
    8a82:	64 48 2b 0c 25 28 00 	sub    %fs:0x28,%rcx
    8a89:	00 00 
    8a8b:	74 05                	je     8a92 <_ZNSt8_Rb_treeINSt7__cxx1112basic_stringIcSt11char_traitsIcESaIcEEESt4pairIKS5_P12netlist_elemESt10_Select1stISA_ESt4lessIS5_ESaISA_EE24_M_get_insert_unique_posERS7_+0x196>
    8a8d:	e8 6e 9b ff ff       	call   2600 <__stack_chk_fail@plt>
    8a92:	48 8b 5d f8          	mov    -0x8(%rbp),%rbx
    8a96:	c9                   	leave  
    8a97:	c3                   	ret    

0000000000008a98 <_ZNSt8_Rb_treeINSt7__cxx1112basic_stringIcSt11char_traitsIcESaIcEEESt4pairIKS5_P12netlist_elemESt10_Select1stISA_ESt4lessIS5_ESaISA_EE11_M_leftmostEv>:
    8a98:	f3 0f 1e fa          	endbr64 
    8a9c:	55                   	push   %rbp
    8a9d:	48 89 e5             	mov    %rsp,%rbp
    8aa0:	48 89 7d f8          	mov    %rdi,-0x8(%rbp)
    8aa4:	48 8b 45 f8          	mov    -0x8(%rbp),%rax
    8aa8:	48 83 c0 18          	add    $0x18,%rax
    8aac:	5d                   	pop    %rbp
    8aad:	c3                   	ret    

0000000000008aae <_ZNSt4pairIPSt18_Rb_tree_node_baseS1_EC1IRS1_S4_Lb1EEEOT_OT0_>:
    8aae:	f3 0f 1e fa          	endbr64 
    8ab2:	55                   	push   %rbp
    8ab3:	48 89 e5             	mov    %rsp,%rbp
    8ab6:	48 83 ec 20          	sub    $0x20,%rsp
    8aba:	48 89 7d f8          	mov    %rdi,-0x8(%rbp)
    8abe:	48 89 75 f0          	mov    %rsi,-0x10(%rbp)
    8ac2:	48 89 55 e8          	mov    %rdx,-0x18(%rbp)
    8ac6:	48 8b 45 f0          	mov    -0x10(%rbp),%rax
    8aca:	48 89 c7             	mov    %rax,%rdi
    8acd:	e8 cf 06 00 00       	call   91a1 <_ZSt7forwardIRPSt18_Rb_tree_node_baseEOT_RNSt16remove_referenceIS3_E4typeE>
    8ad2:	48 8b 10             	mov    (%rax),%rdx
    8ad5:	48 8b 45 f8          	mov    -0x8(%rbp),%rax
    8ad9:	48 89 10             	mov    %rdx,(%rax)
    8adc:	48 8b 45 e8          	mov    -0x18(%rbp),%rax
    8ae0:	48 89 c7             	mov    %rax,%rdi
    8ae3:	e8 b9 06 00 00       	call   91a1 <_ZSt7forwardIRPSt18_Rb_tree_node_baseEOT_RNSt16remove_referenceIS3_E4typeE>
    8ae8:	48 8b 10             	mov    (%rax),%rdx
    8aeb:	48 8b 45 f8          	mov    -0x8(%rbp),%rax
    8aef:	48 89 50 08          	mov    %rdx,0x8(%rax)
    8af3:	90                   	nop
    8af4:	c9                   	leave  
    8af5:	c3                   	ret    

0000000000008af6 <_ZNSt17_Rb_tree_iteratorISt4pairIKNSt7__cxx1112basic_stringIcSt11char_traitsIcESaIcEEEP12netlist_elemEEmmEv>:
    8af6:	f3 0f 1e fa          	endbr64 
    8afa:	55                   	push   %rbp
    8afb:	48 89 e5             	mov    %rsp,%rbp
    8afe:	48 83 ec 10          	sub    $0x10,%rsp
    8b02:	48 89 7d f8          	mov    %rdi,-0x8(%rbp)
    8b06:	48 8b 45 f8          	mov    -0x8(%rbp),%rax
    8b0a:	48 8b 00             	mov    (%rax),%rax
    8b0d:	48 89 c7             	mov    %rax,%rdi
    8b10:	e8 7b 9a ff ff       	call   2590 <_ZSt18_Rb_tree_decrementPSt18_Rb_tree_node_base@plt>
    8b15:	48 8b 55 f8          	mov    -0x8(%rbp),%rdx
    8b19:	48 89 02             	mov    %rax,(%rdx)
    8b1c:	48 8b 45 f8          	mov    -0x8(%rbp),%rax
    8b20:	c9                   	leave  
    8b21:	c3                   	ret    

0000000000008b22 <_ZNSt4pairIPSt18_Rb_tree_node_baseS1_EC1IRS1_Lb1EEEOT_RKS1_>:
    8b22:	f3 0f 1e fa          	endbr64 
    8b26:	55                   	push   %rbp
    8b27:	48 89 e5             	mov    %rsp,%rbp
    8b2a:	48 83 ec 20          	sub    $0x20,%rsp
    8b2e:	48 89 7d f8          	mov    %rdi,-0x8(%rbp)
    8b32:	48 89 75 f0          	mov    %rsi,-0x10(%rbp)
    8b36:	48 89 55 e8          	mov    %rdx,-0x18(%rbp)
    8b3a:	48 8b 45 f0          	mov    -0x10(%rbp),%rax
    8b3e:	48 89 c7             	mov    %rax,%rdi
    8b41:	e8 5b 06 00 00       	call   91a1 <_ZSt7forwardIRPSt18_Rb_tree_node_baseEOT_RNSt16remove_referenceIS3_E4typeE>
    8b46:	48 8b 10             	mov    (%rax),%rdx
    8b49:	48 8b 45 f8          	mov    -0x8(%rbp),%rax
    8b4d:	48 89 10             	mov    %rdx,(%rax)
    8b50:	48 8b 45 e8          	mov    -0x18(%rbp),%rax
    8b54:	48 8b 10             	mov    (%rax),%rdx
    8b57:	48 8b 45 f8          	mov    -0x8(%rbp),%rax
    8b5b:	48 89 50 08          	mov    %rdx,0x8(%rax)
    8b5f:	90                   	nop
    8b60:	c9                   	leave  
    8b61:	c3                   	ret    

0000000000008b62 <_ZNKSt13_Rb_tree_nodeISt4pairIKNSt7__cxx1112basic_stringIcSt11char_traitsIcESaIcEEEP12netlist_elemEE9_M_valptrEv>:
    8b62:	f3 0f 1e fa          	endbr64 
    8b66:	55                   	push   %rbp
    8b67:	48 89 e5             	mov    %rsp,%rbp
    8b6a:	48 83 ec 10          	sub    $0x10,%rsp
    8b6e:	48 89 7d f8          	mov    %rdi,-0x8(%rbp)
    8b72:	48 8b 45 f8          	mov    -0x8(%rbp),%rax
    8b76:	48 83 c0 20          	add    $0x20,%rax
    8b7a:	48 89 c7             	mov    %rax,%rdi
    8b7d:	e8 7a 06 00 00       	call   91fc <_ZNK9__gnu_cxx16__aligned_membufISt4pairIKNSt7__cxx1112basic_stringIcSt11char_traitsIcESaIcEEEP12netlist_elemEE6_M_ptrEv>
    8b82:	c9                   	leave  
    8b83:	c3                   	ret    

0000000000008b84 <_ZNKSt10_Select1stISt4pairIKNSt7__cxx1112basic_stringIcSt11char_traitsIcESaIcEEEP12netlist_elemEEclERKSA_>:
    8b84:	f3 0f 1e fa          	endbr64 
    8b88:	55                   	push   %rbp
    8b89:	48 89 e5             	mov    %rsp,%rbp
    8b8c:	48 89 7d f8          	mov    %rdi,-0x8(%rbp)
    8b90:	48 89 75 f0          	mov    %rsi,-0x10(%rbp)
    8b94:	48 8b 45 f0          	mov    -0x10(%rbp),%rax
    8b98:	5d                   	pop    %rbp
    8b99:	c3                   	ret    

0000000000008b9a <_ZNSt6vectorI12netlist_elemSaIS0_EE11_S_max_sizeERKS1_>:
    8b9a:	f3 0f 1e fa          	endbr64 
    8b9e:	55                   	push   %rbp
    8b9f:	48 89 e5             	mov    %rsp,%rbp
    8ba2:	48 83 ec 30          	sub    $0x30,%rsp
    8ba6:	48 89 7d d8          	mov    %rdi,-0x28(%rbp)
    8baa:	64 48 8b 04 25 28 00 	mov    %fs:0x28,%rax
    8bb1:	00 00 
    8bb3:	48 89 45 f8          	mov    %rax,-0x8(%rbp)
    8bb7:	31 c0                	xor    %eax,%eax
    8bb9:	48 b8 5d 74 d1 45 17 	movabs $0x1745d1745d1745d,%rax
    8bc0:	5d 74 01 
    8bc3:	48 89 45 e8          	mov    %rax,-0x18(%rbp)
    8bc7:	48 8b 45 d8          	mov    -0x28(%rbp),%rax
    8bcb:	48 89 c7             	mov    %rax,%rdi
    8bce:	e8 47 06 00 00       	call   921a <_ZNSt16allocator_traitsISaI12netlist_elemEE8max_sizeERKS1_>
    8bd3:	48 89 45 f0          	mov    %rax,-0x10(%rbp)
    8bd7:	48 8d 55 f0          	lea    -0x10(%rbp),%rdx
    8bdb:	48 8d 45 e8          	lea    -0x18(%rbp),%rax
    8bdf:	48 89 d6             	mov    %rdx,%rsi
    8be2:	48 89 c7             	mov    %rax,%rdi
    8be5:	e8 88 b8 ff ff       	call   4472 <_ZSt3minImERKT_S2_S2_>
    8bea:	48 8b 00             	mov    (%rax),%rax
    8bed:	48 8b 55 f8          	mov    -0x8(%rbp),%rdx
    8bf1:	64 48 2b 14 25 28 00 	sub    %fs:0x28,%rdx
    8bf8:	00 00 
    8bfa:	74 05                	je     8c01 <_ZNSt6vectorI12netlist_elemSaIS0_EE11_S_max_sizeERKS1_+0x67>
    8bfc:	e8 ff 99 ff ff       	call   2600 <__stack_chk_fail@plt>
    8c01:	c9                   	leave  
    8c02:	c3                   	ret    
    8c03:	90                   	nop

0000000000008c04 <_ZNKSt12_Vector_baseI12netlist_elemSaIS0_EE19_M_get_Tp_allocatorEv>:
    8c04:	f3 0f 1e fa          	endbr64 
    8c08:	55                   	push   %rbp
    8c09:	48 89 e5             	mov    %rsp,%rbp
    8c0c:	48 89 7d f8          	mov    %rdi,-0x8(%rbp)
    8c10:	48 8b 45 f8          	mov    -0x8(%rbp),%rax
    8c14:	5d                   	pop    %rbp
    8c15:	c3                   	ret    

0000000000008c16 <_ZSt25__uninitialized_default_nIP12netlist_elemmET_S2_T0_>:
    8c16:	f3 0f 1e fa          	endbr64 
    8c1a:	55                   	push   %rbp
    8c1b:	48 89 e5             	mov    %rsp,%rbp
    8c1e:	48 83 ec 20          	sub    $0x20,%rsp
    8c22:	48 89 7d e8          	mov    %rdi,-0x18(%rbp)
    8c26:	48 89 75 e0          	mov    %rsi,-0x20(%rbp)
    8c2a:	c6 45 ff 01          	movb   $0x1,-0x1(%rbp)
    8c2e:	48 8b 55 e0          	mov    -0x20(%rbp),%rdx
    8c32:	48 8b 45 e8          	mov    -0x18(%rbp),%rax
    8c36:	48 89 d6             	mov    %rdx,%rsi
    8c39:	48 89 c7             	mov    %rax,%rdi
    8c3c:	e8 f7 05 00 00       	call   9238 <_ZNSt27__uninitialized_default_n_1ILb0EE18__uninit_default_nIP12netlist_elemmEET_S4_T0_>
    8c41:	c9                   	leave  
    8c42:	c3                   	ret    

0000000000008c43 <_ZSt3maxImERKT_S2_S2_>:
    8c43:	f3 0f 1e fa          	endbr64 
    8c47:	55                   	push   %rbp
    8c48:	48 89 e5             	mov    %rsp,%rbp
    8c4b:	48 89 7d f8          	mov    %rdi,-0x8(%rbp)
    8c4f:	48 89 75 f0          	mov    %rsi,-0x10(%rbp)
    8c53:	48 8b 45 f8          	mov    -0x8(%rbp),%rax
    8c57:	48 8b 10             	mov    (%rax),%rdx
    8c5a:	48 8b 45 f0          	mov    -0x10(%rbp),%rax
    8c5e:	48 8b 00             	mov    (%rax),%rax
    8c61:	48 39 c2             	cmp    %rax,%rdx
    8c64:	73 06                	jae    8c6c <_ZSt3maxImERKT_S2_S2_+0x29>
    8c66:	48 8b 45 f0          	mov    -0x10(%rbp),%rax
    8c6a:	eb 04                	jmp    8c70 <_ZSt3maxImERKT_S2_S2_+0x2d>
    8c6c:	48 8b 45 f8          	mov    -0x8(%rbp),%rax
    8c70:	5d                   	pop    %rbp
    8c71:	c3                   	ret    

0000000000008c72 <_ZNSt16allocator_traitsISaI12netlist_elemEE8allocateERS1_m>:
    8c72:	f3 0f 1e fa          	endbr64 
    8c76:	55                   	push   %rbp
    8c77:	48 89 e5             	mov    %rsp,%rbp
    8c7a:	48 83 ec 10          	sub    $0x10,%rsp
    8c7e:	48 89 7d f8          	mov    %rdi,-0x8(%rbp)
    8c82:	48 89 75 f0          	mov    %rsi,-0x10(%rbp)
    8c86:	48 8b 4d f0          	mov    -0x10(%rbp),%rcx
    8c8a:	48 8b 45 f8          	mov    -0x8(%rbp),%rax
    8c8e:	ba 00 00 00 00       	mov    $0x0,%edx
    8c93:	48 89 ce             	mov    %rcx,%rsi
    8c96:	48 89 c7             	mov    %rax,%rdi
    8c99:	e8 fc 05 00 00       	call   929a <_ZN9__gnu_cxx13new_allocatorI12netlist_elemE8allocateEmPKv>
    8c9e:	c9                   	leave  
    8c9f:	c3                   	ret    

0000000000008ca0 <_ZSt32__make_move_if_noexcept_iteratorI12netlist_elemPKS0_ET0_PT_>:
    8ca0:	f3 0f 1e fa          	endbr64 
    8ca4:	55                   	push   %rbp
    8ca5:	48 89 e5             	mov    %rsp,%rbp
    8ca8:	48 89 7d f8          	mov    %rdi,-0x8(%rbp)
    8cac:	48 8b 45 f8          	mov    -0x8(%rbp),%rax
    8cb0:	5d                   	pop    %rbp
    8cb1:	c3                   	ret    

0000000000008cb2 <_ZSt22__uninitialized_copy_aIPK12netlist_elemPS0_S0_ET0_T_S5_S4_RSaIT1_E>:
    8cb2:	f3 0f 1e fa          	endbr64 
    8cb6:	55                   	push   %rbp
    8cb7:	48 89 e5             	mov    %rsp,%rbp
    8cba:	48 83 ec 20          	sub    $0x20,%rsp
    8cbe:	48 89 7d f8          	mov    %rdi,-0x8(%rbp)
    8cc2:	48 89 75 f0          	mov    %rsi,-0x10(%rbp)
    8cc6:	48 89 55 e8          	mov    %rdx,-0x18(%rbp)
    8cca:	48 89 4d e0          	mov    %rcx,-0x20(%rbp)
    8cce:	48 8b 55 e8          	mov    -0x18(%rbp),%rdx
    8cd2:	48 8b 4d f0          	mov    -0x10(%rbp),%rcx
    8cd6:	48 8b 45 f8          	mov    -0x8(%rbp),%rax
    8cda:	48 89 ce             	mov    %rcx,%rsi
    8cdd:	48 89 c7             	mov    %rax,%rdi
    8ce0:	e8 2a 06 00 00       	call   930f <_ZSt18uninitialized_copyIPK12netlist_elemPS0_ET0_T_S5_S4_>
    8ce5:	c9                   	leave  
    8ce6:	c3                   	ret    

0000000000008ce7 <_ZNSt16allocator_traitsISaI10location_tEE8max_sizeERKS1_>:
    8ce7:	f3 0f 1e fa          	endbr64 
    8ceb:	55                   	push   %rbp
    8cec:	48 89 e5             	mov    %rsp,%rbp
    8cef:	48 83 ec 10          	sub    $0x10,%rsp
    8cf3:	48 89 7d f8          	mov    %rdi,-0x8(%rbp)
    8cf7:	48 8b 45 f8          	mov    -0x8(%rbp),%rax
    8cfb:	48 89 c7             	mov    %rax,%rdi
    8cfe:	e8 41 06 00 00       	call   9344 <_ZNK9__gnu_cxx13new_allocatorI10location_tE8max_sizeEv>
    8d03:	c9                   	leave  
    8d04:	c3                   	ret    
    8d05:	90                   	nop

0000000000008d06 <_ZN9__gnu_cxx13new_allocatorI10location_tEC1ERKS2_>:
    8d06:	f3 0f 1e fa          	endbr64 
    8d0a:	55                   	push   %rbp
    8d0b:	48 89 e5             	mov    %rsp,%rbp
    8d0e:	48 89 7d f8          	mov    %rdi,-0x8(%rbp)
    8d12:	48 89 75 f0          	mov    %rsi,-0x10(%rbp)
    8d16:	90                   	nop
    8d17:	5d                   	pop    %rbp
    8d18:	c3                   	ret    
    8d19:	90                   	nop

0000000000008d1a <_ZNSt12_Vector_baseI10location_tSaIS0_EE17_Vector_impl_dataC1Ev>:
    8d1a:	f3 0f 1e fa          	endbr64 
    8d1e:	55                   	push   %rbp
    8d1f:	48 89 e5             	mov    %rsp,%rbp
    8d22:	48 89 7d f8          	mov    %rdi,-0x8(%rbp)
    8d26:	48 8b 45 f8          	mov    -0x8(%rbp),%rax
    8d2a:	48 c7 00 00 00 00 00 	movq   $0x0,(%rax)
    8d31:	48 8b 45 f8          	mov    -0x8(%rbp),%rax
    8d35:	48 c7 40 08 00 00 00 	movq   $0x0,0x8(%rax)
    8d3c:	00 
    8d3d:	48 8b 45 f8          	mov    -0x8(%rbp),%rax
    8d41:	48 c7 40 10 00 00 00 	movq   $0x0,0x10(%rax)
    8d48:	00 
    8d49:	90                   	nop
    8d4a:	5d                   	pop    %rbp
    8d4b:	c3                   	ret    

0000000000008d4c <_ZNSt12_Vector_baseI10location_tSaIS0_EE11_M_allocateEm>:
    8d4c:	f3 0f 1e fa          	endbr64 
    8d50:	55                   	push   %rbp
    8d51:	48 89 e5             	mov    %rsp,%rbp
    8d54:	48 83 ec 10          	sub    $0x10,%rsp
    8d58:	48 89 7d f8          	mov    %rdi,-0x8(%rbp)
    8d5c:	48 89 75 f0          	mov    %rsi,-0x10(%rbp)
    8d60:	48 83 7d f0 00       	cmpq   $0x0,-0x10(%rbp)
    8d65:	74 15                	je     8d7c <_ZNSt12_Vector_baseI10location_tSaIS0_EE11_M_allocateEm+0x30>
    8d67:	48 8b 45 f8          	mov    -0x8(%rbp),%rax
    8d6b:	48 8b 55 f0          	mov    -0x10(%rbp),%rdx
    8d6f:	48 89 d6             	mov    %rdx,%rsi
    8d72:	48 89 c7             	mov    %rax,%rdi
    8d75:	e8 e8 05 00 00       	call   9362 <_ZNSt16allocator_traitsISaI10location_tEE8allocateERS1_m>
    8d7a:	eb 05                	jmp    8d81 <_ZNSt12_Vector_baseI10location_tSaIS0_EE11_M_allocateEm+0x35>
    8d7c:	b8 00 00 00 00       	mov    $0x0,%eax
    8d81:	c9                   	leave  
    8d82:	c3                   	ret    

0000000000008d83 <_ZSt25__uninitialized_default_nIP10location_tmET_S2_T0_>:
    8d83:	f3 0f 1e fa          	endbr64 
    8d87:	55                   	push   %rbp
    8d88:	48 89 e5             	mov    %rsp,%rbp
    8d8b:	48 83 ec 20          	sub    $0x20,%rsp
    8d8f:	48 89 7d e8          	mov    %rdi,-0x18(%rbp)
    8d93:	48 89 75 e0          	mov    %rsi,-0x20(%rbp)
    8d97:	c6 45 ff 01          	movb   $0x1,-0x1(%rbp)
    8d9b:	48 8b 55 e0          	mov    -0x20(%rbp),%rdx
    8d9f:	48 8b 45 e8          	mov    -0x18(%rbp),%rax
    8da3:	48 89 d6             	mov    %rdx,%rsi
    8da6:	48 89 c7             	mov    %rax,%rdi
    8da9:	e8 f4 05 00 00       	call   93a2 <_ZNSt27__uninitialized_default_n_1ILb1EE18__uninit_default_nIP10location_tmEET_S4_T0_>
    8dae:	c9                   	leave  
    8daf:	c3                   	ret    

0000000000008db0 <_ZNSt6vectorIS_I10location_tSaIS0_EESaIS2_EE16_Temporary_value6_M_ptrEv>:
    8db0:	f3 0f 1e fa          	endbr64 
    8db4:	55                   	push   %rbp
    8db5:	48 89 e5             	mov    %rsp,%rbp
    8db8:	48 89 7d f8          	mov    %rdi,-0x8(%rbp)
    8dbc:	48 8b 45 f8          	mov    -0x8(%rbp),%rax
    8dc0:	48 83 c0 08          	add    $0x8,%rax
    8dc4:	5d                   	pop    %rbp
    8dc5:	c3                   	ret    

0000000000008dc6 <_ZSt7forwardIRKSt6vectorI10location_tSaIS1_EEEOT_RNSt16remove_referenceIS6_E4typeE>:
    8dc6:	f3 0f 1e fa          	endbr64 
    8dca:	55                   	push   %rbp
    8dcb:	48 89 e5             	mov    %rsp,%rbp
    8dce:	48 89 7d f8          	mov    %rdi,-0x8(%rbp)
    8dd2:	48 8b 45 f8          	mov    -0x8(%rbp),%rax
    8dd6:	5d                   	pop    %rbp
    8dd7:	c3                   	ret    

0000000000008dd8 <_ZNSt16allocator_traitsISaISt6vectorI10location_tSaIS1_EEEE9constructIS3_JRKS3_EEEvRS4_PT_DpOT0_>:
    8dd8:	f3 0f 1e fa          	endbr64 
    8ddc:	55                   	push   %rbp
    8ddd:	48 89 e5             	mov    %rsp,%rbp
    8de0:	48 83 ec 20          	sub    $0x20,%rsp
    8de4:	48 89 7d f8          	mov    %rdi,-0x8(%rbp)
    8de8:	48 89 75 f0          	mov    %rsi,-0x10(%rbp)
    8dec:	48 89 55 e8          	mov    %rdx,-0x18(%rbp)
    8df0:	48 8b 45 e8          	mov    -0x18(%rbp),%rax
    8df4:	48 89 c7             	mov    %rax,%rdi
    8df7:	e8 ca ff ff ff       	call   8dc6 <_ZSt7forwardIRKSt6vectorI10location_tSaIS1_EEEOT_RNSt16remove_referenceIS6_E4typeE>
    8dfc:	48 89 c2             	mov    %rax,%rdx
    8dff:	48 8b 4d f0          	mov    -0x10(%rbp),%rcx
    8e03:	48 8b 45 f8          	mov    -0x8(%rbp),%rax
    8e07:	48 89 ce             	mov    %rcx,%rsi
    8e0a:	48 89 c7             	mov    %rax,%rdi
    8e0d:	e8 f2 05 00 00       	call   9404 <_ZN9__gnu_cxx13new_allocatorISt6vectorI10location_tSaIS2_EEE9constructIS4_JRKS4_EEEvPT_DpOT0_>
    8e12:	90                   	nop
    8e13:	c9                   	leave  
    8e14:	c3                   	ret    

0000000000008e15 <_ZNSt16allocator_traitsISaISt6vectorI10location_tSaIS1_EEEE7destroyIS3_EEvRS4_PT_>:
    8e15:	f3 0f 1e fa          	endbr64 
    8e19:	55                   	push   %rbp
    8e1a:	48 89 e5             	mov    %rsp,%rbp
    8e1d:	48 83 ec 10          	sub    $0x10,%rsp
    8e21:	48 89 7d f8          	mov    %rdi,-0x8(%rbp)
    8e25:	48 89 75 f0          	mov    %rsi,-0x10(%rbp)
    8e29:	48 8b 55 f0          	mov    -0x10(%rbp),%rdx
    8e2d:	48 8b 45 f8          	mov    -0x8(%rbp),%rax
    8e31:	48 89 d6             	mov    %rdx,%rsi
    8e34:	48 89 c7             	mov    %rax,%rdi
    8e37:	e8 14 06 00 00       	call   9450 <_ZN9__gnu_cxx13new_allocatorISt6vectorI10location_tSaIS2_EEE7destroyIS4_EEvPT_>
    8e3c:	90                   	nop
    8e3d:	c9                   	leave  
    8e3e:	c3                   	ret    

0000000000008e3f <_ZSt18make_move_iteratorIPSt6vectorI10location_tSaIS1_EEESt13move_iteratorIT_ES6_>:
    8e3f:	f3 0f 1e fa          	endbr64 
    8e43:	55                   	push   %rbp
    8e44:	48 89 e5             	mov    %rsp,%rbp
    8e47:	48 83 ec 20          	sub    $0x20,%rsp
    8e4b:	48 89 7d e8          	mov    %rdi,-0x18(%rbp)
    8e4f:	64 48 8b 04 25 28 00 	mov    %fs:0x28,%rax
    8e56:	00 00 
    8e58:	48 89 45 f8          	mov    %rax,-0x8(%rbp)
    8e5c:	31 c0                	xor    %eax,%eax
    8e5e:	48 8d 45 e8          	lea    -0x18(%rbp),%rax
    8e62:	48 89 c7             	mov    %rax,%rdi
    8e65:	e8 09 06 00 00       	call   9473 <_ZSt4moveIRPSt6vectorI10location_tSaIS1_EEEONSt16remove_referenceIT_E4typeEOS7_>
    8e6a:	48 8b 10             	mov    (%rax),%rdx
    8e6d:	48 8d 45 f0          	lea    -0x10(%rbp),%rax
    8e71:	48 89 d6             	mov    %rdx,%rsi
    8e74:	48 89 c7             	mov    %rax,%rdi
    8e77:	e8 0a 06 00 00       	call   9486 <_ZNSt13move_iteratorIPSt6vectorI10location_tSaIS1_EEEC1ES4_>
    8e7c:	48 8b 45 f0          	mov    -0x10(%rbp),%rax
    8e80:	48 8b 55 f8          	mov    -0x8(%rbp),%rdx
    8e84:	64 48 2b 14 25 28 00 	sub    %fs:0x28,%rdx
    8e8b:	00 00 
    8e8d:	74 05                	je     8e94 <_ZSt18make_move_iteratorIPSt6vectorI10location_tSaIS1_EEESt13move_iteratorIT_ES6_+0x55>
    8e8f:	e8 6c 97 ff ff       	call   2600 <__stack_chk_fail@plt>
    8e94:	c9                   	leave  
    8e95:	c3                   	ret    

0000000000008e96 <_ZSt22__uninitialized_copy_aISt13move_iteratorIPSt6vectorI10location_tSaIS2_EEES5_S4_ET0_T_S8_S7_RSaIT1_E>:
    8e96:	f3 0f 1e fa          	endbr64 
    8e9a:	55                   	push   %rbp
    8e9b:	48 89 e5             	mov    %rsp,%rbp
    8e9e:	48 83 ec 20          	sub    $0x20,%rsp
    8ea2:	48 89 7d f8          	mov    %rdi,-0x8(%rbp)
    8ea6:	48 89 75 f0          	mov    %rsi,-0x10(%rbp)
    8eaa:	48 89 55 e8          	mov    %rdx,-0x18(%rbp)
    8eae:	48 89 4d e0          	mov    %rcx,-0x20(%rbp)
    8eb2:	48 8b 55 e8          	mov    -0x18(%rbp),%rdx
    8eb6:	48 8b 4d f0          	mov    -0x10(%rbp),%rcx
    8eba:	48 8b 45 f8          	mov    -0x8(%rbp),%rax
    8ebe:	48 89 ce             	mov    %rcx,%rsi
    8ec1:	48 89 c7             	mov    %rax,%rdi
    8ec4:	e8 f9 05 00 00       	call   94c2 <_ZSt18uninitialized_copyISt13move_iteratorIPSt6vectorI10location_tSaIS2_EEES5_ET0_T_S8_S7_>
    8ec9:	c9                   	leave  
    8eca:	c3                   	ret    

0000000000008ecb <_ZSt12__miter_baseIPSt6vectorI10location_tSaIS1_EEET_S5_>:
    8ecb:	f3 0f 1e fa          	endbr64 
    8ecf:	55                   	push   %rbp
    8ed0:	48 89 e5             	mov    %rsp,%rbp
    8ed3:	48 89 7d f8          	mov    %rdi,-0x8(%rbp)
    8ed7:	48 8b 45 f8          	mov    -0x8(%rbp),%rax
    8edb:	5d                   	pop    %rbp
    8edc:	c3                   	ret    

0000000000008edd <_ZSt22__copy_move_backward_aILb1EPSt6vectorI10location_tSaIS1_EES4_ET1_T0_S6_S5_>:
    8edd:	f3 0f 1e fa          	endbr64 
    8ee1:	55                   	push   %rbp
    8ee2:	48 89 e5             	mov    %rsp,%rbp
    8ee5:	41 54                	push   %r12
    8ee7:	53                   	push   %rbx
    8ee8:	48 83 ec 20          	sub    $0x20,%rsp
    8eec:	48 89 7d e8          	mov    %rdi,-0x18(%rbp)
    8ef0:	48 89 75 e0          	mov    %rsi,-0x20(%rbp)
    8ef4:	48 89 55 d8          	mov    %rdx,-0x28(%rbp)
    8ef8:	48 8b 45 d8          	mov    -0x28(%rbp),%rax
    8efc:	48 89 c7             	mov    %rax,%rdi
    8eff:	e8 f3 05 00 00       	call   94f7 <_ZSt12__niter_baseIPSt6vectorI10location_tSaIS1_EEET_S5_>
    8f04:	49 89 c4             	mov    %rax,%r12
    8f07:	48 8b 45 e0          	mov    -0x20(%rbp),%rax
    8f0b:	48 89 c7             	mov    %rax,%rdi
    8f0e:	e8 e4 05 00 00       	call   94f7 <_ZSt12__niter_baseIPSt6vectorI10location_tSaIS1_EEET_S5_>
    8f13:	48 89 c3             	mov    %rax,%rbx
    8f16:	48 8b 45 e8          	mov    -0x18(%rbp),%rax
    8f1a:	48 89 c7             	mov    %rax,%rdi
    8f1d:	e8 d5 05 00 00       	call   94f7 <_ZSt12__niter_baseIPSt6vectorI10location_tSaIS1_EEET_S5_>
    8f22:	4c 89 e2             	mov    %r12,%rdx
    8f25:	48 89 de             	mov    %rbx,%rsi
    8f28:	48 89 c7             	mov    %rax,%rdi
    8f2b:	e8 d9 05 00 00       	call   9509 <_ZSt23__copy_move_backward_a1ILb1EPSt6vectorI10location_tSaIS1_EES4_ET1_T0_S6_S5_>
    8f30:	48 89 c2             	mov    %rax,%rdx
    8f33:	48 8d 45 d8          	lea    -0x28(%rbp),%rax
    8f37:	48 89 d6             	mov    %rdx,%rsi
    8f3a:	48 89 c7             	mov    %rax,%rdi
    8f3d:	e8 f8 05 00 00       	call   953a <_ZSt12__niter_wrapIPSt6vectorI10location_tSaIS1_EEET_RKS5_S5_>
    8f42:	48 83 c4 20          	add    $0x20,%rsp
    8f46:	5b                   	pop    %rbx
    8f47:	41 5c                	pop    %r12
    8f49:	5d                   	pop    %rbp
    8f4a:	c3                   	ret    

0000000000008f4b <_ZSt8__fill_aIPSt6vectorI10location_tSaIS1_EES3_EvT_S5_RKT0_>:
    8f4b:	f3 0f 1e fa          	endbr64 
    8f4f:	55                   	push   %rbp
    8f50:	48 89 e5             	mov    %rsp,%rbp
    8f53:	48 83 ec 20          	sub    $0x20,%rsp
    8f57:	48 89 7d f8          	mov    %rdi,-0x8(%rbp)
    8f5b:	48 89 75 f0          	mov    %rsi,-0x10(%rbp)
    8f5f:	48 89 55 e8          	mov    %rdx,-0x18(%rbp)
    8f63:	48 8b 55 e8          	mov    -0x18(%rbp),%rdx
    8f67:	48 8b 4d f0          	mov    -0x10(%rbp),%rcx
    8f6b:	48 8b 45 f8          	mov    -0x8(%rbp),%rax
    8f6f:	48 89 ce             	mov    %rcx,%rsi
    8f72:	48 89 c7             	mov    %rax,%rdi
    8f75:	e8 d6 05 00 00       	call   9550 <_ZSt9__fill_a1IPSt6vectorI10location_tSaIS1_EES3_EN9__gnu_cxx11__enable_ifIXntsrSt11__is_scalarIT0_E7__valueEvE6__typeET_SC_RKS8_>
    8f7a:	90                   	nop
    8f7b:	c9                   	leave  
    8f7c:	c3                   	ret    

0000000000008f7d <_ZSt20uninitialized_fill_nIPSt6vectorI10location_tSaIS1_EEmS3_ET_S5_T0_RKT1_>:
    8f7d:	f3 0f 1e fa          	endbr64 
    8f81:	55                   	push   %rbp
    8f82:	48 89 e5             	mov    %rsp,%rbp
    8f85:	48 83 ec 30          	sub    $0x30,%rsp
    8f89:	48 89 7d e8          	mov    %rdi,-0x18(%rbp)
    8f8d:	48 89 75 e0          	mov    %rsi,-0x20(%rbp)
    8f91:	48 89 55 d8          	mov    %rdx,-0x28(%rbp)
    8f95:	c6 45 ff 01          	movb   $0x1,-0x1(%rbp)
    8f99:	48 8b 55 d8          	mov    -0x28(%rbp),%rdx
    8f9d:	48 8b 4d e0          	mov    -0x20(%rbp),%rcx
    8fa1:	48 8b 45 e8          	mov    -0x18(%rbp),%rax
    8fa5:	48 89 ce             	mov    %rcx,%rsi
    8fa8:	48 89 c7             	mov    %rax,%rdi
    8fab:	e8 e0 05 00 00       	call   9590 <_ZNSt22__uninitialized_fill_nILb0EE15__uninit_fill_nIPSt6vectorI10location_tSaIS3_EEmS5_EET_S7_T0_RKT1_>
    8fb0:	c9                   	leave  
    8fb1:	c3                   	ret    

0000000000008fb2 <_ZNKSt6vectorIS_I10location_tSaIS0_EESaIS2_EE8max_sizeEv>:
    8fb2:	f3 0f 1e fa          	endbr64 
    8fb6:	55                   	push   %rbp
    8fb7:	48 89 e5             	mov    %rsp,%rbp
    8fba:	48 83 ec 10          	sub    $0x10,%rsp
    8fbe:	48 89 7d f8          	mov    %rdi,-0x8(%rbp)
    8fc2:	48 8b 45 f8          	mov    -0x8(%rbp),%rax
    8fc6:	48 89 c7             	mov    %rax,%rdi
    8fc9:	e8 82 06 00 00       	call   9650 <_ZNKSt12_Vector_baseISt6vectorI10location_tSaIS1_EESaIS3_EE19_M_get_Tp_allocatorEv>
    8fce:	48 89 c7             	mov    %rax,%rdi
    8fd1:	e8 11 06 00 00       	call   95e7 <_ZNSt6vectorIS_I10location_tSaIS0_EESaIS2_EE11_S_max_sizeERKS3_>
    8fd6:	c9                   	leave  
    8fd7:	c3                   	ret    

0000000000008fd8 <_ZNSt16allocator_traitsISaISt6vectorI10location_tSaIS1_EEEE8allocateERS4_m>:
    8fd8:	f3 0f 1e fa          	endbr64 
    8fdc:	55                   	push   %rbp
    8fdd:	48 89 e5             	mov    %rsp,%rbp
    8fe0:	48 83 ec 10          	sub    $0x10,%rsp
    8fe4:	48 89 7d f8          	mov    %rdi,-0x8(%rbp)
    8fe8:	48 89 75 f0          	mov    %rsi,-0x10(%rbp)
    8fec:	48 8b 4d f0          	mov    -0x10(%rbp),%rcx
    8ff0:	48 8b 45 f8          	mov    -0x8(%rbp),%rax
    8ff4:	ba 00 00 00 00       	mov    $0x0,%edx
    8ff9:	48 89 ce             	mov    %rcx,%rsi
    8ffc:	48 89 c7             	mov    %rax,%rdi
    8fff:	e8 76 06 00 00       	call   967a <_ZN9__gnu_cxx13new_allocatorISt6vectorI10location_tSaIS2_EEE8allocateEmPKv>
    9004:	c9                   	leave  
    9005:	c3                   	ret    

0000000000009006 <_ZSt32__make_move_if_noexcept_iteratorISt6vectorI10location_tSaIS1_EESt13move_iteratorIPS3_EET0_PT_>:
    9006:	f3 0f 1e fa          	endbr64 
    900a:	55                   	push   %rbp
    900b:	48 89 e5             	mov    %rsp,%rbp
    900e:	48 83 ec 20          	sub    $0x20,%rsp
    9012:	48 89 7d e8          	mov    %rdi,-0x18(%rbp)
    9016:	64 48 8b 04 25 28 00 	mov    %fs:0x28,%rax
    901d:	00 00 
    901f:	48 89 45 f8          	mov    %rax,-0x8(%rbp)
    9023:	31 c0                	xor    %eax,%eax
    9025:	48 8b 55 e8          	mov    -0x18(%rbp),%rdx
    9029:	48 8d 45 f0          	lea    -0x10(%rbp),%rax
    902d:	48 89 d6             	mov    %rdx,%rsi
    9030:	48 89 c7             	mov    %rax,%rdi
    9033:	e8 4e 04 00 00       	call   9486 <_ZNSt13move_iteratorIPSt6vectorI10location_tSaIS1_EEEC1ES4_>
    9038:	48 8b 45 f0          	mov    -0x10(%rbp),%rax
    903c:	48 8b 55 f8          	mov    -0x8(%rbp),%rdx
    9040:	64 48 2b 14 25 28 00 	sub    %fs:0x28,%rdx
    9047:	00 00 
    9049:	74 05                	je     9050 <_ZSt32__make_move_if_noexcept_iteratorISt6vectorI10location_tSaIS1_EESt13move_iteratorIPS3_EET0_PT_+0x4a>
    904b:	e8 b0 95 ff ff       	call   2600 <__stack_chk_fail@plt>
    9050:	c9                   	leave  
    9051:	c3                   	ret    

0000000000009052 <_ZNKSt6vectorIP12netlist_elemSaIS1_EE8max_sizeEv>:
    9052:	f3 0f 1e fa          	endbr64 
    9056:	55                   	push   %rbp
    9057:	48 89 e5             	mov    %rsp,%rbp
    905a:	48 83 ec 10          	sub    $0x10,%rsp
    905e:	48 89 7d f8          	mov    %rdi,-0x8(%rbp)
    9062:	48 8b 45 f8          	mov    -0x8(%rbp),%rax
    9066:	48 89 c7             	mov    %rax,%rdi
    9069:	e8 e4 06 00 00       	call   9752 <_ZNKSt12_Vector_baseIP12netlist_elemSaIS1_EE19_M_get_Tp_allocatorEv>
    906e:	48 89 c7             	mov    %rax,%rdi
    9071:	e8 72 06 00 00       	call   96e8 <_ZNSt6vectorIP12netlist_elemSaIS1_EE11_S_max_sizeERKS2_>
    9076:	c9                   	leave  
    9077:	c3                   	ret    

0000000000009078 <_ZNKSt6vectorIP12netlist_elemSaIS1_EE4sizeEv>:
    9078:	f3 0f 1e fa          	endbr64 
    907c:	55                   	push   %rbp
    907d:	48 89 e5             	mov    %rsp,%rbp
    9080:	48 89 7d f8          	mov    %rdi,-0x8(%rbp)
    9084:	48 8b 45 f8          	mov    -0x8(%rbp),%rax
    9088:	48 8b 50 08          	mov    0x8(%rax),%rdx
    908c:	48 8b 45 f8          	mov    -0x8(%rbp),%rax
    9090:	48 8b 08             	mov    (%rax),%rcx
    9093:	48 89 d0             	mov    %rdx,%rax
    9096:	48 29 c8             	sub    %rcx,%rax
    9099:	48 c1 f8 03          	sar    $0x3,%rax
    909d:	5d                   	pop    %rbp
    909e:	c3                   	ret    

000000000000909f <_ZNSt16allocator_traitsISaIP12netlist_elemEE8allocateERS2_m>:
    909f:	f3 0f 1e fa          	endbr64 
    90a3:	55                   	push   %rbp
    90a4:	48 89 e5             	mov    %rsp,%rbp
    90a7:	48 83 ec 10          	sub    $0x10,%rsp
    90ab:	48 89 7d f8          	mov    %rdi,-0x8(%rbp)
    90af:	48 89 75 f0          	mov    %rsi,-0x10(%rbp)
    90b3:	48 8b 4d f0          	mov    -0x10(%rbp),%rcx
    90b7:	48 8b 45 f8          	mov    -0x8(%rbp),%rax
    90bb:	ba 00 00 00 00       	mov    $0x0,%edx
    90c0:	48 89 ce             	mov    %rcx,%rsi
    90c3:	48 89 c7             	mov    %rax,%rdi
    90c6:	e8 b1 06 00 00       	call   977c <_ZN9__gnu_cxx13new_allocatorIP12netlist_elemE8allocateEmPKv>
    90cb:	c9                   	leave  
    90cc:	c3                   	ret    

00000000000090cd <_ZNSt6vectorIP12netlist_elemSaIS1_EE14_S_do_relocateEPS1_S4_S4_RS2_St17integral_constantIbLb1EE>:
    90cd:	f3 0f 1e fa          	endbr64 
    90d1:	55                   	push   %rbp
    90d2:	48 89 e5             	mov    %rsp,%rbp
    90d5:	48 83 ec 20          	sub    $0x20,%rsp
    90d9:	48 89 7d f8          	mov    %rdi,-0x8(%rbp)
    90dd:	48 89 75 f0          	mov    %rsi,-0x10(%rbp)
    90e1:	48 89 55 e8          	mov    %rdx,-0x18(%rbp)
    90e5:	48 89 4d e0          	mov    %rcx,-0x20(%rbp)
    90e9:	48 8b 4d e0          	mov    -0x20(%rbp),%rcx
    90ed:	48 8b 55 e8          	mov    -0x18(%rbp),%rdx
    90f1:	48 8b 75 f0          	mov    -0x10(%rbp),%rsi
    90f5:	48 8b 45 f8          	mov    -0x8(%rbp),%rax
    90f9:	48 89 c7             	mov    %rax,%rdi
    90fc:	e8 e0 06 00 00       	call   97e1 <_ZSt12__relocate_aIPP12netlist_elemS2_SaIS1_EET0_T_S5_S4_RT1_>
    9101:	c9                   	leave  
    9102:	c3                   	ret    

0000000000009103 <_ZNSt16allocator_traitsISaISt13_Rb_tree_nodeISt4pairIKNSt7__cxx1112basic_stringIcSt11char_traitsIcESaIcEEEP12netlist_elemEEEE8allocateERSD_m>:
    9103:	f3 0f 1e fa          	endbr64 
    9107:	55                   	push   %rbp
    9108:	48 89 e5             	mov    %rsp,%rbp
    910b:	48 83 ec 10          	sub    $0x10,%rsp
    910f:	48 89 7d f8          	mov    %rdi,-0x8(%rbp)
    9113:	48 89 75 f0          	mov    %rsi,-0x10(%rbp)
    9117:	48 8b 4d f0          	mov    -0x10(%rbp),%rcx
    911b:	48 8b 45 f8          	mov    -0x8(%rbp),%rax
    911f:	ba 00 00 00 00       	mov    $0x0,%edx
    9124:	48 89 ce             	mov    %rcx,%rsi
    9127:	48 89 c7             	mov    %rax,%rdi
    912a:	e8 31 07 00 00       	call   9860 <_ZN9__gnu_cxx13new_allocatorISt13_Rb_tree_nodeISt4pairIKNSt7__cxx1112basic_stringIcSt11char_traitsIcESaIcEEEP12netlist_elemEEE8allocateEmPKv>
    912f:	c9                   	leave  
    9130:	c3                   	ret    

0000000000009131 <_ZNSt16allocator_traitsISaISt13_Rb_tree_nodeISt4pairIKNSt7__cxx1112basic_stringIcSt11char_traitsIcESaIcEEEP12netlist_elemEEEE9constructISB_JRKSt21piecewise_construct_tSt5tupleIJRS8_EESJ_IJEEEEEvRSD_PT_DpOT0_>:
    9131:	f3 0f 1e fa          	endbr64 
    9135:	55                   	push   %rbp
    9136:	48 89 e5             	mov    %rsp,%rbp
    9139:	41 54                	push   %r12
    913b:	53                   	push   %rbx
    913c:	48 83 ec 30          	sub    $0x30,%rsp
    9140:	48 89 7d e8          	mov    %rdi,-0x18(%rbp)
    9144:	48 89 75 e0          	mov    %rsi,-0x20(%rbp)
    9148:	48 89 55 d8          	mov    %rdx,-0x28(%rbp)
    914c:	48 89 4d d0          	mov    %rcx,-0x30(%rbp)
    9150:	4c 89 45 c8          	mov    %r8,-0x38(%rbp)
    9154:	48 8b 45 c8          	mov    -0x38(%rbp),%rax
    9158:	48 89 c7             	mov    %rax,%rdi
    915b:	e8 88 e5 ff ff       	call   76e8 <_ZSt7forwardISt5tupleIJEEEOT_RNSt16remove_referenceIS2_E4typeE>
    9160:	49 89 c4             	mov    %rax,%r12
    9163:	48 8b 45 d0          	mov    -0x30(%rbp),%rax
    9167:	48 89 c7             	mov    %rax,%rdi
    916a:	e8 67 e5 ff ff       	call   76d6 <_ZSt7forwardISt5tupleIJRKNSt7__cxx1112basic_stringIcSt11char_traitsIcESaIcEEEEEEOT_RNSt16remove_referenceISA_E4typeE>
    916f:	48 89 c3             	mov    %rax,%rbx
    9172:	48 8b 45 d8          	mov    -0x28(%rbp),%rax
    9176:	48 89 c7             	mov    %rax,%rdi
    9179:	e8 46 e5 ff ff       	call   76c4 <_ZSt7forwardIRKSt21piecewise_construct_tEOT_RNSt16remove_referenceIS3_E4typeE>
    917e:	48 89 c2             	mov    %rax,%rdx
    9181:	48 8b 75 e0          	mov    -0x20(%rbp),%rsi
    9185:	48 8b 45 e8          	mov    -0x18(%rbp),%rax
    9189:	4d 89 e0             	mov    %r12,%r8
    918c:	48 89 d9             	mov    %rbx,%rcx
    918f:	48 89 c7             	mov    %rax,%rdi
    9192:	e8 63 07 00 00       	call   98fa <_ZN9__gnu_cxx13new_allocatorISt13_Rb_tree_nodeISt4pairIKNSt7__cxx1112basic_stringIcSt11char_traitsIcESaIcEEEP12netlist_elemEEE9constructISC_JRKSt21piecewise_construct_tSt5tupleIJRS9_EESJ_IJEEEEEvPT_DpOT0_>
    9197:	90                   	nop
    9198:	48 83 c4 30          	add    $0x30,%rsp
    919c:	5b                   	pop    %rbx
    919d:	41 5c                	pop    %r12
    919f:	5d                   	pop    %rbp
    91a0:	c3                   	ret    

00000000000091a1 <_ZSt7forwardIRPSt18_Rb_tree_node_baseEOT_RNSt16remove_referenceIS3_E4typeE>:
    91a1:	f3 0f 1e fa          	endbr64 
    91a5:	55                   	push   %rbp
    91a6:	48 89 e5             	mov    %rsp,%rbp
    91a9:	48 89 7d f8          	mov    %rdi,-0x8(%rbp)
    91ad:	48 8b 45 f8          	mov    -0x8(%rbp),%rax
    91b1:	5d                   	pop    %rbp
    91b2:	c3                   	ret    
    91b3:	90                   	nop

00000000000091b4 <_ZNSt4pairIPSt18_Rb_tree_node_baseS1_EC1IRPSt13_Rb_tree_nodeIS_IKNSt7__cxx1112basic_stringIcSt11char_traitsIcESaIcEEEP12netlist_elemEERS1_Lb1EEEOT_OT0_>:
    91b4:	f3 0f 1e fa          	endbr64 
    91b8:	55                   	push   %rbp
    91b9:	48 89 e5             	mov    %rsp,%rbp
    91bc:	48 83 ec 20          	sub    $0x20,%rsp
    91c0:	48 89 7d f8          	mov    %rdi,-0x8(%rbp)
    91c4:	48 89 75 f0          	mov    %rsi,-0x10(%rbp)
    91c8:	48 89 55 e8          	mov    %rdx,-0x18(%rbp)
    91cc:	48 8b 45 f0          	mov    -0x10(%rbp),%rax
    91d0:	48 89 c7             	mov    %rax,%rdi
    91d3:	e8 c3 07 00 00       	call   999b <_ZSt7forwardIRPSt13_Rb_tree_nodeISt4pairIKNSt7__cxx1112basic_stringIcSt11char_traitsIcESaIcEEEP12netlist_elemEEEOT_RNSt16remove_referenceISF_E4typeE>
    91d8:	48 8b 10             	mov    (%rax),%rdx
    91db:	48 8b 45 f8          	mov    -0x8(%rbp),%rax
    91df:	48 89 10             	mov    %rdx,(%rax)
    91e2:	48 8b 45 e8          	mov    -0x18(%rbp),%rax
    91e6:	48 89 c7             	mov    %rax,%rdi
    91e9:	e8 b3 ff ff ff       	call   91a1 <_ZSt7forwardIRPSt18_Rb_tree_node_baseEOT_RNSt16remove_referenceIS3_E4typeE>
    91ee:	48 8b 10             	mov    (%rax),%rdx
    91f1:	48 8b 45 f8          	mov    -0x8(%rbp),%rax
    91f5:	48 89 50 08          	mov    %rdx,0x8(%rax)
    91f9:	90                   	nop
    91fa:	c9                   	leave  
    91fb:	c3                   	ret    

00000000000091fc <_ZNK9__gnu_cxx16__aligned_membufISt4pairIKNSt7__cxx1112basic_stringIcSt11char_traitsIcESaIcEEEP12netlist_elemEE6_M_ptrEv>:
    91fc:	f3 0f 1e fa          	endbr64 
    9200:	55                   	push   %rbp
    9201:	48 89 e5             	mov    %rsp,%rbp
    9204:	48 83 ec 10          	sub    $0x10,%rsp
    9208:	48 89 7d f8          	mov    %rdi,-0x8(%rbp)
    920c:	48 8b 45 f8          	mov    -0x8(%rbp),%rax
    9210:	48 89 c7             	mov    %rax,%rdi
    9213:	e8 96 07 00 00       	call   99ae <_ZNK9__gnu_cxx16__aligned_membufISt4pairIKNSt7__cxx1112basic_stringIcSt11char_traitsIcESaIcEEEP12netlist_elemEE7_M_addrEv>
    9218:	c9                   	leave  
    9219:	c3                   	ret    

000000000000921a <_ZNSt16allocator_traitsISaI12netlist_elemEE8max_sizeERKS1_>:
    921a:	f3 0f 1e fa          	endbr64 
    921e:	55                   	push   %rbp
    921f:	48 89 e5             	mov    %rsp,%rbp
    9222:	48 83 ec 10          	sub    $0x10,%rsp
    9226:	48 89 7d f8          	mov    %rdi,-0x8(%rbp)
    922a:	48 8b 45 f8          	mov    -0x8(%rbp),%rax
    922e:	48 89 c7             	mov    %rax,%rdi
    9231:	e8 8a 07 00 00       	call   99c0 <_ZNK9__gnu_cxx13new_allocatorI12netlist_elemE8max_sizeEv>
    9236:	c9                   	leave  
    9237:	c3                   	ret    

0000000000009238 <_ZNSt27__uninitialized_default_n_1ILb0EE18__uninit_default_nIP12netlist_elemmEET_S4_T0_>:
    9238:	f3 0f 1e fa          	endbr64 
    923c:	55                   	push   %rbp
    923d:	48 89 e5             	mov    %rsp,%rbp
    9240:	48 83 ec 20          	sub    $0x20,%rsp
    9244:	48 89 7d e8          	mov    %rdi,-0x18(%rbp)
    9248:	48 89 75 e0          	mov    %rsi,-0x20(%rbp)
    924c:	48 8b 45 e8          	mov    -0x18(%rbp),%rax
    9250:	48 89 45 f8          	mov    %rax,-0x8(%rbp)
    9254:	eb 1e                	jmp    9274 <_ZNSt27__uninitialized_default_n_1ILb0EE18__uninit_default_nIP12netlist_elemmEET_S4_T0_+0x3c>
    9256:	48 8b 45 f8          	mov    -0x8(%rbp),%rax
    925a:	48 89 c7             	mov    %rax,%rdi
    925d:	e8 74 b3 ff ff       	call   45d6 <_ZSt11__addressofI12netlist_elemEPT_RS1_>
    9262:	48 89 c7             	mov    %rax,%rdi
    9265:	e8 74 07 00 00       	call   99de <_ZSt10_ConstructI12netlist_elemJEEvPT_DpOT0_>
    926a:	48 83 6d e0 01       	subq   $0x1,-0x20(%rbp)
    926f:	48 83 45 f8 58       	addq   $0x58,-0x8(%rbp)
    9274:	48 83 7d e0 00       	cmpq   $0x0,-0x20(%rbp)
    9279:	75 db                	jne    9256 <_ZNSt27__uninitialized_default_n_1ILb0EE18__uninit_default_nIP12netlist_elemmEET_S4_T0_+0x1e>
    927b:	48 8b 45 f8          	mov    -0x8(%rbp),%rax
    927f:	c9                   	leave  
    9280:	c3                   	ret    
    9281:	90                   	nop

0000000000009282 <_ZNK9__gnu_cxx13new_allocatorI12netlist_elemE11_M_max_sizeEv>:
    9282:	f3 0f 1e fa          	endbr64 
    9286:	55                   	push   %rbp
    9287:	48 89 e5             	mov    %rsp,%rbp
    928a:	48 89 7d f8          	mov    %rdi,-0x8(%rbp)
    928e:	48 b8 5d 74 d1 45 17 	movabs $0x1745d1745d1745d,%rax
    9295:	5d 74 01 
    9298:	5d                   	pop    %rbp
    9299:	c3                   	ret    

000000000000929a <_ZN9__gnu_cxx13new_allocatorI12netlist_elemE8allocateEmPKv>:
    929a:	f3 0f 1e fa          	endbr64 
    929e:	55                   	push   %rbp
    929f:	48 89 e5             	mov    %rsp,%rbp
    92a2:	48 83 ec 20          	sub    $0x20,%rsp
    92a6:	48 89 7d f8          	mov    %rdi,-0x8(%rbp)
    92aa:	48 89 75 f0          	mov    %rsi,-0x10(%rbp)
    92ae:	48 89 55 e8          	mov    %rdx,-0x18(%rbp)
    92b2:	48 8b 45 f8          	mov    -0x8(%rbp),%rax
    92b6:	48 89 c7             	mov    %rax,%rdi
    92b9:	e8 c4 ff ff ff       	call   9282 <_ZNK9__gnu_cxx13new_allocatorI12netlist_elemE11_M_max_sizeEv>
    92be:	48 39 45 f0          	cmp    %rax,-0x10(%rbp)
    92c2:	0f 97 c0             	seta   %al
    92c5:	0f b6 c0             	movzbl %al,%eax
    92c8:	48 85 c0             	test   %rax,%rax
    92cb:	0f 95 c0             	setne  %al
    92ce:	84 c0                	test   %al,%al
    92d0:	74 1a                	je     92ec <_ZN9__gnu_cxx13new_allocatorI12netlist_elemE8allocateEmPKv+0x52>
    92d2:	48 b8 ba e8 a2 8b 2e 	movabs $0x2e8ba2e8ba2e8ba,%rax
    92d9:	ba e8 02 
    92dc:	48 39 45 f0          	cmp    %rax,-0x10(%rbp)
    92e0:	76 05                	jbe    92e7 <_ZN9__gnu_cxx13new_allocatorI12netlist_elemE8allocateEmPKv+0x4d>
    92e2:	e8 09 92 ff ff       	call   24f0 <_ZSt28__throw_bad_array_new_lengthv@plt>
    92e7:	e8 54 91 ff ff       	call   2440 <_ZSt17__throw_bad_allocv@plt>
    92ec:	48 8b 55 f0          	mov    -0x10(%rbp),%rdx
    92f0:	48 89 d0             	mov    %rdx,%rax
    92f3:	48 c1 e0 02          	shl    $0x2,%rax
    92f7:	48 01 d0             	add    %rdx,%rax
    92fa:	48 01 c0             	add    %rax,%rax
    92fd:	48 01 d0             	add    %rdx,%rax
    9300:	48 c1 e0 03          	shl    $0x3,%rax
    9304:	48 89 c7             	mov    %rax,%rdi
    9307:	e8 54 92 ff ff       	call   2560 <_Znwm@plt>
    930c:	90                   	nop
    930d:	c9                   	leave  
    930e:	c3                   	ret    

000000000000930f <_ZSt18uninitialized_copyIPK12netlist_elemPS0_ET0_T_S5_S4_>:
    930f:	f3 0f 1e fa          	endbr64 
    9313:	55                   	push   %rbp
    9314:	48 89 e5             	mov    %rsp,%rbp
    9317:	48 83 ec 30          	sub    $0x30,%rsp
    931b:	48 89 7d e8          	mov    %rdi,-0x18(%rbp)
    931f:	48 89 75 e0          	mov    %rsi,-0x20(%rbp)
    9323:	48 89 55 d8          	mov    %rdx,-0x28(%rbp)
    9327:	c6 45 ff 01          	movb   $0x1,-0x1(%rbp)
    932b:	48 8b 55 d8          	mov    -0x28(%rbp),%rdx
    932f:	48 8b 4d e0          	mov    -0x20(%rbp),%rcx
    9333:	48 8b 45 e8          	mov    -0x18(%rbp),%rax
    9337:	48 89 ce             	mov    %rcx,%rsi
    933a:	48 89 c7             	mov    %rax,%rdi
    933d:	e8 c8 06 00 00       	call   9a0a <_ZNSt20__uninitialized_copyILb0EE13__uninit_copyIPK12netlist_elemPS2_EET0_T_S7_S6_>
    9342:	c9                   	leave  
    9343:	c3                   	ret    

0000000000009344 <_ZNK9__gnu_cxx13new_allocatorI10location_tE8max_sizeEv>:
    9344:	f3 0f 1e fa          	endbr64 
    9348:	55                   	push   %rbp
    9349:	48 89 e5             	mov    %rsp,%rbp
    934c:	48 83 ec 10          	sub    $0x10,%rsp
    9350:	48 89 7d f8          	mov    %rdi,-0x8(%rbp)
    9354:	48 8b 45 f8          	mov    -0x8(%rbp),%rax
    9358:	48 89 c7             	mov    %rax,%rdi
    935b:	e8 04 07 00 00       	call   9a64 <_ZNK9__gnu_cxx13new_allocatorI10location_tE11_M_max_sizeEv>
    9360:	c9                   	leave  
    9361:	c3                   	ret    

0000000000009362 <_ZNSt16allocator_traitsISaI10location_tEE8allocateERS1_m>:
    9362:	f3 0f 1e fa          	endbr64 
    9366:	55                   	push   %rbp
    9367:	48 89 e5             	mov    %rsp,%rbp
    936a:	48 83 ec 10          	sub    $0x10,%rsp
    936e:	48 89 7d f8          	mov    %rdi,-0x8(%rbp)
    9372:	48 89 75 f0          	mov    %rsi,-0x10(%rbp)
    9376:	48 8b 4d f0          	mov    -0x10(%rbp),%rcx
    937a:	48 8b 45 f8          	mov    -0x8(%rbp),%rax
    937e:	ba 00 00 00 00       	mov    $0x0,%edx
    9383:	48 89 ce             	mov    %rcx,%rsi
    9386:	48 89 c7             	mov    %rax,%rdi
    9389:	e8 ee 06 00 00       	call   9a7c <_ZN9__gnu_cxx13new_allocatorI10location_tE8allocateEmPKv>
    938e:	c9                   	leave  
    938f:	c3                   	ret    

0000000000009390 <_ZSt11__addressofI10location_tEPT_RS1_>:
    9390:	f3 0f 1e fa          	endbr64 
    9394:	55                   	push   %rbp
    9395:	48 89 e5             	mov    %rsp,%rbp
    9398:	48 89 7d f8          	mov    %rdi,-0x8(%rbp)
    939c:	48 8b 45 f8          	mov    -0x8(%rbp),%rax
    93a0:	5d                   	pop    %rbp
    93a1:	c3                   	ret    

00000000000093a2 <_ZNSt27__uninitialized_default_n_1ILb1EE18__uninit_default_nIP10location_tmEET_S4_T0_>:
    93a2:	f3 0f 1e fa          	endbr64 
    93a6:	55                   	push   %rbp
    93a7:	48 89 e5             	mov    %rsp,%rbp
    93aa:	48 83 ec 20          	sub    $0x20,%rsp
    93ae:	48 89 7d e8          	mov    %rdi,-0x18(%rbp)
    93b2:	48 89 75 e0          	mov    %rsi,-0x20(%rbp)
    93b6:	48 83 7d e0 00       	cmpq   $0x0,-0x20(%rbp)
    93bb:	74 40                	je     93fd <_ZNSt27__uninitialized_default_n_1ILb1EE18__uninit_default_nIP10location_tmEET_S4_T0_+0x5b>
    93bd:	48 8b 45 e8          	mov    -0x18(%rbp),%rax
    93c1:	48 89 c7             	mov    %rax,%rdi
    93c4:	e8 c7 ff ff ff       	call   9390 <_ZSt11__addressofI10location_tEPT_RS1_>
    93c9:	48 89 45 f8          	mov    %rax,-0x8(%rbp)
    93cd:	48 8b 45 f8          	mov    -0x8(%rbp),%rax
    93d1:	48 89 c7             	mov    %rax,%rdi
    93d4:	e8 08 07 00 00       	call   9ae1 <_ZSt10_ConstructI10location_tJEEvPT_DpOT0_>
    93d9:	48 83 45 e8 08       	addq   $0x8,-0x18(%rbp)
    93de:	48 8b 45 e0          	mov    -0x20(%rbp),%rax
    93e2:	48 8d 48 ff          	lea    -0x1(%rax),%rcx
    93e6:	48 8b 55 f8          	mov    -0x8(%rbp),%rdx
    93ea:	48 8b 45 e8          	mov    -0x18(%rbp),%rax
    93ee:	48 89 ce             	mov    %rcx,%rsi
    93f1:	48 89 c7             	mov    %rax,%rdi
    93f4:	e8 19 07 00 00       	call   9b12 <_ZSt6fill_nIP10location_tmS0_ET_S2_T0_RKT1_>
    93f9:	48 89 45 e8          	mov    %rax,-0x18(%rbp)
    93fd:	48 8b 45 e8          	mov    -0x18(%rbp),%rax
    9401:	c9                   	leave  
    9402:	c3                   	ret    
    9403:	90                   	nop

0000000000009404 <_ZN9__gnu_cxx13new_allocatorISt6vectorI10location_tSaIS2_EEE9constructIS4_JRKS4_EEEvPT_DpOT0_>:
    9404:	f3 0f 1e fa          	endbr64 
    9408:	55                   	push   %rbp
    9409:	48 89 e5             	mov    %rsp,%rbp
    940c:	53                   	push   %rbx
    940d:	48 83 ec 28          	sub    $0x28,%rsp
    9411:	48 89 7d e8          	mov    %rdi,-0x18(%rbp)
    9415:	48 89 75 e0          	mov    %rsi,-0x20(%rbp)
    9419:	48 89 55 d8          	mov    %rdx,-0x28(%rbp)
    941d:	48 8b 45 d8          	mov    -0x28(%rbp),%rax
    9421:	48 89 c7             	mov    %rax,%rdi
    9424:	e8 9d f9 ff ff       	call   8dc6 <_ZSt7forwardIRKSt6vectorI10location_tSaIS1_EEEOT_RNSt16remove_referenceIS6_E4typeE>
    9429:	48 89 c3             	mov    %rax,%rbx
    942c:	48 8b 45 e0          	mov    -0x20(%rbp),%rax
    9430:	48 89 c6             	mov    %rax,%rsi
    9433:	bf 18 00 00 00       	mov    $0x18,%edi
    9438:	e8 37 a1 ff ff       	call   3574 <_ZnwmPv>
    943d:	48 89 de             	mov    %rbx,%rsi
    9440:	48 89 c7             	mov    %rax,%rdi
    9443:	e8 12 07 00 00       	call   9b5a <_ZNSt6vectorI10location_tSaIS0_EEC1ERKS2_>
    9448:	90                   	nop
    9449:	48 8b 5d f8          	mov    -0x8(%rbp),%rbx
    944d:	c9                   	leave  
    944e:	c3                   	ret    
    944f:	90                   	nop

0000000000009450 <_ZN9__gnu_cxx13new_allocatorISt6vectorI10location_tSaIS2_EEE7destroyIS4_EEvPT_>:
    9450:	f3 0f 1e fa          	endbr64 
    9454:	55                   	push   %rbp
    9455:	48 89 e5             	mov    %rsp,%rbp
    9458:	48 83 ec 10          	sub    $0x10,%rsp
    945c:	48 89 7d f8          	mov    %rdi,-0x8(%rbp)
    9460:	48 89 75 f0          	mov    %rsi,-0x10(%rbp)
    9464:	48 8b 45 f0          	mov    -0x10(%rbp),%rax
    9468:	48 89 c7             	mov    %rax,%rdi
    946b:	e8 10 b4 ff ff       	call   4880 <_ZNSt6vectorI10location_tSaIS0_EED1Ev>
    9470:	90                   	nop
    9471:	c9                   	leave  
    9472:	c3                   	ret    

0000000000009473 <_ZSt4moveIRPSt6vectorI10location_tSaIS1_EEEONSt16remove_referenceIT_E4typeEOS7_>:
    9473:	f3 0f 1e fa          	endbr64 
    9477:	55                   	push   %rbp
    9478:	48 89 e5             	mov    %rsp,%rbp
    947b:	48 89 7d f8          	mov    %rdi,-0x8(%rbp)
    947f:	48 8b 45 f8          	mov    -0x8(%rbp),%rax
    9483:	5d                   	pop    %rbp
    9484:	c3                   	ret    
    9485:	90                   	nop

0000000000009486 <_ZNSt13move_iteratorIPSt6vectorI10location_tSaIS1_EEEC1ES4_>:
    9486:	f3 0f 1e fa          	endbr64 
    948a:	55                   	push   %rbp
    948b:	48 89 e5             	mov    %rsp,%rbp
    948e:	48 83 ec 10          	sub    $0x10,%rsp
    9492:	48 89 7d f8          	mov    %rdi,-0x8(%rbp)
    9496:	48 89 75 f0          	mov    %rsi,-0x10(%rbp)
    949a:	48 8d 45 f0          	lea    -0x10(%rbp),%rax
    949e:	48 89 c7             	mov    %rax,%rdi
    94a1:	e8 cd ff ff ff       	call   9473 <_ZSt4moveIRPSt6vectorI10location_tSaIS1_EEEONSt16remove_referenceIT_E4typeEOS7_>
    94a6:	48 8b 10             	mov    (%rax),%rdx
    94a9:	48 8b 45 f8          	mov    -0x8(%rbp),%rax
    94ad:	48 89 10             	mov    %rdx,(%rax)
    94b0:	90                   	nop
    94b1:	c9                   	leave  
    94b2:	c3                   	ret    

00000000000094b3 <_ZN9__gnu_cxx14__alloc_traitsISaI10location_tES1_E15_S_always_equalEv>:
    94b3:	f3 0f 1e fa          	endbr64 
    94b7:	55                   	push   %rbp
    94b8:	48 89 e5             	mov    %rsp,%rbp
    94bb:	b8 01 00 00 00       	mov    $0x1,%eax
    94c0:	5d                   	pop    %rbp
    94c1:	c3                   	ret    

00000000000094c2 <_ZSt18uninitialized_copyISt13move_iteratorIPSt6vectorI10location_tSaIS2_EEES5_ET0_T_S8_S7_>:
    94c2:	f3 0f 1e fa          	endbr64 
    94c6:	55                   	push   %rbp
    94c7:	48 89 e5             	mov    %rsp,%rbp
    94ca:	48 83 ec 30          	sub    $0x30,%rsp
    94ce:	48 89 7d e8          	mov    %rdi,-0x18(%rbp)
    94d2:	48 89 75 e0          	mov    %rsi,-0x20(%rbp)
    94d6:	48 89 55 d8          	mov    %rdx,-0x28(%rbp)
    94da:	c6 45 ff 01          	movb   $0x1,-0x1(%rbp)
    94de:	48 8b 55 d8          	mov    -0x28(%rbp),%rdx
    94e2:	48 8b 4d e0          	mov    -0x20(%rbp),%rcx
    94e6:	48 8b 45 e8          	mov    -0x18(%rbp),%rax
    94ea:	48 89 ce             	mov    %rcx,%rsi
    94ed:	48 89 c7             	mov    %rax,%rdi
    94f0:	e8 6b 07 00 00       	call   9c60 <_ZNSt20__uninitialized_copyILb0EE13__uninit_copyISt13move_iteratorIPSt6vectorI10location_tSaIS4_EEES7_EET0_T_SA_S9_>
    94f5:	c9                   	leave  
    94f6:	c3                   	ret    

00000000000094f7 <_ZSt12__niter_baseIPSt6vectorI10location_tSaIS1_EEET_S5_>:
    94f7:	f3 0f 1e fa          	endbr64 
    94fb:	55                   	push   %rbp
    94fc:	48 89 e5             	mov    %rsp,%rbp
    94ff:	48 89 7d f8          	mov    %rdi,-0x8(%rbp)
    9503:	48 8b 45 f8          	mov    -0x8(%rbp),%rax
    9507:	5d                   	pop    %rbp
    9508:	c3                   	ret    

0000000000009509 <_ZSt23__copy_move_backward_a1ILb1EPSt6vectorI10location_tSaIS1_EES4_ET1_T0_S6_S5_>:
    9509:	f3 0f 1e fa          	endbr64 
    950d:	55                   	push   %rbp
    950e:	48 89 e5             	mov    %rsp,%rbp
    9511:	48 83 ec 20          	sub    $0x20,%rsp
    9515:	48 89 7d f8          	mov    %rdi,-0x8(%rbp)
    9519:	48 89 75 f0          	mov    %rsi,-0x10(%rbp)
    951d:	48 89 55 e8          	mov    %rdx,-0x18(%rbp)
    9521:	48 8b 55 e8          	mov    -0x18(%rbp),%rdx
    9525:	48 8b 4d f0          	mov    -0x10(%rbp),%rcx
    9529:	48 8b 45 f8          	mov    -0x8(%rbp),%rax
    952d:	48 89 ce             	mov    %rcx,%rsi
    9530:	48 89 c7             	mov    %rax,%rdi
    9533:	e8 a3 07 00 00       	call   9cdb <_ZSt23__copy_move_backward_a2ILb1EPSt6vectorI10location_tSaIS1_EES4_ET1_T0_S6_S5_>
    9538:	c9                   	leave  
    9539:	c3                   	ret    

000000000000953a <_ZSt12__niter_wrapIPSt6vectorI10location_tSaIS1_EEET_RKS5_S5_>:
    953a:	f3 0f 1e fa          	endbr64 
    953e:	55                   	push   %rbp
    953f:	48 89 e5             	mov    %rsp,%rbp
    9542:	48 89 7d f8          	mov    %rdi,-0x8(%rbp)
    9546:	48 89 75 f0          	mov    %rsi,-0x10(%rbp)
    954a:	48 8b 45 f0          	mov    -0x10(%rbp),%rax
    954e:	5d                   	pop    %rbp
    954f:	c3                   	ret    

0000000000009550 <_ZSt9__fill_a1IPSt6vectorI10location_tSaIS1_EES3_EN9__gnu_cxx11__enable_ifIXntsrSt11__is_scalarIT0_E7__valueEvE6__typeET_SC_RKS8_>:
    9550:	f3 0f 1e fa          	endbr64 
    9554:	55                   	push   %rbp
    9555:	48 89 e5             	mov    %rsp,%rbp
    9558:	48 83 ec 20          	sub    $0x20,%rsp
    955c:	48 89 7d f8          	mov    %rdi,-0x8(%rbp)
    9560:	48 89 75 f0          	mov    %rsi,-0x10(%rbp)
    9564:	48 89 55 e8          	mov    %rdx,-0x18(%rbp)
    9568:	eb 18                	jmp    9582 <_ZSt9__fill_a1IPSt6vectorI10location_tSaIS1_EES3_EN9__gnu_cxx11__enable_ifIXntsrSt11__is_scalarIT0_E7__valueEvE6__typeET_SC_RKS8_+0x32>
    956a:	48 8b 55 e8          	mov    -0x18(%rbp),%rdx
    956e:	48 8b 45 f8          	mov    -0x8(%rbp),%rax
    9572:	48 89 d6             	mov    %rdx,%rsi
    9575:	48 89 c7             	mov    %rax,%rdi
    9578:	e8 9f 07 00 00       	call   9d1c <_ZNSt6vectorI10location_tSaIS0_EEaSERKS2_>
    957d:	48 83 45 f8 18       	addq   $0x18,-0x8(%rbp)
    9582:	48 8b 45 f8          	mov    -0x8(%rbp),%rax
    9586:	48 3b 45 f0          	cmp    -0x10(%rbp),%rax
    958a:	75 de                	jne    956a <_ZSt9__fill_a1IPSt6vectorI10location_tSaIS1_EES3_EN9__gnu_cxx11__enable_ifIXntsrSt11__is_scalarIT0_E7__valueEvE6__typeET_SC_RKS8_+0x1a>
    958c:	90                   	nop
    958d:	90                   	nop
    958e:	c9                   	leave  
    958f:	c3                   	ret    

0000000000009590 <_ZNSt22__uninitialized_fill_nILb0EE15__uninit_fill_nIPSt6vectorI10location_tSaIS3_EEmS5_EET_S7_T0_RKT1_>:
    9590:	f3 0f 1e fa          	endbr64 
    9594:	55                   	push   %rbp
    9595:	48 89 e5             	mov    %rsp,%rbp
    9598:	48 83 ec 30          	sub    $0x30,%rsp
    959c:	48 89 7d e8          	mov    %rdi,-0x18(%rbp)
    95a0:	48 89 75 e0          	mov    %rsi,-0x20(%rbp)
    95a4:	48 89 55 d8          	mov    %rdx,-0x28(%rbp)
    95a8:	48 8b 45 e8          	mov    -0x18(%rbp),%rax
    95ac:	48 89 45 f8          	mov    %rax,-0x8(%rbp)
    95b0:	eb 28                	jmp    95da <_ZNSt22__uninitialized_fill_nILb0EE15__uninit_fill_nIPSt6vectorI10location_tSaIS3_EEmS5_EET_S7_T0_RKT1_+0x4a>
    95b2:	48 8b 45 f8          	mov    -0x8(%rbp),%rax
    95b6:	48 89 c7             	mov    %rax,%rdi
    95b9:	e8 c5 b0 ff ff       	call   4683 <_ZSt11__addressofISt6vectorI10location_tSaIS1_EEEPT_RS4_>
    95be:	48 89 c2             	mov    %rax,%rdx
    95c1:	48 8b 45 d8          	mov    -0x28(%rbp),%rax
    95c5:	48 89 c6             	mov    %rax,%rsi
    95c8:	48 89 d7             	mov    %rdx,%rdi
    95cb:	e8 66 0a 00 00       	call   a036 <_ZSt10_ConstructISt6vectorI10location_tSaIS1_EEJRKS3_EEvPT_DpOT0_>
    95d0:	48 83 6d e0 01       	subq   $0x1,-0x20(%rbp)
    95d5:	48 83 45 f8 18       	addq   $0x18,-0x8(%rbp)
    95da:	48 83 7d e0 00       	cmpq   $0x0,-0x20(%rbp)
    95df:	75 d1                	jne    95b2 <_ZNSt22__uninitialized_fill_nILb0EE15__uninit_fill_nIPSt6vectorI10location_tSaIS3_EEmS5_EET_S7_T0_RKT1_+0x22>
    95e1:	48 8b 45 f8          	mov    -0x8(%rbp),%rax
    95e5:	c9                   	leave  
    95e6:	c3                   	ret    

00000000000095e7 <_ZNSt6vectorIS_I10location_tSaIS0_EESaIS2_EE11_S_max_sizeERKS3_>:
    95e7:	f3 0f 1e fa          	endbr64 
    95eb:	55                   	push   %rbp
    95ec:	48 89 e5             	mov    %rsp,%rbp
    95ef:	48 83 ec 30          	sub    $0x30,%rsp
    95f3:	48 89 7d d8          	mov    %rdi,-0x28(%rbp)
    95f7:	64 48 8b 04 25 28 00 	mov    %fs:0x28,%rax
    95fe:	00 00 
    9600:	48 89 45 f8          	mov    %rax,-0x8(%rbp)
    9604:	31 c0                	xor    %eax,%eax
    9606:	48 b8 55 55 55 55 55 	movabs $0x555555555555555,%rax
    960d:	55 55 05 
    9610:	48 89 45 e8          	mov    %rax,-0x18(%rbp)
    9614:	48 8b 45 d8          	mov    -0x28(%rbp),%rax
    9618:	48 89 c7             	mov    %rax,%rdi
    961b:	e8 5d 0a 00 00       	call   a07d <_ZNSt16allocator_traitsISaISt6vectorI10location_tSaIS1_EEEE8max_sizeERKS4_>
    9620:	48 89 45 f0          	mov    %rax,-0x10(%rbp)
    9624:	48 8d 55 f0          	lea    -0x10(%rbp),%rdx
    9628:	48 8d 45 e8          	lea    -0x18(%rbp),%rax
    962c:	48 89 d6             	mov    %rdx,%rsi
    962f:	48 89 c7             	mov    %rax,%rdi
    9632:	e8 3b ae ff ff       	call   4472 <_ZSt3minImERKT_S2_S2_>
    9637:	48 8b 00             	mov    (%rax),%rax
    963a:	48 8b 55 f8          	mov    -0x8(%rbp),%rdx
    963e:	64 48 2b 14 25 28 00 	sub    %fs:0x28,%rdx
    9645:	00 00 
    9647:	74 05                	je     964e <_ZNSt6vectorIS_I10location_tSaIS0_EESaIS2_EE11_S_max_sizeERKS3_+0x67>
    9649:	e8 b2 8f ff ff       	call   2600 <__stack_chk_fail@plt>
    964e:	c9                   	leave  
    964f:	c3                   	ret    

0000000000009650 <_ZNKSt12_Vector_baseISt6vectorI10location_tSaIS1_EESaIS3_EE19_M_get_Tp_allocatorEv>:
    9650:	f3 0f 1e fa          	endbr64 
    9654:	55                   	push   %rbp
    9655:	48 89 e5             	mov    %rsp,%rbp
    9658:	48 89 7d f8          	mov    %rdi,-0x8(%rbp)
    965c:	48 8b 45 f8          	mov    -0x8(%rbp),%rax
    9660:	5d                   	pop    %rbp
    9661:	c3                   	ret    

0000000000009662 <_ZNK9__gnu_cxx13new_allocatorISt6vectorI10location_tSaIS2_EEE11_M_max_sizeEv>:
    9662:	f3 0f 1e fa          	endbr64 
    9666:	55                   	push   %rbp
    9667:	48 89 e5             	mov    %rsp,%rbp
    966a:	48 89 7d f8          	mov    %rdi,-0x8(%rbp)
    966e:	48 b8 55 55 55 55 55 	movabs $0x555555555555555,%rax
    9675:	55 55 05 
    9678:	5d                   	pop    %rbp
    9679:	c3                   	ret    

000000000000967a <_ZN9__gnu_cxx13new_allocatorISt6vectorI10location_tSaIS2_EEE8allocateEmPKv>:
    967a:	f3 0f 1e fa          	endbr64 
    967e:	55                   	push   %rbp
    967f:	48 89 e5             	mov    %rsp,%rbp
    9682:	48 83 ec 20          	sub    $0x20,%rsp
    9686:	48 89 7d f8          	mov    %rdi,-0x8(%rbp)
    968a:	48 89 75 f0          	mov    %rsi,-0x10(%rbp)
    968e:	48 89 55 e8          	mov    %rdx,-0x18(%rbp)
    9692:	48 8b 45 f8          	mov    -0x8(%rbp),%rax
    9696:	48 89 c7             	mov    %rax,%rdi
    9699:	e8 c4 ff ff ff       	call   9662 <_ZNK9__gnu_cxx13new_allocatorISt6vectorI10location_tSaIS2_EEE11_M_max_sizeEv>
    969e:	48 39 45 f0          	cmp    %rax,-0x10(%rbp)
    96a2:	0f 97 c0             	seta   %al
    96a5:	0f b6 c0             	movzbl %al,%eax
    96a8:	48 85 c0             	test   %rax,%rax
    96ab:	0f 95 c0             	setne  %al
    96ae:	84 c0                	test   %al,%al
    96b0:	74 1a                	je     96cc <_ZN9__gnu_cxx13new_allocatorISt6vectorI10location_tSaIS2_EEE8allocateEmPKv+0x52>
    96b2:	48 b8 aa aa aa aa aa 	movabs $0xaaaaaaaaaaaaaaa,%rax
    96b9:	aa aa 0a 
    96bc:	48 39 45 f0          	cmp    %rax,-0x10(%rbp)
    96c0:	76 05                	jbe    96c7 <_ZN9__gnu_cxx13new_allocatorISt6vectorI10location_tSaIS2_EEE8allocateEmPKv+0x4d>
    96c2:	e8 29 8e ff ff       	call   24f0 <_ZSt28__throw_bad_array_new_lengthv@plt>
    96c7:	e8 74 8d ff ff       	call   2440 <_ZSt17__throw_bad_allocv@plt>
    96cc:	48 8b 55 f0          	mov    -0x10(%rbp),%rdx
    96d0:	48 89 d0             	mov    %rdx,%rax
    96d3:	48 01 c0             	add    %rax,%rax
    96d6:	48 01 d0             	add    %rdx,%rax
    96d9:	48 c1 e0 03          	shl    $0x3,%rax
    96dd:	48 89 c7             	mov    %rax,%rdi
    96e0:	e8 7b 8e ff ff       	call   2560 <_Znwm@plt>
    96e5:	90                   	nop
    96e6:	c9                   	leave  
    96e7:	c3                   	ret    

00000000000096e8 <_ZNSt6vectorIP12netlist_elemSaIS1_EE11_S_max_sizeERKS2_>:
    96e8:	f3 0f 1e fa          	endbr64 
    96ec:	55                   	push   %rbp
    96ed:	48 89 e5             	mov    %rsp,%rbp
    96f0:	48 83 ec 30          	sub    $0x30,%rsp
    96f4:	48 89 7d d8          	mov    %rdi,-0x28(%rbp)
    96f8:	64 48 8b 04 25 28 00 	mov    %fs:0x28,%rax
    96ff:	00 00 
    9701:	48 89 45 f8          	mov    %rax,-0x8(%rbp)
    9705:	31 c0                	xor    %eax,%eax
    9707:	48 b8 ff ff ff ff ff 	movabs $0xfffffffffffffff,%rax
    970e:	ff ff 0f 
    9711:	48 89 45 e8          	mov    %rax,-0x18(%rbp)
    9715:	48 8b 45 d8          	mov    -0x28(%rbp),%rax
    9719:	48 89 c7             	mov    %rax,%rdi
    971c:	e8 7a 09 00 00       	call   a09b <_ZNSt16allocator_traitsISaIP12netlist_elemEE8max_sizeERKS2_>
    9721:	48 89 45 f0          	mov    %rax,-0x10(%rbp)
    9725:	48 8d 55 f0          	lea    -0x10(%rbp),%rdx
    9729:	48 8d 45 e8          	lea    -0x18(%rbp),%rax
    972d:	48 89 d6             	mov    %rdx,%rsi
    9730:	48 89 c7             	mov    %rax,%rdi
    9733:	e8 3a ad ff ff       	call   4472 <_ZSt3minImERKT_S2_S2_>
    9738:	48 8b 00             	mov    (%rax),%rax
    973b:	48 8b 55 f8          	mov    -0x8(%rbp),%rdx
    973f:	64 48 2b 14 25 28 00 	sub    %fs:0x28,%rdx
    9746:	00 00 
    9748:	74 05                	je     974f <_ZNSt6vectorIP12netlist_elemSaIS1_EE11_S_max_sizeERKS2_+0x67>
    974a:	e8 b1 8e ff ff       	call   2600 <__stack_chk_fail@plt>
    974f:	c9                   	leave  
    9750:	c3                   	ret    
    9751:	90                   	nop

0000000000009752 <_ZNKSt12_Vector_baseIP12netlist_elemSaIS1_EE19_M_get_Tp_allocatorEv>:
    9752:	f3 0f 1e fa          	endbr64 
    9756:	55                   	push   %rbp
    9757:	48 89 e5             	mov    %rsp,%rbp
    975a:	48 89 7d f8          	mov    %rdi,-0x8(%rbp)
    975e:	48 8b 45 f8          	mov    -0x8(%rbp),%rax
    9762:	5d                   	pop    %rbp
    9763:	c3                   	ret    

0000000000009764 <_ZNK9__gnu_cxx13new_allocatorIP12netlist_elemE11_M_max_sizeEv>:
    9764:	f3 0f 1e fa          	endbr64 
    9768:	55                   	push   %rbp
    9769:	48 89 e5             	mov    %rsp,%rbp
    976c:	48 89 7d f8          	mov    %rdi,-0x8(%rbp)
    9770:	48 b8 ff ff ff ff ff 	movabs $0xfffffffffffffff,%rax
    9777:	ff ff 0f 
    977a:	5d                   	pop    %rbp
    977b:	c3                   	ret    

000000000000977c <_ZN9__gnu_cxx13new_allocatorIP12netlist_elemE8allocateEmPKv>:
    977c:	f3 0f 1e fa          	endbr64 
    9780:	55                   	push   %rbp
    9781:	48 89 e5             	mov    %rsp,%rbp
    9784:	48 83 ec 20          	sub    $0x20,%rsp
    9788:	48 89 7d f8          	mov    %rdi,-0x8(%rbp)
    978c:	48 89 75 f0          	mov    %rsi,-0x10(%rbp)
    9790:	48 89 55 e8          	mov    %rdx,-0x18(%rbp)
    9794:	48 8b 45 f8          	mov    -0x8(%rbp),%rax
    9798:	48 89 c7             	mov    %rax,%rdi
    979b:	e8 c4 ff ff ff       	call   9764 <_ZNK9__gnu_cxx13new_allocatorIP12netlist_elemE11_M_max_sizeEv>
    97a0:	48 39 45 f0          	cmp    %rax,-0x10(%rbp)
    97a4:	0f 97 c0             	seta   %al
    97a7:	0f b6 c0             	movzbl %al,%eax
    97aa:	48 85 c0             	test   %rax,%rax
    97ad:	0f 95 c0             	setne  %al
    97b0:	84 c0                	test   %al,%al
    97b2:	74 1a                	je     97ce <_ZN9__gnu_cxx13new_allocatorIP12netlist_elemE8allocateEmPKv+0x52>
    97b4:	48 b8 ff ff ff ff ff 	movabs $0x1fffffffffffffff,%rax
    97bb:	ff ff 1f 
    97be:	48 39 45 f0          	cmp    %rax,-0x10(%rbp)
    97c2:	76 05                	jbe    97c9 <_ZN9__gnu_cxx13new_allocatorIP12netlist_elemE8allocateEmPKv+0x4d>
    97c4:	e8 27 8d ff ff       	call   24f0 <_ZSt28__throw_bad_array_new_lengthv@plt>
    97c9:	e8 72 8c ff ff       	call   2440 <_ZSt17__throw_bad_allocv@plt>
    97ce:	48 8b 45 f0          	mov    -0x10(%rbp),%rax
    97d2:	48 c1 e0 03          	shl    $0x3,%rax
    97d6:	48 89 c7             	mov    %rax,%rdi
    97d9:	e8 82 8d ff ff       	call   2560 <_Znwm@plt>
    97de:	90                   	nop
    97df:	c9                   	leave  
    97e0:	c3                   	ret    

00000000000097e1 <_ZSt12__relocate_aIPP12netlist_elemS2_SaIS1_EET0_T_S5_S4_RT1_>:
    97e1:	f3 0f 1e fa          	endbr64 
    97e5:	55                   	push   %rbp
    97e6:	48 89 e5             	mov    %rsp,%rbp
    97e9:	41 54                	push   %r12
    97eb:	53                   	push   %rbx
    97ec:	48 83 ec 20          	sub    $0x20,%rsp
    97f0:	48 89 7d e8          	mov    %rdi,-0x18(%rbp)
    97f4:	48 89 75 e0          	mov    %rsi,-0x20(%rbp)
    97f8:	48 89 55 d8          	mov    %rdx,-0x28(%rbp)
    97fc:	48 89 4d d0          	mov    %rcx,-0x30(%rbp)
    9800:	48 8b 45 d8          	mov    -0x28(%rbp),%rax
    9804:	48 89 c7             	mov    %rax,%rdi
    9807:	e8 ad 08 00 00       	call   a0b9 <_ZSt12__niter_baseIPP12netlist_elemET_S3_>
    980c:	49 89 c4             	mov    %rax,%r12
    980f:	48 8b 45 e0          	mov    -0x20(%rbp),%rax
    9813:	48 89 c7             	mov    %rax,%rdi
    9816:	e8 9e 08 00 00       	call   a0b9 <_ZSt12__niter_baseIPP12netlist_elemET_S3_>
    981b:	48 89 c3             	mov    %rax,%rbx
    981e:	48 8b 45 e8          	mov    -0x18(%rbp),%rax
    9822:	48 89 c7             	mov    %rax,%rdi
    9825:	e8 8f 08 00 00       	call   a0b9 <_ZSt12__niter_baseIPP12netlist_elemET_S3_>
    982a:	48 89 c7             	mov    %rax,%rdi
    982d:	48 8b 45 d0          	mov    -0x30(%rbp),%rax
    9831:	48 89 c1             	mov    %rax,%rcx
    9834:	4c 89 e2             	mov    %r12,%rdx
    9837:	48 89 de             	mov    %rbx,%rsi
    983a:	e8 8c 08 00 00       	call   a0cb <_ZSt14__relocate_a_1IP12netlist_elemS1_ENSt9enable_ifIXsrSt24__is_bitwise_relocatableIT_vE5valueEPS4_E4typeES6_S6_S6_RSaIT0_E>
    983f:	48 83 c4 20          	add    $0x20,%rsp
    9843:	5b                   	pop    %rbx
    9844:	41 5c                	pop    %r12
    9846:	5d                   	pop    %rbp
    9847:	c3                   	ret    

0000000000009848 <_ZNK9__gnu_cxx13new_allocatorISt13_Rb_tree_nodeISt4pairIKNSt7__cxx1112basic_stringIcSt11char_traitsIcESaIcEEEP12netlist_elemEEE11_M_max_sizeEv>:
    9848:	f3 0f 1e fa          	endbr64 
    984c:	55                   	push   %rbp
    984d:	48 89 e5             	mov    %rsp,%rbp
    9850:	48 89 7d f8          	mov    %rdi,-0x8(%rbp)
    9854:	48 b8 c7 71 1c c7 71 	movabs $0x1c71c71c71c71c7,%rax
    985b:	1c c7 01 
    985e:	5d                   	pop    %rbp
    985f:	c3                   	ret    

0000000000009860 <_ZN9__gnu_cxx13new_allocatorISt13_Rb_tree_nodeISt4pairIKNSt7__cxx1112basic_stringIcSt11char_traitsIcESaIcEEEP12netlist_elemEEE8allocateEmPKv>:
    9860:	f3 0f 1e fa          	endbr64 
    9864:	55                   	push   %rbp
    9865:	48 89 e5             	mov    %rsp,%rbp
    9868:	48 83 ec 20          	sub    $0x20,%rsp
    986c:	48 89 7d f8          	mov    %rdi,-0x8(%rbp)
    9870:	48 89 75 f0          	mov    %rsi,-0x10(%rbp)
    9874:	48 89 55 e8          	mov    %rdx,-0x18(%rbp)
    9878:	48 8b 45 f8          	mov    -0x8(%rbp),%rax
    987c:	48 89 c7             	mov    %rax,%rdi
    987f:	e8 c4 ff ff ff       	call   9848 <_ZNK9__gnu_cxx13new_allocatorISt13_Rb_tree_nodeISt4pairIKNSt7__cxx1112basic_stringIcSt11char_traitsIcESaIcEEEP12netlist_elemEEE11_M_max_sizeEv>
    9884:	48 39 45 f0          	cmp    %rax,-0x10(%rbp)
    9888:	0f 97 c0             	seta   %al
    988b:	0f b6 c0             	movzbl %al,%eax
    988e:	48 85 c0             	test   %rax,%rax
    9891:	0f 95 c0             	setne  %al
    9894:	84 c0                	test   %al,%al
    9896:	74 1a                	je     98b2 <_ZN9__gnu_cxx13new_allocatorISt13_Rb_tree_nodeISt4pairIKNSt7__cxx1112basic_stringIcSt11char_traitsIcESaIcEEEP12netlist_elemEEE8allocateEmPKv+0x52>
    9898:	48 b8 8e e3 38 8e e3 	movabs $0x38e38e38e38e38e,%rax
    989f:	38 8e 03 
    98a2:	48 39 45 f0          	cmp    %rax,-0x10(%rbp)
    98a6:	76 05                	jbe    98ad <_ZN9__gnu_cxx13new_allocatorISt13_Rb_tree_nodeISt4pairIKNSt7__cxx1112basic_stringIcSt11char_traitsIcESaIcEEEP12netlist_elemEEE8allocateEmPKv+0x4d>
    98a8:	e8 43 8c ff ff       	call   24f0 <_ZSt28__throw_bad_array_new_lengthv@plt>
    98ad:	e8 8e 8b ff ff       	call   2440 <_ZSt17__throw_bad_allocv@plt>
    98b2:	48 8b 55 f0          	mov    -0x10(%rbp),%rdx
    98b6:	48 89 d0             	mov    %rdx,%rax
    98b9:	48 c1 e0 03          	shl    $0x3,%rax
    98bd:	48 01 d0             	add    %rdx,%rax
    98c0:	48 c1 e0 03          	shl    $0x3,%rax
    98c4:	48 89 c7             	mov    %rax,%rdi
    98c7:	e8 94 8c ff ff       	call   2560 <_Znwm@plt>
    98cc:	90                   	nop
    98cd:	c9                   	leave  
    98ce:	c3                   	ret    
    98cf:	90                   	nop

00000000000098d0 <_ZNSt5tupleIJRKNSt7__cxx1112basic_stringIcSt11char_traitsIcESaIcEEEEEC1EOS8_>:
    98d0:	f3 0f 1e fa          	endbr64 
    98d4:	55                   	push   %rbp
    98d5:	48 89 e5             	mov    %rsp,%rbp
    98d8:	48 83 ec 10          	sub    $0x10,%rsp
    98dc:	48 89 7d f8          	mov    %rdi,-0x8(%rbp)
    98e0:	48 89 75 f0          	mov    %rsi,-0x10(%rbp)
    98e4:	48 8b 45 f8          	mov    -0x8(%rbp),%rax
    98e8:	48 8b 55 f0          	mov    -0x10(%rbp),%rdx
    98ec:	48 89 d6             	mov    %rdx,%rsi
    98ef:	48 89 c7             	mov    %rax,%rdi
    98f2:	e8 3b 08 00 00       	call   a132 <_ZNSt11_Tuple_implILm0EJRKNSt7__cxx1112basic_stringIcSt11char_traitsIcESaIcEEEEEC1EOS8_>
    98f7:	90                   	nop
    98f8:	c9                   	leave  
    98f9:	c3                   	ret    

00000000000098fa <_ZN9__gnu_cxx13new_allocatorISt13_Rb_tree_nodeISt4pairIKNSt7__cxx1112basic_stringIcSt11char_traitsIcESaIcEEEP12netlist_elemEEE9constructISC_JRKSt21piecewise_construct_tSt5tupleIJRS9_EESJ_IJEEEEEvPT_DpOT0_>:
    98fa:	f3 0f 1e fa          	endbr64 
    98fe:	55                   	push   %rbp
    98ff:	48 89 e5             	mov    %rsp,%rbp
    9902:	53                   	push   %rbx
    9903:	48 83 ec 58          	sub    $0x58,%rsp
    9907:	48 89 7d c8          	mov    %rdi,-0x38(%rbp)
    990b:	48 89 75 c0          	mov    %rsi,-0x40(%rbp)
    990f:	48 89 55 b8          	mov    %rdx,-0x48(%rbp)
    9913:	48 89 4d b0          	mov    %rcx,-0x50(%rbp)
    9917:	4c 89 45 a8          	mov    %r8,-0x58(%rbp)
    991b:	64 48 8b 04 25 28 00 	mov    %fs:0x28,%rax
    9922:	00 00 
    9924:	48 89 45 e8          	mov    %rax,-0x18(%rbp)
    9928:	31 c0                	xor    %eax,%eax
    992a:	48 8b 45 b8          	mov    -0x48(%rbp),%rax
    992e:	48 89 c7             	mov    %rax,%rdi
    9931:	e8 8e dd ff ff       	call   76c4 <_ZSt7forwardIRKSt21piecewise_construct_tEOT_RNSt16remove_referenceIS3_E4typeE>
    9936:	48 8b 45 b0          	mov    -0x50(%rbp),%rax
    993a:	48 89 c7             	mov    %rax,%rdi
    993d:	e8 94 dd ff ff       	call   76d6 <_ZSt7forwardISt5tupleIJRKNSt7__cxx1112basic_stringIcSt11char_traitsIcESaIcEEEEEEOT_RNSt16remove_referenceISA_E4typeE>
    9942:	48 89 c2             	mov    %rax,%rdx
    9945:	48 8d 45 e0          	lea    -0x20(%rbp),%rax
    9949:	48 89 d6             	mov    %rdx,%rsi
    994c:	48 89 c7             	mov    %rax,%rdi
    994f:	e8 7c ff ff ff       	call   98d0 <_ZNSt5tupleIJRKNSt7__cxx1112basic_stringIcSt11char_traitsIcESaIcEEEEEC1EOS8_>
    9954:	48 8d 5d e0          	lea    -0x20(%rbp),%rbx
    9958:	48 8b 45 a8          	mov    -0x58(%rbp),%rax
    995c:	48 89 c7             	mov    %rax,%rdi
    995f:	e8 84 dd ff ff       	call   76e8 <_ZSt7forwardISt5tupleIJEEEOT_RNSt16remove_referenceIS2_E4typeE>
    9964:	48 8b 45 c0          	mov    -0x40(%rbp),%rax
    9968:	48 89 c6             	mov    %rax,%rsi
    996b:	bf 28 00 00 00       	mov    $0x28,%edi
    9970:	e8 ff 9b ff ff       	call   3574 <_ZnwmPv>
    9975:	48 89 de             	mov    %rbx,%rsi
    9978:	48 89 c7             	mov    %rax,%rdi
    997b:	e8 d4 07 00 00       	call   a154 <_ZNSt4pairIKNSt7__cxx1112basic_stringIcSt11char_traitsIcESaIcEEEP12netlist_elemEC1IJRS6_EJEEESt21piecewise_construct_tSt5tupleIJDpT_EESD_IJDpT0_EE>
    9980:	90                   	nop
    9981:	48 8b 45 e8          	mov    -0x18(%rbp),%rax
    9985:	64 48 2b 04 25 28 00 	sub    %fs:0x28,%rax
    998c:	00 00 
    998e:	74 05                	je     9995 <_ZN9__gnu_cxx13new_allocatorISt13_Rb_tree_nodeISt4pairIKNSt7__cxx1112basic_stringIcSt11char_traitsIcESaIcEEEP12netlist_elemEEE9constructISC_JRKSt21piecewise_construct_tSt5tupleIJRS9_EESJ_IJEEEEEvPT_DpOT0_+0x9b>
    9990:	e8 6b 8c ff ff       	call   2600 <__stack_chk_fail@plt>
    9995:	48 8b 5d f8          	mov    -0x8(%rbp),%rbx
    9999:	c9                   	leave  
    999a:	c3                   	ret    

000000000000999b <_ZSt7forwardIRPSt13_Rb_tree_nodeISt4pairIKNSt7__cxx1112basic_stringIcSt11char_traitsIcESaIcEEEP12netlist_elemEEEOT_RNSt16remove_referenceISF_E4typeE>:
    999b:	f3 0f 1e fa          	endbr64 
    999f:	55                   	push   %rbp
    99a0:	48 89 e5             	mov    %rsp,%rbp
    99a3:	48 89 7d f8          	mov    %rdi,-0x8(%rbp)
    99a7:	48 8b 45 f8          	mov    -0x8(%rbp),%rax
    99ab:	5d                   	pop    %rbp
    99ac:	c3                   	ret    
    99ad:	90                   	nop

00000000000099ae <_ZNK9__gnu_cxx16__aligned_membufISt4pairIKNSt7__cxx1112basic_stringIcSt11char_traitsIcESaIcEEEP12netlist_elemEE7_M_addrEv>:
    99ae:	f3 0f 1e fa          	endbr64 
    99b2:	55                   	push   %rbp
    99b3:	48 89 e5             	mov    %rsp,%rbp
    99b6:	48 89 7d f8          	mov    %rdi,-0x8(%rbp)
    99ba:	48 8b 45 f8          	mov    -0x8(%rbp),%rax
    99be:	5d                   	pop    %rbp
    99bf:	c3                   	ret    

00000000000099c0 <_ZNK9__gnu_cxx13new_allocatorI12netlist_elemE8max_sizeEv>:
    99c0:	f3 0f 1e fa          	endbr64 
    99c4:	55                   	push   %rbp
    99c5:	48 89 e5             	mov    %rsp,%rbp
    99c8:	48 83 ec 10          	sub    $0x10,%rsp
    99cc:	48 89 7d f8          	mov    %rdi,-0x8(%rbp)
    99d0:	48 8b 45 f8          	mov    -0x8(%rbp),%rax
    99d4:	48 89 c7             	mov    %rax,%rdi
    99d7:	e8 a6 f8 ff ff       	call   9282 <_ZNK9__gnu_cxx13new_allocatorI12netlist_elemE11_M_max_sizeEv>
    99dc:	c9                   	leave  
    99dd:	c3                   	ret    

00000000000099de <_ZSt10_ConstructI12netlist_elemJEEvPT_DpOT0_>:
    99de:	f3 0f 1e fa          	endbr64 
    99e2:	55                   	push   %rbp
    99e3:	48 89 e5             	mov    %rsp,%rbp
    99e6:	48 83 ec 10          	sub    $0x10,%rsp
    99ea:	48 89 7d f8          	mov    %rdi,-0x8(%rbp)
    99ee:	48 8b 45 f8          	mov    -0x8(%rbp),%rax
    99f2:	48 89 c6             	mov    %rax,%rsi
    99f5:	bf 58 00 00 00       	mov    $0x58,%edi
    99fa:	e8 75 9b ff ff       	call   3574 <_ZnwmPv>
    99ff:	48 89 c7             	mov    %rax,%rdi
    9a02:	e8 fd 1e 00 00       	call   b904 <_ZN12netlist_elemC1Ev>
    9a07:	90                   	nop
    9a08:	c9                   	leave  
    9a09:	c3                   	ret    

0000000000009a0a <_ZNSt20__uninitialized_copyILb0EE13__uninit_copyIPK12netlist_elemPS2_EET0_T_S7_S6_>:
    9a0a:	f3 0f 1e fa          	endbr64 
    9a0e:	55                   	push   %rbp
    9a0f:	48 89 e5             	mov    %rsp,%rbp
    9a12:	48 83 ec 30          	sub    $0x30,%rsp
    9a16:	48 89 7d e8          	mov    %rdi,-0x18(%rbp)
    9a1a:	48 89 75 e0          	mov    %rsi,-0x20(%rbp)
    9a1e:	48 89 55 d8          	mov    %rdx,-0x28(%rbp)
    9a22:	48 8b 45 d8          	mov    -0x28(%rbp),%rax
    9a26:	48 89 45 f8          	mov    %rax,-0x8(%rbp)
    9a2a:	eb 28                	jmp    9a54 <_ZNSt20__uninitialized_copyILb0EE13__uninit_copyIPK12netlist_elemPS2_EET0_T_S7_S6_+0x4a>
    9a2c:	48 8b 45 f8          	mov    -0x8(%rbp),%rax
    9a30:	48 89 c7             	mov    %rax,%rdi
    9a33:	e8 9e ab ff ff       	call   45d6 <_ZSt11__addressofI12netlist_elemEPT_RS1_>
    9a38:	48 89 c2             	mov    %rax,%rdx
    9a3b:	48 8b 45 e8          	mov    -0x18(%rbp),%rax
    9a3f:	48 89 c6             	mov    %rax,%rsi
    9a42:	48 89 d7             	mov    %rdx,%rdi
    9a45:	e8 b3 07 00 00       	call   a1fd <_ZSt10_ConstructI12netlist_elemJRKS0_EEvPT_DpOT0_>
    9a4a:	48 83 45 e8 58       	addq   $0x58,-0x18(%rbp)
    9a4f:	48 83 45 f8 58       	addq   $0x58,-0x8(%rbp)
    9a54:	48 8b 45 e8          	mov    -0x18(%rbp),%rax
    9a58:	48 3b 45 e0          	cmp    -0x20(%rbp),%rax
    9a5c:	75 ce                	jne    9a2c <_ZNSt20__uninitialized_copyILb0EE13__uninit_copyIPK12netlist_elemPS2_EET0_T_S7_S6_+0x22>
    9a5e:	48 8b 45 f8          	mov    -0x8(%rbp),%rax
    9a62:	c9                   	leave  
    9a63:	c3                   	ret    

0000000000009a64 <_ZNK9__gnu_cxx13new_allocatorI10location_tE11_M_max_sizeEv>:
    9a64:	f3 0f 1e fa          	endbr64 
    9a68:	55                   	push   %rbp
    9a69:	48 89 e5             	mov    %rsp,%rbp
    9a6c:	48 89 7d f8          	mov    %rdi,-0x8(%rbp)
    9a70:	48 b8 ff ff ff ff ff 	movabs $0xfffffffffffffff,%rax
    9a77:	ff ff 0f 
    9a7a:	5d                   	pop    %rbp
    9a7b:	c3                   	ret    

0000000000009a7c <_ZN9__gnu_cxx13new_allocatorI10location_tE8allocateEmPKv>:
    9a7c:	f3 0f 1e fa          	endbr64 
    9a80:	55                   	push   %rbp
    9a81:	48 89 e5             	mov    %rsp,%rbp
    9a84:	48 83 ec 20          	sub    $0x20,%rsp
    9a88:	48 89 7d f8          	mov    %rdi,-0x8(%rbp)
    9a8c:	48 89 75 f0          	mov    %rsi,-0x10(%rbp)
    9a90:	48 89 55 e8          	mov    %rdx,-0x18(%rbp)
    9a94:	48 8b 45 f8          	mov    -0x8(%rbp),%rax
    9a98:	48 89 c7             	mov    %rax,%rdi
    9a9b:	e8 c4 ff ff ff       	call   9a64 <_ZNK9__gnu_cxx13new_allocatorI10location_tE11_M_max_sizeEv>
    9aa0:	48 39 45 f0          	cmp    %rax,-0x10(%rbp)
    9aa4:	0f 97 c0             	seta   %al
    9aa7:	0f b6 c0             	movzbl %al,%eax
    9aaa:	48 85 c0             	test   %rax,%rax
    9aad:	0f 95 c0             	setne  %al
    9ab0:	84 c0                	test   %al,%al
    9ab2:	74 1a                	je     9ace <_ZN9__gnu_cxx13new_allocatorI10location_tE8allocateEmPKv+0x52>
    9ab4:	48 b8 ff ff ff ff ff 	movabs $0x1fffffffffffffff,%rax
    9abb:	ff ff 1f 
    9abe:	48 39 45 f0          	cmp    %rax,-0x10(%rbp)
    9ac2:	76 05                	jbe    9ac9 <_ZN9__gnu_cxx13new_allocatorI10location_tE8allocateEmPKv+0x4d>
    9ac4:	e8 27 8a ff ff       	call   24f0 <_ZSt28__throw_bad_array_new_lengthv@plt>
    9ac9:	e8 72 89 ff ff       	call   2440 <_ZSt17__throw_bad_allocv@plt>
    9ace:	48 8b 45 f0          	mov    -0x10(%rbp),%rax
    9ad2:	48 c1 e0 03          	shl    $0x3,%rax
    9ad6:	48 89 c7             	mov    %rax,%rdi
    9ad9:	e8 82 8a ff ff       	call   2560 <_Znwm@plt>
    9ade:	90                   	nop
    9adf:	c9                   	leave  
    9ae0:	c3                   	ret    

0000000000009ae1 <_ZSt10_ConstructI10location_tJEEvPT_DpOT0_>:
    9ae1:	f3 0f 1e fa          	endbr64 
    9ae5:	55                   	push   %rbp
    9ae6:	48 89 e5             	mov    %rsp,%rbp
    9ae9:	48 83 ec 10          	sub    $0x10,%rsp
    9aed:	48 89 7d f8          	mov    %rdi,-0x8(%rbp)
    9af1:	48 8b 45 f8          	mov    -0x8(%rbp),%rax
    9af5:	48 89 c6             	mov    %rax,%rsi
    9af8:	bf 08 00 00 00       	mov    $0x8,%edi
    9afd:	e8 72 9a ff ff       	call   3574 <_ZnwmPv>
    9b02:	c7 00 00 00 00 00    	movl   $0x0,(%rax)
    9b08:	c7 40 04 00 00 00 00 	movl   $0x0,0x4(%rax)
    9b0f:	90                   	nop
    9b10:	c9                   	leave  
    9b11:	c3                   	ret    

0000000000009b12 <_ZSt6fill_nIP10location_tmS0_ET_S2_T0_RKT1_>:
    9b12:	f3 0f 1e fa          	endbr64 
    9b16:	55                   	push   %rbp
    9b17:	48 89 e5             	mov    %rsp,%rbp
    9b1a:	48 83 ec 20          	sub    $0x20,%rsp
    9b1e:	48 89 7d f8          	mov    %rdi,-0x8(%rbp)
    9b22:	48 89 75 f0          	mov    %rsi,-0x10(%rbp)
    9b26:	48 89 55 e8          	mov    %rdx,-0x18(%rbp)
    9b2a:	48 8d 45 f8          	lea    -0x8(%rbp),%rax
    9b2e:	48 89 c7             	mov    %rax,%rdi
    9b31:	e8 0e 07 00 00       	call   a244 <_ZSt19__iterator_categoryIP10location_tENSt15iterator_traitsIT_E17iterator_categoryERKS3_>
    9b36:	48 8b 45 f0          	mov    -0x10(%rbp),%rax
    9b3a:	48 89 c7             	mov    %rax,%rdi
    9b3d:	e8 48 9a ff ff       	call   358a <_ZSt17__size_to_integerm>
    9b42:	48 89 c1             	mov    %rax,%rcx
    9b45:	48 8b 45 f8          	mov    -0x8(%rbp),%rax
    9b49:	48 8b 55 e8          	mov    -0x18(%rbp),%rdx
    9b4d:	48 89 ce             	mov    %rcx,%rsi
    9b50:	48 89 c7             	mov    %rax,%rdi
    9b53:	e8 fa 06 00 00       	call   a252 <_ZSt10__fill_n_aIP10location_tmS0_ET_S2_T0_RKT1_St26random_access_iterator_tag>
    9b58:	c9                   	leave  
    9b59:	c3                   	ret    

0000000000009b5a <_ZNSt6vectorI10location_tSaIS0_EEC1ERKS2_>:
    9b5a:	f3 0f 1e fa          	endbr64 
    9b5e:	55                   	push   %rbp
    9b5f:	48 89 e5             	mov    %rsp,%rbp
    9b62:	41 55                	push   %r13
    9b64:	41 54                	push   %r12
    9b66:	53                   	push   %rbx
    9b67:	48 83 ec 28          	sub    $0x28,%rsp
    9b6b:	48 89 7d c8          	mov    %rdi,-0x38(%rbp)
    9b6f:	48 89 75 c0          	mov    %rsi,-0x40(%rbp)
    9b73:	64 48 8b 04 25 28 00 	mov    %fs:0x28,%rax
    9b7a:	00 00 
    9b7c:	48 89 45 d8          	mov    %rax,-0x28(%rbp)
    9b80:	31 c0                	xor    %eax,%eax
    9b82:	48 8b 5d c8          	mov    -0x38(%rbp),%rbx
    9b86:	48 8b 45 c0          	mov    -0x40(%rbp),%rax
    9b8a:	48 89 c7             	mov    %rax,%rdi
    9b8d:	e8 72 07 00 00       	call   a304 <_ZNKSt12_Vector_baseI10location_tSaIS0_EE19_M_get_Tp_allocatorEv>
    9b92:	48 89 c2             	mov    %rax,%rdx
    9b95:	48 8d 45 d7          	lea    -0x29(%rbp),%rax
    9b99:	48 89 d6             	mov    %rdx,%rsi
    9b9c:	48 89 c7             	mov    %rax,%rdi
    9b9f:	e8 0f 07 00 00       	call   a2b3 <_ZN9__gnu_cxx14__alloc_traitsISaI10location_tES1_E17_S_select_on_copyERKS2_>
    9ba4:	48 8b 45 c0          	mov    -0x40(%rbp),%rax
    9ba8:	48 89 c7             	mov    %rax,%rdi
    9bab:	e8 14 e8 ff ff       	call   83c4 <_ZNKSt6vectorI10location_tSaIS0_EE4sizeEv>
    9bb0:	48 89 c1             	mov    %rax,%rcx
    9bb3:	48 8d 45 d7          	lea    -0x29(%rbp),%rax
    9bb7:	48 89 c2             	mov    %rax,%rdx
    9bba:	48 89 ce             	mov    %rcx,%rsi
    9bbd:	48 89 df             	mov    %rbx,%rdi
    9bc0:	e8 e9 ce ff ff       	call   6aae <_ZNSt12_Vector_baseI10location_tSaIS0_EEC1EmRKS1_>
    9bc5:	48 8d 45 d7          	lea    -0x29(%rbp),%rax
    9bc9:	48 89 c7             	mov    %rax,%rdi
    9bcc:	e8 f1 b0 ff ff       	call   4cc2 <_ZNSaI10location_tED1Ev>
    9bd1:	48 8b 45 c8          	mov    -0x38(%rbp),%rax
    9bd5:	48 89 c7             	mov    %rax,%rdi
    9bd8:	e8 9f af ff ff       	call   4b7c <_ZNSt12_Vector_baseI10location_tSaIS0_EE19_M_get_Tp_allocatorEv>
    9bdd:	49 89 c5             	mov    %rax,%r13
    9be0:	48 8b 45 c8          	mov    -0x38(%rbp),%rax
    9be4:	48 8b 18             	mov    (%rax),%rbx
    9be7:	48 8b 45 c0          	mov    -0x40(%rbp),%rax
    9beb:	48 89 c7             	mov    %rax,%rdi
    9bee:	e8 6f 07 00 00       	call   a362 <_ZNKSt6vectorI10location_tSaIS0_EE3endEv>
    9bf3:	49 89 c4             	mov    %rax,%r12
    9bf6:	48 8b 45 c0          	mov    -0x40(%rbp),%rax
    9bfa:	48 89 c7             	mov    %rax,%rdi
    9bfd:	e8 14 07 00 00       	call   a316 <_ZNKSt6vectorI10location_tSaIS0_EE5beginEv>
    9c02:	4c 89 e9             	mov    %r13,%rcx
    9c05:	48 89 da             	mov    %rbx,%rdx
    9c08:	4c 89 e6             	mov    %r12,%rsi
    9c0b:	48 89 c7             	mov    %rax,%rdi
    9c0e:	e8 9f 07 00 00       	call   a3b2 <_ZSt22__uninitialized_copy_aIN9__gnu_cxx17__normal_iteratorIPK10location_tSt6vectorIS2_SaIS2_EEEEPS2_S2_ET0_T_SB_SA_RSaIT1_E>
    9c13:	48 8b 55 c8          	mov    -0x38(%rbp),%rdx
    9c17:	48 89 42 08          	mov    %rax,0x8(%rdx)
    9c1b:	90                   	nop
    9c1c:	48 8b 45 d8          	mov    -0x28(%rbp),%rax
    9c20:	64 48 2b 04 25 28 00 	sub    %fs:0x28,%rax
    9c27:	00 00 
    9c29:	74 05                	je     9c30 <_ZNSt6vectorI10location_tSaIS0_EEC1ERKS2_+0xd6>
    9c2b:	e8 d0 89 ff ff       	call   2600 <__stack_chk_fail@plt>
    9c30:	48 83 c4 28          	add    $0x28,%rsp
    9c34:	5b                   	pop    %rbx
    9c35:	41 5c                	pop    %r12
    9c37:	41 5d                	pop    %r13
    9c39:	5d                   	pop    %rbp
    9c3a:	c3                   	ret    
    9c3b:	90                   	nop

0000000000009c3c <_ZNSt13move_iteratorIPSt6vectorI10location_tSaIS1_EEEppEv>:
    9c3c:	f3 0f 1e fa          	endbr64 
    9c40:	55                   	push   %rbp
    9c41:	48 89 e5             	mov    %rsp,%rbp
    9c44:	48 89 7d f8          	mov    %rdi,-0x8(%rbp)
    9c48:	48 8b 45 f8          	mov    -0x8(%rbp),%rax
    9c4c:	48 8b 00             	mov    (%rax),%rax
    9c4f:	48 8d 50 18          	lea    0x18(%rax),%rdx
    9c53:	48 8b 45 f8          	mov    -0x8(%rbp),%rax
    9c57:	48 89 10             	mov    %rdx,(%rax)
    9c5a:	48 8b 45 f8          	mov    -0x8(%rbp),%rax
    9c5e:	5d                   	pop    %rbp
    9c5f:	c3                   	ret    

0000000000009c60 <_ZNSt20__uninitialized_copyILb0EE13__uninit_copyISt13move_iteratorIPSt6vectorI10location_tSaIS4_EEES7_EET0_T_SA_S9_>:
    9c60:	f3 0f 1e fa          	endbr64 
    9c64:	55                   	push   %rbp
    9c65:	48 89 e5             	mov    %rsp,%rbp
    9c68:	53                   	push   %rbx
    9c69:	48 83 ec 38          	sub    $0x38,%rsp
    9c6d:	48 89 7d d8          	mov    %rdi,-0x28(%rbp)
    9c71:	48 89 75 d0          	mov    %rsi,-0x30(%rbp)
    9c75:	48 89 55 c8          	mov    %rdx,-0x38(%rbp)
    9c79:	48 8b 45 c8          	mov    -0x38(%rbp),%rax
    9c7d:	48 89 45 e8          	mov    %rax,-0x18(%rbp)
    9c81:	eb 37                	jmp    9cba <_ZNSt20__uninitialized_copyILb0EE13__uninit_copyISt13move_iteratorIPSt6vectorI10location_tSaIS4_EEES7_EET0_T_SA_S9_+0x5a>
    9c83:	48 8d 45 d8          	lea    -0x28(%rbp),%rax
    9c87:	48 89 c7             	mov    %rax,%rdi
    9c8a:	e8 85 07 00 00       	call   a414 <_ZNKSt13move_iteratorIPSt6vectorI10location_tSaIS1_EEEdeEv>
    9c8f:	48 89 c3             	mov    %rax,%rbx
    9c92:	48 8b 45 e8          	mov    -0x18(%rbp),%rax
    9c96:	48 89 c7             	mov    %rax,%rdi
    9c99:	e8 e5 a9 ff ff       	call   4683 <_ZSt11__addressofISt6vectorI10location_tSaIS1_EEEPT_RS4_>
    9c9e:	48 89 de             	mov    %rbx,%rsi
    9ca1:	48 89 c7             	mov    %rax,%rdi
    9ca4:	e8 d5 07 00 00       	call   a47e <_ZSt10_ConstructISt6vectorI10location_tSaIS1_EEJS3_EEvPT_DpOT0_>
    9ca9:	48 8d 45 d8          	lea    -0x28(%rbp),%rax
    9cad:	48 89 c7             	mov    %rax,%rdi
    9cb0:	e8 87 ff ff ff       	call   9c3c <_ZNSt13move_iteratorIPSt6vectorI10location_tSaIS1_EEEppEv>
    9cb5:	48 83 45 e8 18       	addq   $0x18,-0x18(%rbp)
    9cba:	48 8d 55 d0          	lea    -0x30(%rbp),%rdx
    9cbe:	48 8d 45 d8          	lea    -0x28(%rbp),%rax
    9cc2:	48 89 d6             	mov    %rdx,%rsi
    9cc5:	48 89 c7             	mov    %rax,%rdi
    9cc8:	e8 1a 07 00 00       	call   a3e7 <_ZStneIPSt6vectorI10location_tSaIS1_EEEbRKSt13move_iteratorIT_ES9_>
    9ccd:	84 c0                	test   %al,%al
    9ccf:	75 b2                	jne    9c83 <_ZNSt20__uninitialized_copyILb0EE13__uninit_copyISt13move_iteratorIPSt6vectorI10location_tSaIS4_EEES7_EET0_T_SA_S9_+0x23>
    9cd1:	48 8b 45 e8          	mov    -0x18(%rbp),%rax
    9cd5:	48 8b 5d f8          	mov    -0x8(%rbp),%rbx
    9cd9:	c9                   	leave  
    9cda:	c3                   	ret    

0000000000009cdb <_ZSt23__copy_move_backward_a2ILb1EPSt6vectorI10location_tSaIS1_EES4_ET1_T0_S6_S5_>:
    9cdb:	f3 0f 1e fa          	endbr64 
    9cdf:	55                   	push   %rbp
    9ce0:	48 89 e5             	mov    %rsp,%rbp
    9ce3:	48 83 ec 20          	sub    $0x20,%rsp
    9ce7:	48 89 7d f8          	mov    %rdi,-0x8(%rbp)
    9ceb:	48 89 75 f0          	mov    %rsi,-0x10(%rbp)
    9cef:	48 89 55 e8          	mov    %rdx,-0x18(%rbp)
    9cf3:	48 8b 55 e8          	mov    -0x18(%rbp),%rdx
    9cf7:	48 8b 4d f0          	mov    -0x10(%rbp),%rcx
    9cfb:	48 8b 45 f8          	mov    -0x8(%rbp),%rax
    9cff:	48 89 ce             	mov    %rcx,%rsi
    9d02:	48 89 c7             	mov    %rax,%rdi
    9d05:	e8 bb 07 00 00       	call   a4c5 <_ZNSt20__copy_move_backwardILb1ELb0ESt26random_access_iterator_tagE13__copy_move_bIPSt6vectorI10location_tSaIS4_EES7_EET0_T_S9_S8_>
    9d0a:	c9                   	leave  
    9d0b:	c3                   	ret    

0000000000009d0c <_ZN9__gnu_cxx14__alloc_traitsISaI10location_tES1_E27_S_propagate_on_copy_assignEv>:
    9d0c:	f3 0f 1e fa          	endbr64 
    9d10:	55                   	push   %rbp
    9d11:	48 89 e5             	mov    %rsp,%rbp
    9d14:	b8 00 00 00 00       	mov    $0x0,%eax
    9d19:	5d                   	pop    %rbp
    9d1a:	c3                   	ret    
    9d1b:	90                   	nop

0000000000009d1c <_ZNSt6vectorI10location_tSaIS0_EEaSERKS2_>:
    9d1c:	f3 0f 1e fa          	endbr64 
    9d20:	55                   	push   %rbp
    9d21:	48 89 e5             	mov    %rsp,%rbp
    9d24:	41 56                	push   %r14
    9d26:	41 55                	push   %r13
    9d28:	41 54                	push   %r12
    9d2a:	53                   	push   %rbx
    9d2b:	48 83 ec 20          	sub    $0x20,%rsp
    9d2f:	48 89 7d c8          	mov    %rdi,-0x38(%rbp)
    9d33:	48 89 75 c0          	mov    %rsi,-0x40(%rbp)
    9d37:	48 8b 45 c0          	mov    -0x40(%rbp),%rax
    9d3b:	48 3b 45 c8          	cmp    -0x38(%rbp),%rax
    9d3f:	0f 84 e0 02 00 00    	je     a025 <_ZNSt6vectorI10location_tSaIS0_EEaSERKS2_+0x309>
    9d45:	e8 c2 ff ff ff       	call   9d0c <_ZN9__gnu_cxx14__alloc_traitsISaI10location_tES1_E27_S_propagate_on_copy_assignEv>
    9d4a:	84 c0                	test   %al,%al
    9d4c:	0f 84 d0 00 00 00    	je     9e22 <_ZNSt6vectorI10location_tSaIS0_EEaSERKS2_+0x106>
    9d52:	e8 5c f7 ff ff       	call   94b3 <_ZN9__gnu_cxx14__alloc_traitsISaI10location_tES1_E15_S_always_equalEv>
    9d57:	83 f0 01             	xor    $0x1,%eax
    9d5a:	84 c0                	test   %al,%al
    9d5c:	74 31                	je     9d8f <_ZNSt6vectorI10location_tSaIS0_EEaSERKS2_+0x73>
    9d5e:	48 8b 45 c0          	mov    -0x40(%rbp),%rax
    9d62:	48 89 c7             	mov    %rax,%rdi
    9d65:	e8 9a 05 00 00       	call   a304 <_ZNKSt12_Vector_baseI10location_tSaIS0_EE19_M_get_Tp_allocatorEv>
    9d6a:	48 89 c3             	mov    %rax,%rbx
    9d6d:	48 8b 45 c8          	mov    -0x38(%rbp),%rax
    9d71:	48 89 c7             	mov    %rax,%rdi
    9d74:	e8 03 ae ff ff       	call   4b7c <_ZNSt12_Vector_baseI10location_tSaIS0_EE19_M_get_Tp_allocatorEv>
    9d79:	48 89 de             	mov    %rbx,%rsi
    9d7c:	48 89 c7             	mov    %rax,%rdi
    9d7f:	e8 b6 07 00 00       	call   a53a <_ZStneRKSaI10location_tES2_>
    9d84:	84 c0                	test   %al,%al
    9d86:	74 07                	je     9d8f <_ZNSt6vectorI10location_tSaIS0_EEaSERKS2_+0x73>
    9d88:	b8 01 00 00 00       	mov    $0x1,%eax
    9d8d:	eb 05                	jmp    9d94 <_ZNSt6vectorI10location_tSaIS0_EEaSERKS2_+0x78>
    9d8f:	b8 00 00 00 00       	mov    $0x0,%eax
    9d94:	84 c0                	test   %al,%al
    9d96:	74 64                	je     9dfc <_ZNSt6vectorI10location_tSaIS0_EEaSERKS2_+0xe0>
    9d98:	48 8b 45 c8          	mov    -0x38(%rbp),%rax
    9d9c:	48 89 c7             	mov    %rax,%rdi
    9d9f:	e8 ae 07 00 00       	call   a552 <_ZNSt6vectorI10location_tSaIS0_EE5clearEv>
    9da4:	48 8b 45 c8          	mov    -0x38(%rbp),%rax
    9da8:	48 8b 55 c8          	mov    -0x38(%rbp),%rdx
    9dac:	48 8b 4a 10          	mov    0x10(%rdx),%rcx
    9db0:	48 8b 55 c8          	mov    -0x38(%rbp),%rdx
    9db4:	48 8b 32             	mov    (%rdx),%rsi
    9db7:	48 29 f1             	sub    %rsi,%rcx
    9dba:	48 89 ca             	mov    %rcx,%rdx
    9dbd:	48 c1 fa 03          	sar    $0x3,%rdx
    9dc1:	48 89 d6             	mov    %rdx,%rsi
    9dc4:	48 8b 55 c8          	mov    -0x38(%rbp),%rdx
    9dc8:	48 8b 0a             	mov    (%rdx),%rcx
    9dcb:	48 89 f2             	mov    %rsi,%rdx
    9dce:	48 89 ce             	mov    %rcx,%rsi
    9dd1:	48 89 c7             	mov    %rax,%rdi
    9dd4:	e8 09 af ff ff       	call   4ce2 <_ZNSt12_Vector_baseI10location_tSaIS0_EE13_M_deallocateEPS0_m>
    9dd9:	48 8b 45 c8          	mov    -0x38(%rbp),%rax
    9ddd:	48 c7 00 00 00 00 00 	movq   $0x0,(%rax)
    9de4:	48 8b 45 c8          	mov    -0x38(%rbp),%rax
    9de8:	48 c7 40 08 00 00 00 	movq   $0x0,0x8(%rax)
    9def:	00 
    9df0:	48 8b 45 c8          	mov    -0x38(%rbp),%rax
    9df4:	48 c7 40 10 00 00 00 	movq   $0x0,0x10(%rax)
    9dfb:	00 
    9dfc:	48 8b 45 c0          	mov    -0x40(%rbp),%rax
    9e00:	48 89 c7             	mov    %rax,%rdi
    9e03:	e8 fc 04 00 00       	call   a304 <_ZNKSt12_Vector_baseI10location_tSaIS0_EE19_M_get_Tp_allocatorEv>
    9e08:	48 89 c3             	mov    %rax,%rbx
    9e0b:	48 8b 45 c8          	mov    -0x38(%rbp),%rax
    9e0f:	48 89 c7             	mov    %rax,%rdi
    9e12:	e8 65 ad ff ff       	call   4b7c <_ZNSt12_Vector_baseI10location_tSaIS0_EE19_M_get_Tp_allocatorEv>
    9e17:	48 89 de             	mov    %rbx,%rsi
    9e1a:	48 89 c7             	mov    %rax,%rdi
    9e1d:	e8 59 07 00 00       	call   a57b <_ZSt15__alloc_on_copyISaI10location_tEEvRT_RKS2_>
    9e22:	48 8b 45 c0          	mov    -0x40(%rbp),%rax
    9e26:	48 89 c7             	mov    %rax,%rdi
    9e29:	e8 96 e5 ff ff       	call   83c4 <_ZNKSt6vectorI10location_tSaIS0_EE4sizeEv>
    9e2e:	48 89 45 d0          	mov    %rax,-0x30(%rbp)
    9e32:	48 8b 45 c8          	mov    -0x38(%rbp),%rax
    9e36:	48 89 c7             	mov    %rax,%rdi
    9e39:	e8 50 07 00 00       	call   a58e <_ZNKSt6vectorI10location_tSaIS0_EE8capacityEv>
    9e3e:	48 39 45 d0          	cmp    %rax,-0x30(%rbp)
    9e42:	0f 97 c0             	seta   %al
    9e45:	84 c0                	test   %al,%al
    9e47:	0f 84 bd 00 00 00    	je     9f0a <_ZNSt6vectorI10location_tSaIS0_EEaSERKS2_+0x1ee>
    9e4d:	48 8b 45 c0          	mov    -0x40(%rbp),%rax
    9e51:	48 89 c7             	mov    %rax,%rdi
    9e54:	e8 09 05 00 00       	call   a362 <_ZNKSt6vectorI10location_tSaIS0_EE3endEv>
    9e59:	48 89 c3             	mov    %rax,%rbx
    9e5c:	48 8b 45 c0          	mov    -0x40(%rbp),%rax
    9e60:	48 89 c7             	mov    %rax,%rdi
    9e63:	e8 ae 04 00 00       	call   a316 <_ZNKSt6vectorI10location_tSaIS0_EE5beginEv>
    9e68:	48 89 c2             	mov    %rax,%rdx
    9e6b:	48 8b 75 d0          	mov    -0x30(%rbp),%rsi
    9e6f:	48 8b 45 c8          	mov    -0x38(%rbp),%rax
    9e73:	48 89 d9             	mov    %rbx,%rcx
    9e76:	48 89 c7             	mov    %rax,%rdi
    9e79:	e8 38 07 00 00       	call   a5b6 <_ZNSt6vectorI10location_tSaIS0_EE20_M_allocate_and_copyIN9__gnu_cxx17__normal_iteratorIPKS0_S2_EEEEPS0_mT_SA_>
    9e7e:	48 89 45 d8          	mov    %rax,-0x28(%rbp)
    9e82:	48 8b 45 c8          	mov    -0x38(%rbp),%rax
    9e86:	48 89 c7             	mov    %rax,%rdi
    9e89:	e8 ee ac ff ff       	call   4b7c <_ZNSt12_Vector_baseI10location_tSaIS0_EE19_M_get_Tp_allocatorEv>
    9e8e:	48 89 c2             	mov    %rax,%rdx
    9e91:	48 8b 45 c8          	mov    -0x38(%rbp),%rax
    9e95:	48 8b 48 08          	mov    0x8(%rax),%rcx
    9e99:	48 8b 45 c8          	mov    -0x38(%rbp),%rax
    9e9d:	48 8b 00             	mov    (%rax),%rax
    9ea0:	48 89 ce             	mov    %rcx,%rsi
    9ea3:	48 89 c7             	mov    %rax,%rdi
    9ea6:	e8 e3 ac ff ff       	call   4b8e <_ZSt8_DestroyIP10location_tS0_EvT_S2_RSaIT0_E>
    9eab:	48 8b 45 c8          	mov    -0x38(%rbp),%rax
    9eaf:	48 8b 55 c8          	mov    -0x38(%rbp),%rdx
    9eb3:	48 8b 4a 10          	mov    0x10(%rdx),%rcx
    9eb7:	48 8b 55 c8          	mov    -0x38(%rbp),%rdx
    9ebb:	48 8b 32             	mov    (%rdx),%rsi
    9ebe:	48 29 f1             	sub    %rsi,%rcx
    9ec1:	48 89 ca             	mov    %rcx,%rdx
    9ec4:	48 c1 fa 03          	sar    $0x3,%rdx
    9ec8:	48 89 d6             	mov    %rdx,%rsi
    9ecb:	48 8b 55 c8          	mov    -0x38(%rbp),%rdx
    9ecf:	48 8b 0a             	mov    (%rdx),%rcx
    9ed2:	48 89 f2             	mov    %rsi,%rdx
    9ed5:	48 89 ce             	mov    %rcx,%rsi
    9ed8:	48 89 c7             	mov    %rax,%rdi
    9edb:	e8 02 ae ff ff       	call   4ce2 <_ZNSt12_Vector_baseI10location_tSaIS0_EE13_M_deallocateEPS0_m>
    9ee0:	48 8b 45 c8          	mov    -0x38(%rbp),%rax
    9ee4:	48 8b 55 d8          	mov    -0x28(%rbp),%rdx
    9ee8:	48 89 10             	mov    %rdx,(%rax)
    9eeb:	48 8b 45 c8          	mov    -0x38(%rbp),%rax
    9eef:	48 8b 10             	mov    (%rax),%rdx
    9ef2:	48 8b 45 d0          	mov    -0x30(%rbp),%rax
    9ef6:	48 c1 e0 03          	shl    $0x3,%rax
    9efa:	48 01 c2             	add    %rax,%rdx
    9efd:	48 8b 45 c8          	mov    -0x38(%rbp),%rax
    9f01:	48 89 50 10          	mov    %rdx,0x10(%rax)
    9f05:	e9 01 01 00 00       	jmp    a00b <_ZNSt6vectorI10location_tSaIS0_EEaSERKS2_+0x2ef>
    9f0a:	48 8b 45 c8          	mov    -0x38(%rbp),%rax
    9f0e:	48 89 c7             	mov    %rax,%rdi
    9f11:	e8 ae e4 ff ff       	call   83c4 <_ZNKSt6vectorI10location_tSaIS0_EE4sizeEv>
    9f16:	48 39 45 d0          	cmp    %rax,-0x30(%rbp)
    9f1a:	0f 96 c0             	setbe  %al
    9f1d:	84 c0                	test   %al,%al
    9f1f:	74 69                	je     9f8a <_ZNSt6vectorI10location_tSaIS0_EEaSERKS2_+0x26e>
    9f21:	48 8b 45 c8          	mov    -0x38(%rbp),%rax
    9f25:	48 89 c7             	mov    %rax,%rdi
    9f28:	e8 4f ac ff ff       	call   4b7c <_ZNSt12_Vector_baseI10location_tSaIS0_EE19_M_get_Tp_allocatorEv>
    9f2d:	49 89 c4             	mov    %rax,%r12
    9f30:	48 8b 45 c8          	mov    -0x38(%rbp),%rax
    9f34:	48 89 c7             	mov    %rax,%rdi
    9f37:	e8 72 07 00 00       	call   a6ae <_ZNSt6vectorI10location_tSaIS0_EE3endEv>
    9f3c:	48 89 c3             	mov    %rax,%rbx
    9f3f:	48 8b 45 c8          	mov    -0x38(%rbp),%rax
    9f43:	48 89 c7             	mov    %rax,%rdi
    9f46:	e8 c7 06 00 00       	call   a612 <_ZNSt6vectorI10location_tSaIS0_EE5beginEv>
    9f4b:	49 89 c6             	mov    %rax,%r14
    9f4e:	48 8b 45 c0          	mov    -0x40(%rbp),%rax
    9f52:	48 89 c7             	mov    %rax,%rdi
    9f55:	e8 08 04 00 00       	call   a362 <_ZNKSt6vectorI10location_tSaIS0_EE3endEv>
    9f5a:	49 89 c5             	mov    %rax,%r13
    9f5d:	48 8b 45 c0          	mov    -0x40(%rbp),%rax
    9f61:	48 89 c7             	mov    %rax,%rdi
    9f64:	e8 ad 03 00 00       	call   a316 <_ZNKSt6vectorI10location_tSaIS0_EE5beginEv>
    9f69:	4c 89 f2             	mov    %r14,%rdx
    9f6c:	4c 89 ee             	mov    %r13,%rsi
    9f6f:	48 89 c7             	mov    %rax,%rdi
    9f72:	e8 e7 06 00 00       	call   a65e <_ZSt4copyIN9__gnu_cxx17__normal_iteratorIPK10location_tSt6vectorIS2_SaIS2_EEEENS1_IPS2_S7_EEET0_T_SC_SB_>
    9f77:	4c 89 e2             	mov    %r12,%rdx
    9f7a:	48 89 de             	mov    %rbx,%rsi
    9f7d:	48 89 c7             	mov    %rax,%rdi
    9f80:	e8 79 07 00 00       	call   a6fe <_ZSt8_DestroyIN9__gnu_cxx17__normal_iteratorIP10location_tSt6vectorIS2_SaIS2_EEEES2_EvT_S8_RSaIT0_E>
    9f85:	e9 81 00 00 00       	jmp    a00b <_ZNSt6vectorI10location_tSaIS0_EEaSERKS2_+0x2ef>
    9f8a:	48 8b 45 c8          	mov    -0x38(%rbp),%rax
    9f8e:	48 8b 18             	mov    (%rax),%rbx
    9f91:	48 8b 45 c0          	mov    -0x40(%rbp),%rax
    9f95:	4c 8b 20             	mov    (%rax),%r12
    9f98:	48 8b 45 c8          	mov    -0x38(%rbp),%rax
    9f9c:	48 89 c7             	mov    %rax,%rdi
    9f9f:	e8 20 e4 ff ff       	call   83c4 <_ZNKSt6vectorI10location_tSaIS0_EE4sizeEv>
    9fa4:	48 c1 e0 03          	shl    $0x3,%rax
    9fa8:	49 8d 0c 04          	lea    (%r12,%rax,1),%rcx
    9fac:	48 8b 45 c0          	mov    -0x40(%rbp),%rax
    9fb0:	48 8b 00             	mov    (%rax),%rax
    9fb3:	48 89 da             	mov    %rbx,%rdx
    9fb6:	48 89 ce             	mov    %rcx,%rsi
    9fb9:	48 89 c7             	mov    %rax,%rdi
    9fbc:	e8 6b 07 00 00       	call   a72c <_ZSt4copyIP10location_tS1_ET0_T_S3_S2_>
    9fc1:	48 8b 45 c8          	mov    -0x38(%rbp),%rax
    9fc5:	48 89 c7             	mov    %rax,%rdi
    9fc8:	e8 af ab ff ff       	call   4b7c <_ZNSt12_Vector_baseI10location_tSaIS0_EE19_M_get_Tp_allocatorEv>
    9fcd:	49 89 c5             	mov    %rax,%r13
    9fd0:	48 8b 45 c8          	mov    -0x38(%rbp),%rax
    9fd4:	4c 8b 60 08          	mov    0x8(%rax),%r12
    9fd8:	48 8b 45 c0          	mov    -0x40(%rbp),%rax
    9fdc:	48 8b 58 08          	mov    0x8(%rax),%rbx
    9fe0:	48 8b 45 c0          	mov    -0x40(%rbp),%rax
    9fe4:	4c 8b 30             	mov    (%rax),%r14
    9fe7:	48 8b 45 c8          	mov    -0x38(%rbp),%rax
    9feb:	48 89 c7             	mov    %rax,%rdi
    9fee:	e8 d1 e3 ff ff       	call   83c4 <_ZNKSt6vectorI10location_tSaIS0_EE4sizeEv>
    9ff3:	48 c1 e0 03          	shl    $0x3,%rax
    9ff7:	4c 01 f0             	add    %r14,%rax
    9ffa:	4c 89 e9             	mov    %r13,%rcx
    9ffd:	4c 89 e2             	mov    %r12,%rdx
    a000:	48 89 de             	mov    %rbx,%rsi
    a003:	48 89 c7             	mov    %rax,%rdi
    a006:	e8 70 07 00 00       	call   a77b <_ZSt22__uninitialized_copy_aIP10location_tS1_S0_ET0_T_S3_S2_RSaIT1_E>
    a00b:	48 8b 45 c8          	mov    -0x38(%rbp),%rax
    a00f:	48 8b 10             	mov    (%rax),%rdx
    a012:	48 8b 45 d0          	mov    -0x30(%rbp),%rax
    a016:	48 c1 e0 03          	shl    $0x3,%rax
    a01a:	48 01 c2             	add    %rax,%rdx
    a01d:	48 8b 45 c8          	mov    -0x38(%rbp),%rax
    a021:	48 89 50 08          	mov    %rdx,0x8(%rax)
    a025:	48 8b 45 c8          	mov    -0x38(%rbp),%rax
    a029:	48 83 c4 20          	add    $0x20,%rsp
    a02d:	5b                   	pop    %rbx
    a02e:	41 5c                	pop    %r12
    a030:	41 5d                	pop    %r13
    a032:	41 5e                	pop    %r14
    a034:	5d                   	pop    %rbp
    a035:	c3                   	ret    

000000000000a036 <_ZSt10_ConstructISt6vectorI10location_tSaIS1_EEJRKS3_EEvPT_DpOT0_>:
    a036:	f3 0f 1e fa          	endbr64 
    a03a:	55                   	push   %rbp
    a03b:	48 89 e5             	mov    %rsp,%rbp
    a03e:	53                   	push   %rbx
    a03f:	48 83 ec 18          	sub    $0x18,%rsp
    a043:	48 89 7d e8          	mov    %rdi,-0x18(%rbp)
    a047:	48 89 75 e0          	mov    %rsi,-0x20(%rbp)
    a04b:	48 8b 45 e0          	mov    -0x20(%rbp),%rax
    a04f:	48 89 c7             	mov    %rax,%rdi
    a052:	e8 6f ed ff ff       	call   8dc6 <_ZSt7forwardIRKSt6vectorI10location_tSaIS1_EEEOT_RNSt16remove_referenceIS6_E4typeE>
    a057:	48 89 c3             	mov    %rax,%rbx
    a05a:	48 8b 45 e8          	mov    -0x18(%rbp),%rax
    a05e:	48 89 c6             	mov    %rax,%rsi
    a061:	bf 18 00 00 00       	mov    $0x18,%edi
    a066:	e8 09 95 ff ff       	call   3574 <_ZnwmPv>
    a06b:	48 89 de             	mov    %rbx,%rsi
    a06e:	48 89 c7             	mov    %rax,%rdi
    a071:	e8 e4 fa ff ff       	call   9b5a <_ZNSt6vectorI10location_tSaIS0_EEC1ERKS2_>
    a076:	90                   	nop
    a077:	48 8b 5d f8          	mov    -0x8(%rbp),%rbx
    a07b:	c9                   	leave  
    a07c:	c3                   	ret    

000000000000a07d <_ZNSt16allocator_traitsISaISt6vectorI10location_tSaIS1_EEEE8max_sizeERKS4_>:
    a07d:	f3 0f 1e fa          	endbr64 
    a081:	55                   	push   %rbp
    a082:	48 89 e5             	mov    %rsp,%rbp
    a085:	48 83 ec 10          	sub    $0x10,%rsp
    a089:	48 89 7d f8          	mov    %rdi,-0x8(%rbp)
    a08d:	48 8b 45 f8          	mov    -0x8(%rbp),%rax
    a091:	48 89 c7             	mov    %rax,%rdi
    a094:	e8 17 07 00 00       	call   a7b0 <_ZNK9__gnu_cxx13new_allocatorISt6vectorI10location_tSaIS2_EEE8max_sizeEv>
    a099:	c9                   	leave  
    a09a:	c3                   	ret    

000000000000a09b <_ZNSt16allocator_traitsISaIP12netlist_elemEE8max_sizeERKS2_>:
    a09b:	f3 0f 1e fa          	endbr64 
    a09f:	55                   	push   %rbp
    a0a0:	48 89 e5             	mov    %rsp,%rbp
    a0a3:	48 83 ec 10          	sub    $0x10,%rsp
    a0a7:	48 89 7d f8          	mov    %rdi,-0x8(%rbp)
    a0ab:	48 8b 45 f8          	mov    -0x8(%rbp),%rax
    a0af:	48 89 c7             	mov    %rax,%rdi
    a0b2:	e8 17 07 00 00       	call   a7ce <_ZNK9__gnu_cxx13new_allocatorIP12netlist_elemE8max_sizeEv>
    a0b7:	c9                   	leave  
    a0b8:	c3                   	ret    

000000000000a0b9 <_ZSt12__niter_baseIPP12netlist_elemET_S3_>:
    a0b9:	f3 0f 1e fa          	endbr64 
    a0bd:	55                   	push   %rbp
    a0be:	48 89 e5             	mov    %rsp,%rbp
    a0c1:	48 89 7d f8          	mov    %rdi,-0x8(%rbp)
    a0c5:	48 8b 45 f8          	mov    -0x8(%rbp),%rax
    a0c9:	5d                   	pop    %rbp
    a0ca:	c3                   	ret    

000000000000a0cb <_ZSt14__relocate_a_1IP12netlist_elemS1_ENSt9enable_ifIXsrSt24__is_bitwise_relocatableIT_vE5valueEPS4_E4typeES6_S6_S6_RSaIT0_E>:
    a0cb:	f3 0f 1e fa          	endbr64 
    a0cf:	55                   	push   %rbp
    a0d0:	48 89 e5             	mov    %rsp,%rbp
    a0d3:	48 83 ec 30          	sub    $0x30,%rsp
    a0d7:	48 89 7d e8          	mov    %rdi,-0x18(%rbp)
    a0db:	48 89 75 e0          	mov    %rsi,-0x20(%rbp)
    a0df:	48 89 55 d8          	mov    %rdx,-0x28(%rbp)
    a0e3:	48 89 4d d0          	mov    %rcx,-0x30(%rbp)
    a0e7:	48 8b 45 e0          	mov    -0x20(%rbp),%rax
    a0eb:	48 2b 45 e8          	sub    -0x18(%rbp),%rax
    a0ef:	48 c1 f8 03          	sar    $0x3,%rax
    a0f3:	48 89 45 f8          	mov    %rax,-0x8(%rbp)
    a0f7:	48 83 7d f8 00       	cmpq   $0x0,-0x8(%rbp)
    a0fc:	7e 1f                	jle    a11d <_ZSt14__relocate_a_1IP12netlist_elemS1_ENSt9enable_ifIXsrSt24__is_bitwise_relocatableIT_vE5valueEPS4_E4typeES6_S6_S6_RSaIT0_E+0x52>
    a0fe:	48 8b 45 f8          	mov    -0x8(%rbp),%rax
    a102:	48 8d 14 c5 00 00 00 	lea    0x0(,%rax,8),%rdx
    a109:	00 
    a10a:	48 8b 4d e8          	mov    -0x18(%rbp),%rcx
    a10e:	48 8b 45 d8          	mov    -0x28(%rbp),%rax
    a112:	48 89 ce             	mov    %rcx,%rsi
    a115:	48 89 c7             	mov    %rax,%rdi
    a118:	e8 a3 85 ff ff       	call   26c0 <memmove@plt>
    a11d:	48 8b 45 f8          	mov    -0x8(%rbp),%rax
    a121:	48 8d 14 c5 00 00 00 	lea    0x0(,%rax,8),%rdx
    a128:	00 
    a129:	48 8b 45 d8          	mov    -0x28(%rbp),%rax
    a12d:	48 01 d0             	add    %rdx,%rax
    a130:	c9                   	leave  
    a131:	c3                   	ret    

000000000000a132 <_ZNSt11_Tuple_implILm0EJRKNSt7__cxx1112basic_stringIcSt11char_traitsIcESaIcEEEEEC1EOS8_>:
    a132:	f3 0f 1e fa          	endbr64 
    a136:	55                   	push   %rbp
    a137:	48 89 e5             	mov    %rsp,%rbp
    a13a:	48 89 7d f8          	mov    %rdi,-0x8(%rbp)
    a13e:	48 89 75 f0          	mov    %rsi,-0x10(%rbp)
    a142:	48 8b 45 f8          	mov    -0x8(%rbp),%rax
    a146:	48 8b 55 f0          	mov    -0x10(%rbp),%rdx
    a14a:	48 8b 12             	mov    (%rdx),%rdx
    a14d:	48 89 10             	mov    %rdx,(%rax)
    a150:	90                   	nop
    a151:	5d                   	pop    %rbp
    a152:	c3                   	ret    
    a153:	90                   	nop

000000000000a154 <_ZNSt4pairIKNSt7__cxx1112basic_stringIcSt11char_traitsIcESaIcEEEP12netlist_elemEC1IJRS6_EJEEESt21piecewise_construct_tSt5tupleIJDpT_EESD_IJDpT0_EE>:
    a154:	f3 0f 1e fa          	endbr64 
    a158:	55                   	push   %rbp
    a159:	48 89 e5             	mov    %rsp,%rbp
    a15c:	48 83 ec 20          	sub    $0x20,%rsp
    a160:	48 89 7d f8          	mov    %rdi,-0x8(%rbp)
    a164:	48 89 75 f0          	mov    %rsi,-0x10(%rbp)
    a168:	48 8d 55 ef          	lea    -0x11(%rbp),%rdx
    a16c:	48 8b 4d f0          	mov    -0x10(%rbp),%rcx
    a170:	48 8b 45 f8          	mov    -0x8(%rbp),%rax
    a174:	48 89 ce             	mov    %rcx,%rsi
    a177:	48 89 c7             	mov    %rax,%rdi
    a17a:	e8 6d 06 00 00       	call   a7ec <_ZNSt4pairIKNSt7__cxx1112basic_stringIcSt11char_traitsIcESaIcEEEP12netlist_elemEC1IJRS6_EJLm0EEJEJEEERSt5tupleIJDpT_EERSC_IJDpT1_EESt12_Index_tupleIJXspT0_EEESL_IJXspT2_EEE>
    a17f:	90                   	nop
    a180:	c9                   	leave  
    a181:	c3                   	ret    

000000000000a182 <_ZN12netlist_elemC1ERKS_>:
    a182:	f3 0f 1e fa          	endbr64 
    a186:	55                   	push   %rbp
    a187:	48 89 e5             	mov    %rsp,%rbp
    a18a:	48 83 ec 10          	sub    $0x10,%rsp
    a18e:	48 89 7d f8          	mov    %rdi,-0x8(%rbp)
    a192:	48 89 75 f0          	mov    %rsi,-0x10(%rbp)
    a196:	48 8b 45 f8          	mov    -0x8(%rbp),%rax
    a19a:	48 8b 55 f0          	mov    -0x10(%rbp),%rdx
    a19e:	48 89 d6             	mov    %rdx,%rsi
    a1a1:	48 89 c7             	mov    %rax,%rdi
    a1a4:	e8 b7 82 ff ff       	call   2460 <_ZNSt7__cxx1112basic_stringIcSt11char_traitsIcESaIcEEC1ERKS4_@plt>
    a1a9:	48 8b 45 f8          	mov    -0x8(%rbp),%rax
    a1ad:	48 83 c0 20          	add    $0x20,%rax
    a1b1:	48 8b 55 f0          	mov    -0x10(%rbp),%rdx
    a1b5:	48 83 c2 20          	add    $0x20,%rdx
    a1b9:	48 89 d6             	mov    %rdx,%rsi
    a1bc:	48 89 c7             	mov    %rax,%rdi
    a1bf:	e8 8a 06 00 00       	call   a84e <_ZNSt6vectorIP12netlist_elemSaIS1_EEC1ERKS3_>
    a1c4:	48 8b 45 f8          	mov    -0x8(%rbp),%rax
    a1c8:	48 83 c0 38          	add    $0x38,%rax
    a1cc:	48 8b 55 f0          	mov    -0x10(%rbp),%rdx
    a1d0:	48 83 c2 38          	add    $0x38,%rdx
    a1d4:	48 89 d6             	mov    %rdx,%rsi
    a1d7:	48 89 c7             	mov    %rax,%rdi
    a1da:	e8 6f 06 00 00       	call   a84e <_ZNSt6vectorIP12netlist_elemSaIS1_EEC1ERKS3_>
    a1df:	48 8b 45 f8          	mov    -0x8(%rbp),%rax
    a1e3:	48 83 c0 50          	add    $0x50,%rax
    a1e7:	48 8b 55 f0          	mov    -0x10(%rbp),%rdx
    a1eb:	48 83 c2 50          	add    $0x50,%rdx
    a1ef:	48 89 d6             	mov    %rdx,%rsi
    a1f2:	48 89 c7             	mov    %rax,%rdi
    a1f5:	e8 36 07 00 00       	call   a930 <_ZN7threads9AtomicPtrI10location_tEC1ERKS2_>
    a1fa:	90                   	nop
    a1fb:	c9                   	leave  
    a1fc:	c3                   	ret    

000000000000a1fd <_ZSt10_ConstructI12netlist_elemJRKS0_EEvPT_DpOT0_>:
    a1fd:	f3 0f 1e fa          	endbr64 
    a201:	55                   	push   %rbp
    a202:	48 89 e5             	mov    %rsp,%rbp
    a205:	53                   	push   %rbx
    a206:	48 83 ec 18          	sub    $0x18,%rsp
    a20a:	48 89 7d e8          	mov    %rdi,-0x18(%rbp)
    a20e:	48 89 75 e0          	mov    %rsi,-0x20(%rbp)
    a212:	48 8b 45 e0          	mov    -0x20(%rbp),%rax
    a216:	48 89 c7             	mov    %rax,%rdi
    a219:	e8 1d 06 00 00       	call   a83b <_ZSt7forwardIRK12netlist_elemEOT_RNSt16remove_referenceIS3_E4typeE>
    a21e:	48 89 c3             	mov    %rax,%rbx
    a221:	48 8b 45 e8          	mov    -0x18(%rbp),%rax
    a225:	48 89 c6             	mov    %rax,%rsi
    a228:	bf 58 00 00 00       	mov    $0x58,%edi
    a22d:	e8 42 93 ff ff       	call   3574 <_ZnwmPv>
    a232:	48 89 de             	mov    %rbx,%rsi
    a235:	48 89 c7             	mov    %rax,%rdi
    a238:	e8 45 ff ff ff       	call   a182 <_ZN12netlist_elemC1ERKS_>
    a23d:	90                   	nop
    a23e:	48 8b 5d f8          	mov    -0x8(%rbp),%rbx
    a242:	c9                   	leave  
    a243:	c3                   	ret    

000000000000a244 <_ZSt19__iterator_categoryIP10location_tENSt15iterator_traitsIT_E17iterator_categoryERKS3_>:
    a244:	f3 0f 1e fa          	endbr64 
    a248:	55                   	push   %rbp
    a249:	48 89 e5             	mov    %rsp,%rbp
    a24c:	48 89 7d f8          	mov    %rdi,-0x8(%rbp)
    a250:	5d                   	pop    %rbp
    a251:	c3                   	ret    

000000000000a252 <_ZSt10__fill_n_aIP10location_tmS0_ET_S2_T0_RKT1_St26random_access_iterator_tag>:
    a252:	f3 0f 1e fa          	endbr64 
    a256:	55                   	push   %rbp
    a257:	48 89 e5             	mov    %rsp,%rbp
    a25a:	48 83 ec 20          	sub    $0x20,%rsp
    a25e:	48 89 7d f8          	mov    %rdi,-0x8(%rbp)
    a262:	48 89 75 f0          	mov    %rsi,-0x10(%rbp)
    a266:	48 89 55 e8          	mov    %rdx,-0x18(%rbp)
    a26a:	48 83 7d f0 00       	cmpq   $0x0,-0x10(%rbp)
    a26f:	75 06                	jne    a277 <_ZSt10__fill_n_aIP10location_tmS0_ET_S2_T0_RKT1_St26random_access_iterator_tag+0x25>
    a271:	48 8b 45 f8          	mov    -0x8(%rbp),%rax
    a275:	eb 3a                	jmp    a2b1 <_ZSt10__fill_n_aIP10location_tmS0_ET_S2_T0_RKT1_St26random_access_iterator_tag+0x5f>
    a277:	48 8b 45 f0          	mov    -0x10(%rbp),%rax
    a27b:	48 8d 14 c5 00 00 00 	lea    0x0(,%rax,8),%rdx
    a282:	00 
    a283:	48 8b 45 f8          	mov    -0x8(%rbp),%rax
    a287:	48 8d 0c 02          	lea    (%rdx,%rax,1),%rcx
    a28b:	48 8b 55 e8          	mov    -0x18(%rbp),%rdx
    a28f:	48 8b 45 f8          	mov    -0x8(%rbp),%rax
    a293:	48 89 ce             	mov    %rcx,%rsi
    a296:	48 89 c7             	mov    %rax,%rdi
    a299:	e8 bc 06 00 00       	call   a95a <_ZSt8__fill_aIP10location_tS0_EvT_S2_RKT0_>
    a29e:	48 8b 45 f0          	mov    -0x10(%rbp),%rax
    a2a2:	48 8d 14 c5 00 00 00 	lea    0x0(,%rax,8),%rdx
    a2a9:	00 
    a2aa:	48 8b 45 f8          	mov    -0x8(%rbp),%rax
    a2ae:	48 01 d0             	add    %rdx,%rax
    a2b1:	c9                   	leave  
    a2b2:	c3                   	ret    

000000000000a2b3 <_ZN9__gnu_cxx14__alloc_traitsISaI10location_tES1_E17_S_select_on_copyERKS2_>:
    a2b3:	f3 0f 1e fa          	endbr64 
    a2b7:	55                   	push   %rbp
    a2b8:	48 89 e5             	mov    %rsp,%rbp
    a2bb:	48 83 ec 20          	sub    $0x20,%rsp
    a2bf:	48 89 7d e8          	mov    %rdi,-0x18(%rbp)
    a2c3:	48 89 75 e0          	mov    %rsi,-0x20(%rbp)
    a2c7:	64 48 8b 04 25 28 00 	mov    %fs:0x28,%rax
    a2ce:	00 00 
    a2d0:	48 89 45 f8          	mov    %rax,-0x8(%rbp)
    a2d4:	31 c0                	xor    %eax,%eax
    a2d6:	48 8b 45 e8          	mov    -0x18(%rbp),%rax
    a2da:	48 8b 55 e0          	mov    -0x20(%rbp),%rdx
    a2de:	48 89 d6             	mov    %rdx,%rsi
    a2e1:	48 89 c7             	mov    %rax,%rdi
    a2e4:	e8 a3 06 00 00       	call   a98c <_ZNSt16allocator_traitsISaI10location_tEE37select_on_container_copy_constructionERKS1_>
    a2e9:	48 8b 45 f8          	mov    -0x8(%rbp),%rax
    a2ed:	64 48 2b 04 25 28 00 	sub    %fs:0x28,%rax
    a2f4:	00 00 
    a2f6:	74 05                	je     a2fd <_ZN9__gnu_cxx14__alloc_traitsISaI10location_tES1_E17_S_select_on_copyERKS2_+0x4a>
    a2f8:	e8 03 83 ff ff       	call   2600 <__stack_chk_fail@plt>
    a2fd:	48 8b 45 e8          	mov    -0x18(%rbp),%rax
    a301:	c9                   	leave  
    a302:	c3                   	ret    
    a303:	90                   	nop

000000000000a304 <_ZNKSt12_Vector_baseI10location_tSaIS0_EE19_M_get_Tp_allocatorEv>:
    a304:	f3 0f 1e fa          	endbr64 
    a308:	55                   	push   %rbp
    a309:	48 89 e5             	mov    %rsp,%rbp
    a30c:	48 89 7d f8          	mov    %rdi,-0x8(%rbp)
    a310:	48 8b 45 f8          	mov    -0x8(%rbp),%rax
    a314:	5d                   	pop    %rbp
    a315:	c3                   	ret    

000000000000a316 <_ZNKSt6vectorI10location_tSaIS0_EE5beginEv>:
    a316:	f3 0f 1e fa          	endbr64 
    a31a:	55                   	push   %rbp
    a31b:	48 89 e5             	mov    %rsp,%rbp
    a31e:	48 83 ec 20          	sub    $0x20,%rsp
    a322:	48 89 7d e8          	mov    %rdi,-0x18(%rbp)
    a326:	64 48 8b 04 25 28 00 	mov    %fs:0x28,%rax
    a32d:	00 00 
    a32f:	48 89 45 f8          	mov    %rax,-0x8(%rbp)
    a333:	31 c0                	xor    %eax,%eax
    a335:	48 8b 55 e8          	mov    -0x18(%rbp),%rdx
    a339:	48 8d 45 f0          	lea    -0x10(%rbp),%rax
    a33d:	48 89 d6             	mov    %rdx,%rsi
    a340:	48 89 c7             	mov    %rax,%rdi
    a343:	e8 72 06 00 00       	call   a9ba <_ZN9__gnu_cxx17__normal_iteratorIPK10location_tSt6vectorIS1_SaIS1_EEEC1ERKS3_>
    a348:	48 8b 45 f0          	mov    -0x10(%rbp),%rax
    a34c:	48 8b 55 f8          	mov    -0x8(%rbp),%rdx
    a350:	64 48 2b 14 25 28 00 	sub    %fs:0x28,%rdx
    a357:	00 00 
    a359:	74 05                	je     a360 <_ZNKSt6vectorI10location_tSaIS0_EE5beginEv+0x4a>
    a35b:	e8 a0 82 ff ff       	call   2600 <__stack_chk_fail@plt>
    a360:	c9                   	leave  
    a361:	c3                   	ret    

000000000000a362 <_ZNKSt6vectorI10location_tSaIS0_EE3endEv>:
    a362:	f3 0f 1e fa          	endbr64 
    a366:	55                   	push   %rbp
    a367:	48 89 e5             	mov    %rsp,%rbp
    a36a:	48 83 ec 20          	sub    $0x20,%rsp
    a36e:	48 89 7d e8          	mov    %rdi,-0x18(%rbp)
    a372:	64 48 8b 04 25 28 00 	mov    %fs:0x28,%rax
    a379:	00 00 
    a37b:	48 89 45 f8          	mov    %rax,-0x8(%rbp)
    a37f:	31 c0                	xor    %eax,%eax
    a381:	48 8b 45 e8          	mov    -0x18(%rbp),%rax
    a385:	48 8d 50 08          	lea    0x8(%rax),%rdx
    a389:	48 8d 45 f0          	lea    -0x10(%rbp),%rax
    a38d:	48 89 d6             	mov    %rdx,%rsi
    a390:	48 89 c7             	mov    %rax,%rdi
    a393:	e8 22 06 00 00       	call   a9ba <_ZN9__gnu_cxx17__normal_iteratorIPK10location_tSt6vectorIS1_SaIS1_EEEC1ERKS3_>
    a398:	48 8b 45 f0          	mov    -0x10(%rbp),%rax
    a39c:	48 8b 55 f8          	mov    -0x8(%rbp),%rdx
    a3a0:	64 48 2b 14 25 28 00 	sub    %fs:0x28,%rdx
    a3a7:	00 00 
    a3a9:	74 05                	je     a3b0 <_ZNKSt6vectorI10location_tSaIS0_EE3endEv+0x4e>
    a3ab:	e8 50 82 ff ff       	call   2600 <__stack_chk_fail@plt>
    a3b0:	c9                   	leave  
    a3b1:	c3                   	ret    

000000000000a3b2 <_ZSt22__uninitialized_copy_aIN9__gnu_cxx17__normal_iteratorIPK10location_tSt6vectorIS2_SaIS2_EEEEPS2_S2_ET0_T_SB_SA_RSaIT1_E>:
    a3b2:	f3 0f 1e fa          	endbr64 
    a3b6:	55                   	push   %rbp
    a3b7:	48 89 e5             	mov    %rsp,%rbp
    a3ba:	48 83 ec 20          	sub    $0x20,%rsp
    a3be:	48 89 7d f8          	mov    %rdi,-0x8(%rbp)
    a3c2:	48 89 75 f0          	mov    %rsi,-0x10(%rbp)
    a3c6:	48 89 55 e8          	mov    %rdx,-0x18(%rbp)
    a3ca:	48 89 4d e0          	mov    %rcx,-0x20(%rbp)
    a3ce:	48 8b 55 e8          	mov    -0x18(%rbp),%rdx
    a3d2:	48 8b 4d f0          	mov    -0x10(%rbp),%rcx
    a3d6:	48 8b 45 f8          	mov    -0x8(%rbp),%rax
    a3da:	48 89 ce             	mov    %rcx,%rsi
    a3dd:	48 89 c7             	mov    %rax,%rdi
    a3e0:	e8 f6 05 00 00       	call   a9db <_ZSt18uninitialized_copyIN9__gnu_cxx17__normal_iteratorIPK10location_tSt6vectorIS2_SaIS2_EEEEPS2_ET0_T_SB_SA_>
    a3e5:	c9                   	leave  
    a3e6:	c3                   	ret    

000000000000a3e7 <_ZStneIPSt6vectorI10location_tSaIS1_EEEbRKSt13move_iteratorIT_ES9_>:
    a3e7:	f3 0f 1e fa          	endbr64 
    a3eb:	55                   	push   %rbp
    a3ec:	48 89 e5             	mov    %rsp,%rbp
    a3ef:	48 83 ec 10          	sub    $0x10,%rsp
    a3f3:	48 89 7d f8          	mov    %rdi,-0x8(%rbp)
    a3f7:	48 89 75 f0          	mov    %rsi,-0x10(%rbp)
    a3fb:	48 8b 55 f0          	mov    -0x10(%rbp),%rdx
    a3ff:	48 8b 45 f8          	mov    -0x8(%rbp),%rax
    a403:	48 89 d6             	mov    %rdx,%rsi
    a406:	48 89 c7             	mov    %rax,%rdi
    a409:	e8 17 06 00 00       	call   aa25 <_ZSteqIPSt6vectorI10location_tSaIS1_EEEbRKSt13move_iteratorIT_ES9_>
    a40e:	83 f0 01             	xor    $0x1,%eax
    a411:	c9                   	leave  
    a412:	c3                   	ret    
    a413:	90                   	nop

000000000000a414 <_ZNKSt13move_iteratorIPSt6vectorI10location_tSaIS1_EEEdeEv>:
    a414:	f3 0f 1e fa          	endbr64 
    a418:	55                   	push   %rbp
    a419:	48 89 e5             	mov    %rsp,%rbp
    a41c:	48 89 7d f8          	mov    %rdi,-0x8(%rbp)
    a420:	48 8b 45 f8          	mov    -0x8(%rbp),%rax
    a424:	48 8b 00             	mov    (%rax),%rax
    a427:	5d                   	pop    %rbp
    a428:	c3                   	ret    
    a429:	90                   	nop

000000000000a42a <_ZNSt12_Vector_baseI10location_tSaIS0_EEC1EOS2_>:
    a42a:	f3 0f 1e fa          	endbr64 
    a42e:	55                   	push   %rbp
    a42f:	48 89 e5             	mov    %rsp,%rbp
    a432:	48 83 ec 10          	sub    $0x10,%rsp
    a436:	48 89 7d f8          	mov    %rdi,-0x8(%rbp)
    a43a:	48 89 75 f0          	mov    %rsi,-0x10(%rbp)
    a43e:	48 8b 45 f8          	mov    -0x8(%rbp),%rax
    a442:	48 8b 55 f0          	mov    -0x10(%rbp),%rdx
    a446:	48 89 d6             	mov    %rdx,%rsi
    a449:	48 89 c7             	mov    %rax,%rdi
    a44c:	e8 23 06 00 00       	call   aa74 <_ZNSt12_Vector_baseI10location_tSaIS0_EE12_Vector_implC1EOS3_>
    a451:	90                   	nop
    a452:	c9                   	leave  
    a453:	c3                   	ret    

000000000000a454 <_ZNSt6vectorI10location_tSaIS0_EEC1EOS2_>:
    a454:	f3 0f 1e fa          	endbr64 
    a458:	55                   	push   %rbp
    a459:	48 89 e5             	mov    %rsp,%rbp
    a45c:	48 83 ec 10          	sub    $0x10,%rsp
    a460:	48 89 7d f8          	mov    %rdi,-0x8(%rbp)
    a464:	48 89 75 f0          	mov    %rsi,-0x10(%rbp)
    a468:	48 8b 45 f8          	mov    -0x8(%rbp),%rax
    a46c:	48 8b 55 f0          	mov    -0x10(%rbp),%rdx
    a470:	48 89 d6             	mov    %rdx,%rsi
    a473:	48 89 c7             	mov    %rax,%rdi
    a476:	e8 af ff ff ff       	call   a42a <_ZNSt12_Vector_baseI10location_tSaIS0_EEC1EOS2_>
    a47b:	90                   	nop
    a47c:	c9                   	leave  
    a47d:	c3                   	ret    

000000000000a47e <_ZSt10_ConstructISt6vectorI10location_tSaIS1_EEJS3_EEvPT_DpOT0_>:
    a47e:	f3 0f 1e fa          	endbr64 
    a482:	55                   	push   %rbp
    a483:	48 89 e5             	mov    %rsp,%rbp
    a486:	53                   	push   %rbx
    a487:	48 83 ec 18          	sub    $0x18,%rsp
    a48b:	48 89 7d e8          	mov    %rdi,-0x18(%rbp)
    a48f:	48 89 75 e0          	mov    %rsi,-0x20(%rbp)
    a493:	48 8b 45 e0          	mov    -0x20(%rbp),%rax
    a497:	48 89 c7             	mov    %rax,%rdi
    a49a:	e8 c2 05 00 00       	call   aa61 <_ZSt7forwardISt6vectorI10location_tSaIS1_EEEOT_RNSt16remove_referenceIS4_E4typeE>
    a49f:	48 89 c3             	mov    %rax,%rbx
    a4a2:	48 8b 45 e8          	mov    -0x18(%rbp),%rax
    a4a6:	48 89 c6             	mov    %rax,%rsi
    a4a9:	bf 18 00 00 00       	mov    $0x18,%edi
    a4ae:	e8 c1 90 ff ff       	call   3574 <_ZnwmPv>
    a4b3:	48 89 de             	mov    %rbx,%rsi
    a4b6:	48 89 c7             	mov    %rax,%rdi
    a4b9:	e8 96 ff ff ff       	call   a454 <_ZNSt6vectorI10location_tSaIS0_EEC1EOS2_>
    a4be:	90                   	nop
    a4bf:	48 8b 5d f8          	mov    -0x8(%rbp),%rbx
    a4c3:	c9                   	leave  
    a4c4:	c3                   	ret    

000000000000a4c5 <_ZNSt20__copy_move_backwardILb1ELb0ESt26random_access_iterator_tagE13__copy_move_bIPSt6vectorI10location_tSaIS4_EES7_EET0_T_S9_S8_>:
    a4c5:	f3 0f 1e fa          	endbr64 
    a4c9:	55                   	push   %rbp
    a4ca:	48 89 e5             	mov    %rsp,%rbp
    a4cd:	48 83 ec 30          	sub    $0x30,%rsp
    a4d1:	48 89 7d e8          	mov    %rdi,-0x18(%rbp)
    a4d5:	48 89 75 e0          	mov    %rsi,-0x20(%rbp)
    a4d9:	48 89 55 d8          	mov    %rdx,-0x28(%rbp)
    a4dd:	48 8b 45 e0          	mov    -0x20(%rbp),%rax
    a4e1:	48 2b 45 e8          	sub    -0x18(%rbp),%rax
    a4e5:	48 c1 f8 03          	sar    $0x3,%rax
    a4e9:	48 89 c2             	mov    %rax,%rdx
    a4ec:	48 b8 ab aa aa aa aa 	movabs $0xaaaaaaaaaaaaaaab,%rax
    a4f3:	aa aa aa 
    a4f6:	48 0f af c2          	imul   %rdx,%rax
    a4fa:	48 89 45 f8          	mov    %rax,-0x8(%rbp)
    a4fe:	eb 2d                	jmp    a52d <_ZNSt20__copy_move_backwardILb1ELb0ESt26random_access_iterator_tagE13__copy_move_bIPSt6vectorI10location_tSaIS4_EES7_EET0_T_S9_S8_+0x68>
    a500:	48 83 6d e0 18       	subq   $0x18,-0x20(%rbp)
    a505:	48 8b 45 e0          	mov    -0x20(%rbp),%rax
    a509:	48 89 c7             	mov    %rax,%rdi
    a50c:	e8 b8 05 00 00       	call   aac9 <_ZSt4moveIRSt6vectorI10location_tSaIS1_EEEONSt16remove_referenceIT_E4typeEOS6_>
    a511:	48 89 c2             	mov    %rax,%rdx
    a514:	48 83 6d d8 18       	subq   $0x18,-0x28(%rbp)
    a519:	48 8b 45 d8          	mov    -0x28(%rbp),%rax
    a51d:	48 89 d6             	mov    %rdx,%rsi
    a520:	48 89 c7             	mov    %rax,%rdi
    a523:	e8 b4 05 00 00       	call   aadc <_ZNSt6vectorI10location_tSaIS0_EEaSEOS2_>
    a528:	48 83 6d f8 01       	subq   $0x1,-0x8(%rbp)
    a52d:	48 83 7d f8 00       	cmpq   $0x0,-0x8(%rbp)
    a532:	7f cc                	jg     a500 <_ZNSt20__copy_move_backwardILb1ELb0ESt26random_access_iterator_tagE13__copy_move_bIPSt6vectorI10location_tSaIS4_EES7_EET0_T_S9_S8_+0x3b>
    a534:	48 8b 45 d8          	mov    -0x28(%rbp),%rax
    a538:	c9                   	leave  
    a539:	c3                   	ret    

000000000000a53a <_ZStneRKSaI10location_tES2_>:
    a53a:	f3 0f 1e fa          	endbr64 
    a53e:	55                   	push   %rbp
    a53f:	48 89 e5             	mov    %rsp,%rbp
    a542:	48 89 7d f8          	mov    %rdi,-0x8(%rbp)
    a546:	48 89 75 f0          	mov    %rsi,-0x10(%rbp)
    a54a:	b8 00 00 00 00       	mov    $0x0,%eax
    a54f:	5d                   	pop    %rbp
    a550:	c3                   	ret    
    a551:	90                   	nop

000000000000a552 <_ZNSt6vectorI10location_tSaIS0_EE5clearEv>:
    a552:	f3 0f 1e fa          	endbr64 
    a556:	55                   	push   %rbp
    a557:	48 89 e5             	mov    %rsp,%rbp
    a55a:	48 83 ec 10          	sub    $0x10,%rsp
    a55e:	48 89 7d f8          	mov    %rdi,-0x8(%rbp)
    a562:	48 8b 45 f8          	mov    -0x8(%rbp),%rax
    a566:	48 8b 10             	mov    (%rax),%rdx
    a569:	48 8b 45 f8          	mov    -0x8(%rbp),%rax
    a56d:	48 89 d6             	mov    %rdx,%rsi
    a570:	48 89 c7             	mov    %rax,%rdi
    a573:	e8 a0 05 00 00       	call   ab18 <_ZNSt6vectorI10location_tSaIS0_EE15_M_erase_at_endEPS0_>
    a578:	90                   	nop
    a579:	c9                   	leave  
    a57a:	c3                   	ret    

000000000000a57b <_ZSt15__alloc_on_copyISaI10location_tEEvRT_RKS2_>:
    a57b:	f3 0f 1e fa          	endbr64 
    a57f:	55                   	push   %rbp
    a580:	48 89 e5             	mov    %rsp,%rbp
    a583:	48 89 7d f8          	mov    %rdi,-0x8(%rbp)
    a587:	48 89 75 f0          	mov    %rsi,-0x10(%rbp)
    a58b:	90                   	nop
    a58c:	5d                   	pop    %rbp
    a58d:	c3                   	ret    

000000000000a58e <_ZNKSt6vectorI10location_tSaIS0_EE8capacityEv>:
    a58e:	f3 0f 1e fa          	endbr64 
    a592:	55                   	push   %rbp
    a593:	48 89 e5             	mov    %rsp,%rbp
    a596:	48 89 7d f8          	mov    %rdi,-0x8(%rbp)
    a59a:	48 8b 45 f8          	mov    -0x8(%rbp),%rax
    a59e:	48 8b 50 10          	mov    0x10(%rax),%rdx
    a5a2:	48 8b 45 f8          	mov    -0x8(%rbp),%rax
    a5a6:	48 8b 08             	mov    (%rax),%rcx
    a5a9:	48 89 d0             	mov    %rdx,%rax
    a5ac:	48 29 c8             	sub    %rcx,%rax
    a5af:	48 c1 f8 03          	sar    $0x3,%rax
    a5b3:	5d                   	pop    %rbp
    a5b4:	c3                   	ret    
    a5b5:	90                   	nop

000000000000a5b6 <_ZNSt6vectorI10location_tSaIS0_EE20_M_allocate_and_copyIN9__gnu_cxx17__normal_iteratorIPKS0_S2_EEEEPS0_mT_SA_>:
    a5b6:	f3 0f 1e fa          	endbr64 
    a5ba:	55                   	push   %rbp
    a5bb:	48 89 e5             	mov    %rsp,%rbp
    a5be:	48 83 ec 30          	sub    $0x30,%rsp
    a5c2:	48 89 7d e8          	mov    %rdi,-0x18(%rbp)
    a5c6:	48 89 75 e0          	mov    %rsi,-0x20(%rbp)
    a5ca:	48 89 55 d8          	mov    %rdx,-0x28(%rbp)
    a5ce:	48 89 4d d0          	mov    %rcx,-0x30(%rbp)
    a5d2:	48 8b 45 e8          	mov    -0x18(%rbp),%rax
    a5d6:	48 8b 55 e0          	mov    -0x20(%rbp),%rdx
    a5da:	48 89 d6             	mov    %rdx,%rsi
    a5dd:	48 89 c7             	mov    %rax,%rdi
    a5e0:	e8 67 e7 ff ff       	call   8d4c <_ZNSt12_Vector_baseI10location_tSaIS0_EE11_M_allocateEm>
    a5e5:	48 89 45 f8          	mov    %rax,-0x8(%rbp)
    a5e9:	48 8b 45 e8          	mov    -0x18(%rbp),%rax
    a5ed:	48 89 c7             	mov    %rax,%rdi
    a5f0:	e8 87 a5 ff ff       	call   4b7c <_ZNSt12_Vector_baseI10location_tSaIS0_EE19_M_get_Tp_allocatorEv>
    a5f5:	48 89 c1             	mov    %rax,%rcx
    a5f8:	48 8b 55 f8          	mov    -0x8(%rbp),%rdx
    a5fc:	48 8b 75 d0          	mov    -0x30(%rbp),%rsi
    a600:	48 8b 45 d8          	mov    -0x28(%rbp),%rax
    a604:	48 89 c7             	mov    %rax,%rdi
    a607:	e8 a6 fd ff ff       	call   a3b2 <_ZSt22__uninitialized_copy_aIN9__gnu_cxx17__normal_iteratorIPK10location_tSt6vectorIS2_SaIS2_EEEEPS2_S2_ET0_T_SB_SA_RSaIT1_E>
    a60c:	48 8b 45 f8          	mov    -0x8(%rbp),%rax
    a610:	c9                   	leave  
    a611:	c3                   	ret    

000000000000a612 <_ZNSt6vectorI10location_tSaIS0_EE5beginEv>:
    a612:	f3 0f 1e fa          	endbr64 
    a616:	55                   	push   %rbp
    a617:	48 89 e5             	mov    %rsp,%rbp
    a61a:	48 83 ec 20          	sub    $0x20,%rsp
    a61e:	48 89 7d e8          	mov    %rdi,-0x18(%rbp)
    a622:	64 48 8b 04 25 28 00 	mov    %fs:0x28,%rax
    a629:	00 00 
    a62b:	48 89 45 f8          	mov    %rax,-0x8(%rbp)
    a62f:	31 c0                	xor    %eax,%eax
    a631:	48 8b 55 e8          	mov    -0x18(%rbp),%rdx
    a635:	48 8d 45 f0          	lea    -0x10(%rbp),%rax
    a639:	48 89 d6             	mov    %rdx,%rsi
    a63c:	48 89 c7             	mov    %rax,%rdi
    a63f:	e8 38 05 00 00       	call   ab7c <_ZN9__gnu_cxx17__normal_iteratorIP10location_tSt6vectorIS1_SaIS1_EEEC1ERKS2_>
    a644:	48 8b 45 f0          	mov    -0x10(%rbp),%rax
    a648:	48 8b 55 f8          	mov    -0x8(%rbp),%rdx
    a64c:	64 48 2b 14 25 28 00 	sub    %fs:0x28,%rdx
    a653:	00 00 
    a655:	74 05                	je     a65c <_ZNSt6vectorI10location_tSaIS0_EE5beginEv+0x4a>
    a657:	e8 a4 7f ff ff       	call   2600 <__stack_chk_fail@plt>
    a65c:	c9                   	leave  
    a65d:	c3                   	ret    

000000000000a65e <_ZSt4copyIN9__gnu_cxx17__normal_iteratorIPK10location_tSt6vectorIS2_SaIS2_EEEENS1_IPS2_S7_EEET0_T_SC_SB_>:
    a65e:	f3 0f 1e fa          	endbr64 
    a662:	55                   	push   %rbp
    a663:	48 89 e5             	mov    %rsp,%rbp
    a666:	53                   	push   %rbx
    a667:	48 83 ec 28          	sub    $0x28,%rsp
    a66b:	48 89 7d e8          	mov    %rdi,-0x18(%rbp)
    a66f:	48 89 75 e0          	mov    %rsi,-0x20(%rbp)
    a673:	48 89 55 d8          	mov    %rdx,-0x28(%rbp)
    a677:	48 8b 45 e0          	mov    -0x20(%rbp),%rax
    a67b:	48 89 c7             	mov    %rax,%rdi
    a67e:	e8 1a 05 00 00       	call   ab9d <_ZSt12__miter_baseIN9__gnu_cxx17__normal_iteratorIPK10location_tSt6vectorIS2_SaIS2_EEEEET_S9_>
    a683:	48 89 c3             	mov    %rax,%rbx
    a686:	48 8b 45 e8          	mov    -0x18(%rbp),%rax
    a68a:	48 89 c7             	mov    %rax,%rdi
    a68d:	e8 0b 05 00 00       	call   ab9d <_ZSt12__miter_baseIN9__gnu_cxx17__normal_iteratorIPK10location_tSt6vectorIS2_SaIS2_EEEEET_S9_>
    a692:	48 89 c1             	mov    %rax,%rcx
    a695:	48 8b 45 d8          	mov    -0x28(%rbp),%rax
    a699:	48 89 c2             	mov    %rax,%rdx
    a69c:	48 89 de             	mov    %rbx,%rsi
    a69f:	48 89 cf             	mov    %rcx,%rdi
    a6a2:	e8 08 05 00 00       	call   abaf <_ZSt13__copy_move_aILb0EN9__gnu_cxx17__normal_iteratorIPK10location_tSt6vectorIS2_SaIS2_EEEENS1_IPS2_S7_EEET1_T0_SC_SB_>
    a6a7:	48 8b 5d f8          	mov    -0x8(%rbp),%rbx
    a6ab:	c9                   	leave  
    a6ac:	c3                   	ret    
    a6ad:	90                   	nop

000000000000a6ae <_ZNSt6vectorI10location_tSaIS0_EE3endEv>:
    a6ae:	f3 0f 1e fa          	endbr64 
    a6b2:	55                   	push   %rbp
    a6b3:	48 89 e5             	mov    %rsp,%rbp
    a6b6:	48 83 ec 20          	sub    $0x20,%rsp
    a6ba:	48 89 7d e8          	mov    %rdi,-0x18(%rbp)
    a6be:	64 48 8b 04 25 28 00 	mov    %fs:0x28,%rax
    a6c5:	00 00 
    a6c7:	48 89 45 f8          	mov    %rax,-0x8(%rbp)
    a6cb:	31 c0                	xor    %eax,%eax
    a6cd:	48 8b 45 e8          	mov    -0x18(%rbp),%rax
    a6d1:	48 8d 50 08          	lea    0x8(%rax),%rdx
    a6d5:	48 8d 45 f0          	lea    -0x10(%rbp),%rax
    a6d9:	48 89 d6             	mov    %rdx,%rsi
    a6dc:	48 89 c7             	mov    %rax,%rdi
    a6df:	e8 98 04 00 00       	call   ab7c <_ZN9__gnu_cxx17__normal_iteratorIP10location_tSt6vectorIS1_SaIS1_EEEC1ERKS2_>
    a6e4:	48 8b 45 f0          	mov    -0x10(%rbp),%rax
    a6e8:	48 8b 55 f8          	mov    -0x8(%rbp),%rdx
    a6ec:	64 48 2b 14 25 28 00 	sub    %fs:0x28,%rdx
    a6f3:	00 00 
    a6f5:	74 05                	je     a6fc <_ZNSt6vectorI10location_tSaIS0_EE3endEv+0x4e>
    a6f7:	e8 04 7f ff ff       	call   2600 <__stack_chk_fail@plt>
    a6fc:	c9                   	leave  
    a6fd:	c3                   	ret    

000000000000a6fe <_ZSt8_DestroyIN9__gnu_cxx17__normal_iteratorIP10location_tSt6vectorIS2_SaIS2_EEEES2_EvT_S8_RSaIT0_E>:
    a6fe:	f3 0f 1e fa          	endbr64 
    a702:	55                   	push   %rbp
    a703:	48 89 e5             	mov    %rsp,%rbp
    a706:	48 83 ec 20          	sub    $0x20,%rsp
    a70a:	48 89 7d f8          	mov    %rdi,-0x8(%rbp)
    a70e:	48 89 75 f0          	mov    %rsi,-0x10(%rbp)
    a712:	48 89 55 e8          	mov    %rdx,-0x18(%rbp)
    a716:	48 8b 55 f0          	mov    -0x10(%rbp),%rdx
    a71a:	48 8b 45 f8          	mov    -0x8(%rbp),%rax
    a71e:	48 89 d6             	mov    %rdx,%rsi
    a721:	48 89 c7             	mov    %rax,%rdi
    a724:	e8 f4 04 00 00       	call   ac1d <_ZSt8_DestroyIN9__gnu_cxx17__normal_iteratorIP10location_tSt6vectorIS2_SaIS2_EEEEEvT_S8_>
    a729:	90                   	nop
    a72a:	c9                   	leave  
    a72b:	c3                   	ret    

000000000000a72c <_ZSt4copyIP10location_tS1_ET0_T_S3_S2_>:
    a72c:	f3 0f 1e fa          	endbr64 
    a730:	55                   	push   %rbp
    a731:	48 89 e5             	mov    %rsp,%rbp
    a734:	53                   	push   %rbx
    a735:	48 83 ec 28          	sub    $0x28,%rsp
    a739:	48 89 7d e8          	mov    %rdi,-0x18(%rbp)
    a73d:	48 89 75 e0          	mov    %rsi,-0x20(%rbp)
    a741:	48 89 55 d8          	mov    %rdx,-0x28(%rbp)
    a745:	48 8b 45 e0          	mov    -0x20(%rbp),%rax
    a749:	48 89 c7             	mov    %rax,%rdi
    a74c:	e8 f6 04 00 00       	call   ac47 <_ZSt12__miter_baseIP10location_tET_S2_>
    a751:	48 89 c3             	mov    %rax,%rbx
    a754:	48 8b 45 e8          	mov    -0x18(%rbp),%rax
    a758:	48 89 c7             	mov    %rax,%rdi
    a75b:	e8 e7 04 00 00       	call   ac47 <_ZSt12__miter_baseIP10location_tET_S2_>
    a760:	48 89 c1             	mov    %rax,%rcx
    a763:	48 8b 45 d8          	mov    -0x28(%rbp),%rax
    a767:	48 89 c2             	mov    %rax,%rdx
    a76a:	48 89 de             	mov    %rbx,%rsi
    a76d:	48 89 cf             	mov    %rcx,%rdi
    a770:	e8 e4 04 00 00       	call   ac59 <_ZSt13__copy_move_aILb0EP10location_tS1_ET1_T0_S3_S2_>
    a775:	48 8b 5d f8          	mov    -0x8(%rbp),%rbx
    a779:	c9                   	leave  
    a77a:	c3                   	ret    

000000000000a77b <_ZSt22__uninitialized_copy_aIP10location_tS1_S0_ET0_T_S3_S2_RSaIT1_E>:
    a77b:	f3 0f 1e fa          	endbr64 
    a77f:	55                   	push   %rbp
    a780:	48 89 e5             	mov    %rsp,%rbp
    a783:	48 83 ec 20          	sub    $0x20,%rsp
    a787:	48 89 7d f8          	mov    %rdi,-0x8(%rbp)
    a78b:	48 89 75 f0          	mov    %rsi,-0x10(%rbp)
    a78f:	48 89 55 e8          	mov    %rdx,-0x18(%rbp)
    a793:	48 89 4d e0          	mov    %rcx,-0x20(%rbp)
    a797:	48 8b 55 e8          	mov    -0x18(%rbp),%rdx
    a79b:	48 8b 4d f0          	mov    -0x10(%rbp),%rcx
    a79f:	48 8b 45 f8          	mov    -0x8(%rbp),%rax
    a7a3:	48 89 ce             	mov    %rcx,%rsi
    a7a6:	48 89 c7             	mov    %rax,%rdi
    a7a9:	e8 19 05 00 00       	call   acc7 <_ZSt18uninitialized_copyIP10location_tS1_ET0_T_S3_S2_>
    a7ae:	c9                   	leave  
    a7af:	c3                   	ret    

000000000000a7b0 <_ZNK9__gnu_cxx13new_allocatorISt6vectorI10location_tSaIS2_EEE8max_sizeEv>:
    a7b0:	f3 0f 1e fa          	endbr64 
    a7b4:	55                   	push   %rbp
    a7b5:	48 89 e5             	mov    %rsp,%rbp
    a7b8:	48 83 ec 10          	sub    $0x10,%rsp
    a7bc:	48 89 7d f8          	mov    %rdi,-0x8(%rbp)
    a7c0:	48 8b 45 f8          	mov    -0x8(%rbp),%rax
    a7c4:	48 89 c7             	mov    %rax,%rdi
    a7c7:	e8 96 ee ff ff       	call   9662 <_ZNK9__gnu_cxx13new_allocatorISt6vectorI10location_tSaIS2_EEE11_M_max_sizeEv>
    a7cc:	c9                   	leave  
    a7cd:	c3                   	ret    

000000000000a7ce <_ZNK9__gnu_cxx13new_allocatorIP12netlist_elemE8max_sizeEv>:
    a7ce:	f3 0f 1e fa          	endbr64 
    a7d2:	55                   	push   %rbp
    a7d3:	48 89 e5             	mov    %rsp,%rbp
    a7d6:	48 83 ec 10          	sub    $0x10,%rsp
    a7da:	48 89 7d f8          	mov    %rdi,-0x8(%rbp)
    a7de:	48 8b 45 f8          	mov    -0x8(%rbp),%rax
    a7e2:	48 89 c7             	mov    %rax,%rdi
    a7e5:	e8 7a ef ff ff       	call   9764 <_ZNK9__gnu_cxx13new_allocatorIP12netlist_elemE11_M_max_sizeEv>
    a7ea:	c9                   	leave  
    a7eb:	c3                   	ret    

000000000000a7ec <_ZNSt4pairIKNSt7__cxx1112basic_stringIcSt11char_traitsIcESaIcEEEP12netlist_elemEC1IJRS6_EJLm0EEJEJEEERSt5tupleIJDpT_EERSC_IJDpT1_EESt12_Index_tupleIJXspT0_EEESL_IJXspT2_EEE>:
    a7ec:	f3 0f 1e fa          	endbr64 
    a7f0:	55                   	push   %rbp
    a7f1:	48 89 e5             	mov    %rsp,%rbp
    a7f4:	53                   	push   %rbx
    a7f5:	48 83 ec 28          	sub    $0x28,%rsp
    a7f9:	48 89 7d e8          	mov    %rdi,-0x18(%rbp)
    a7fd:	48 89 75 e0          	mov    %rsi,-0x20(%rbp)
    a801:	48 89 55 d8          	mov    %rdx,-0x28(%rbp)
    a805:	48 8b 5d e8          	mov    -0x18(%rbp),%rbx
    a809:	48 8b 45 e0          	mov    -0x20(%rbp),%rax
    a80d:	48 89 c7             	mov    %rax,%rdi
    a810:	e8 e7 04 00 00       	call   acfc <_ZSt3getILm0EJRKNSt7__cxx1112basic_stringIcSt11char_traitsIcESaIcEEEEERNSt13tuple_elementIXT_ESt5tupleIJDpT0_EEE4typeERSC_>
    a815:	48 89 c7             	mov    %rax,%rdi
    a818:	e8 fd 04 00 00       	call   ad1a <_ZSt7forwardIRKNSt7__cxx1112basic_stringIcSt11char_traitsIcESaIcEEEEOT_RNSt16remove_referenceIS8_E4typeE>
    a81d:	48 89 c6             	mov    %rax,%rsi
    a820:	48 89 df             	mov    %rbx,%rdi
    a823:	e8 38 7c ff ff       	call   2460 <_ZNSt7__cxx1112basic_stringIcSt11char_traitsIcESaIcEEC1ERKS4_@plt>
    a828:	48 8b 45 e8          	mov    -0x18(%rbp),%rax
    a82c:	48 c7 40 20 00 00 00 	movq   $0x0,0x20(%rax)
    a833:	00 
    a834:	90                   	nop
    a835:	48 8b 5d f8          	mov    -0x8(%rbp),%rbx
    a839:	c9                   	leave  
    a83a:	c3                   	ret    

000000000000a83b <_ZSt7forwardIRK12netlist_elemEOT_RNSt16remove_referenceIS3_E4typeE>:
    a83b:	f3 0f 1e fa          	endbr64 
    a83f:	55                   	push   %rbp
    a840:	48 89 e5             	mov    %rsp,%rbp
    a843:	48 89 7d f8          	mov    %rdi,-0x8(%rbp)
    a847:	48 8b 45 f8          	mov    -0x8(%rbp),%rax
    a84b:	5d                   	pop    %rbp
    a84c:	c3                   	ret    
    a84d:	90                   	nop

000000000000a84e <_ZNSt6vectorIP12netlist_elemSaIS1_EEC1ERKS3_>:
    a84e:	f3 0f 1e fa          	endbr64 
    a852:	55                   	push   %rbp
    a853:	48 89 e5             	mov    %rsp,%rbp
    a856:	41 55                	push   %r13
    a858:	41 54                	push   %r12
    a85a:	53                   	push   %rbx
    a85b:	48 83 ec 28          	sub    $0x28,%rsp
    a85f:	48 89 7d c8          	mov    %rdi,-0x38(%rbp)
    a863:	48 89 75 c0          	mov    %rsi,-0x40(%rbp)
    a867:	64 48 8b 04 25 28 00 	mov    %fs:0x28,%rax
    a86e:	00 00 
    a870:	48 89 45 d8          	mov    %rax,-0x28(%rbp)
    a874:	31 c0                	xor    %eax,%eax
    a876:	48 8b 5d c8          	mov    -0x38(%rbp),%rbx
    a87a:	48 8b 45 c0          	mov    -0x40(%rbp),%rax
    a87e:	48 89 c7             	mov    %rax,%rdi
    a881:	e8 cc ee ff ff       	call   9752 <_ZNKSt12_Vector_baseIP12netlist_elemSaIS1_EE19_M_get_Tp_allocatorEv>
    a886:	48 89 c2             	mov    %rax,%rdx
    a889:	48 8d 45 d7          	lea    -0x29(%rbp),%rax
    a88d:	48 89 d6             	mov    %rdx,%rsi
    a890:	48 89 c7             	mov    %rax,%rdi
    a893:	e8 94 04 00 00       	call   ad2c <_ZN9__gnu_cxx14__alloc_traitsISaIP12netlist_elemES2_E17_S_select_on_copyERKS3_>
    a898:	48 8b 45 c0          	mov    -0x40(%rbp),%rax
    a89c:	48 89 c7             	mov    %rax,%rdi
    a89f:	e8 d4 e7 ff ff       	call   9078 <_ZNKSt6vectorIP12netlist_elemSaIS1_EE4sizeEv>
    a8a4:	48 89 c1             	mov    %rax,%rcx
    a8a7:	48 8d 45 d7          	lea    -0x29(%rbp),%rax
    a8ab:	48 89 c2             	mov    %rax,%rdx
    a8ae:	48 89 ce             	mov    %rcx,%rsi
    a8b1:	48 89 df             	mov    %rbx,%rdi
    a8b4:	e8 c3 04 00 00       	call   ad7c <_ZNSt12_Vector_baseIP12netlist_elemSaIS1_EEC1EmRKS2_>
    a8b9:	48 8d 45 d7          	lea    -0x29(%rbp),%rax
    a8bd:	48 89 c7             	mov    %rax,%rdi
    a8c0:	e8 79 a3 ff ff       	call   4c3e <_ZNSaIP12netlist_elemED1Ev>
    a8c5:	48 8b 45 c8          	mov    -0x38(%rbp),%rax
    a8c9:	48 89 c7             	mov    %rax,%rdi
    a8cc:	e8 f9 a1 ff ff       	call   4aca <_ZNSt12_Vector_baseIP12netlist_elemSaIS1_EE19_M_get_Tp_allocatorEv>
    a8d1:	49 89 c5             	mov    %rax,%r13
    a8d4:	48 8b 45 c8          	mov    -0x38(%rbp),%rax
    a8d8:	48 8b 18             	mov    (%rax),%rbx
    a8db:	48 8b 45 c0          	mov    -0x40(%rbp),%rax
    a8df:	48 89 c7             	mov    %rax,%rdi
    a8e2:	e8 23 05 00 00       	call   ae0a <_ZNKSt6vectorIP12netlist_elemSaIS1_EE3endEv>
    a8e7:	49 89 c4             	mov    %rax,%r12
    a8ea:	48 8b 45 c0          	mov    -0x40(%rbp),%rax
    a8ee:	48 89 c7             	mov    %rax,%rdi
    a8f1:	e8 c8 04 00 00       	call   adbe <_ZNKSt6vectorIP12netlist_elemSaIS1_EE5beginEv>
    a8f6:	4c 89 e9             	mov    %r13,%rcx
    a8f9:	48 89 da             	mov    %rbx,%rdx
    a8fc:	4c 89 e6             	mov    %r12,%rsi
    a8ff:	48 89 c7             	mov    %rax,%rdi
    a902:	e8 53 05 00 00       	call   ae5a <_ZSt22__uninitialized_copy_aIN9__gnu_cxx17__normal_iteratorIPKP12netlist_elemSt6vectorIS3_SaIS3_EEEEPS3_S3_ET0_T_SC_SB_RSaIT1_E>
    a907:	48 8b 55 c8          	mov    -0x38(%rbp),%rdx
    a90b:	48 89 42 08          	mov    %rax,0x8(%rdx)
    a90f:	90                   	nop
    a910:	48 8b 45 d8          	mov    -0x28(%rbp),%rax
    a914:	64 48 2b 04 25 28 00 	sub    %fs:0x28,%rax
    a91b:	00 00 
    a91d:	74 05                	je     a924 <_ZNSt6vectorIP12netlist_elemSaIS1_EEC1ERKS3_+0xd6>
    a91f:	e8 dc 7c ff ff       	call   2600 <__stack_chk_fail@plt>
    a924:	48 83 c4 28          	add    $0x28,%rsp
    a928:	5b                   	pop    %rbx
    a929:	41 5c                	pop    %r12
    a92b:	41 5d                	pop    %r13
    a92d:	5d                   	pop    %rbp
    a92e:	c3                   	ret    
    a92f:	90                   	nop

000000000000a930 <_ZN7threads9AtomicPtrI10location_tEC1ERKS2_>:
    a930:	f3 0f 1e fa          	endbr64 
    a934:	55                   	push   %rbp
    a935:	48 89 e5             	mov    %rsp,%rbp
    a938:	48 83 ec 10          	sub    $0x10,%rsp
    a93c:	48 89 7d f8          	mov    %rdi,-0x8(%rbp)
    a940:	48 89 75 f0          	mov    %rsi,-0x10(%rbp)
    a944:	48 8b 45 f0          	mov    -0x10(%rbp),%rax
    a948:	48 89 c7             	mov    %rax,%rdi
    a94b:	e8 94 86 ff ff       	call   2fe4 <_ZNK7threads9AtomicPtrI10location_tE3GetEv>
    a950:	48 8b 55 f8          	mov    -0x8(%rbp),%rdx
    a954:	48 89 02             	mov    %rax,(%rdx)
    a957:	90                   	nop
    a958:	c9                   	leave  
    a959:	c3                   	ret    

000000000000a95a <_ZSt8__fill_aIP10location_tS0_EvT_S2_RKT0_>:
    a95a:	f3 0f 1e fa          	endbr64 
    a95e:	55                   	push   %rbp
    a95f:	48 89 e5             	mov    %rsp,%rbp
    a962:	48 83 ec 20          	sub    $0x20,%rsp
    a966:	48 89 7d f8          	mov    %rdi,-0x8(%rbp)
    a96a:	48 89 75 f0          	mov    %rsi,-0x10(%rbp)
    a96e:	48 89 55 e8          	mov    %rdx,-0x18(%rbp)
    a972:	48 8b 55 e8          	mov    -0x18(%rbp),%rdx
    a976:	48 8b 4d f0          	mov    -0x10(%rbp),%rcx
    a97a:	48 8b 45 f8          	mov    -0x8(%rbp),%rax
    a97e:	48 89 ce             	mov    %rcx,%rsi
    a981:	48 89 c7             	mov    %rax,%rdi
    a984:	e8 06 05 00 00       	call   ae8f <_ZSt9__fill_a1IP10location_tS0_EN9__gnu_cxx11__enable_ifIXntsrSt11__is_scalarIT0_E7__valueEvE6__typeET_S9_RKS5_>
    a989:	90                   	nop
    a98a:	c9                   	leave  
    a98b:	c3                   	ret    

000000000000a98c <_ZNSt16allocator_traitsISaI10location_tEE37select_on_container_copy_constructionERKS1_>:
    a98c:	f3 0f 1e fa          	endbr64 
    a990:	55                   	push   %rbp
    a991:	48 89 e5             	mov    %rsp,%rbp
    a994:	48 83 ec 10          	sub    $0x10,%rsp
    a998:	48 89 7d f8          	mov    %rdi,-0x8(%rbp)
    a99c:	48 89 75 f0          	mov    %rsi,-0x10(%rbp)
    a9a0:	48 8b 55 f0          	mov    -0x10(%rbp),%rdx
    a9a4:	48 8b 45 f8          	mov    -0x8(%rbp),%rax
    a9a8:	48 89 d6             	mov    %rdx,%rsi
    a9ab:	48 89 c7             	mov    %rax,%rdi
    a9ae:	e8 19 d5 ff ff       	call   7ecc <_ZNSaI10location_tEC1ERKS0_>
    a9b3:	48 8b 45 f8          	mov    -0x8(%rbp),%rax
    a9b7:	c9                   	leave  
    a9b8:	c3                   	ret    
    a9b9:	90                   	nop

000000000000a9ba <_ZN9__gnu_cxx17__normal_iteratorIPK10location_tSt6vectorIS1_SaIS1_EEEC1ERKS3_>:
    a9ba:	f3 0f 1e fa          	endbr64 
    a9be:	55                   	push   %rbp
    a9bf:	48 89 e5             	mov    %rsp,%rbp
    a9c2:	48 89 7d f8          	mov    %rdi,-0x8(%rbp)
    a9c6:	48 89 75 f0          	mov    %rsi,-0x10(%rbp)
    a9ca:	48 8b 45 f0          	mov    -0x10(%rbp),%rax
    a9ce:	48 8b 10             	mov    (%rax),%rdx
    a9d1:	48 8b 45 f8          	mov    -0x8(%rbp),%rax
    a9d5:	48 89 10             	mov    %rdx,(%rax)
    a9d8:	90                   	nop
    a9d9:	5d                   	pop    %rbp
    a9da:	c3                   	ret    

000000000000a9db <_ZSt18uninitialized_copyIN9__gnu_cxx17__normal_iteratorIPK10location_tSt6vectorIS2_SaIS2_EEEEPS2_ET0_T_SB_SA_>:
    a9db:	f3 0f 1e fa          	endbr64 
    a9df:	55                   	push   %rbp
    a9e0:	48 89 e5             	mov    %rsp,%rbp
    a9e3:	48 83 ec 30          	sub    $0x30,%rsp
    a9e7:	48 89 7d e8          	mov    %rdi,-0x18(%rbp)
    a9eb:	48 89 75 e0          	mov    %rsi,-0x20(%rbp)
    a9ef:	48 89 55 d8          	mov    %rdx,-0x28(%rbp)
    a9f3:	c6 45 ff 01          	movb   $0x1,-0x1(%rbp)
    a9f7:	48 8b 55 d8          	mov    -0x28(%rbp),%rdx
    a9fb:	48 8b 4d e0          	mov    -0x20(%rbp),%rcx
    a9ff:	48 8b 45 e8          	mov    -0x18(%rbp),%rax
    aa03:	48 89 ce             	mov    %rcx,%rsi
    aa06:	48 89 c7             	mov    %rax,%rdi
    aa09:	e8 b8 04 00 00       	call   aec6 <_ZNSt20__uninitialized_copyILb1EE13__uninit_copyIN9__gnu_cxx17__normal_iteratorIPK10location_tSt6vectorIS4_SaIS4_EEEEPS4_EET0_T_SD_SC_>
    aa0e:	c9                   	leave  
    aa0f:	c3                   	ret    

000000000000aa10 <_ZNKSt13move_iteratorIPSt6vectorI10location_tSaIS1_EEE4baseEv>:
    aa10:	f3 0f 1e fa          	endbr64 
    aa14:	55                   	push   %rbp
    aa15:	48 89 e5             	mov    %rsp,%rbp
    aa18:	48 89 7d f8          	mov    %rdi,-0x8(%rbp)
    aa1c:	48 8b 45 f8          	mov    -0x8(%rbp),%rax
    aa20:	48 8b 00             	mov    (%rax),%rax
    aa23:	5d                   	pop    %rbp
    aa24:	c3                   	ret    

000000000000aa25 <_ZSteqIPSt6vectorI10location_tSaIS1_EEEbRKSt13move_iteratorIT_ES9_>:
    aa25:	f3 0f 1e fa          	endbr64 
    aa29:	55                   	push   %rbp
    aa2a:	48 89 e5             	mov    %rsp,%rbp
    aa2d:	53                   	push   %rbx
    aa2e:	48 83 ec 18          	sub    $0x18,%rsp
    aa32:	48 89 7d e8          	mov    %rdi,-0x18(%rbp)
    aa36:	48 89 75 e0          	mov    %rsi,-0x20(%rbp)
    aa3a:	48 8b 45 e8          	mov    -0x18(%rbp),%rax
    aa3e:	48 89 c7             	mov    %rax,%rdi
    aa41:	e8 ca ff ff ff       	call   aa10 <_ZNKSt13move_iteratorIPSt6vectorI10location_tSaIS1_EEE4baseEv>
    aa46:	48 89 c3             	mov    %rax,%rbx
    aa49:	48 8b 45 e0          	mov    -0x20(%rbp),%rax
    aa4d:	48 89 c7             	mov    %rax,%rdi
    aa50:	e8 bb ff ff ff       	call   aa10 <_ZNKSt13move_iteratorIPSt6vectorI10location_tSaIS1_EEE4baseEv>
    aa55:	48 39 c3             	cmp    %rax,%rbx
    aa58:	0f 94 c0             	sete   %al
    aa5b:	48 8b 5d f8          	mov    -0x8(%rbp),%rbx
    aa5f:	c9                   	leave  
    aa60:	c3                   	ret    

000000000000aa61 <_ZSt7forwardISt6vectorI10location_tSaIS1_EEEOT_RNSt16remove_referenceIS4_E4typeE>:
    aa61:	f3 0f 1e fa          	endbr64 
    aa65:	55                   	push   %rbp
    aa66:	48 89 e5             	mov    %rsp,%rbp
    aa69:	48 89 7d f8          	mov    %rdi,-0x8(%rbp)
    aa6d:	48 8b 45 f8          	mov    -0x8(%rbp),%rax
    aa71:	5d                   	pop    %rbp
    aa72:	c3                   	ret    
    aa73:	90                   	nop

000000000000aa74 <_ZNSt12_Vector_baseI10location_tSaIS0_EE12_Vector_implC1EOS3_>:
    aa74:	f3 0f 1e fa          	endbr64 
    aa78:	55                   	push   %rbp
    aa79:	48 89 e5             	mov    %rsp,%rbp
    aa7c:	53                   	push   %rbx
    aa7d:	48 83 ec 18          	sub    $0x18,%rsp
    aa81:	48 89 7d e8          	mov    %rdi,-0x18(%rbp)
    aa85:	48 89 75 e0          	mov    %rsi,-0x20(%rbp)
    aa89:	48 8b 45 e0          	mov    -0x20(%rbp),%rax
    aa8d:	48 89 c7             	mov    %rax,%rdi
    aa90:	e8 62 04 00 00       	call   aef7 <_ZSt4moveIRNSt12_Vector_baseI10location_tSaIS1_EE12_Vector_implEEONSt16remove_referenceIT_E4typeEOS7_>
    aa95:	48 89 c2             	mov    %rax,%rdx
    aa98:	48 8b 45 e8          	mov    -0x18(%rbp),%rax
    aa9c:	48 89 d6             	mov    %rdx,%rsi
    aa9f:	48 89 c7             	mov    %rax,%rdi
    aaa2:	e8 25 d4 ff ff       	call   7ecc <_ZNSaI10location_tEC1ERKS0_>
    aaa7:	48 8b 5d e8          	mov    -0x18(%rbp),%rbx
    aaab:	48 8b 45 e0          	mov    -0x20(%rbp),%rax
    aaaf:	48 89 c7             	mov    %rax,%rdi
    aab2:	e8 40 04 00 00       	call   aef7 <_ZSt4moveIRNSt12_Vector_baseI10location_tSaIS1_EE12_Vector_implEEONSt16remove_referenceIT_E4typeEOS7_>
    aab7:	48 89 c6             	mov    %rax,%rsi
    aaba:	48 89 df             	mov    %rbx,%rdi
    aabd:	e8 48 04 00 00       	call   af0a <_ZNSt12_Vector_baseI10location_tSaIS0_EE17_Vector_impl_dataC1EOS3_>
    aac2:	90                   	nop
    aac3:	48 8b 5d f8          	mov    -0x8(%rbp),%rbx
    aac7:	c9                   	leave  
    aac8:	c3                   	ret    

000000000000aac9 <_ZSt4moveIRSt6vectorI10location_tSaIS1_EEEONSt16remove_referenceIT_E4typeEOS6_>:
    aac9:	f3 0f 1e fa          	endbr64 
    aacd:	55                   	push   %rbp
    aace:	48 89 e5             	mov    %rsp,%rbp
    aad1:	48 89 7d f8          	mov    %rdi,-0x8(%rbp)
    aad5:	48 8b 45 f8          	mov    -0x8(%rbp),%rax
    aad9:	5d                   	pop    %rbp
    aada:	c3                   	ret    
    aadb:	90                   	nop

000000000000aadc <_ZNSt6vectorI10location_tSaIS0_EEaSEOS2_>:
    aadc:	f3 0f 1e fa          	endbr64 
    aae0:	55                   	push   %rbp
    aae1:	48 89 e5             	mov    %rsp,%rbp
    aae4:	48 83 ec 20          	sub    $0x20,%rsp
    aae8:	48 89 7d e8          	mov    %rdi,-0x18(%rbp)
    aaec:	48 89 75 e0          	mov    %rsi,-0x20(%rbp)
    aaf0:	c6 45 ff 01          	movb   $0x1,-0x1(%rbp)
    aaf4:	48 8b 45 e0          	mov    -0x20(%rbp),%rax
    aaf8:	48 89 c7             	mov    %rax,%rdi
    aafb:	e8 c9 ff ff ff       	call   aac9 <_ZSt4moveIRSt6vectorI10location_tSaIS1_EEEONSt16remove_referenceIT_E4typeEOS6_>
    ab00:	48 89 c2             	mov    %rax,%rdx
    ab03:	48 8b 45 e8          	mov    -0x18(%rbp),%rax
    ab07:	48 89 d6             	mov    %rdx,%rsi
    ab0a:	48 89 c7             	mov    %rax,%rdi
    ab0d:	e8 64 04 00 00       	call   af76 <_ZNSt6vectorI10location_tSaIS0_EE14_M_move_assignEOS2_St17integral_constantIbLb1EE>
    ab12:	48 8b 45 e8          	mov    -0x18(%rbp),%rax
    ab16:	c9                   	leave  
    ab17:	c3                   	ret    

000000000000ab18 <_ZNSt6vectorI10location_tSaIS0_EE15_M_erase_at_endEPS0_>:
    ab18:	f3 0f 1e fa          	endbr64 
    ab1c:	55                   	push   %rbp
    ab1d:	48 89 e5             	mov    %rsp,%rbp
    ab20:	48 83 ec 20          	sub    $0x20,%rsp
    ab24:	48 89 7d e8          	mov    %rdi,-0x18(%rbp)
    ab28:	48 89 75 e0          	mov    %rsi,-0x20(%rbp)
    ab2c:	48 8b 45 e8          	mov    -0x18(%rbp),%rax
    ab30:	48 8b 40 08          	mov    0x8(%rax),%rax
    ab34:	48 2b 45 e0          	sub    -0x20(%rbp),%rax
    ab38:	48 c1 f8 03          	sar    $0x3,%rax
    ab3c:	48 89 45 f8          	mov    %rax,-0x8(%rbp)
    ab40:	48 83 7d f8 00       	cmpq   $0x0,-0x8(%rbp)
    ab45:	74 32                	je     ab79 <_ZNSt6vectorI10location_tSaIS0_EE15_M_erase_at_endEPS0_+0x61>
    ab47:	48 8b 45 e8          	mov    -0x18(%rbp),%rax
    ab4b:	48 89 c7             	mov    %rax,%rdi
    ab4e:	e8 29 a0 ff ff       	call   4b7c <_ZNSt12_Vector_baseI10location_tSaIS0_EE19_M_get_Tp_allocatorEv>
    ab53:	48 89 c2             	mov    %rax,%rdx
    ab56:	48 8b 45 e8          	mov    -0x18(%rbp),%rax
    ab5a:	48 8b 48 08          	mov    0x8(%rax),%rcx
    ab5e:	48 8b 45 e0          	mov    -0x20(%rbp),%rax
    ab62:	48 89 ce             	mov    %rcx,%rsi
    ab65:	48 89 c7             	mov    %rax,%rdi
    ab68:	e8 21 a0 ff ff       	call   4b8e <_ZSt8_DestroyIP10location_tS0_EvT_S2_RSaIT0_E>
    ab6d:	48 8b 45 e8          	mov    -0x18(%rbp),%rax
    ab71:	48 8b 55 e0          	mov    -0x20(%rbp),%rdx
    ab75:	48 89 50 08          	mov    %rdx,0x8(%rax)
    ab79:	90                   	nop
    ab7a:	c9                   	leave  
    ab7b:	c3                   	ret    

000000000000ab7c <_ZN9__gnu_cxx17__normal_iteratorIP10location_tSt6vectorIS1_SaIS1_EEEC1ERKS2_>:
    ab7c:	f3 0f 1e fa          	endbr64 
    ab80:	55                   	push   %rbp
    ab81:	48 89 e5             	mov    %rsp,%rbp
    ab84:	48 89 7d f8          	mov    %rdi,-0x8(%rbp)
    ab88:	48 89 75 f0          	mov    %rsi,-0x10(%rbp)
    ab8c:	48 8b 45 f0          	mov    -0x10(%rbp),%rax
    ab90:	48 8b 10             	mov    (%rax),%rdx
    ab93:	48 8b 45 f8          	mov    -0x8(%rbp),%rax
    ab97:	48 89 10             	mov    %rdx,(%rax)
    ab9a:	90                   	nop
    ab9b:	5d                   	pop    %rbp
    ab9c:	c3                   	ret    

000000000000ab9d <_ZSt12__miter_baseIN9__gnu_cxx17__normal_iteratorIPK10location_tSt6vectorIS2_SaIS2_EEEEET_S9_>:
    ab9d:	f3 0f 1e fa          	endbr64 
    aba1:	55                   	push   %rbp
    aba2:	48 89 e5             	mov    %rsp,%rbp
    aba5:	48 89 7d f8          	mov    %rdi,-0x8(%rbp)
    aba9:	48 8b 45 f8          	mov    -0x8(%rbp),%rax
    abad:	5d                   	pop    %rbp
    abae:	c3                   	ret    

000000000000abaf <_ZSt13__copy_move_aILb0EN9__gnu_cxx17__normal_iteratorIPK10location_tSt6vectorIS2_SaIS2_EEEENS1_IPS2_S7_EEET1_T0_SC_SB_>:
    abaf:	f3 0f 1e fa          	endbr64 
    abb3:	55                   	push   %rbp
    abb4:	48 89 e5             	mov    %rsp,%rbp
    abb7:	41 54                	push   %r12
    abb9:	53                   	push   %rbx
    abba:	48 83 ec 20          	sub    $0x20,%rsp
    abbe:	48 89 7d e8          	mov    %rdi,-0x18(%rbp)
    abc2:	48 89 75 e0          	mov    %rsi,-0x20(%rbp)
    abc6:	48 89 55 d8          	mov    %rdx,-0x28(%rbp)
    abca:	48 8b 45 d8          	mov    -0x28(%rbp),%rax
    abce:	48 89 c7             	mov    %rax,%rdi
    abd1:	e8 89 04 00 00       	call   b05f <_ZSt12__niter_baseIP10location_tSt6vectorIS0_SaIS0_EEET_N9__gnu_cxx17__normal_iteratorIS5_T0_EE>
    abd6:	49 89 c4             	mov    %rax,%r12
    abd9:	48 8b 45 e0          	mov    -0x20(%rbp),%rax
    abdd:	48 89 c7             	mov    %rax,%rdi
    abe0:	e8 59 04 00 00       	call   b03e <_ZSt12__niter_baseIPK10location_tSt6vectorIS0_SaIS0_EEET_N9__gnu_cxx17__normal_iteratorIS6_T0_EE>
    abe5:	48 89 c3             	mov    %rax,%rbx
    abe8:	48 8b 45 e8          	mov    -0x18(%rbp),%rax
    abec:	48 89 c7             	mov    %rax,%rdi
    abef:	e8 4a 04 00 00       	call   b03e <_ZSt12__niter_baseIPK10location_tSt6vectorIS0_SaIS0_EEET_N9__gnu_cxx17__normal_iteratorIS6_T0_EE>
    abf4:	4c 89 e2             	mov    %r12,%rdx
    abf7:	48 89 de             	mov    %rbx,%rsi
    abfa:	48 89 c7             	mov    %rax,%rdi
    abfd:	e8 7e 04 00 00       	call   b080 <_ZSt14__copy_move_a1ILb0EPK10location_tPS0_ET1_T0_S5_S4_>
    ac02:	48 89 c2             	mov    %rax,%rdx
    ac05:	48 8b 45 d8          	mov    -0x28(%rbp),%rax
    ac09:	48 89 d6             	mov    %rdx,%rsi
    ac0c:	48 89 c7             	mov    %rax,%rdi
    ac0f:	e8 9d 04 00 00       	call   b0b1 <_ZSt12__niter_wrapIN9__gnu_cxx17__normal_iteratorIP10location_tSt6vectorIS2_SaIS2_EEEES3_ET_S8_T0_>
    ac14:	48 83 c4 20          	add    $0x20,%rsp
    ac18:	5b                   	pop    %rbx
    ac19:	41 5c                	pop    %r12
    ac1b:	5d                   	pop    %rbp
    ac1c:	c3                   	ret    

000000000000ac1d <_ZSt8_DestroyIN9__gnu_cxx17__normal_iteratorIP10location_tSt6vectorIS2_SaIS2_EEEEEvT_S8_>:
    ac1d:	f3 0f 1e fa          	endbr64 
    ac21:	55                   	push   %rbp
    ac22:	48 89 e5             	mov    %rsp,%rbp
    ac25:	48 83 ec 10          	sub    $0x10,%rsp
    ac29:	48 89 7d f8          	mov    %rdi,-0x8(%rbp)
    ac2d:	48 89 75 f0          	mov    %rsi,-0x10(%rbp)
    ac31:	48 8b 55 f0          	mov    -0x10(%rbp),%rdx
    ac35:	48 8b 45 f8          	mov    -0x8(%rbp),%rax
    ac39:	48 89 d6             	mov    %rdx,%rsi
    ac3c:	48 89 c7             	mov    %rax,%rdi
    ac3f:	e8 af 04 00 00       	call   b0f3 <_ZNSt12_Destroy_auxILb1EE9__destroyIN9__gnu_cxx17__normal_iteratorIP10location_tSt6vectorIS4_SaIS4_EEEEEEvT_SA_>
    ac44:	90                   	nop
    ac45:	c9                   	leave  
    ac46:	c3                   	ret    

000000000000ac47 <_ZSt12__miter_baseIP10location_tET_S2_>:
    ac47:	f3 0f 1e fa          	endbr64 
    ac4b:	55                   	push   %rbp
    ac4c:	48 89 e5             	mov    %rsp,%rbp
    ac4f:	48 89 7d f8          	mov    %rdi,-0x8(%rbp)
    ac53:	48 8b 45 f8          	mov    -0x8(%rbp),%rax
    ac57:	5d                   	pop    %rbp
    ac58:	c3                   	ret    

000000000000ac59 <_ZSt13__copy_move_aILb0EP10location_tS1_ET1_T0_S3_S2_>:
    ac59:	f3 0f 1e fa          	endbr64 
    ac5d:	55                   	push   %rbp
    ac5e:	48 89 e5             	mov    %rsp,%rbp
    ac61:	41 54                	push   %r12
    ac63:	53                   	push   %rbx
    ac64:	48 83 ec 20          	sub    $0x20,%rsp
    ac68:	48 89 7d e8          	mov    %rdi,-0x18(%rbp)
    ac6c:	48 89 75 e0          	mov    %rsi,-0x20(%rbp)
    ac70:	48 89 55 d8          	mov    %rdx,-0x28(%rbp)
    ac74:	48 8b 45 d8          	mov    -0x28(%rbp),%rax
    ac78:	48 89 c7             	mov    %rax,%rdi
    ac7b:	e8 86 04 00 00       	call   b106 <_ZSt12__niter_baseIP10location_tET_S2_>
    ac80:	49 89 c4             	mov    %rax,%r12
    ac83:	48 8b 45 e0          	mov    -0x20(%rbp),%rax
    ac87:	48 89 c7             	mov    %rax,%rdi
    ac8a:	e8 77 04 00 00       	call   b106 <_ZSt12__niter_baseIP10location_tET_S2_>
    ac8f:	48 89 c3             	mov    %rax,%rbx
    ac92:	48 8b 45 e8          	mov    -0x18(%rbp),%rax
    ac96:	48 89 c7             	mov    %rax,%rdi
    ac99:	e8 68 04 00 00       	call   b106 <_ZSt12__niter_baseIP10location_tET_S2_>
    ac9e:	4c 89 e2             	mov    %r12,%rdx
    aca1:	48 89 de             	mov    %rbx,%rsi
    aca4:	48 89 c7             	mov    %rax,%rdi
    aca7:	e8 6c 04 00 00       	call   b118 <_ZSt14__copy_move_a1ILb0EP10location_tS1_ET1_T0_S3_S2_>
    acac:	48 89 c2             	mov    %rax,%rdx
    acaf:	48 8d 45 d8          	lea    -0x28(%rbp),%rax
    acb3:	48 89 d6             	mov    %rdx,%rsi
    acb6:	48 89 c7             	mov    %rax,%rdi
    acb9:	e8 8b 04 00 00       	call   b149 <_ZSt12__niter_wrapIP10location_tET_RKS2_S2_>
    acbe:	48 83 c4 20          	add    $0x20,%rsp
    acc2:	5b                   	pop    %rbx
    acc3:	41 5c                	pop    %r12
    acc5:	5d                   	pop    %rbp
    acc6:	c3                   	ret    

000000000000acc7 <_ZSt18uninitialized_copyIP10location_tS1_ET0_T_S3_S2_>:
    acc7:	f3 0f 1e fa          	endbr64 
    accb:	55                   	push   %rbp
    accc:	48 89 e5             	mov    %rsp,%rbp
    accf:	48 83 ec 30          	sub    $0x30,%rsp
    acd3:	48 89 7d e8          	mov    %rdi,-0x18(%rbp)
    acd7:	48 89 75 e0          	mov    %rsi,-0x20(%rbp)
    acdb:	48 89 55 d8          	mov    %rdx,-0x28(%rbp)
    acdf:	c6 45 ff 01          	movb   $0x1,-0x1(%rbp)
    ace3:	48 8b 55 d8          	mov    -0x28(%rbp),%rdx
    ace7:	48 8b 4d e0          	mov    -0x20(%rbp),%rcx
    aceb:	48 8b 45 e8          	mov    -0x18(%rbp),%rax
    acef:	48 89 ce             	mov    %rcx,%rsi
    acf2:	48 89 c7             	mov    %rax,%rdi
    acf5:	e8 65 04 00 00       	call   b15f <_ZNSt20__uninitialized_copyILb1EE13__uninit_copyIP10location_tS3_EET0_T_S5_S4_>
    acfa:	c9                   	leave  
    acfb:	c3                   	ret    

000000000000acfc <_ZSt3getILm0EJRKNSt7__cxx1112basic_stringIcSt11char_traitsIcESaIcEEEEERNSt13tuple_elementIXT_ESt5tupleIJDpT0_EEE4typeERSC_>:
    acfc:	f3 0f 1e fa          	endbr64 
    ad00:	55                   	push   %rbp
    ad01:	48 89 e5             	mov    %rsp,%rbp
    ad04:	48 83 ec 10          	sub    $0x10,%rsp
    ad08:	48 89 7d f8          	mov    %rdi,-0x8(%rbp)
    ad0c:	48 8b 45 f8          	mov    -0x8(%rbp),%rax
    ad10:	48 89 c7             	mov    %rax,%rdi
    ad13:	e8 78 04 00 00       	call   b190 <_ZSt12__get_helperILm0ERKNSt7__cxx1112basic_stringIcSt11char_traitsIcESaIcEEEJEERT0_RSt11_Tuple_implIXT_EJS8_DpT1_EE>
    ad18:	c9                   	leave  
    ad19:	c3                   	ret    

000000000000ad1a <_ZSt7forwardIRKNSt7__cxx1112basic_stringIcSt11char_traitsIcESaIcEEEEOT_RNSt16remove_referenceIS8_E4typeE>:
    ad1a:	f3 0f 1e fa          	endbr64 
    ad1e:	55                   	push   %rbp
    ad1f:	48 89 e5             	mov    %rsp,%rbp
    ad22:	48 89 7d f8          	mov    %rdi,-0x8(%rbp)
    ad26:	48 8b 45 f8          	mov    -0x8(%rbp),%rax
    ad2a:	5d                   	pop    %rbp
    ad2b:	c3                   	ret    

000000000000ad2c <_ZN9__gnu_cxx14__alloc_traitsISaIP12netlist_elemES2_E17_S_select_on_copyERKS3_>:
    ad2c:	f3 0f 1e fa          	endbr64 
    ad30:	55                   	push   %rbp
    ad31:	48 89 e5             	mov    %rsp,%rbp
    ad34:	48 83 ec 20          	sub    $0x20,%rsp
    ad38:	48 89 7d e8          	mov    %rdi,-0x18(%rbp)
    ad3c:	48 89 75 e0          	mov    %rsi,-0x20(%rbp)
    ad40:	64 48 8b 04 25 28 00 	mov    %fs:0x28,%rax
    ad47:	00 00 
    ad49:	48 89 45 f8          	mov    %rax,-0x8(%rbp)
    ad4d:	31 c0                	xor    %eax,%eax
    ad4f:	48 8b 45 e8          	mov    -0x18(%rbp),%rax
    ad53:	48 8b 55 e0          	mov    -0x20(%rbp),%rdx
    ad57:	48 89 d6             	mov    %rdx,%rsi
    ad5a:	48 89 c7             	mov    %rax,%rdi
    ad5d:	e8 4c 04 00 00       	call   b1ae <_ZNSt16allocator_traitsISaIP12netlist_elemEE37select_on_container_copy_constructionERKS2_>
    ad62:	48 8b 45 f8          	mov    -0x8(%rbp),%rax
    ad66:	64 48 2b 04 25 28 00 	sub    %fs:0x28,%rax
    ad6d:	00 00 
    ad6f:	74 05                	je     ad76 <_ZN9__gnu_cxx14__alloc_traitsISaIP12netlist_elemES2_E17_S_select_on_copyERKS3_+0x4a>
    ad71:	e8 8a 78 ff ff       	call   2600 <__stack_chk_fail@plt>
    ad76:	48 8b 45 e8          	mov    -0x18(%rbp),%rax
    ad7a:	c9                   	leave  
    ad7b:	c3                   	ret    

000000000000ad7c <_ZNSt12_Vector_baseIP12netlist_elemSaIS1_EEC1EmRKS2_>:
    ad7c:	f3 0f 1e fa          	endbr64 
    ad80:	55                   	push   %rbp
    ad81:	48 89 e5             	mov    %rsp,%rbp
    ad84:	48 83 ec 20          	sub    $0x20,%rsp
    ad88:	48 89 7d f8          	mov    %rdi,-0x8(%rbp)
    ad8c:	48 89 75 f0          	mov    %rsi,-0x10(%rbp)
    ad90:	48 89 55 e8          	mov    %rdx,-0x18(%rbp)
    ad94:	48 8b 45 f8          	mov    -0x8(%rbp),%rax
    ad98:	48 8b 55 e8          	mov    -0x18(%rbp),%rdx
    ad9c:	48 89 d6             	mov    %rdx,%rsi
    ad9f:	48 89 c7             	mov    %rax,%rdi
    ada2:	e8 35 04 00 00       	call   b1dc <_ZNSt12_Vector_baseIP12netlist_elemSaIS1_EE12_Vector_implC1ERKS2_>
    ada7:	48 8b 55 f0          	mov    -0x10(%rbp),%rdx
    adab:	48 8b 45 f8          	mov    -0x8(%rbp),%rax
    adaf:	48 89 d6             	mov    %rdx,%rsi
    adb2:	48 89 c7             	mov    %rax,%rdi
    adb5:	e8 58 04 00 00       	call   b212 <_ZNSt12_Vector_baseIP12netlist_elemSaIS1_EE17_M_create_storageEm>
    adba:	90                   	nop
    adbb:	c9                   	leave  
    adbc:	c3                   	ret    
    adbd:	90                   	nop

000000000000adbe <_ZNKSt6vectorIP12netlist_elemSaIS1_EE5beginEv>:
    adbe:	f3 0f 1e fa          	endbr64 
    adc2:	55                   	push   %rbp
    adc3:	48 89 e5             	mov    %rsp,%rbp
    adc6:	48 83 ec 20          	sub    $0x20,%rsp
    adca:	48 89 7d e8          	mov    %rdi,-0x18(%rbp)
    adce:	64 48 8b 04 25 28 00 	mov    %fs:0x28,%rax
    add5:	00 00 
    add7:	48 89 45 f8          	mov    %rax,-0x8(%rbp)
    addb:	31 c0                	xor    %eax,%eax
    addd:	48 8b 55 e8          	mov    -0x18(%rbp),%rdx
    ade1:	48 8d 45 f0          	lea    -0x10(%rbp),%rax
    ade5:	48 89 d6             	mov    %rdx,%rsi
    ade8:	48 89 c7             	mov    %rax,%rdi
    adeb:	e8 7c 04 00 00       	call   b26c <_ZN9__gnu_cxx17__normal_iteratorIPKP12netlist_elemSt6vectorIS2_SaIS2_EEEC1ERKS4_>
    adf0:	48 8b 45 f0          	mov    -0x10(%rbp),%rax
    adf4:	48 8b 55 f8          	mov    -0x8(%rbp),%rdx
    adf8:	64 48 2b 14 25 28 00 	sub    %fs:0x28,%rdx
    adff:	00 00 
    ae01:	74 05                	je     ae08 <_ZNKSt6vectorIP12netlist_elemSaIS1_EE5beginEv+0x4a>
    ae03:	e8 f8 77 ff ff       	call   2600 <__stack_chk_fail@plt>
    ae08:	c9                   	leave  
    ae09:	c3                   	ret    

000000000000ae0a <_ZNKSt6vectorIP12netlist_elemSaIS1_EE3endEv>:
    ae0a:	f3 0f 1e fa          	endbr64 
    ae0e:	55                   	push   %rbp
    ae0f:	48 89 e5             	mov    %rsp,%rbp
    ae12:	48 83 ec 20          	sub    $0x20,%rsp
    ae16:	48 89 7d e8          	mov    %rdi,-0x18(%rbp)
    ae1a:	64 48 8b 04 25 28 00 	mov    %fs:0x28,%rax
    ae21:	00 00 
    ae23:	48 89 45 f8          	mov    %rax,-0x8(%rbp)
    ae27:	31 c0                	xor    %eax,%eax
    ae29:	48 8b 45 e8          	mov    -0x18(%rbp),%rax
    ae2d:	48 8d 50 08          	lea    0x8(%rax),%rdx
    ae31:	48 8d 45 f0          	lea    -0x10(%rbp),%rax
    ae35:	48 89 d6             	mov    %rdx,%rsi
    ae38:	48 89 c7             	mov    %rax,%rdi
    ae3b:	e8 2c 04 00 00       	call   b26c <_ZN9__gnu_cxx17__normal_iteratorIPKP12netlist_elemSt6vectorIS2_SaIS2_EEEC1ERKS4_>
    ae40:	48 8b 45 f0          	mov    -0x10(%rbp),%rax
    ae44:	48 8b 55 f8          	mov    -0x8(%rbp),%rdx
    ae48:	64 48 2b 14 25 28 00 	sub    %fs:0x28,%rdx
    ae4f:	00 00 
    ae51:	74 05                	je     ae58 <_ZNKSt6vectorIP12netlist_elemSaIS1_EE3endEv+0x4e>
    ae53:	e8 a8 77 ff ff       	call   2600 <__stack_chk_fail@plt>
    ae58:	c9                   	leave  
    ae59:	c3                   	ret    

000000000000ae5a <_ZSt22__uninitialized_copy_aIN9__gnu_cxx17__normal_iteratorIPKP12netlist_elemSt6vectorIS3_SaIS3_EEEEPS3_S3_ET0_T_SC_SB_RSaIT1_E>:
    ae5a:	f3 0f 1e fa          	endbr64 
    ae5e:	55                   	push   %rbp
    ae5f:	48 89 e5             	mov    %rsp,%rbp
    ae62:	48 83 ec 20          	sub    $0x20,%rsp
    ae66:	48 89 7d f8          	mov    %rdi,-0x8(%rbp)
    ae6a:	48 89 75 f0          	mov    %rsi,-0x10(%rbp)
    ae6e:	48 89 55 e8          	mov    %rdx,-0x18(%rbp)
    ae72:	48 89 4d e0          	mov    %rcx,-0x20(%rbp)
    ae76:	48 8b 55 e8          	mov    -0x18(%rbp),%rdx
    ae7a:	48 8b 4d f0          	mov    -0x10(%rbp),%rcx
    ae7e:	48 8b 45 f8          	mov    -0x8(%rbp),%rax
    ae82:	48 89 ce             	mov    %rcx,%rsi
    ae85:	48 89 c7             	mov    %rax,%rdi
    ae88:	e8 00 04 00 00       	call   b28d <_ZSt18uninitialized_copyIN9__gnu_cxx17__normal_iteratorIPKP12netlist_elemSt6vectorIS3_SaIS3_EEEEPS3_ET0_T_SC_SB_>
    ae8d:	c9                   	leave  
    ae8e:	c3                   	ret    

000000000000ae8f <_ZSt9__fill_a1IP10location_tS0_EN9__gnu_cxx11__enable_ifIXntsrSt11__is_scalarIT0_E7__valueEvE6__typeET_S9_RKS5_>:
    ae8f:	f3 0f 1e fa          	endbr64 
    ae93:	55                   	push   %rbp
    ae94:	48 89 e5             	mov    %rsp,%rbp
    ae97:	48 89 7d f8          	mov    %rdi,-0x8(%rbp)
    ae9b:	48 89 75 f0          	mov    %rsi,-0x10(%rbp)
    ae9f:	48 89 55 e8          	mov    %rdx,-0x18(%rbp)
    aea3:	eb 13                	jmp    aeb8 <_ZSt9__fill_a1IP10location_tS0_EN9__gnu_cxx11__enable_ifIXntsrSt11__is_scalarIT0_E7__valueEvE6__typeET_S9_RKS5_+0x29>
    aea5:	48 8b 45 f8          	mov    -0x8(%rbp),%rax
    aea9:	48 8b 55 e8          	mov    -0x18(%rbp),%rdx
    aead:	48 8b 12             	mov    (%rdx),%rdx
    aeb0:	48 89 10             	mov    %rdx,(%rax)
    aeb3:	48 83 45 f8 08       	addq   $0x8,-0x8(%rbp)
    aeb8:	48 8b 45 f8          	mov    -0x8(%rbp),%rax
    aebc:	48 3b 45 f0          	cmp    -0x10(%rbp),%rax
    aec0:	75 e3                	jne    aea5 <_ZSt9__fill_a1IP10location_tS0_EN9__gnu_cxx11__enable_ifIXntsrSt11__is_scalarIT0_E7__valueEvE6__typeET_S9_RKS5_+0x16>
    aec2:	90                   	nop
    aec3:	90                   	nop
    aec4:	5d                   	pop    %rbp
    aec5:	c3                   	ret    

000000000000aec6 <_ZNSt20__uninitialized_copyILb1EE13__uninit_copyIN9__gnu_cxx17__normal_iteratorIPK10location_tSt6vectorIS4_SaIS4_EEEEPS4_EET0_T_SD_SC_>:
    aec6:	f3 0f 1e fa          	endbr64 
    aeca:	55                   	push   %rbp
    aecb:	48 89 e5             	mov    %rsp,%rbp
    aece:	48 83 ec 20          	sub    $0x20,%rsp
    aed2:	48 89 7d f8          	mov    %rdi,-0x8(%rbp)
    aed6:	48 89 75 f0          	mov    %rsi,-0x10(%rbp)
    aeda:	48 89 55 e8          	mov    %rdx,-0x18(%rbp)
    aede:	48 8b 55 e8          	mov    -0x18(%rbp),%rdx
    aee2:	48 8b 4d f0          	mov    -0x10(%rbp),%rcx
    aee6:	48 8b 45 f8          	mov    -0x8(%rbp),%rax
    aeea:	48 89 ce             	mov    %rcx,%rsi
    aeed:	48 89 c7             	mov    %rax,%rdi
    aef0:	e8 cd 03 00 00       	call   b2c2 <_ZSt4copyIN9__gnu_cxx17__normal_iteratorIPK10location_tSt6vectorIS2_SaIS2_EEEEPS2_ET0_T_SB_SA_>
    aef5:	c9                   	leave  
    aef6:	c3                   	ret    

000000000000aef7 <_ZSt4moveIRNSt12_Vector_baseI10location_tSaIS1_EE12_Vector_implEEONSt16remove_referenceIT_E4typeEOS7_>:
    aef7:	f3 0f 1e fa          	endbr64 
    aefb:	55                   	push   %rbp
    aefc:	48 89 e5             	mov    %rsp,%rbp
    aeff:	48 89 7d f8          	mov    %rdi,-0x8(%rbp)
    af03:	48 8b 45 f8          	mov    -0x8(%rbp),%rax
    af07:	5d                   	pop    %rbp
    af08:	c3                   	ret    
    af09:	90                   	nop

000000000000af0a <_ZNSt12_Vector_baseI10location_tSaIS0_EE17_Vector_impl_dataC1EOS3_>:
    af0a:	f3 0f 1e fa          	endbr64 
    af0e:	55                   	push   %rbp
    af0f:	48 89 e5             	mov    %rsp,%rbp
    af12:	48 89 7d f8          	mov    %rdi,-0x8(%rbp)
    af16:	48 89 75 f0          	mov    %rsi,-0x10(%rbp)
    af1a:	48 8b 45 f0          	mov    -0x10(%rbp),%rax
    af1e:	48 8b 10             	mov    (%rax),%rdx
    af21:	48 8b 45 f8          	mov    -0x8(%rbp),%rax
    af25:	48 89 10             	mov    %rdx,(%rax)
    af28:	48 8b 45 f0          	mov    -0x10(%rbp),%rax
    af2c:	48 8b 50 08          	mov    0x8(%rax),%rdx
    af30:	48 8b 45 f8          	mov    -0x8(%rbp),%rax
    af34:	48 89 50 08          	mov    %rdx,0x8(%rax)
    af38:	48 8b 45 f0          	mov    -0x10(%rbp),%rax
    af3c:	48 8b 50 10          	mov    0x10(%rax),%rdx
    af40:	48 8b 45 f8          	mov    -0x8(%rbp),%rax
    af44:	48 89 50 10          	mov    %rdx,0x10(%rax)
    af48:	48 8b 45 f0          	mov    -0x10(%rbp),%rax
    af4c:	48 c7 40 10 00 00 00 	movq   $0x0,0x10(%rax)
    af53:	00 
    af54:	48 8b 45 f0          	mov    -0x10(%rbp),%rax
    af58:	48 8b 50 10          	mov    0x10(%rax),%rdx
    af5c:	48 8b 45 f0          	mov    -0x10(%rbp),%rax
    af60:	48 89 50 08          	mov    %rdx,0x8(%rax)
    af64:	48 8b 45 f0          	mov    -0x10(%rbp),%rax
    af68:	48 8b 50 08          	mov    0x8(%rax),%rdx
    af6c:	48 8b 45 f0          	mov    -0x10(%rbp),%rax
    af70:	48 89 10             	mov    %rdx,(%rax)
    af73:	90                   	nop
    af74:	5d                   	pop    %rbp
    af75:	c3                   	ret    

000000000000af76 <_ZNSt6vectorI10location_tSaIS0_EE14_M_move_assignEOS2_St17integral_constantIbLb1EE>:
    af76:	f3 0f 1e fa          	endbr64 
    af7a:	55                   	push   %rbp
    af7b:	48 89 e5             	mov    %rsp,%rbp
    af7e:	53                   	push   %rbx
    af7f:	48 83 ec 48          	sub    $0x48,%rsp
    af83:	48 89 7d b8          	mov    %rdi,-0x48(%rbp)
    af87:	48 89 75 b0          	mov    %rsi,-0x50(%rbp)
    af8b:	64 48 8b 04 25 28 00 	mov    %fs:0x28,%rax
    af92:	00 00 
    af94:	48 89 45 e8          	mov    %rax,-0x18(%rbp)
    af98:	31 c0                	xor    %eax,%eax
    af9a:	48 8b 55 b8          	mov    -0x48(%rbp),%rdx
    af9e:	48 8d 45 cf          	lea    -0x31(%rbp),%rax
    afa2:	48 89 d6             	mov    %rdx,%rsi
    afa5:	48 89 c7             	mov    %rax,%rdi
    afa8:	e8 65 03 00 00       	call   b312 <_ZNKSt12_Vector_baseI10location_tSaIS0_EE13get_allocatorEv>
    afad:	48 8d 55 cf          	lea    -0x31(%rbp),%rdx
    afb1:	48 8d 45 d0          	lea    -0x30(%rbp),%rax
    afb5:	48 89 d6             	mov    %rdx,%rsi
    afb8:	48 89 c7             	mov    %rax,%rdi
    afbb:	e8 8a 03 00 00       	call   b34a <_ZNSt6vectorI10location_tSaIS0_EEC1ERKS1_>
    afc0:	48 8d 45 cf          	lea    -0x31(%rbp),%rax
    afc4:	48 89 c7             	mov    %rax,%rdi
    afc7:	e8 f6 9c ff ff       	call   4cc2 <_ZNSaI10location_tED1Ev>
    afcc:	48 8b 45 b8          	mov    -0x48(%rbp),%rax
    afd0:	48 8b 55 b0          	mov    -0x50(%rbp),%rdx
    afd4:	48 89 d6             	mov    %rdx,%rsi
    afd7:	48 89 c7             	mov    %rax,%rdi
    afda:	e8 95 03 00 00       	call   b374 <_ZNSt12_Vector_baseI10location_tSaIS0_EE17_Vector_impl_data12_M_swap_dataERS3_>
    afdf:	48 8b 55 b0          	mov    -0x50(%rbp),%rdx
    afe3:	48 8d 45 d0          	lea    -0x30(%rbp),%rax
    afe7:	48 89 d6             	mov    %rdx,%rsi
    afea:	48 89 c7             	mov    %rax,%rdi
    afed:	e8 82 03 00 00       	call   b374 <_ZNSt12_Vector_baseI10location_tSaIS0_EE17_Vector_impl_data12_M_swap_dataERS3_>
    aff2:	48 8b 45 b0          	mov    -0x50(%rbp),%rax
    aff6:	48 89 c7             	mov    %rax,%rdi
    aff9:	e8 7e 9b ff ff       	call   4b7c <_ZNSt12_Vector_baseI10location_tSaIS0_EE19_M_get_Tp_allocatorEv>
    affe:	48 89 c3             	mov    %rax,%rbx
    b001:	48 8b 45 b8          	mov    -0x48(%rbp),%rax
    b005:	48 89 c7             	mov    %rax,%rdi
    b008:	e8 6f 9b ff ff       	call   4b7c <_ZNSt12_Vector_baseI10location_tSaIS0_EE19_M_get_Tp_allocatorEv>
    b00d:	48 89 de             	mov    %rbx,%rsi
    b010:	48 89 c7             	mov    %rax,%rdi
    b013:	e8 db 03 00 00       	call   b3f3 <_ZSt15__alloc_on_moveISaI10location_tEEvRT_S3_>
    b018:	48 8d 45 d0          	lea    -0x30(%rbp),%rax
    b01c:	48 89 c7             	mov    %rax,%rdi
    b01f:	e8 5c 98 ff ff       	call   4880 <_ZNSt6vectorI10location_tSaIS0_EED1Ev>
    b024:	48 8b 45 e8          	mov    -0x18(%rbp),%rax
    b028:	64 48 2b 04 25 28 00 	sub    %fs:0x28,%rax
    b02f:	00 00 
    b031:	74 05                	je     b038 <_ZNSt6vectorI10location_tSaIS0_EE14_M_move_assignEOS2_St17integral_constantIbLb1EE+0xc2>
    b033:	e8 c8 75 ff ff       	call   2600 <__stack_chk_fail@plt>
    b038:	48 8b 5d f8          	mov    -0x8(%rbp),%rbx
    b03c:	c9                   	leave  
    b03d:	c3                   	ret    

000000000000b03e <_ZSt12__niter_baseIPK10location_tSt6vectorIS0_SaIS0_EEET_N9__gnu_cxx17__normal_iteratorIS6_T0_EE>:
    b03e:	f3 0f 1e fa          	endbr64 
    b042:	55                   	push   %rbp
    b043:	48 89 e5             	mov    %rsp,%rbp
    b046:	48 83 ec 10          	sub    $0x10,%rsp
    b04a:	48 89 7d f8          	mov    %rdi,-0x8(%rbp)
    b04e:	48 8d 45 f8          	lea    -0x8(%rbp),%rax
    b052:	48 89 c7             	mov    %rax,%rdi
    b055:	e8 bc 03 00 00       	call   b416 <_ZNK9__gnu_cxx17__normal_iteratorIPK10location_tSt6vectorIS1_SaIS1_EEE4baseEv>
    b05a:	48 8b 00             	mov    (%rax),%rax
    b05d:	c9                   	leave  
    b05e:	c3                   	ret    

000000000000b05f <_ZSt12__niter_baseIP10location_tSt6vectorIS0_SaIS0_EEET_N9__gnu_cxx17__normal_iteratorIS5_T0_EE>:
    b05f:	f3 0f 1e fa          	endbr64 
    b063:	55                   	push   %rbp
    b064:	48 89 e5             	mov    %rsp,%rbp
    b067:	48 83 ec 10          	sub    $0x10,%rsp
    b06b:	48 89 7d f8          	mov    %rdi,-0x8(%rbp)
    b06f:	48 8d 45 f8          	lea    -0x8(%rbp),%rax
    b073:	48 89 c7             	mov    %rax,%rdi
    b076:	e8 ad 03 00 00       	call   b428 <_ZNK9__gnu_cxx17__normal_iteratorIP10location_tSt6vectorIS1_SaIS1_EEE4baseEv>
    b07b:	48 8b 00             	mov    (%rax),%rax
    b07e:	c9                   	leave  
    b07f:	c3                   	ret    

000000000000b080 <_ZSt14__copy_move_a1ILb0EPK10location_tPS0_ET1_T0_S5_S4_>:
    b080:	f3 0f 1e fa          	endbr64 
    b084:	55                   	push   %rbp
    b085:	48 89 e5             	mov    %rsp,%rbp
    b088:	48 83 ec 20          	sub    $0x20,%rsp
    b08c:	48 89 7d f8          	mov    %rdi,-0x8(%rbp)
    b090:	48 89 75 f0          	mov    %rsi,-0x10(%rbp)
    b094:	48 89 55 e8          	mov    %rdx,-0x18(%rbp)
    b098:	48 8b 55 e8          	mov    -0x18(%rbp),%rdx
    b09c:	48 8b 4d f0          	mov    -0x10(%rbp),%rcx
    b0a0:	48 8b 45 f8          	mov    -0x8(%rbp),%rax
    b0a4:	48 89 ce             	mov    %rcx,%rsi
    b0a7:	48 89 c7             	mov    %rax,%rdi
    b0aa:	e8 8b 03 00 00       	call   b43a <_ZSt14__copy_move_a2ILb0EPK10location_tPS0_ET1_T0_S5_S4_>
    b0af:	c9                   	leave  
    b0b0:	c3                   	ret    

000000000000b0b1 <_ZSt12__niter_wrapIN9__gnu_cxx17__normal_iteratorIP10location_tSt6vectorIS2_SaIS2_EEEES3_ET_S8_T0_>:
    b0b1:	f3 0f 1e fa          	endbr64 
    b0b5:	55                   	push   %rbp
    b0b6:	48 89 e5             	mov    %rsp,%rbp
    b0b9:	48 83 ec 10          	sub    $0x10,%rsp
    b0bd:	48 89 7d f8          	mov    %rdi,-0x8(%rbp)
    b0c1:	48 89 75 f0          	mov    %rsi,-0x10(%rbp)
    b0c5:	48 8b 45 f8          	mov    -0x8(%rbp),%rax
    b0c9:	48 89 c7             	mov    %rax,%rdi
    b0cc:	e8 8e ff ff ff       	call   b05f <_ZSt12__niter_baseIP10location_tSt6vectorIS0_SaIS0_EEET_N9__gnu_cxx17__normal_iteratorIS5_T0_EE>
    b0d1:	48 89 c2             	mov    %rax,%rdx
    b0d4:	48 8b 45 f0          	mov    -0x10(%rbp),%rax
    b0d8:	48 29 d0             	sub    %rdx,%rax
    b0db:	48 c1 f8 03          	sar    $0x3,%rax
    b0df:	48 89 c2             	mov    %rax,%rdx
    b0e2:	48 8d 45 f8          	lea    -0x8(%rbp),%rax
    b0e6:	48 89 d6             	mov    %rdx,%rsi
    b0e9:	48 89 c7             	mov    %rax,%rdi
    b0ec:	e8 7b 03 00 00       	call   b46c <_ZNK9__gnu_cxx17__normal_iteratorIP10location_tSt6vectorIS1_SaIS1_EEEplEl>
    b0f1:	c9                   	leave  
    b0f2:	c3                   	ret    

000000000000b0f3 <_ZNSt12_Destroy_auxILb1EE9__destroyIN9__gnu_cxx17__normal_iteratorIP10location_tSt6vectorIS4_SaIS4_EEEEEEvT_SA_>:
    b0f3:	f3 0f 1e fa          	endbr64 
    b0f7:	55                   	push   %rbp
    b0f8:	48 89 e5             	mov    %rsp,%rbp
    b0fb:	48 89 7d f8          	mov    %rdi,-0x8(%rbp)
    b0ff:	48 89 75 f0          	mov    %rsi,-0x10(%rbp)
    b103:	90                   	nop
    b104:	5d                   	pop    %rbp
    b105:	c3                   	ret    

000000000000b106 <_ZSt12__niter_baseIP10location_tET_S2_>:
    b106:	f3 0f 1e fa          	endbr64 
    b10a:	55                   	push   %rbp
    b10b:	48 89 e5             	mov    %rsp,%rbp
    b10e:	48 89 7d f8          	mov    %rdi,-0x8(%rbp)
    b112:	48 8b 45 f8          	mov    -0x8(%rbp),%rax
    b116:	5d                   	pop    %rbp
    b117:	c3                   	ret    

000000000000b118 <_ZSt14__copy_move_a1ILb0EP10location_tS1_ET1_T0_S3_S2_>:
    b118:	f3 0f 1e fa          	endbr64 
    b11c:	55                   	push   %rbp
    b11d:	48 89 e5             	mov    %rsp,%rbp
    b120:	48 83 ec 20          	sub    $0x20,%rsp
    b124:	48 89 7d f8          	mov    %rdi,-0x8(%rbp)
    b128:	48 89 75 f0          	mov    %rsi,-0x10(%rbp)
    b12c:	48 89 55 e8          	mov    %rdx,-0x18(%rbp)
    b130:	48 8b 55 e8          	mov    -0x18(%rbp),%rdx
    b134:	48 8b 4d f0          	mov    -0x10(%rbp),%rcx
    b138:	48 8b 45 f8          	mov    -0x8(%rbp),%rax
    b13c:	48 89 ce             	mov    %rcx,%rsi
    b13f:	48 89 c7             	mov    %rax,%rdi
    b142:	e8 8b 03 00 00       	call   b4d2 <_ZSt14__copy_move_a2ILb0EP10location_tS1_ET1_T0_S3_S2_>
    b147:	c9                   	leave  
    b148:	c3                   	ret    

000000000000b149 <_ZSt12__niter_wrapIP10location_tET_RKS2_S2_>:
    b149:	f3 0f 1e fa          	endbr64 
    b14d:	55                   	push   %rbp
    b14e:	48 89 e5             	mov    %rsp,%rbp
    b151:	48 89 7d f8          	mov    %rdi,-0x8(%rbp)
    b155:	48 89 75 f0          	mov    %rsi,-0x10(%rbp)
    b159:	48 8b 45 f0          	mov    -0x10(%rbp),%rax
    b15d:	5d                   	pop    %rbp
    b15e:	c3                   	ret    

000000000000b15f <_ZNSt20__uninitialized_copyILb1EE13__uninit_copyIP10location_tS3_EET0_T_S5_S4_>:
    b15f:	f3 0f 1e fa          	endbr64 
    b163:	55                   	push   %rbp
    b164:	48 89 e5             	mov    %rsp,%rbp
    b167:	48 83 ec 20          	sub    $0x20,%rsp
    b16b:	48 89 7d f8          	mov    %rdi,-0x8(%rbp)
    b16f:	48 89 75 f0          	mov    %rsi,-0x10(%rbp)
    b173:	48 89 55 e8          	mov    %rdx,-0x18(%rbp)
    b177:	48 8b 55 e8          	mov    -0x18(%rbp),%rdx
    b17b:	48 8b 4d f0          	mov    -0x10(%rbp),%rcx
    b17f:	48 8b 45 f8          	mov    -0x8(%rbp),%rax
    b183:	48 89 ce             	mov    %rcx,%rsi
    b186:	48 89 c7             	mov    %rax,%rdi
    b189:	e8 9e f5 ff ff       	call   a72c <_ZSt4copyIP10location_tS1_ET0_T_S3_S2_>
    b18e:	c9                   	leave  
    b18f:	c3                   	ret    

000000000000b190 <_ZSt12__get_helperILm0ERKNSt7__cxx1112basic_stringIcSt11char_traitsIcESaIcEEEJEERT0_RSt11_Tuple_implIXT_EJS8_DpT1_EE>:
    b190:	f3 0f 1e fa          	endbr64 
    b194:	55                   	push   %rbp
    b195:	48 89 e5             	mov    %rsp,%rbp
    b198:	48 83 ec 10          	sub    $0x10,%rsp
    b19c:	48 89 7d f8          	mov    %rdi,-0x8(%rbp)
    b1a0:	48 8b 45 f8          	mov    -0x8(%rbp),%rax
    b1a4:	48 89 c7             	mov    %rax,%rdi
    b1a7:	e8 57 03 00 00       	call   b503 <_ZNSt11_Tuple_implILm0EJRKNSt7__cxx1112basic_stringIcSt11char_traitsIcESaIcEEEEE7_M_headERS8_>
    b1ac:	c9                   	leave  
    b1ad:	c3                   	ret    

000000000000b1ae <_ZNSt16allocator_traitsISaIP12netlist_elemEE37select_on_container_copy_constructionERKS2_>:
    b1ae:	f3 0f 1e fa          	endbr64 
    b1b2:	55                   	push   %rbp
    b1b3:	48 89 e5             	mov    %rsp,%rbp
    b1b6:	48 83 ec 10          	sub    $0x10,%rsp
    b1ba:	48 89 7d f8          	mov    %rdi,-0x8(%rbp)
    b1be:	48 89 75 f0          	mov    %rsi,-0x10(%rbp)
    b1c2:	48 8b 55 f0          	mov    -0x10(%rbp),%rdx
    b1c6:	48 8b 45 f8          	mov    -0x8(%rbp),%rax
    b1ca:	48 89 d6             	mov    %rdx,%rsi
    b1cd:	48 89 c7             	mov    %rax,%rdi
    b1d0:	e8 4d 03 00 00       	call   b522 <_ZNSaIP12netlist_elemEC1ERKS1_>
    b1d5:	48 8b 45 f8          	mov    -0x8(%rbp),%rax
    b1d9:	c9                   	leave  
    b1da:	c3                   	ret    
    b1db:	90                   	nop

000000000000b1dc <_ZNSt12_Vector_baseIP12netlist_elemSaIS1_EE12_Vector_implC1ERKS2_>:
    b1dc:	f3 0f 1e fa          	endbr64 
    b1e0:	55                   	push   %rbp
    b1e1:	48 89 e5             	mov    %rsp,%rbp
    b1e4:	48 83 ec 10          	sub    $0x10,%rsp
    b1e8:	48 89 7d f8          	mov    %rdi,-0x8(%rbp)
    b1ec:	48 89 75 f0          	mov    %rsi,-0x10(%rbp)
    b1f0:	48 8b 55 f0          	mov    -0x10(%rbp),%rdx
    b1f4:	48 8b 45 f8          	mov    -0x8(%rbp),%rax
    b1f8:	48 89 d6             	mov    %rdx,%rsi
    b1fb:	48 89 c7             	mov    %rax,%rdi
    b1fe:	e8 1f 03 00 00       	call   b522 <_ZNSaIP12netlist_elemEC1ERKS1_>
    b203:	48 8b 45 f8          	mov    -0x8(%rbp),%rax
    b207:	48 89 c7             	mov    %rax,%rdi
    b20a:	e8 3d 03 00 00       	call   b54c <_ZNSt12_Vector_baseIP12netlist_elemSaIS1_EE17_Vector_impl_dataC1Ev>
    b20f:	90                   	nop
    b210:	c9                   	leave  
    b211:	c3                   	ret    

000000000000b212 <_ZNSt12_Vector_baseIP12netlist_elemSaIS1_EE17_M_create_storageEm>:
    b212:	f3 0f 1e fa          	endbr64 
    b216:	55                   	push   %rbp
    b217:	48 89 e5             	mov    %rsp,%rbp
    b21a:	48 83 ec 10          	sub    $0x10,%rsp
    b21e:	48 89 7d f8          	mov    %rdi,-0x8(%rbp)
    b222:	48 89 75 f0          	mov    %rsi,-0x10(%rbp)
    b226:	48 8b 55 f0          	mov    -0x10(%rbp),%rdx
    b22a:	48 8b 45 f8          	mov    -0x8(%rbp),%rax
    b22e:	48 89 d6             	mov    %rdx,%rsi
    b231:	48 89 c7             	mov    %rax,%rdi
    b234:	e8 ab d3 ff ff       	call   85e4 <_ZNSt12_Vector_baseIP12netlist_elemSaIS1_EE11_M_allocateEm>
    b239:	48 8b 55 f8          	mov    -0x8(%rbp),%rdx
    b23d:	48 89 02             	mov    %rax,(%rdx)
    b240:	48 8b 45 f8          	mov    -0x8(%rbp),%rax
    b244:	48 8b 10             	mov    (%rax),%rdx
    b247:	48 8b 45 f8          	mov    -0x8(%rbp),%rax
    b24b:	48 89 50 08          	mov    %rdx,0x8(%rax)
    b24f:	48 8b 45 f8          	mov    -0x8(%rbp),%rax
    b253:	48 8b 10             	mov    (%rax),%rdx
    b256:	48 8b 45 f0          	mov    -0x10(%rbp),%rax
    b25a:	48 c1 e0 03          	shl    $0x3,%rax
    b25e:	48 01 c2             	add    %rax,%rdx
    b261:	48 8b 45 f8          	mov    -0x8(%rbp),%rax
    b265:	48 89 50 10          	mov    %rdx,0x10(%rax)
    b269:	90                   	nop
    b26a:	c9                   	leave  
    b26b:	c3                   	ret    

000000000000b26c <_ZN9__gnu_cxx17__normal_iteratorIPKP12netlist_elemSt6vectorIS2_SaIS2_EEEC1ERKS4_>:
    b26c:	f3 0f 1e fa          	endbr64 
    b270:	55                   	push   %rbp
    b271:	48 89 e5             	mov    %rsp,%rbp
    b274:	48 89 7d f8          	mov    %rdi,-0x8(%rbp)
    b278:	48 89 75 f0          	mov    %rsi,-0x10(%rbp)
    b27c:	48 8b 45 f0          	mov    -0x10(%rbp),%rax
    b280:	48 8b 10             	mov    (%rax),%rdx
    b283:	48 8b 45 f8          	mov    -0x8(%rbp),%rax
    b287:	48 89 10             	mov    %rdx,(%rax)
    b28a:	90                   	nop
    b28b:	5d                   	pop    %rbp
    b28c:	c3                   	ret    

000000000000b28d <_ZSt18uninitialized_copyIN9__gnu_cxx17__normal_iteratorIPKP12netlist_elemSt6vectorIS3_SaIS3_EEEEPS3_ET0_T_SC_SB_>:
    b28d:	f3 0f 1e fa          	endbr64 
    b291:	55                   	push   %rbp
    b292:	48 89 e5             	mov    %rsp,%rbp
    b295:	48 83 ec 30          	sub    $0x30,%rsp
    b299:	48 89 7d e8          	mov    %rdi,-0x18(%rbp)
    b29d:	48 89 75 e0          	mov    %rsi,-0x20(%rbp)
    b2a1:	48 89 55 d8          	mov    %rdx,-0x28(%rbp)
    b2a5:	c6 45 ff 01          	movb   $0x1,-0x1(%rbp)
    b2a9:	48 8b 55 d8          	mov    -0x28(%rbp),%rdx
    b2ad:	48 8b 4d e0          	mov    -0x20(%rbp),%rcx
    b2b1:	48 8b 45 e8          	mov    -0x18(%rbp),%rax
    b2b5:	48 89 ce             	mov    %rcx,%rsi
    b2b8:	48 89 c7             	mov    %rax,%rdi
    b2bb:	e8 be 02 00 00       	call   b57e <_ZNSt20__uninitialized_copyILb1EE13__uninit_copyIN9__gnu_cxx17__normal_iteratorIPKP12netlist_elemSt6vectorIS5_SaIS5_EEEEPS5_EET0_T_SE_SD_>
    b2c0:	c9                   	leave  
    b2c1:	c3                   	ret    

000000000000b2c2 <_ZSt4copyIN9__gnu_cxx17__normal_iteratorIPK10location_tSt6vectorIS2_SaIS2_EEEEPS2_ET0_T_SB_SA_>:
    b2c2:	f3 0f 1e fa          	endbr64 
    b2c6:	55                   	push   %rbp
    b2c7:	48 89 e5             	mov    %rsp,%rbp
    b2ca:	53                   	push   %rbx
    b2cb:	48 83 ec 28          	sub    $0x28,%rsp
    b2cf:	48 89 7d e8          	mov    %rdi,-0x18(%rbp)
    b2d3:	48 89 75 e0          	mov    %rsi,-0x20(%rbp)
    b2d7:	48 89 55 d8          	mov    %rdx,-0x28(%rbp)
    b2db:	48 8b 45 e0          	mov    -0x20(%rbp),%rax
    b2df:	48 89 c7             	mov    %rax,%rdi
    b2e2:	e8 b6 f8 ff ff       	call   ab9d <_ZSt12__miter_baseIN9__gnu_cxx17__normal_iteratorIPK10location_tSt6vectorIS2_SaIS2_EEEEET_S9_>
    b2e7:	48 89 c3             	mov    %rax,%rbx
    b2ea:	48 8b 45 e8          	mov    -0x18(%rbp),%rax
    b2ee:	48 89 c7             	mov    %rax,%rdi
    b2f1:	e8 a7 f8 ff ff       	call   ab9d <_ZSt12__miter_baseIN9__gnu_cxx17__normal_iteratorIPK10location_tSt6vectorIS2_SaIS2_EEEEET_S9_>
    b2f6:	48 89 c1             	mov    %rax,%rcx
    b2f9:	48 8b 45 d8          	mov    -0x28(%rbp),%rax
    b2fd:	48 89 c2             	mov    %rax,%rdx
    b300:	48 89 de             	mov    %rbx,%rsi
    b303:	48 89 cf             	mov    %rcx,%rdi
    b306:	e8 a4 02 00 00       	call   b5af <_ZSt13__copy_move_aILb0EN9__gnu_cxx17__normal_iteratorIPK10location_tSt6vectorIS2_SaIS2_EEEEPS2_ET1_T0_SB_SA_>
    b30b:	48 8b 5d f8          	mov    -0x8(%rbp),%rbx
    b30f:	c9                   	leave  
    b310:	c3                   	ret    
    b311:	90                   	nop

000000000000b312 <_ZNKSt12_Vector_baseI10location_tSaIS0_EE13get_allocatorEv>:
    b312:	f3 0f 1e fa          	endbr64 
    b316:	55                   	push   %rbp
    b317:	48 89 e5             	mov    %rsp,%rbp
    b31a:	48 83 ec 10          	sub    $0x10,%rsp
    b31e:	48 89 7d f8          	mov    %rdi,-0x8(%rbp)
    b322:	48 89 75 f0          	mov    %rsi,-0x10(%rbp)
    b326:	48 8b 45 f0          	mov    -0x10(%rbp),%rax
    b32a:	48 89 c7             	mov    %rax,%rdi
    b32d:	e8 d2 ef ff ff       	call   a304 <_ZNKSt12_Vector_baseI10location_tSaIS0_EE19_M_get_Tp_allocatorEv>
    b332:	48 89 c2             	mov    %rax,%rdx
    b335:	48 8b 45 f8          	mov    -0x8(%rbp),%rax
    b339:	48 89 d6             	mov    %rdx,%rsi
    b33c:	48 89 c7             	mov    %rax,%rdi
    b33f:	e8 88 cb ff ff       	call   7ecc <_ZNSaI10location_tEC1ERKS0_>
    b344:	48 8b 45 f8          	mov    -0x8(%rbp),%rax
    b348:	c9                   	leave  
    b349:	c3                   	ret    

000000000000b34a <_ZNSt6vectorI10location_tSaIS0_EEC1ERKS1_>:
    b34a:	f3 0f 1e fa          	endbr64 
    b34e:	55                   	push   %rbp
    b34f:	48 89 e5             	mov    %rsp,%rbp
    b352:	48 83 ec 10          	sub    $0x10,%rsp
    b356:	48 89 7d f8          	mov    %rdi,-0x8(%rbp)
    b35a:	48 89 75 f0          	mov    %rsi,-0x10(%rbp)
    b35e:	48 8b 45 f8          	mov    -0x8(%rbp),%rax
    b362:	48 8b 55 f0          	mov    -0x10(%rbp),%rdx
    b366:	48 89 d6             	mov    %rdx,%rsi
    b369:	48 89 c7             	mov    %rax,%rdi
    b36c:	e8 ad 02 00 00       	call   b61e <_ZNSt12_Vector_baseI10location_tSaIS0_EEC1ERKS1_>
    b371:	90                   	nop
    b372:	c9                   	leave  
    b373:	c3                   	ret    

000000000000b374 <_ZNSt12_Vector_baseI10location_tSaIS0_EE17_Vector_impl_data12_M_swap_dataERS3_>:
    b374:	f3 0f 1e fa          	endbr64 
    b378:	55                   	push   %rbp
    b379:	48 89 e5             	mov    %rsp,%rbp
    b37c:	48 83 ec 30          	sub    $0x30,%rsp
    b380:	48 89 7d d8          	mov    %rdi,-0x28(%rbp)
    b384:	48 89 75 d0          	mov    %rsi,-0x30(%rbp)
    b388:	64 48 8b 04 25 28 00 	mov    %fs:0x28,%rax
    b38f:	00 00 
    b391:	48 89 45 f8          	mov    %rax,-0x8(%rbp)
    b395:	31 c0                	xor    %eax,%eax
    b397:	48 8d 45 e0          	lea    -0x20(%rbp),%rax
    b39b:	48 89 c7             	mov    %rax,%rdi
    b39e:	e8 77 d9 ff ff       	call   8d1a <_ZNSt12_Vector_baseI10location_tSaIS0_EE17_Vector_impl_dataC1Ev>
    b3a3:	48 8b 55 d8          	mov    -0x28(%rbp),%rdx
    b3a7:	48 8d 45 e0          	lea    -0x20(%rbp),%rax
    b3ab:	48 89 d6             	mov    %rdx,%rsi
    b3ae:	48 89 c7             	mov    %rax,%rdi
    b3b1:	e8 92 02 00 00       	call   b648 <_ZNSt12_Vector_baseI10location_tSaIS0_EE17_Vector_impl_data12_M_copy_dataERKS3_>
    b3b6:	48 8b 55 d0          	mov    -0x30(%rbp),%rdx
    b3ba:	48 8b 45 d8          	mov    -0x28(%rbp),%rax
    b3be:	48 89 d6             	mov    %rdx,%rsi
    b3c1:	48 89 c7             	mov    %rax,%rdi
    b3c4:	e8 7f 02 00 00       	call   b648 <_ZNSt12_Vector_baseI10location_tSaIS0_EE17_Vector_impl_data12_M_copy_dataERKS3_>
    b3c9:	48 8d 55 e0          	lea    -0x20(%rbp),%rdx
    b3cd:	48 8b 45 d0          	mov    -0x30(%rbp),%rax
    b3d1:	48 89 d6             	mov    %rdx,%rsi
    b3d4:	48 89 c7             	mov    %rax,%rdi
    b3d7:	e8 6c 02 00 00       	call   b648 <_ZNSt12_Vector_baseI10location_tSaIS0_EE17_Vector_impl_data12_M_copy_dataERKS3_>
    b3dc:	90                   	nop
    b3dd:	48 8b 45 f8          	mov    -0x8(%rbp),%rax
    b3e1:	64 48 2b 04 25 28 00 	sub    %fs:0x28,%rax
    b3e8:	00 00 
    b3ea:	74 05                	je     b3f1 <_ZNSt12_Vector_baseI10location_tSaIS0_EE17_Vector_impl_data12_M_swap_dataERS3_+0x7d>
    b3ec:	e8 0f 72 ff ff       	call   2600 <__stack_chk_fail@plt>
    b3f1:	c9                   	leave  
    b3f2:	c3                   	ret    

000000000000b3f3 <_ZSt15__alloc_on_moveISaI10location_tEEvRT_S3_>:
    b3f3:	f3 0f 1e fa          	endbr64 
    b3f7:	55                   	push   %rbp
    b3f8:	48 89 e5             	mov    %rsp,%rbp
    b3fb:	48 83 ec 10          	sub    $0x10,%rsp
    b3ff:	48 89 7d f8          	mov    %rdi,-0x8(%rbp)
    b403:	48 89 75 f0          	mov    %rsi,-0x10(%rbp)
    b407:	48 8b 45 f0          	mov    -0x10(%rbp),%rax
    b40b:	48 89 c7             	mov    %rax,%rdi
    b40e:	e8 76 02 00 00       	call   b689 <_ZSt4moveIRSaI10location_tEEONSt16remove_referenceIT_E4typeEOS4_>
    b413:	90                   	nop
    b414:	c9                   	leave  
    b415:	c3                   	ret    

000000000000b416 <_ZNK9__gnu_cxx17__normal_iteratorIPK10location_tSt6vectorIS1_SaIS1_EEE4baseEv>:
    b416:	f3 0f 1e fa          	endbr64 
    b41a:	55                   	push   %rbp
    b41b:	48 89 e5             	mov    %rsp,%rbp
    b41e:	48 89 7d f8          	mov    %rdi,-0x8(%rbp)
    b422:	48 8b 45 f8          	mov    -0x8(%rbp),%rax
    b426:	5d                   	pop    %rbp
    b427:	c3                   	ret    

000000000000b428 <_ZNK9__gnu_cxx17__normal_iteratorIP10location_tSt6vectorIS1_SaIS1_EEE4baseEv>:
    b428:	f3 0f 1e fa          	endbr64 
    b42c:	55                   	push   %rbp
    b42d:	48 89 e5             	mov    %rsp,%rbp
    b430:	48 89 7d f8          	mov    %rdi,-0x8(%rbp)
    b434:	48 8b 45 f8          	mov    -0x8(%rbp),%rax
    b438:	5d                   	pop    %rbp
    b439:	c3                   	ret    

000000000000b43a <_ZSt14__copy_move_a2ILb0EPK10location_tPS0_ET1_T0_S5_S4_>:
    b43a:	f3 0f 1e fa          	endbr64 
    b43e:	55                   	push   %rbp
    b43f:	48 89 e5             	mov    %rsp,%rbp
    b442:	48 83 ec 20          	sub    $0x20,%rsp
    b446:	48 89 7d f8          	mov    %rdi,-0x8(%rbp)
    b44a:	48 89 75 f0          	mov    %rsi,-0x10(%rbp)
    b44e:	48 89 55 e8          	mov    %rdx,-0x18(%rbp)
    b452:	48 8b 55 e8          	mov    -0x18(%rbp),%rdx
    b456:	48 8b 4d f0          	mov    -0x10(%rbp),%rcx
    b45a:	48 8b 45 f8          	mov    -0x8(%rbp),%rax
    b45e:	48 89 ce             	mov    %rcx,%rsi
    b461:	48 89 c7             	mov    %rax,%rdi
    b464:	e8 32 02 00 00       	call   b69b <_ZNSt11__copy_moveILb0ELb1ESt26random_access_iterator_tagE8__copy_mI10location_tEEPT_PKS4_S7_S5_>
    b469:	c9                   	leave  
    b46a:	c3                   	ret    
    b46b:	90                   	nop

000000000000b46c <_ZNK9__gnu_cxx17__normal_iteratorIP10location_tSt6vectorIS1_SaIS1_EEEplEl>:
    b46c:	f3 0f 1e fa          	endbr64 
    b470:	55                   	push   %rbp
    b471:	48 89 e5             	mov    %rsp,%rbp
    b474:	48 83 ec 30          	sub    $0x30,%rsp
    b478:	48 89 7d d8          	mov    %rdi,-0x28(%rbp)
    b47c:	48 89 75 d0          	mov    %rsi,-0x30(%rbp)
    b480:	64 48 8b 04 25 28 00 	mov    %fs:0x28,%rax
    b487:	00 00 
    b489:	48 89 45 f8          	mov    %rax,-0x8(%rbp)
    b48d:	31 c0                	xor    %eax,%eax
    b48f:	48 8b 45 d8          	mov    -0x28(%rbp),%rax
    b493:	48 8b 10             	mov    (%rax),%rdx
    b496:	48 8b 45 d0          	mov    -0x30(%rbp),%rax
    b49a:	48 c1 e0 03          	shl    $0x3,%rax
    b49e:	48 01 d0             	add    %rdx,%rax
    b4a1:	48 89 45 e8          	mov    %rax,-0x18(%rbp)
    b4a5:	48 8d 55 e8          	lea    -0x18(%rbp),%rdx
    b4a9:	48 8d 45 f0          	lea    -0x10(%rbp),%rax
    b4ad:	48 89 d6             	mov    %rdx,%rsi
    b4b0:	48 89 c7             	mov    %rax,%rdi
    b4b3:	e8 c4 f6 ff ff       	call   ab7c <_ZN9__gnu_cxx17__normal_iteratorIP10location_tSt6vectorIS1_SaIS1_EEEC1ERKS2_>
    b4b8:	48 8b 45 f0          	mov    -0x10(%rbp),%rax
    b4bc:	48 8b 55 f8          	mov    -0x8(%rbp),%rdx
    b4c0:	64 48 2b 14 25 28 00 	sub    %fs:0x28,%rdx
    b4c7:	00 00 
    b4c9:	74 05                	je     b4d0 <_ZNK9__gnu_cxx17__normal_iteratorIP10location_tSt6vectorIS1_SaIS1_EEEplEl+0x64>
    b4cb:	e8 30 71 ff ff       	call   2600 <__stack_chk_fail@plt>
    b4d0:	c9                   	leave  
    b4d1:	c3                   	ret    

000000000000b4d2 <_ZSt14__copy_move_a2ILb0EP10location_tS1_ET1_T0_S3_S2_>:
    b4d2:	f3 0f 1e fa          	endbr64 
    b4d6:	55                   	push   %rbp
    b4d7:	48 89 e5             	mov    %rsp,%rbp
    b4da:	48 83 ec 20          	sub    $0x20,%rsp
    b4de:	48 89 7d f8          	mov    %rdi,-0x8(%rbp)
    b4e2:	48 89 75 f0          	mov    %rsi,-0x10(%rbp)
    b4e6:	48 89 55 e8          	mov    %rdx,-0x18(%rbp)
    b4ea:	48 8b 55 e8          	mov    -0x18(%rbp),%rdx
    b4ee:	48 8b 4d f0          	mov    -0x10(%rbp),%rcx
    b4f2:	48 8b 45 f8          	mov    -0x8(%rbp),%rax
    b4f6:	48 89 ce             	mov    %rcx,%rsi
    b4f9:	48 89 c7             	mov    %rax,%rdi
    b4fc:	e8 9a 01 00 00       	call   b69b <_ZNSt11__copy_moveILb0ELb1ESt26random_access_iterator_tagE8__copy_mI10location_tEEPT_PKS4_S7_S5_>
    b501:	c9                   	leave  
    b502:	c3                   	ret    

000000000000b503 <_ZNSt11_Tuple_implILm0EJRKNSt7__cxx1112basic_stringIcSt11char_traitsIcESaIcEEEEE7_M_headERS8_>:
    b503:	f3 0f 1e fa          	endbr64 
    b507:	55                   	push   %rbp
    b508:	48 89 e5             	mov    %rsp,%rbp
    b50b:	48 83 ec 10          	sub    $0x10,%rsp
    b50f:	48 89 7d f8          	mov    %rdi,-0x8(%rbp)
    b513:	48 8b 45 f8          	mov    -0x8(%rbp),%rax
    b517:	48 89 c7             	mov    %rax,%rdi
    b51a:	e8 df 01 00 00       	call   b6fe <_ZNSt10_Head_baseILm0ERKNSt7__cxx1112basic_stringIcSt11char_traitsIcESaIcEEELb0EE7_M_headERS8_>
    b51f:	c9                   	leave  
    b520:	c3                   	ret    
    b521:	90                   	nop

000000000000b522 <_ZNSaIP12netlist_elemEC1ERKS1_>:
    b522:	f3 0f 1e fa          	endbr64 
    b526:	55                   	push   %rbp
    b527:	48 89 e5             	mov    %rsp,%rbp
    b52a:	48 83 ec 10          	sub    $0x10,%rsp
    b52e:	48 89 7d f8          	mov    %rdi,-0x8(%rbp)
    b532:	48 89 75 f0          	mov    %rsi,-0x10(%rbp)
    b536:	48 8b 55 f0          	mov    -0x10(%rbp),%rdx
    b53a:	48 8b 45 f8          	mov    -0x8(%rbp),%rax
    b53e:	48 89 d6             	mov    %rdx,%rsi
    b541:	48 89 c7             	mov    %rax,%rdi
    b544:	e8 cb 01 00 00       	call   b714 <_ZN9__gnu_cxx13new_allocatorIP12netlist_elemEC1ERKS3_>
    b549:	90                   	nop
    b54a:	c9                   	leave  
    b54b:	c3                   	ret    

000000000000b54c <_ZNSt12_Vector_baseIP12netlist_elemSaIS1_EE17_Vector_impl_dataC1Ev>:
    b54c:	f3 0f 1e fa          	endbr64 
    b550:	55                   	push   %rbp
    b551:	48 89 e5             	mov    %rsp,%rbp
    b554:	48 89 7d f8          	mov    %rdi,-0x8(%rbp)
    b558:	48 8b 45 f8          	mov    -0x8(%rbp),%rax
    b55c:	48 c7 00 00 00 00 00 	movq   $0x0,(%rax)
    b563:	48 8b 45 f8          	mov    -0x8(%rbp),%rax
    b567:	48 c7 40 08 00 00 00 	movq   $0x0,0x8(%rax)
    b56e:	00 
    b56f:	48 8b 45 f8          	mov    -0x8(%rbp),%rax
    b573:	48 c7 40 10 00 00 00 	movq   $0x0,0x10(%rax)
    b57a:	00 
    b57b:	90                   	nop
    b57c:	5d                   	pop    %rbp
    b57d:	c3                   	ret    

000000000000b57e <_ZNSt20__uninitialized_copyILb1EE13__uninit_copyIN9__gnu_cxx17__normal_iteratorIPKP12netlist_elemSt6vectorIS5_SaIS5_EEEEPS5_EET0_T_SE_SD_>:
    b57e:	f3 0f 1e fa          	endbr64 
    b582:	55                   	push   %rbp
    b583:	48 89 e5             	mov    %rsp,%rbp
    b586:	48 83 ec 20          	sub    $0x20,%rsp
    b58a:	48 89 7d f8          	mov    %rdi,-0x8(%rbp)
    b58e:	48 89 75 f0          	mov    %rsi,-0x10(%rbp)
    b592:	48 89 55 e8          	mov    %rdx,-0x18(%rbp)
    b596:	48 8b 55 e8          	mov    -0x18(%rbp),%rdx
    b59a:	48 8b 4d f0          	mov    -0x10(%rbp),%rcx
    b59e:	48 8b 45 f8          	mov    -0x8(%rbp),%rax
    b5a2:	48 89 ce             	mov    %rcx,%rsi
    b5a5:	48 89 c7             	mov    %rax,%rdi
    b5a8:	e8 7a 01 00 00       	call   b727 <_ZSt4copyIN9__gnu_cxx17__normal_iteratorIPKP12netlist_elemSt6vectorIS3_SaIS3_EEEEPS3_ET0_T_SC_SB_>
    b5ad:	c9                   	leave  
    b5ae:	c3                   	ret    

000000000000b5af <_ZSt13__copy_move_aILb0EN9__gnu_cxx17__normal_iteratorIPK10location_tSt6vectorIS2_SaIS2_EEEEPS2_ET1_T0_SB_SA_>:
    b5af:	f3 0f 1e fa          	endbr64 
    b5b3:	55                   	push   %rbp
    b5b4:	48 89 e5             	mov    %rsp,%rbp
    b5b7:	41 54                	push   %r12
    b5b9:	53                   	push   %rbx
    b5ba:	48 83 ec 20          	sub    $0x20,%rsp
    b5be:	48 89 7d e8          	mov    %rdi,-0x18(%rbp)
    b5c2:	48 89 75 e0          	mov    %rsi,-0x20(%rbp)
    b5c6:	48 89 55 d8          	mov    %rdx,-0x28(%rbp)
    b5ca:	48 8b 45 d8          	mov    -0x28(%rbp),%rax
    b5ce:	48 89 c7             	mov    %rax,%rdi
    b5d1:	e8 30 fb ff ff       	call   b106 <_ZSt12__niter_baseIP10location_tET_S2_>
    b5d6:	49 89 c4             	mov    %rax,%r12
    b5d9:	48 8b 45 e0          	mov    -0x20(%rbp),%rax
    b5dd:	48 89 c7             	mov    %rax,%rdi
    b5e0:	e8 59 fa ff ff       	call   b03e <_ZSt12__niter_baseIPK10location_tSt6vectorIS0_SaIS0_EEET_N9__gnu_cxx17__normal_iteratorIS6_T0_EE>
    b5e5:	48 89 c3             	mov    %rax,%rbx
    b5e8:	48 8b 45 e8          	mov    -0x18(%rbp),%rax
    b5ec:	48 89 c7             	mov    %rax,%rdi
    b5ef:	e8 4a fa ff ff       	call   b03e <_ZSt12__niter_baseIPK10location_tSt6vectorIS0_SaIS0_EEET_N9__gnu_cxx17__normal_iteratorIS6_T0_EE>
    b5f4:	4c 89 e2             	mov    %r12,%rdx
    b5f7:	48 89 de             	mov    %rbx,%rsi
    b5fa:	48 89 c7             	mov    %rax,%rdi
    b5fd:	e8 7e fa ff ff       	call   b080 <_ZSt14__copy_move_a1ILb0EPK10location_tPS0_ET1_T0_S5_S4_>
    b602:	48 89 c2             	mov    %rax,%rdx
    b605:	48 8d 45 d8          	lea    -0x28(%rbp),%rax
    b609:	48 89 d6             	mov    %rdx,%rsi
    b60c:	48 89 c7             	mov    %rax,%rdi
    b60f:	e8 35 fb ff ff       	call   b149 <_ZSt12__niter_wrapIP10location_tET_RKS2_S2_>
    b614:	48 83 c4 20          	add    $0x20,%rsp
    b618:	5b                   	pop    %rbx
    b619:	41 5c                	pop    %r12
    b61b:	5d                   	pop    %rbp
    b61c:	c3                   	ret    
    b61d:	90                   	nop

000000000000b61e <_ZNSt12_Vector_baseI10location_tSaIS0_EEC1ERKS1_>:
    b61e:	f3 0f 1e fa          	endbr64 
    b622:	55                   	push   %rbp
    b623:	48 89 e5             	mov    %rsp,%rbp
    b626:	48 83 ec 10          	sub    $0x10,%rsp
    b62a:	48 89 7d f8          	mov    %rdi,-0x8(%rbp)
    b62e:	48 89 75 f0          	mov    %rsi,-0x10(%rbp)
    b632:	48 8b 45 f8          	mov    -0x8(%rbp),%rax
    b636:	48 8b 55 f0          	mov    -0x10(%rbp),%rdx
    b63a:	48 89 d6             	mov    %rdx,%rsi
    b63d:	48 89 c7             	mov    %rax,%rdi
    b640:	e8 b1 c8 ff ff       	call   7ef6 <_ZNSt12_Vector_baseI10location_tSaIS0_EE12_Vector_implC1ERKS1_>
    b645:	90                   	nop
    b646:	c9                   	leave  
    b647:	c3                   	ret    

000000000000b648 <_ZNSt12_Vector_baseI10location_tSaIS0_EE17_Vector_impl_data12_M_copy_dataERKS3_>:
    b648:	f3 0f 1e fa          	endbr64 
    b64c:	55                   	push   %rbp
    b64d:	48 89 e5             	mov    %rsp,%rbp
    b650:	48 89 7d f8          	mov    %rdi,-0x8(%rbp)
    b654:	48 89 75 f0          	mov    %rsi,-0x10(%rbp)
    b658:	48 8b 45 f0          	mov    -0x10(%rbp),%rax
    b65c:	48 8b 10             	mov    (%rax),%rdx
    b65f:	48 8b 45 f8          	mov    -0x8(%rbp),%rax
    b663:	48 89 10             	mov    %rdx,(%rax)
    b666:	48 8b 45 f0          	mov    -0x10(%rbp),%rax
    b66a:	48 8b 50 08          	mov    0x8(%rax),%rdx
    b66e:	48 8b 45 f8          	mov    -0x8(%rbp),%rax
    b672:	48 89 50 08          	mov    %rdx,0x8(%rax)
    b676:	48 8b 45 f0          	mov    -0x10(%rbp),%rax
    b67a:	48 8b 50 10          	mov    0x10(%rax),%rdx
    b67e:	48 8b 45 f8          	mov    -0x8(%rbp),%rax
    b682:	48 89 50 10          	mov    %rdx,0x10(%rax)
    b686:	90                   	nop
    b687:	5d                   	pop    %rbp
    b688:	c3                   	ret    

000000000000b689 <_ZSt4moveIRSaI10location_tEEONSt16remove_referenceIT_E4typeEOS4_>:
    b689:	f3 0f 1e fa          	endbr64 
    b68d:	55                   	push   %rbp
    b68e:	48 89 e5             	mov    %rsp,%rbp
    b691:	48 89 7d f8          	mov    %rdi,-0x8(%rbp)
    b695:	48 8b 45 f8          	mov    -0x8(%rbp),%rax
    b699:	5d                   	pop    %rbp
    b69a:	c3                   	ret    

000000000000b69b <_ZNSt11__copy_moveILb0ELb1ESt26random_access_iterator_tagE8__copy_mI10location_tEEPT_PKS4_S7_S5_>:
    b69b:	f3 0f 1e fa          	endbr64 
    b69f:	55                   	push   %rbp
    b6a0:	48 89 e5             	mov    %rsp,%rbp
    b6a3:	48 83 ec 30          	sub    $0x30,%rsp
    b6a7:	48 89 7d e8          	mov    %rdi,-0x18(%rbp)
    b6ab:	48 89 75 e0          	mov    %rsi,-0x20(%rbp)
    b6af:	48 89 55 d8          	mov    %rdx,-0x28(%rbp)
    b6b3:	48 8b 45 e0          	mov    -0x20(%rbp),%rax
    b6b7:	48 2b 45 e8          	sub    -0x18(%rbp),%rax
    b6bb:	48 c1 f8 03          	sar    $0x3,%rax
    b6bf:	48 89 45 f8          	mov    %rax,-0x8(%rbp)
    b6c3:	48 83 7d f8 00       	cmpq   $0x0,-0x8(%rbp)
    b6c8:	74 1f                	je     b6e9 <_ZNSt11__copy_moveILb0ELb1ESt26random_access_iterator_tagE8__copy_mI10location_tEEPT_PKS4_S7_S5_+0x4e>
    b6ca:	48 8b 45 f8          	mov    -0x8(%rbp),%rax
    b6ce:	48 8d 14 c5 00 00 00 	lea    0x0(,%rax,8),%rdx
    b6d5:	00 
    b6d6:	48 8b 4d e8          	mov    -0x18(%rbp),%rcx
    b6da:	48 8b 45 d8          	mov    -0x28(%rbp),%rax
    b6de:	48 89 ce             	mov    %rcx,%rsi
    b6e1:	48 89 c7             	mov    %rax,%rdi
    b6e4:	e8 d7 6f ff ff       	call   26c0 <memmove@plt>
    b6e9:	48 8b 45 f8          	mov    -0x8(%rbp),%rax
    b6ed:	48 8d 14 c5 00 00 00 	lea    0x0(,%rax,8),%rdx
    b6f4:	00 
    b6f5:	48 8b 45 d8          	mov    -0x28(%rbp),%rax
    b6f9:	48 01 d0             	add    %rdx,%rax
    b6fc:	c9                   	leave  
    b6fd:	c3                   	ret    

000000000000b6fe <_ZNSt10_Head_baseILm0ERKNSt7__cxx1112basic_stringIcSt11char_traitsIcESaIcEEELb0EE7_M_headERS8_>:
    b6fe:	f3 0f 1e fa          	endbr64 
    b702:	55                   	push   %rbp
    b703:	48 89 e5             	mov    %rsp,%rbp
    b706:	48 89 7d f8          	mov    %rdi,-0x8(%rbp)
    b70a:	48 8b 45 f8          	mov    -0x8(%rbp),%rax
    b70e:	48 8b 00             	mov    (%rax),%rax
    b711:	5d                   	pop    %rbp
    b712:	c3                   	ret    
    b713:	90                   	nop

000000000000b714 <_ZN9__gnu_cxx13new_allocatorIP12netlist_elemEC1ERKS3_>:
    b714:	f3 0f 1e fa          	endbr64 
    b718:	55                   	push   %rbp
    b719:	48 89 e5             	mov    %rsp,%rbp
    b71c:	48 89 7d f8          	mov    %rdi,-0x8(%rbp)
    b720:	48 89 75 f0          	mov    %rsi,-0x10(%rbp)
    b724:	90                   	nop
    b725:	5d                   	pop    %rbp
    b726:	c3                   	ret    

000000000000b727 <_ZSt4copyIN9__gnu_cxx17__normal_iteratorIPKP12netlist_elemSt6vectorIS3_SaIS3_EEEEPS3_ET0_T_SC_SB_>:
    b727:	f3 0f 1e fa          	endbr64 
    b72b:	55                   	push   %rbp
    b72c:	48 89 e5             	mov    %rsp,%rbp
    b72f:	53                   	push   %rbx
    b730:	48 83 ec 28          	sub    $0x28,%rsp
    b734:	48 89 7d e8          	mov    %rdi,-0x18(%rbp)
    b738:	48 89 75 e0          	mov    %rsi,-0x20(%rbp)
    b73c:	48 89 55 d8          	mov    %rdx,-0x28(%rbp)
    b740:	48 8b 45 e0          	mov    -0x20(%rbp),%rax
    b744:	48 89 c7             	mov    %rax,%rdi
    b747:	e8 2a 00 00 00       	call   b776 <_ZSt12__miter_baseIN9__gnu_cxx17__normal_iteratorIPKP12netlist_elemSt6vectorIS3_SaIS3_EEEEET_SA_>
    b74c:	48 89 c3             	mov    %rax,%rbx
    b74f:	48 8b 45 e8          	mov    -0x18(%rbp),%rax
    b753:	48 89 c7             	mov    %rax,%rdi
    b756:	e8 1b 00 00 00       	call   b776 <_ZSt12__miter_baseIN9__gnu_cxx17__normal_iteratorIPKP12netlist_elemSt6vectorIS3_SaIS3_EEEEET_SA_>
    b75b:	48 89 c1             	mov    %rax,%rcx
    b75e:	48 8b 45 d8          	mov    -0x28(%rbp),%rax
    b762:	48 89 c2             	mov    %rax,%rdx
    b765:	48 89 de             	mov    %rbx,%rsi
    b768:	48 89 cf             	mov    %rcx,%rdi
    b76b:	e8 18 00 00 00       	call   b788 <_ZSt13__copy_move_aILb0EN9__gnu_cxx17__normal_iteratorIPKP12netlist_elemSt6vectorIS3_SaIS3_EEEEPS3_ET1_T0_SC_SB_>
    b770:	48 8b 5d f8          	mov    -0x8(%rbp),%rbx
    b774:	c9                   	leave  
    b775:	c3                   	ret    

000000000000b776 <_ZSt12__miter_baseIN9__gnu_cxx17__normal_iteratorIPKP12netlist_elemSt6vectorIS3_SaIS3_EEEEET_SA_>:
    b776:	f3 0f 1e fa          	endbr64 
    b77a:	55                   	push   %rbp
    b77b:	48 89 e5             	mov    %rsp,%rbp
    b77e:	48 89 7d f8          	mov    %rdi,-0x8(%rbp)
    b782:	48 8b 45 f8          	mov    -0x8(%rbp),%rax
    b786:	5d                   	pop    %rbp
    b787:	c3                   	ret    

000000000000b788 <_ZSt13__copy_move_aILb0EN9__gnu_cxx17__normal_iteratorIPKP12netlist_elemSt6vectorIS3_SaIS3_EEEEPS3_ET1_T0_SC_SB_>:
    b788:	f3 0f 1e fa          	endbr64 
    b78c:	55                   	push   %rbp
    b78d:	48 89 e5             	mov    %rsp,%rbp
    b790:	41 54                	push   %r12
    b792:	53                   	push   %rbx
    b793:	48 83 ec 20          	sub    $0x20,%rsp
    b797:	48 89 7d e8          	mov    %rdi,-0x18(%rbp)
    b79b:	48 89 75 e0          	mov    %rsi,-0x20(%rbp)
    b79f:	48 89 55 d8          	mov    %rdx,-0x28(%rbp)
    b7a3:	48 8b 45 d8          	mov    -0x28(%rbp),%rax
    b7a7:	48 89 c7             	mov    %rax,%rdi
    b7aa:	e8 0a e9 ff ff       	call   a0b9 <_ZSt12__niter_baseIPP12netlist_elemET_S3_>
    b7af:	49 89 c4             	mov    %rax,%r12
    b7b2:	48 8b 45 e0          	mov    -0x20(%rbp),%rax
    b7b6:	48 89 c7             	mov    %rax,%rdi
    b7b9:	e8 38 00 00 00       	call   b7f6 <_ZSt12__niter_baseIPKP12netlist_elemSt6vectorIS1_SaIS1_EEET_N9__gnu_cxx17__normal_iteratorIS7_T0_EE>
    b7be:	48 89 c3             	mov    %rax,%rbx
    b7c1:	48 8b 45 e8          	mov    -0x18(%rbp),%rax
    b7c5:	48 89 c7             	mov    %rax,%rdi
    b7c8:	e8 29 00 00 00       	call   b7f6 <_ZSt12__niter_baseIPKP12netlist_elemSt6vectorIS1_SaIS1_EEET_N9__gnu_cxx17__normal_iteratorIS7_T0_EE>
    b7cd:	4c 89 e2             	mov    %r12,%rdx
    b7d0:	48 89 de             	mov    %rbx,%rsi
    b7d3:	48 89 c7             	mov    %rax,%rdi
    b7d6:	e8 3c 00 00 00       	call   b817 <_ZSt14__copy_move_a1ILb0EPKP12netlist_elemPS1_ET1_T0_S6_S5_>
    b7db:	48 89 c2             	mov    %rax,%rdx
    b7de:	48 8d 45 d8          	lea    -0x28(%rbp),%rax
    b7e2:	48 89 d6             	mov    %rdx,%rsi
    b7e5:	48 89 c7             	mov    %rax,%rdi
    b7e8:	e8 5b 00 00 00       	call   b848 <_ZSt12__niter_wrapIPP12netlist_elemET_RKS3_S3_>
    b7ed:	48 83 c4 20          	add    $0x20,%rsp
    b7f1:	5b                   	pop    %rbx
    b7f2:	41 5c                	pop    %r12
    b7f4:	5d                   	pop    %rbp
    b7f5:	c3                   	ret    

000000000000b7f6 <_ZSt12__niter_baseIPKP12netlist_elemSt6vectorIS1_SaIS1_EEET_N9__gnu_cxx17__normal_iteratorIS7_T0_EE>:
    b7f6:	f3 0f 1e fa          	endbr64 
    b7fa:	55                   	push   %rbp
    b7fb:	48 89 e5             	mov    %rsp,%rbp
    b7fe:	48 83 ec 10          	sub    $0x10,%rsp
    b802:	48 89 7d f8          	mov    %rdi,-0x8(%rbp)
    b806:	48 8d 45 f8          	lea    -0x8(%rbp),%rax
    b80a:	48 89 c7             	mov    %rax,%rdi
    b80d:	e8 4c 00 00 00       	call   b85e <_ZNK9__gnu_cxx17__normal_iteratorIPKP12netlist_elemSt6vectorIS2_SaIS2_EEE4baseEv>
    b812:	48 8b 00             	mov    (%rax),%rax
    b815:	c9                   	leave  
    b816:	c3                   	ret    

000000000000b817 <_ZSt14__copy_move_a1ILb0EPKP12netlist_elemPS1_ET1_T0_S6_S5_>:
    b817:	f3 0f 1e fa          	endbr64 
    b81b:	55                   	push   %rbp
    b81c:	48 89 e5             	mov    %rsp,%rbp
    b81f:	48 83 ec 20          	sub    $0x20,%rsp
    b823:	48 89 7d f8          	mov    %rdi,-0x8(%rbp)
    b827:	48 89 75 f0          	mov    %rsi,-0x10(%rbp)
    b82b:	48 89 55 e8          	mov    %rdx,-0x18(%rbp)
    b82f:	48 8b 55 e8          	mov    -0x18(%rbp),%rdx
    b833:	48 8b 4d f0          	mov    -0x10(%rbp),%rcx
    b837:	48 8b 45 f8          	mov    -0x8(%rbp),%rax
    b83b:	48 89 ce             	mov    %rcx,%rsi
    b83e:	48 89 c7             	mov    %rax,%rdi
    b841:	e8 2a 00 00 00       	call   b870 <_ZSt14__copy_move_a2ILb0EPKP12netlist_elemPS1_ET1_T0_S6_S5_>
    b846:	c9                   	leave  
    b847:	c3                   	ret    

000000000000b848 <_ZSt12__niter_wrapIPP12netlist_elemET_RKS3_S3_>:
    b848:	f3 0f 1e fa          	endbr64 
    b84c:	55                   	push   %rbp
    b84d:	48 89 e5             	mov    %rsp,%rbp
    b850:	48 89 7d f8          	mov    %rdi,-0x8(%rbp)
    b854:	48 89 75 f0          	mov    %rsi,-0x10(%rbp)
    b858:	48 8b 45 f0          	mov    -0x10(%rbp),%rax
    b85c:	5d                   	pop    %rbp
    b85d:	c3                   	ret    

000000000000b85e <_ZNK9__gnu_cxx17__normal_iteratorIPKP12netlist_elemSt6vectorIS2_SaIS2_EEE4baseEv>:
    b85e:	f3 0f 1e fa          	endbr64 
    b862:	55                   	push   %rbp
    b863:	48 89 e5             	mov    %rsp,%rbp
    b866:	48 89 7d f8          	mov    %rdi,-0x8(%rbp)
    b86a:	48 8b 45 f8          	mov    -0x8(%rbp),%rax
    b86e:	5d                   	pop    %rbp
    b86f:	c3                   	ret    

000000000000b870 <_ZSt14__copy_move_a2ILb0EPKP12netlist_elemPS1_ET1_T0_S6_S5_>:
    b870:	f3 0f 1e fa          	endbr64 
    b874:	55                   	push   %rbp
    b875:	48 89 e5             	mov    %rsp,%rbp
    b878:	48 83 ec 20          	sub    $0x20,%rsp
    b87c:	48 89 7d f8          	mov    %rdi,-0x8(%rbp)
    b880:	48 89 75 f0          	mov    %rsi,-0x10(%rbp)
    b884:	48 89 55 e8          	mov    %rdx,-0x18(%rbp)
    b888:	48 8b 55 e8          	mov    -0x18(%rbp),%rdx
    b88c:	48 8b 4d f0          	mov    -0x10(%rbp),%rcx
    b890:	48 8b 45 f8          	mov    -0x8(%rbp),%rax
    b894:	48 89 ce             	mov    %rcx,%rsi
    b897:	48 89 c7             	mov    %rax,%rdi
    b89a:	e8 02 00 00 00       	call   b8a1 <_ZNSt11__copy_moveILb0ELb1ESt26random_access_iterator_tagE8__copy_mIP12netlist_elemEEPT_PKS5_S8_S6_>
    b89f:	c9                   	leave  
    b8a0:	c3                   	ret    

000000000000b8a1 <_ZNSt11__copy_moveILb0ELb1ESt26random_access_iterator_tagE8__copy_mIP12netlist_elemEEPT_PKS5_S8_S6_>:
    b8a1:	f3 0f 1e fa          	endbr64 
    b8a5:	55                   	push   %rbp
    b8a6:	48 89 e5             	mov    %rsp,%rbp
    b8a9:	48 83 ec 30          	sub    $0x30,%rsp
    b8ad:	48 89 7d e8          	mov    %rdi,-0x18(%rbp)
    b8b1:	48 89 75 e0          	mov    %rsi,-0x20(%rbp)
    b8b5:	48 89 55 d8          	mov    %rdx,-0x28(%rbp)
    b8b9:	48 8b 45 e0          	mov    -0x20(%rbp),%rax
    b8bd:	48 2b 45 e8          	sub    -0x18(%rbp),%rax
    b8c1:	48 c1 f8 03          	sar    $0x3,%rax
    b8c5:	48 89 45 f8          	mov    %rax,-0x8(%rbp)
    b8c9:	48 83 7d f8 00       	cmpq   $0x0,-0x8(%rbp)
    b8ce:	74 1f                	je     b8ef <_ZNSt11__copy_moveILb0ELb1ESt26random_access_iterator_tagE8__copy_mIP12netlist_elemEEPT_PKS5_S8_S6_+0x4e>
    b8d0:	48 8b 45 f8          	mov    -0x8(%rbp),%rax
    b8d4:	48 8d 14 c5 00 00 00 	lea    0x0(,%rax,8),%rdx
    b8db:	00 
    b8dc:	48 8b 4d e8          	mov    -0x18(%rbp),%rcx
    b8e0:	48 8b 45 d8          	mov    -0x28(%rbp),%rax
    b8e4:	48 89 ce             	mov    %rcx,%rsi
    b8e7:	48 89 c7             	mov    %rax,%rdi
    b8ea:	e8 d1 6d ff ff       	call   26c0 <memmove@plt>
    b8ef:	48 8b 45 f8          	mov    -0x8(%rbp),%rax
    b8f3:	48 8d 14 c5 00 00 00 	lea    0x0(,%rax,8),%rdx
    b8fa:	00 
    b8fb:	48 8b 45 d8          	mov    -0x28(%rbp),%rax
    b8ff:	48 01 d0             	add    %rdx,%rax
    b902:	c9                   	leave  
    b903:	c3                   	ret    

000000000000b904 <_ZN12netlist_elemC1Ev>:
    b904:	f3 0f 1e fa          	endbr64 
    b908:	55                   	push   %rbp
    b909:	48 89 e5             	mov    %rsp,%rbp
    b90c:	48 83 ec 10          	sub    $0x10,%rsp
    b910:	48 89 7d f8          	mov    %rdi,-0x8(%rbp)
    b914:	48 8b 45 f8          	mov    -0x8(%rbp),%rax
    b918:	48 89 c7             	mov    %rax,%rdi
    b91b:	e8 30 6d ff ff       	call   2650 <_ZNSt7__cxx1112basic_stringIcSt11char_traitsIcESaIcEEC1Ev@plt>
    b920:	48 8b 45 f8          	mov    -0x8(%rbp),%rax
    b924:	48 83 c0 20          	add    $0x20,%rax
    b928:	48 89 c7             	mov    %rax,%rdi
    b92b:	e8 0a 04 00 00       	call   bd3a <_ZNSt6vectorIP12netlist_elemSaIS1_EEC1Ev>
    b930:	48 8b 45 f8          	mov    -0x8(%rbp),%rax
    b934:	48 83 c0 38          	add    $0x38,%rax
    b938:	48 89 c7             	mov    %rax,%rdi
    b93b:	e8 fa 03 00 00       	call   bd3a <_ZNSt6vectorIP12netlist_elemSaIS1_EEC1Ev>
    b940:	48 8b 45 f8          	mov    -0x8(%rbp),%rax
    b944:	48 83 c0 50          	add    $0x50,%rax
    b948:	be 00 00 00 00       	mov    $0x0,%esi
    b94d:	48 89 c7             	mov    %rax,%rdi
    b950:	e8 31 04 00 00       	call   bd86 <_ZN7threads9AtomicPtrI10location_tEC1EPS1_>
    b955:	90                   	nop
    b956:	c9                   	leave  
    b957:	c3                   	ret    

000000000000b958 <_ZN12netlist_elem22routing_cost_given_locE10location_t>:
    b958:	f3 0f 1e fa          	endbr64 
    b95c:	55                   	push   %rbp
    b95d:	48 89 e5             	mov    %rsp,%rbp
    b960:	53                   	push   %rbx
    b961:	48 83 ec 48          	sub    $0x48,%rsp
    b965:	48 89 7d b8          	mov    %rdi,-0x48(%rbp)
    b969:	48 89 75 b0          	mov    %rsi,-0x50(%rbp)
    b96d:	66 0f ef c0          	pxor   %xmm0,%xmm0
    b971:	f2 0f 11 45 c8       	movsd  %xmm0,-0x38(%rbp)
    b976:	66 0f ef c0          	pxor   %xmm0,%xmm0
    b97a:	f2 0f 11 45 d0       	movsd  %xmm0,-0x30(%rbp)
    b97f:	c7 45 c0 00 00 00 00 	movl   $0x0,-0x40(%rbp)
    b986:	eb 74                	jmp    b9fc <_ZN12netlist_elem22routing_cost_given_locE10location_t+0xa4>
    b988:	48 8b 45 b8          	mov    -0x48(%rbp),%rax
    b98c:	48 8d 50 20          	lea    0x20(%rax),%rdx
    b990:	8b 45 c0             	mov    -0x40(%rbp),%eax
    b993:	48 98                	cltq   
    b995:	48 89 c6             	mov    %rax,%rsi
    b998:	48 89 d7             	mov    %rdx,%rdi
    b99b:	e8 04 04 00 00       	call   bda4 <_ZNSt6vectorIP12netlist_elemSaIS1_EEixEm>
    b9a0:	48 8b 00             	mov    (%rax),%rax
    b9a3:	48 83 c0 50          	add    $0x50,%rax
    b9a7:	48 89 c7             	mov    %rax,%rdi
    b9aa:	e8 35 76 ff ff       	call   2fe4 <_ZNK7threads9AtomicPtrI10location_tE3GetEv>
    b9af:	48 89 45 e8          	mov    %rax,-0x18(%rbp)
    b9b3:	8b 55 b0             	mov    -0x50(%rbp),%edx
    b9b6:	48 8b 45 e8          	mov    -0x18(%rbp),%rax
    b9ba:	8b 08                	mov    (%rax),%ecx
    b9bc:	89 d0                	mov    %edx,%eax
    b9be:	29 c8                	sub    %ecx,%eax
    b9c0:	89 c7                	mov    %eax,%edi
    b9c2:	e8 01 04 00 00       	call   bdc8 <_ZSt4fabsIiEN9__gnu_cxx11__enable_ifIXsrSt12__is_integerIT_E7__valueEdE6__typeES3_>
    b9c7:	f2 0f 10 4d c8       	movsd  -0x38(%rbp),%xmm1
    b9cc:	f2 0f 58 c1          	addsd  %xmm1,%xmm0
    b9d0:	f2 0f 11 45 c8       	movsd  %xmm0,-0x38(%rbp)
    b9d5:	8b 55 b4             	mov    -0x4c(%rbp),%edx
    b9d8:	48 8b 45 e8          	mov    -0x18(%rbp),%rax
    b9dc:	8b 48 04             	mov    0x4(%rax),%ecx
    b9df:	89 d0                	mov    %edx,%eax
    b9e1:	29 c8                	sub    %ecx,%eax
    b9e3:	89 c7                	mov    %eax,%edi
    b9e5:	e8 de 03 00 00       	call   bdc8 <_ZSt4fabsIiEN9__gnu_cxx11__enable_ifIXsrSt12__is_integerIT_E7__valueEdE6__typeES3_>
    b9ea:	f2 0f 10 4d c8       	movsd  -0x38(%rbp),%xmm1
    b9ef:	f2 0f 58 c1          	addsd  %xmm1,%xmm0
    b9f3:	f2 0f 11 45 c8       	movsd  %xmm0,-0x38(%rbp)
    b9f8:	83 45 c0 01          	addl   $0x1,-0x40(%rbp)
    b9fc:	8b 45 c0             	mov    -0x40(%rbp),%eax
    b9ff:	48 63 d8             	movslq %eax,%rbx
    ba02:	48 8b 45 b8          	mov    -0x48(%rbp),%rax
    ba06:	48 83 c0 20          	add    $0x20,%rax
    ba0a:	48 89 c7             	mov    %rax,%rdi
    ba0d:	e8 66 d6 ff ff       	call   9078 <_ZNKSt6vectorIP12netlist_elemSaIS1_EE4sizeEv>
    ba12:	48 39 c3             	cmp    %rax,%rbx
    ba15:	0f 92 c0             	setb   %al
    ba18:	84 c0                	test   %al,%al
    ba1a:	0f 85 68 ff ff ff    	jne    b988 <_ZN12netlist_elem22routing_cost_given_locE10location_t+0x30>
    ba20:	c7 45 c4 00 00 00 00 	movl   $0x0,-0x3c(%rbp)
    ba27:	eb 74                	jmp    ba9d <_ZN12netlist_elem22routing_cost_given_locE10location_t+0x145>
    ba29:	48 8b 45 b8          	mov    -0x48(%rbp),%rax
    ba2d:	48 8d 50 38          	lea    0x38(%rax),%rdx
    ba31:	8b 45 c4             	mov    -0x3c(%rbp),%eax
    ba34:	48 98                	cltq   
    ba36:	48 89 c6             	mov    %rax,%rsi
    ba39:	48 89 d7             	mov    %rdx,%rdi
    ba3c:	e8 63 03 00 00       	call   bda4 <_ZNSt6vectorIP12netlist_elemSaIS1_EEixEm>
    ba41:	48 8b 00             	mov    (%rax),%rax
    ba44:	48 83 c0 50          	add    $0x50,%rax
    ba48:	48 89 c7             	mov    %rax,%rdi
    ba4b:	e8 94 75 ff ff       	call   2fe4 <_ZNK7threads9AtomicPtrI10location_tE3GetEv>
    ba50:	48 89 45 e0          	mov    %rax,-0x20(%rbp)
    ba54:	8b 55 b0             	mov    -0x50(%rbp),%edx
    ba57:	48 8b 45 e0          	mov    -0x20(%rbp),%rax
    ba5b:	8b 08                	mov    (%rax),%ecx
    ba5d:	89 d0                	mov    %edx,%eax
    ba5f:	29 c8                	sub    %ecx,%eax
    ba61:	89 c7                	mov    %eax,%edi
    ba63:	e8 60 03 00 00       	call   bdc8 <_ZSt4fabsIiEN9__gnu_cxx11__enable_ifIXsrSt12__is_integerIT_E7__valueEdE6__typeES3_>
    ba68:	f2 0f 10 4d d0       	movsd  -0x30(%rbp),%xmm1
    ba6d:	f2 0f 58 c1          	addsd  %xmm1,%xmm0
    ba71:	f2 0f 11 45 d0       	movsd  %xmm0,-0x30(%rbp)
    ba76:	8b 55 b4             	mov    -0x4c(%rbp),%edx
    ba79:	48 8b 45 e0          	mov    -0x20(%rbp),%rax
    ba7d:	8b 48 04             	mov    0x4(%rax),%ecx
    ba80:	89 d0                	mov    %edx,%eax
    ba82:	29 c8                	sub    %ecx,%eax
    ba84:	89 c7                	mov    %eax,%edi
    ba86:	e8 3d 03 00 00       	call   bdc8 <_ZSt4fabsIiEN9__gnu_cxx11__enable_ifIXsrSt12__is_integerIT_E7__valueEdE6__typeES3_>
    ba8b:	f2 0f 10 4d d0       	movsd  -0x30(%rbp),%xmm1
    ba90:	f2 0f 58 c1          	addsd  %xmm1,%xmm0
    ba94:	f2 0f 11 45 d0       	movsd  %xmm0,-0x30(%rbp)
    ba99:	83 45 c4 01          	addl   $0x1,-0x3c(%rbp)
    ba9d:	8b 45 c4             	mov    -0x3c(%rbp),%eax
    baa0:	48 63 d8             	movslq %eax,%rbx
    baa3:	48 8b 45 b8          	mov    -0x48(%rbp),%rax
    baa7:	48 83 c0 38          	add    $0x38,%rax
    baab:	48 89 c7             	mov    %rax,%rdi
    baae:	e8 c5 d5 ff ff       	call   9078 <_ZNKSt6vectorIP12netlist_elemSaIS1_EE4sizeEv>
    bab3:	48 39 c3             	cmp    %rax,%rbx
    bab6:	0f 92 c0             	setb   %al
    bab9:	84 c0                	test   %al,%al
    babb:	0f 85 68 ff ff ff    	jne    ba29 <_ZN12netlist_elem22routing_cost_given_locE10location_t+0xd1>
    bac1:	f2 0f 10 45 c8       	movsd  -0x38(%rbp),%xmm0
    bac6:	f2 0f 58 45 d0       	addsd  -0x30(%rbp),%xmm0
    bacb:	f2 0f 11 45 d8       	movsd  %xmm0,-0x28(%rbp)
    bad0:	f2 0f 10 45 d8       	movsd  -0x28(%rbp),%xmm0
    bad5:	66 48 0f 7e c0       	movq   %xmm0,%rax
    bada:	66 48 0f 6e c0       	movq   %rax,%xmm0
    badf:	48 8b 5d f8          	mov    -0x8(%rbp),%rbx
    bae3:	c9                   	leave  
    bae4:	c3                   	ret    
    bae5:	90                   	nop

000000000000bae6 <_ZN12netlist_elem9swap_costEP10location_tS1_>:
    bae6:	f3 0f 1e fa          	endbr64 
    baea:	55                   	push   %rbp
    baeb:	48 89 e5             	mov    %rsp,%rbp
    baee:	53                   	push   %rbx
    baef:	48 83 ec 58          	sub    $0x58,%rsp
    baf3:	48 89 7d b8          	mov    %rdi,-0x48(%rbp)
    baf7:	48 89 75 b0          	mov    %rsi,-0x50(%rbp)
    bafb:	48 89 55 a8          	mov    %rdx,-0x58(%rbp)
    baff:	66 0f ef c0          	pxor   %xmm0,%xmm0
    bb03:	f2 0f 11 45 d0       	movsd  %xmm0,-0x30(%rbp)
    bb08:	66 0f ef c0          	pxor   %xmm0,%xmm0
    bb0c:	f2 0f 11 45 d8       	movsd  %xmm0,-0x28(%rbp)
    bb11:	c7 45 c8 00 00 00 00 	movl   $0x0,-0x38(%rbp)
    bb18:	e9 c7 00 00 00       	jmp    bbe4 <_ZN12netlist_elem9swap_costEP10location_tS1_+0xfe>
    bb1d:	48 8b 45 b8          	mov    -0x48(%rbp),%rax
    bb21:	48 8d 50 20          	lea    0x20(%rax),%rdx
    bb25:	8b 45 c8             	mov    -0x38(%rbp),%eax
    bb28:	48 98                	cltq   
    bb2a:	48 89 c6             	mov    %rax,%rsi
    bb2d:	48 89 d7             	mov    %rdx,%rdi
    bb30:	e8 6f 02 00 00       	call   bda4 <_ZNSt6vectorIP12netlist_elemSaIS1_EEixEm>
    bb35:	48 8b 00             	mov    (%rax),%rax
    bb38:	48 83 c0 50          	add    $0x50,%rax
    bb3c:	48 89 c7             	mov    %rax,%rdi
    bb3f:	e8 a0 74 ff ff       	call   2fe4 <_ZNK7threads9AtomicPtrI10location_tE3GetEv>
    bb44:	48 89 45 e8          	mov    %rax,-0x18(%rbp)
    bb48:	48 8b 45 b0          	mov    -0x50(%rbp),%rax
    bb4c:	8b 10                	mov    (%rax),%edx
    bb4e:	48 8b 45 e8          	mov    -0x18(%rbp),%rax
    bb52:	8b 08                	mov    (%rax),%ecx
    bb54:	89 d0                	mov    %edx,%eax
    bb56:	29 c8                	sub    %ecx,%eax
    bb58:	89 c7                	mov    %eax,%edi
    bb5a:	e8 69 02 00 00       	call   bdc8 <_ZSt4fabsIiEN9__gnu_cxx11__enable_ifIXsrSt12__is_integerIT_E7__valueEdE6__typeES3_>
    bb5f:	f2 0f 10 4d d0       	movsd  -0x30(%rbp),%xmm1
    bb64:	f2 0f 58 c1          	addsd  %xmm1,%xmm0
    bb68:	f2 0f 11 45 d0       	movsd  %xmm0,-0x30(%rbp)
    bb6d:	48 8b 45 b0          	mov    -0x50(%rbp),%rax
    bb71:	8b 50 04             	mov    0x4(%rax),%edx
    bb74:	48 8b 45 e8          	mov    -0x18(%rbp),%rax
    bb78:	8b 48 04             	mov    0x4(%rax),%ecx
    bb7b:	89 d0                	mov    %edx,%eax
    bb7d:	29 c8                	sub    %ecx,%eax
    bb7f:	89 c7                	mov    %eax,%edi
    bb81:	e8 42 02 00 00       	call   bdc8 <_ZSt4fabsIiEN9__gnu_cxx11__enable_ifIXsrSt12__is_integerIT_E7__valueEdE6__typeES3_>
    bb86:	f2 0f 10 4d d0       	movsd  -0x30(%rbp),%xmm1
    bb8b:	f2 0f 58 c1          	addsd  %xmm1,%xmm0
    bb8f:	f2 0f 11 45 d0       	movsd  %xmm0,-0x30(%rbp)
    bb94:	48 8b 45 a8          	mov    -0x58(%rbp),%rax
    bb98:	8b 10                	mov    (%rax),%edx
    bb9a:	48 8b 45 e8          	mov    -0x18(%rbp),%rax
    bb9e:	8b 08                	mov    (%rax),%ecx
    bba0:	89 d0                	mov    %edx,%eax
    bba2:	29 c8                	sub    %ecx,%eax
    bba4:	89 c7                	mov    %eax,%edi
    bba6:	e8 1d 02 00 00       	call   bdc8 <_ZSt4fabsIiEN9__gnu_cxx11__enable_ifIXsrSt12__is_integerIT_E7__valueEdE6__typeES3_>
    bbab:	f2 0f 10 4d d8       	movsd  -0x28(%rbp),%xmm1
    bbb0:	f2 0f 58 c1          	addsd  %xmm1,%xmm0
    bbb4:	f2 0f 11 45 d8       	movsd  %xmm0,-0x28(%rbp)
    bbb9:	48 8b 45 a8          	mov    -0x58(%rbp),%rax
    bbbd:	8b 50 04             	mov    0x4(%rax),%edx
    bbc0:	48 8b 45 e8          	mov    -0x18(%rbp),%rax
    bbc4:	8b 48 04             	mov    0x4(%rax),%ecx
    bbc7:	89 d0                	mov    %edx,%eax
    bbc9:	29 c8                	sub    %ecx,%eax
    bbcb:	89 c7                	mov    %eax,%edi
    bbcd:	e8 f6 01 00 00       	call   bdc8 <_ZSt4fabsIiEN9__gnu_cxx11__enable_ifIXsrSt12__is_integerIT_E7__valueEdE6__typeES3_>
    bbd2:	f2 0f 10 4d d8       	movsd  -0x28(%rbp),%xmm1
    bbd7:	f2 0f 58 c1          	addsd  %xmm1,%xmm0
    bbdb:	f2 0f 11 45 d8       	movsd  %xmm0,-0x28(%rbp)
    bbe0:	83 45 c8 01          	addl   $0x1,-0x38(%rbp)
    bbe4:	8b 45 c8             	mov    -0x38(%rbp),%eax
    bbe7:	48 63 d8             	movslq %eax,%rbx
    bbea:	48 8b 45 b8          	mov    -0x48(%rbp),%rax
    bbee:	48 83 c0 20          	add    $0x20,%rax
    bbf2:	48 89 c7             	mov    %rax,%rdi
    bbf5:	e8 7e d4 ff ff       	call   9078 <_ZNKSt6vectorIP12netlist_elemSaIS1_EE4sizeEv>
    bbfa:	48 39 c3             	cmp    %rax,%rbx
    bbfd:	0f 92 c0             	setb   %al
    bc00:	84 c0                	test   %al,%al
    bc02:	0f 85 15 ff ff ff    	jne    bb1d <_ZN12netlist_elem9swap_costEP10location_tS1_+0x37>
    bc08:	c7 45 cc 00 00 00 00 	movl   $0x0,-0x34(%rbp)
    bc0f:	e9 c7 00 00 00       	jmp    bcdb <_ZN12netlist_elem9swap_costEP10location_tS1_+0x1f5>
    bc14:	48 8b 45 b8          	mov    -0x48(%rbp),%rax
    bc18:	48 8d 50 38          	lea    0x38(%rax),%rdx
    bc1c:	8b 45 cc             	mov    -0x34(%rbp),%eax
    bc1f:	48 98                	cltq   
    bc21:	48 89 c6             	mov    %rax,%rsi
    bc24:	48 89 d7             	mov    %rdx,%rdi
    bc27:	e8 78 01 00 00       	call   bda4 <_ZNSt6vectorIP12netlist_elemSaIS1_EEixEm>
    bc2c:	48 8b 00             	mov    (%rax),%rax
    bc2f:	48 83 c0 50          	add    $0x50,%rax
    bc33:	48 89 c7             	mov    %rax,%rdi
    bc36:	e8 a9 73 ff ff       	call   2fe4 <_ZNK7threads9AtomicPtrI10location_tE3GetEv>
    bc3b:	48 89 45 e0          	mov    %rax,-0x20(%rbp)
    bc3f:	48 8b 45 b0          	mov    -0x50(%rbp),%rax
    bc43:	8b 10                	mov    (%rax),%edx
    bc45:	48 8b 45 e0          	mov    -0x20(%rbp),%rax
    bc49:	8b 08                	mov    (%rax),%ecx
    bc4b:	89 d0                	mov    %edx,%eax
    bc4d:	29 c8                	sub    %ecx,%eax
    bc4f:	89 c7                	mov    %eax,%edi
    bc51:	e8 72 01 00 00       	call   bdc8 <_ZSt4fabsIiEN9__gnu_cxx11__enable_ifIXsrSt12__is_integerIT_E7__valueEdE6__typeES3_>
    bc56:	f2 0f 10 4d d0       	movsd  -0x30(%rbp),%xmm1
    bc5b:	f2 0f 58 c1          	addsd  %xmm1,%xmm0
    bc5f:	f2 0f 11 45 d0       	movsd  %xmm0,-0x30(%rbp)
    bc64:	48 8b 45 b0          	mov    -0x50(%rbp),%rax
    bc68:	8b 50 04             	mov    0x4(%rax),%edx
    bc6b:	48 8b 45 e0          	mov    -0x20(%rbp),%rax
    bc6f:	8b 48 04             	mov    0x4(%rax),%ecx
    bc72:	89 d0                	mov    %edx,%eax
    bc74:	29 c8                	sub    %ecx,%eax
    bc76:	89 c7                	mov    %eax,%edi
    bc78:	e8 4b 01 00 00       	call   bdc8 <_ZSt4fabsIiEN9__gnu_cxx11__enable_ifIXsrSt12__is_integerIT_E7__valueEdE6__typeES3_>
    bc7d:	f2 0f 10 4d d0       	movsd  -0x30(%rbp),%xmm1
    bc82:	f2 0f 58 c1          	addsd  %xmm1,%xmm0
    bc86:	f2 0f 11 45 d0       	movsd  %xmm0,-0x30(%rbp)
    bc8b:	48 8b 45 a8          	mov    -0x58(%rbp),%rax
    bc8f:	8b 10                	mov    (%rax),%edx
    bc91:	48 8b 45 e0          	mov    -0x20(%rbp),%rax
    bc95:	8b 08                	mov    (%rax),%ecx
    bc97:	89 d0                	mov    %edx,%eax
    bc99:	29 c8                	sub    %ecx,%eax
    bc9b:	89 c7                	mov    %eax,%edi
    bc9d:	e8 26 01 00 00       	call   bdc8 <_ZSt4fabsIiEN9__gnu_cxx11__enable_ifIXsrSt12__is_integerIT_E7__valueEdE6__typeES3_>
    bca2:	f2 0f 10 4d d8       	movsd  -0x28(%rbp),%xmm1
    bca7:	f2 0f 58 c1          	addsd  %xmm1,%xmm0
    bcab:	f2 0f 11 45 d8       	movsd  %xmm0,-0x28(%rbp)
    bcb0:	48 8b 45 a8          	mov    -0x58(%rbp),%rax
    bcb4:	8b 50 04             	mov    0x4(%rax),%edx
    bcb7:	48 8b 45 e0          	mov    -0x20(%rbp),%rax
    bcbb:	8b 48 04             	mov    0x4(%rax),%ecx
    bcbe:	89 d0                	mov    %edx,%eax
    bcc0:	29 c8                	sub    %ecx,%eax
    bcc2:	89 c7                	mov    %eax,%edi
    bcc4:	e8 ff 00 00 00       	call   bdc8 <_ZSt4fabsIiEN9__gnu_cxx11__enable_ifIXsrSt12__is_integerIT_E7__valueEdE6__typeES3_>
    bcc9:	f2 0f 10 4d d8       	movsd  -0x28(%rbp),%xmm1
    bcce:	f2 0f 58 c1          	addsd  %xmm1,%xmm0
    bcd2:	f2 0f 11 45 d8       	movsd  %xmm0,-0x28(%rbp)
    bcd7:	83 45 cc 01          	addl   $0x1,-0x34(%rbp)
    bcdb:	8b 45 cc             	mov    -0x34(%rbp),%eax
    bcde:	48 63 d8             	movslq %eax,%rbx
    bce1:	48 8b 45 b8          	mov    -0x48(%rbp),%rax
    bce5:	48 83 c0 38          	add    $0x38,%rax
    bce9:	48 89 c7             	mov    %rax,%rdi
    bcec:	e8 87 d3 ff ff       	call   9078 <_ZNKSt6vectorIP12netlist_elemSaIS1_EE4sizeEv>
    bcf1:	48 39 c3             	cmp    %rax,%rbx
    bcf4:	0f 92 c0             	setb   %al
    bcf7:	84 c0                	test   %al,%al
    bcf9:	0f 85 15 ff ff ff    	jne    bc14 <_ZN12netlist_elem9swap_costEP10location_tS1_+0x12e>
    bcff:	f2 0f 10 45 d8       	movsd  -0x28(%rbp),%xmm0
    bd04:	f2 0f 5c 45 d0       	subsd  -0x30(%rbp),%xmm0
    bd09:	66 48 0f 7e c0       	movq   %xmm0,%rax
    bd0e:	66 48 0f 6e c0       	movq   %rax,%xmm0
    bd13:	48 8b 5d f8          	mov    -0x8(%rbp),%rbx
    bd17:	c9                   	leave  
    bd18:	c3                   	ret    
    bd19:	90                   	nop

000000000000bd1a <_ZNSt12_Vector_baseIP12netlist_elemSaIS1_EEC1Ev>:
    bd1a:	f3 0f 1e fa          	endbr64 
    bd1e:	55                   	push   %rbp
    bd1f:	48 89 e5             	mov    %rsp,%rbp
    bd22:	48 83 ec 10          	sub    $0x10,%rsp
    bd26:	48 89 7d f8          	mov    %rdi,-0x8(%rbp)
    bd2a:	48 8b 45 f8          	mov    -0x8(%rbp),%rax
    bd2e:	48 89 c7             	mov    %rax,%rdi
    bd31:	e8 24 00 00 00       	call   bd5a <_ZNSt12_Vector_baseIP12netlist_elemSaIS1_EE12_Vector_implC1Ev>
    bd36:	90                   	nop
    bd37:	c9                   	leave  
    bd38:	c3                   	ret    
    bd39:	90                   	nop

000000000000bd3a <_ZNSt6vectorIP12netlist_elemSaIS1_EEC1Ev>:
    bd3a:	f3 0f 1e fa          	endbr64 
    bd3e:	55                   	push   %rbp
    bd3f:	48 89 e5             	mov    %rsp,%rbp
    bd42:	48 83 ec 10          	sub    $0x10,%rsp
    bd46:	48 89 7d f8          	mov    %rdi,-0x8(%rbp)
    bd4a:	48 8b 45 f8          	mov    -0x8(%rbp),%rax
    bd4e:	48 89 c7             	mov    %rax,%rdi
    bd51:	e8 c4 ff ff ff       	call   bd1a <_ZNSt12_Vector_baseIP12netlist_elemSaIS1_EEC1Ev>
    bd56:	90                   	nop
    bd57:	c9                   	leave  
    bd58:	c3                   	ret    
    bd59:	90                   	nop

000000000000bd5a <_ZNSt12_Vector_baseIP12netlist_elemSaIS1_EE12_Vector_implC1Ev>:
    bd5a:	f3 0f 1e fa          	endbr64 
    bd5e:	55                   	push   %rbp
    bd5f:	48 89 e5             	mov    %rsp,%rbp
    bd62:	48 83 ec 10          	sub    $0x10,%rsp
    bd66:	48 89 7d f8          	mov    %rdi,-0x8(%rbp)
    bd6a:	48 8b 45 f8          	mov    -0x8(%rbp),%rax
    bd6e:	48 89 c7             	mov    %rax,%rdi
    bd71:	e8 7e 00 00 00       	call   bdf4 <_ZNSaIP12netlist_elemEC1Ev>
    bd76:	48 8b 45 f8          	mov    -0x8(%rbp),%rax
    bd7a:	48 89 c7             	mov    %rax,%rdi
    bd7d:	e8 ca f7 ff ff       	call   b54c <_ZNSt12_Vector_baseIP12netlist_elemSaIS1_EE17_Vector_impl_dataC1Ev>
    bd82:	90                   	nop
    bd83:	c9                   	leave  
    bd84:	c3                   	ret    
    bd85:	90                   	nop

000000000000bd86 <_ZN7threads9AtomicPtrI10location_tEC1EPS1_>:
    bd86:	f3 0f 1e fa          	endbr64 
    bd8a:	55                   	push   %rbp
    bd8b:	48 89 e5             	mov    %rsp,%rbp
    bd8e:	48 89 7d f8          	mov    %rdi,-0x8(%rbp)
    bd92:	48 89 75 f0          	mov    %rsi,-0x10(%rbp)
    bd96:	48 8b 45 f8          	mov    -0x8(%rbp),%rax
    bd9a:	48 8b 55 f0          	mov    -0x10(%rbp),%rdx
    bd9e:	48 89 10             	mov    %rdx,(%rax)
    bda1:	90                   	nop
    bda2:	5d                   	pop    %rbp
    bda3:	c3                   	ret    

000000000000bda4 <_ZNSt6vectorIP12netlist_elemSaIS1_EEixEm>:
    bda4:	f3 0f 1e fa          	endbr64 
    bda8:	55                   	push   %rbp
    bda9:	48 89 e5             	mov    %rsp,%rbp
    bdac:	48 89 7d f8          	mov    %rdi,-0x8(%rbp)
    bdb0:	48 89 75 f0          	mov    %rsi,-0x10(%rbp)
    bdb4:	48 8b 45 f8          	mov    -0x8(%rbp),%rax
    bdb8:	48 8b 10             	mov    (%rax),%rdx
    bdbb:	48 8b 45 f0          	mov    -0x10(%rbp),%rax
    bdbf:	48 c1 e0 03          	shl    $0x3,%rax
    bdc3:	48 01 d0             	add    %rdx,%rax
    bdc6:	5d                   	pop    %rbp
    bdc7:	c3                   	ret    

000000000000bdc8 <_ZSt4fabsIiEN9__gnu_cxx11__enable_ifIXsrSt12__is_integerIT_E7__valueEdE6__typeES3_>:
    bdc8:	f3 0f 1e fa          	endbr64 
    bdcc:	55                   	push   %rbp
    bdcd:	48 89 e5             	mov    %rsp,%rbp
    bdd0:	89 7d fc             	mov    %edi,-0x4(%rbp)
    bdd3:	66 0f ef c0          	pxor   %xmm0,%xmm0
    bdd7:	f2 0f 2a 45 fc       	cvtsi2sdl -0x4(%rbp),%xmm0
    bddc:	f3 0f 7e 0d dc 14 00 	movq   0x14dc(%rip),%xmm1        # d2c0 <_ZL19NO_MATCHING_ELEMENT+0x130>
    bde3:	00 
    bde4:	66 0f 54 c1          	andpd  %xmm1,%xmm0
    bde8:	66 48 0f 7e c0       	movq   %xmm0,%rax
    bded:	66 48 0f 6e c0       	movq   %rax,%xmm0
    bdf2:	5d                   	pop    %rbp
    bdf3:	c3                   	ret    

000000000000bdf4 <_ZNSaIP12netlist_elemEC1Ev>:
    bdf4:	f3 0f 1e fa          	endbr64 
    bdf8:	55                   	push   %rbp
    bdf9:	48 89 e5             	mov    %rsp,%rbp
    bdfc:	48 83 ec 10          	sub    $0x10,%rsp
    be00:	48 89 7d f8          	mov    %rdi,-0x8(%rbp)
    be04:	48 8b 45 f8          	mov    -0x8(%rbp),%rax
    be08:	48 89 c7             	mov    %rax,%rdi
    be0b:	e8 04 00 00 00       	call   be14 <_ZN9__gnu_cxx13new_allocatorIP12netlist_elemEC1Ev>
    be10:	90                   	nop
    be11:	c9                   	leave  
    be12:	c3                   	ret    
    be13:	90                   	nop

000000000000be14 <_ZN9__gnu_cxx13new_allocatorIP12netlist_elemEC1Ev>:
    be14:	f3 0f 1e fa          	endbr64 
    be18:	55                   	push   %rbp
    be19:	48 89 e5             	mov    %rsp,%rbp
    be1c:	48 89 7d f8          	mov    %rdi,-0x8(%rbp)
    be20:	90                   	nop
    be21:	5d                   	pop    %rbp
    be22:	c3                   	ret    
    be23:	90                   	nop

000000000000be24 <_ZN3Rng4randEi>:
    be24:	f3 0f 1e fa          	endbr64 
    be28:	55                   	push   %rbp
    be29:	48 89 e5             	mov    %rsp,%rbp
    be2c:	48 83 ec 20          	sub    $0x20,%rsp
    be30:	48 89 7d e8          	mov    %rdi,-0x18(%rbp)
    be34:	89 75 e4             	mov    %esi,-0x1c(%rbp)
    be37:	64 48 8b 04 25 28 00 	mov    %fs:0x28,%rax
    be3e:	00 00 
    be40:	48 89 45 f8          	mov    %rax,-0x8(%rbp)
    be44:	31 c0                	xor    %eax,%eax
    be46:	48 8b 45 e8          	mov    -0x18(%rbp),%rax
    be4a:	48 8b 00             	mov    (%rax),%rax
    be4d:	8b 55 e4             	mov    -0x1c(%rbp),%edx
    be50:	83 ea 01             	sub    $0x1,%edx
    be53:	48 63 d2             	movslq %edx,%rdx
    be56:	48 89 55 f0          	mov    %rdx,-0x10(%rbp)
    be5a:	48 8d 55 f0          	lea    -0x10(%rbp),%rdx
    be5e:	48 89 d6             	mov    %rdx,%rsi
    be61:	48 89 c7             	mov    %rax,%rdi
    be64:	e8 c9 01 00 00       	call   c032 <_ZN6MTRand7randIntERKm>
    be69:	48 8b 55 f8          	mov    -0x8(%rbp),%rdx
    be6d:	64 48 2b 14 25 28 00 	sub    %fs:0x28,%rdx
    be74:	00 00 
    be76:	74 05                	je     be7d <_ZN3Rng4randEi+0x59>
    be78:	e8 83 67 ff ff       	call   2600 <__stack_chk_fail@plt>
    be7d:	c9                   	leave  
    be7e:	c3                   	ret    
    be7f:	90                   	nop

000000000000be80 <_ZN3Rng4randEv>:
    be80:	f3 0f 1e fa          	endbr64 
    be84:	55                   	push   %rbp
    be85:	48 89 e5             	mov    %rsp,%rbp
    be88:	48 83 ec 10          	sub    $0x10,%rsp
    be8c:	48 89 7d f8          	mov    %rdi,-0x8(%rbp)
    be90:	48 8b 45 f8          	mov    -0x8(%rbp),%rax
    be94:	48 8b 00             	mov    (%rax),%rax
    be97:	48 89 c7             	mov    %rax,%rdi
    be9a:	e8 fb 00 00 00       	call   bf9a <_ZN6MTRand7randIntEv>
    be9f:	c9                   	leave  
    bea0:	c3                   	ret    
    bea1:	90                   	nop

000000000000bea2 <_ZN3Rng5drandEv>:
    bea2:	f3 0f 1e fa          	endbr64 
    bea6:	55                   	push   %rbp
    bea7:	48 89 e5             	mov    %rsp,%rbp
    beaa:	48 83 ec 10          	sub    $0x10,%rsp
    beae:	48 89 7d f8          	mov    %rdi,-0x8(%rbp)
    beb2:	48 8b 45 f8          	mov    -0x8(%rbp),%rax
    beb6:	48 8b 00             	mov    (%rax),%rax
    beb9:	48 89 c7             	mov    %rax,%rdi
    bebc:	e8 7b 00 00 00       	call   bf3c <_ZN6MTRand4randEv>
    bec1:	66 48 0f 7e c0       	movq   %xmm0,%rax
    bec6:	66 48 0f 6e c0       	movq   %rax,%xmm0
    becb:	c9                   	leave  
    becc:	c3                   	ret    

000000000000becd <_Z41__static_initialization_and_destruction_0ii>:
    becd:	f3 0f 1e fa          	endbr64 
    bed1:	55                   	push   %rbp
    bed2:	48 89 e5             	mov    %rsp,%rbp
    bed5:	48 83 ec 10          	sub    $0x10,%rsp
    bed9:	89 7d fc             	mov    %edi,-0x4(%rbp)
    bedc:	89 75 f8             	mov    %esi,-0x8(%rbp)
    bedf:	83 7d fc 01          	cmpl   $0x1,-0x4(%rbp)
    bee3:	75 3b                	jne    bf20 <_Z41__static_initialization_and_destruction_0ii+0x53>
    bee5:	81 7d f8 ff ff 00 00 	cmpl   $0xffff,-0x8(%rbp)
    beec:	75 32                	jne    bf20 <_Z41__static_initialization_and_destruction_0ii+0x53>
    beee:	48 8d 05 b3 82 00 00 	lea    0x82b3(%rip),%rax        # 141a8 <_ZStL8__ioinit>
    bef5:	48 89 c7             	mov    %rax,%rdi
    bef8:	e8 93 67 ff ff       	call   2690 <_ZNSt8ios_base4InitC1Ev@plt>
    befd:	48 8d 05 04 81 00 00 	lea    0x8104(%rip),%rax        # 14008 <__dso_handle>
    bf04:	48 89 c2             	mov    %rax,%rdx
    bf07:	48 8d 05 9a 82 00 00 	lea    0x829a(%rip),%rax        # 141a8 <_ZStL8__ioinit>
    bf0e:	48 89 c6             	mov    %rax,%rsi
    bf11:	48 8b 05 e0 80 00 00 	mov    0x80e0(%rip),%rax        # 13ff8 <_ZNSt8ios_base4InitD1Ev@GLIBCXX_3.4>
    bf18:	48 89 c7             	mov    %rax,%rdi
    bf1b:	e8 00 66 ff ff       	call   2520 <__cxa_atexit@plt>
    bf20:	90                   	nop
    bf21:	c9                   	leave  
    bf22:	c3                   	ret    

000000000000bf23 <_GLOBAL__sub_I__ZN3Rng4seedE>:
    bf23:	f3 0f 1e fa          	endbr64 
    bf27:	55                   	push   %rbp
    bf28:	48 89 e5             	mov    %rsp,%rbp
    bf2b:	be ff ff 00 00       	mov    $0xffff,%esi
    bf30:	bf 01 00 00 00       	mov    $0x1,%edi
    bf35:	e8 93 ff ff ff       	call   becd <_Z41__static_initialization_and_destruction_0ii>
    bf3a:	5d                   	pop    %rbp
    bf3b:	c3                   	ret    

000000000000bf3c <_ZN6MTRand4randEv>:
    bf3c:	f3 0f 1e fa          	endbr64 
    bf40:	55                   	push   %rbp
    bf41:	48 89 e5             	mov    %rsp,%rbp
    bf44:	48 83 ec 10          	sub    $0x10,%rsp
    bf48:	48 89 7d f8          	mov    %rdi,-0x8(%rbp)
    bf4c:	48 8b 45 f8          	mov    -0x8(%rbp),%rax
    bf50:	48 89 c7             	mov    %rax,%rdi
    bf53:	e8 42 00 00 00       	call   bf9a <_ZN6MTRand7randIntEv>
    bf58:	48 85 c0             	test   %rax,%rax
    bf5b:	78 0b                	js     bf68 <_ZN6MTRand4randEv+0x2c>
    bf5d:	66 0f ef c0          	pxor   %xmm0,%xmm0
    bf61:	f2 48 0f 2a c0       	cvtsi2sd %rax,%xmm0
    bf66:	eb 19                	jmp    bf81 <_ZN6MTRand4randEv+0x45>
    bf68:	48 89 c2             	mov    %rax,%rdx
    bf6b:	48 d1 ea             	shr    %rdx
    bf6e:	83 e0 01             	and    $0x1,%eax
    bf71:	48 09 c2             	or     %rax,%rdx
    bf74:	66 0f ef c0          	pxor   %xmm0,%xmm0
    bf78:	f2 48 0f 2a c2       	cvtsi2sd %rdx,%xmm0
    bf7d:	f2 0f 58 c0          	addsd  %xmm0,%xmm0
    bf81:	f2 0f 10 0d 47 13 00 	movsd  0x1347(%rip),%xmm1        # d2d0 <_ZL19NO_MATCHING_ELEMENT+0x140>
    bf88:	00 
    bf89:	f2 0f 59 c1          	mulsd  %xmm1,%xmm0
    bf8d:	66 48 0f 7e c0       	movq   %xmm0,%rax
    bf92:	66 48 0f 6e c0       	movq   %rax,%xmm0
    bf97:	c9                   	leave  
    bf98:	c3                   	ret    
    bf99:	90                   	nop

000000000000bf9a <_ZN6MTRand7randIntEv>:
    bf9a:	f3 0f 1e fa          	endbr64 
    bf9e:	55                   	push   %rbp
    bf9f:	48 89 e5             	mov    %rsp,%rbp
    bfa2:	53                   	push   %rbx
    bfa3:	48 83 ec 18          	sub    $0x18,%rsp
    bfa7:	48 89 7d e8          	mov    %rdi,-0x18(%rbp)
    bfab:	48 8b 45 e8          	mov    -0x18(%rbp),%rax
    bfaf:	8b 80 88 13 00 00    	mov    0x1388(%rax),%eax
    bfb5:	85 c0                	test   %eax,%eax
    bfb7:	75 0c                	jne    bfc5 <_ZN6MTRand7randIntEv+0x2b>
    bfb9:	48 8b 45 e8          	mov    -0x18(%rbp),%rax
    bfbd:	48 89 c7             	mov    %rax,%rdi
    bfc0:	e8 89 6e ff ff       	call   2e4e <_ZN6MTRand6reloadEv>
    bfc5:	48 8b 45 e8          	mov    -0x18(%rbp),%rax
    bfc9:	8b 80 88 13 00 00    	mov    0x1388(%rax),%eax
    bfcf:	8d 50 ff             	lea    -0x1(%rax),%edx
    bfd2:	48 8b 45 e8          	mov    -0x18(%rbp),%rax
    bfd6:	89 90 88 13 00 00    	mov    %edx,0x1388(%rax)
    bfdc:	48 8b 45 e8          	mov    -0x18(%rbp),%rax
    bfe0:	48 8b 80 80 13 00 00 	mov    0x1380(%rax),%rax
    bfe7:	48 8d 48 08          	lea    0x8(%rax),%rcx
    bfeb:	48 8b 55 e8          	mov    -0x18(%rbp),%rdx
    bfef:	48 89 8a 80 13 00 00 	mov    %rcx,0x1380(%rdx)
    bff6:	48 8b 18             	mov    (%rax),%rbx
    bff9:	48 89 d8             	mov    %rbx,%rax
    bffc:	48 c1 e8 0b          	shr    $0xb,%rax
    c000:	48 31 c3             	xor    %rax,%rbx
    c003:	48 89 d8             	mov    %rbx,%rax
    c006:	48 c1 e0 07          	shl    $0x7,%rax
    c00a:	25 80 56 2c 9d       	and    $0x9d2c5680,%eax
    c00f:	48 31 c3             	xor    %rax,%rbx
    c012:	48 89 d8             	mov    %rbx,%rax
    c015:	48 c1 e0 0f          	shl    $0xf,%rax
    c019:	25 00 00 c6 ef       	and    $0xefc60000,%eax
    c01e:	48 31 c3             	xor    %rax,%rbx
    c021:	48 89 d8             	mov    %rbx,%rax
    c024:	48 c1 e8 12          	shr    $0x12,%rax
    c028:	48 31 d8             	xor    %rbx,%rax
    c02b:	48 8b 5d f8          	mov    -0x8(%rbp),%rbx
    c02f:	c9                   	leave  
    c030:	c3                   	ret    
    c031:	90                   	nop

000000000000c032 <_ZN6MTRand7randIntERKm>:
    c032:	f3 0f 1e fa          	endbr64 
    c036:	55                   	push   %rbp
    c037:	48 89 e5             	mov    %rsp,%rbp
    c03a:	48 83 ec 20          	sub    $0x20,%rsp
    c03e:	48 89 7d e8          	mov    %rdi,-0x18(%rbp)
    c042:	48 89 75 e0          	mov    %rsi,-0x20(%rbp)
    c046:	48 8b 45 e0          	mov    -0x20(%rbp),%rax
    c04a:	48 8b 00             	mov    (%rax),%rax
    c04d:	48 89 45 f0          	mov    %rax,-0x10(%rbp)
    c051:	48 8b 45 f0          	mov    -0x10(%rbp),%rax
    c055:	48 d1 e8             	shr    %rax
    c058:	48 09 45 f0          	or     %rax,-0x10(%rbp)
    c05c:	48 8b 45 f0          	mov    -0x10(%rbp),%rax
    c060:	48 c1 e8 02          	shr    $0x2,%rax
    c064:	48 09 45 f0          	or     %rax,-0x10(%rbp)
    c068:	48 8b 45 f0          	mov    -0x10(%rbp),%rax
    c06c:	48 c1 e8 04          	shr    $0x4,%rax
    c070:	48 09 45 f0          	or     %rax,-0x10(%rbp)
    c074:	48 8b 45 f0          	mov    -0x10(%rbp),%rax
    c078:	48 c1 e8 08          	shr    $0x8,%rax
    c07c:	48 09 45 f0          	or     %rax,-0x10(%rbp)
    c080:	48 8b 45 f0          	mov    -0x10(%rbp),%rax
    c084:	48 c1 e8 10          	shr    $0x10,%rax
    c088:	48 09 45 f0          	or     %rax,-0x10(%rbp)
    c08c:	48 8b 45 e8          	mov    -0x18(%rbp),%rax
    c090:	48 89 c7             	mov    %rax,%rdi
    c093:	e8 02 ff ff ff       	call   bf9a <_ZN6MTRand7randIntEv>
    c098:	48 23 45 f0          	and    -0x10(%rbp),%rax
    c09c:	48 89 45 f8          	mov    %rax,-0x8(%rbp)
    c0a0:	48 8b 45 e0          	mov    -0x20(%rbp),%rax
    c0a4:	48 8b 00             	mov    (%rax),%rax
    c0a7:	48 39 45 f8          	cmp    %rax,-0x8(%rbp)
    c0ab:	77 df                	ja     c08c <_ZN6MTRand7randIntERKm+0x5a>
    c0ad:	48 8b 45 f8          	mov    -0x8(%rbp),%rax
    c0b1:	c9                   	leave  
    c0b2:	c3                   	ret    

Disassembly of section .fini:

000000000000c0b4 <_fini>:
    c0b4:	f3 0f 1e fa          	endbr64 
    c0b8:	48 83 ec 08          	sub    $0x8,%rsp
    c0bc:	48 83 c4 08          	add    $0x8,%rsp
    c0c0:	c3                   	ret    
