
/home/vigarov/temp/parsec-benchmark/pkgs/apps/fluidanimate/inst/amd64-linux.gcc/bin/fluidanimate:     file format elf64-x86-64


Disassembly of section .init:

0000000000002000 <_init>:
    2000:	f3 0f 1e fa          	endbr64 
    2004:	48 83 ec 08          	sub    $0x8,%rsp
    2008:	48 8b 05 d9 af 00 00 	mov    0xafd9(%rip),%rax        # cfe8 <__gmon_start__@Base>
    200f:	48 85 c0             	test   %rax,%rax
    2012:	74 02                	je     2016 <_init+0x16>
    2014:	ff d0                	call   *%rax
    2016:	48 83 c4 08          	add    $0x8,%rsp
    201a:	c3                   	ret    

Disassembly of section .plt:

0000000000002020 <.plt>:
    2020:	ff 35 4a ae 00 00    	push   0xae4a(%rip)        # ce70 <_GLOBAL_OFFSET_TABLE_+0x8>
    2026:	f2 ff 25 4b ae 00 00 	bnd jmp *0xae4b(%rip)        # ce78 <_GLOBAL_OFFSET_TABLE_+0x10>
    202d:	0f 1f 00             	nopl   (%rax)
    2030:	f3 0f 1e fa          	endbr64 
    2034:	68 00 00 00 00       	push   $0x0
    2039:	f2 e9 e1 ff ff ff    	bnd jmp 2020 <_init+0x20>
    203f:	90                   	nop
    2040:	f3 0f 1e fa          	endbr64 
    2044:	68 01 00 00 00       	push   $0x1
    2049:	f2 e9 d1 ff ff ff    	bnd jmp 2020 <_init+0x20>
    204f:	90                   	nop
    2050:	f3 0f 1e fa          	endbr64 
    2054:	68 02 00 00 00       	push   $0x2
    2059:	f2 e9 c1 ff ff ff    	bnd jmp 2020 <_init+0x20>
    205f:	90                   	nop
    2060:	f3 0f 1e fa          	endbr64 
    2064:	68 03 00 00 00       	push   $0x3
    2069:	f2 e9 b1 ff ff ff    	bnd jmp 2020 <_init+0x20>
    206f:	90                   	nop
    2070:	f3 0f 1e fa          	endbr64 
    2074:	68 04 00 00 00       	push   $0x4
    2079:	f2 e9 a1 ff ff ff    	bnd jmp 2020 <_init+0x20>
    207f:	90                   	nop
    2080:	f3 0f 1e fa          	endbr64 
    2084:	68 05 00 00 00       	push   $0x5
    2089:	f2 e9 91 ff ff ff    	bnd jmp 2020 <_init+0x20>
    208f:	90                   	nop
    2090:	f3 0f 1e fa          	endbr64 
    2094:	68 06 00 00 00       	push   $0x6
    2099:	f2 e9 81 ff ff ff    	bnd jmp 2020 <_init+0x20>
    209f:	90                   	nop
    20a0:	f3 0f 1e fa          	endbr64 
    20a4:	68 07 00 00 00       	push   $0x7
    20a9:	f2 e9 71 ff ff ff    	bnd jmp 2020 <_init+0x20>
    20af:	90                   	nop
    20b0:	f3 0f 1e fa          	endbr64 
    20b4:	68 08 00 00 00       	push   $0x8
    20b9:	f2 e9 61 ff ff ff    	bnd jmp 2020 <_init+0x20>
    20bf:	90                   	nop
    20c0:	f3 0f 1e fa          	endbr64 
    20c4:	68 09 00 00 00       	push   $0x9
    20c9:	f2 e9 51 ff ff ff    	bnd jmp 2020 <_init+0x20>
    20cf:	90                   	nop
    20d0:	f3 0f 1e fa          	endbr64 
    20d4:	68 0a 00 00 00       	push   $0xa
    20d9:	f2 e9 41 ff ff ff    	bnd jmp 2020 <_init+0x20>
    20df:	90                   	nop
    20e0:	f3 0f 1e fa          	endbr64 
    20e4:	68 0b 00 00 00       	push   $0xb
    20e9:	f2 e9 31 ff ff ff    	bnd jmp 2020 <_init+0x20>
    20ef:	90                   	nop
    20f0:	f3 0f 1e fa          	endbr64 
    20f4:	68 0c 00 00 00       	push   $0xc
    20f9:	f2 e9 21 ff ff ff    	bnd jmp 2020 <_init+0x20>
    20ff:	90                   	nop
    2100:	f3 0f 1e fa          	endbr64 
    2104:	68 0d 00 00 00       	push   $0xd
    2109:	f2 e9 11 ff ff ff    	bnd jmp 2020 <_init+0x20>
    210f:	90                   	nop
    2110:	f3 0f 1e fa          	endbr64 
    2114:	68 0e 00 00 00       	push   $0xe
    2119:	f2 e9 01 ff ff ff    	bnd jmp 2020 <_init+0x20>
    211f:	90                   	nop
    2120:	f3 0f 1e fa          	endbr64 
    2124:	68 0f 00 00 00       	push   $0xf
    2129:	f2 e9 f1 fe ff ff    	bnd jmp 2020 <_init+0x20>
    212f:	90                   	nop
    2130:	f3 0f 1e fa          	endbr64 
    2134:	68 10 00 00 00       	push   $0x10
    2139:	f2 e9 e1 fe ff ff    	bnd jmp 2020 <_init+0x20>
    213f:	90                   	nop
    2140:	f3 0f 1e fa          	endbr64 
    2144:	68 11 00 00 00       	push   $0x11
    2149:	f2 e9 d1 fe ff ff    	bnd jmp 2020 <_init+0x20>
    214f:	90                   	nop
    2150:	f3 0f 1e fa          	endbr64 
    2154:	68 12 00 00 00       	push   $0x12
    2159:	f2 e9 c1 fe ff ff    	bnd jmp 2020 <_init+0x20>
    215f:	90                   	nop
    2160:	f3 0f 1e fa          	endbr64 
    2164:	68 13 00 00 00       	push   $0x13
    2169:	f2 e9 b1 fe ff ff    	bnd jmp 2020 <_init+0x20>
    216f:	90                   	nop
    2170:	f3 0f 1e fa          	endbr64 
    2174:	68 14 00 00 00       	push   $0x14
    2179:	f2 e9 a1 fe ff ff    	bnd jmp 2020 <_init+0x20>
    217f:	90                   	nop
    2180:	f3 0f 1e fa          	endbr64 
    2184:	68 15 00 00 00       	push   $0x15
    2189:	f2 e9 91 fe ff ff    	bnd jmp 2020 <_init+0x20>
    218f:	90                   	nop
    2190:	f3 0f 1e fa          	endbr64 
    2194:	68 16 00 00 00       	push   $0x16
    2199:	f2 e9 81 fe ff ff    	bnd jmp 2020 <_init+0x20>
    219f:	90                   	nop
    21a0:	f3 0f 1e fa          	endbr64 
    21a4:	68 17 00 00 00       	push   $0x17
    21a9:	f2 e9 71 fe ff ff    	bnd jmp 2020 <_init+0x20>
    21af:	90                   	nop
    21b0:	f3 0f 1e fa          	endbr64 
    21b4:	68 18 00 00 00       	push   $0x18
    21b9:	f2 e9 61 fe ff ff    	bnd jmp 2020 <_init+0x20>
    21bf:	90                   	nop
    21c0:	f3 0f 1e fa          	endbr64 
    21c4:	68 19 00 00 00       	push   $0x19
    21c9:	f2 e9 51 fe ff ff    	bnd jmp 2020 <_init+0x20>
    21cf:	90                   	nop
    21d0:	f3 0f 1e fa          	endbr64 
    21d4:	68 1a 00 00 00       	push   $0x1a
    21d9:	f2 e9 41 fe ff ff    	bnd jmp 2020 <_init+0x20>
    21df:	90                   	nop
    21e0:	f3 0f 1e fa          	endbr64 
    21e4:	68 1b 00 00 00       	push   $0x1b
    21e9:	f2 e9 31 fe ff ff    	bnd jmp 2020 <_init+0x20>
    21ef:	90                   	nop
    21f0:	f3 0f 1e fa          	endbr64 
    21f4:	68 1c 00 00 00       	push   $0x1c
    21f9:	f2 e9 21 fe ff ff    	bnd jmp 2020 <_init+0x20>
    21ff:	90                   	nop
    2200:	f3 0f 1e fa          	endbr64 
    2204:	68 1d 00 00 00       	push   $0x1d
    2209:	f2 e9 11 fe ff ff    	bnd jmp 2020 <_init+0x20>
    220f:	90                   	nop
    2210:	f3 0f 1e fa          	endbr64 
    2214:	68 1e 00 00 00       	push   $0x1e
    2219:	f2 e9 01 fe ff ff    	bnd jmp 2020 <_init+0x20>
    221f:	90                   	nop
    2220:	f3 0f 1e fa          	endbr64 
    2224:	68 1f 00 00 00       	push   $0x1f
    2229:	f2 e9 f1 fd ff ff    	bnd jmp 2020 <_init+0x20>
    222f:	90                   	nop
    2230:	f3 0f 1e fa          	endbr64 
    2234:	68 20 00 00 00       	push   $0x20
    2239:	f2 e9 e1 fd ff ff    	bnd jmp 2020 <_init+0x20>
    223f:	90                   	nop
    2240:	f3 0f 1e fa          	endbr64 
    2244:	68 21 00 00 00       	push   $0x21
    2249:	f2 e9 d1 fd ff ff    	bnd jmp 2020 <_init+0x20>
    224f:	90                   	nop
    2250:	f3 0f 1e fa          	endbr64 
    2254:	68 22 00 00 00       	push   $0x22
    2259:	f2 e9 c1 fd ff ff    	bnd jmp 2020 <_init+0x20>
    225f:	90                   	nop
    2260:	f3 0f 1e fa          	endbr64 
    2264:	68 23 00 00 00       	push   $0x23
    2269:	f2 e9 b1 fd ff ff    	bnd jmp 2020 <_init+0x20>
    226f:	90                   	nop
    2270:	f3 0f 1e fa          	endbr64 
    2274:	68 24 00 00 00       	push   $0x24
    2279:	f2 e9 a1 fd ff ff    	bnd jmp 2020 <_init+0x20>
    227f:	90                   	nop
    2280:	f3 0f 1e fa          	endbr64 
    2284:	68 25 00 00 00       	push   $0x25
    2289:	f2 e9 91 fd ff ff    	bnd jmp 2020 <_init+0x20>
    228f:	90                   	nop
    2290:	f3 0f 1e fa          	endbr64 
    2294:	68 26 00 00 00       	push   $0x26
    2299:	f2 e9 81 fd ff ff    	bnd jmp 2020 <_init+0x20>
    229f:	90                   	nop
    22a0:	f3 0f 1e fa          	endbr64 
    22a4:	68 27 00 00 00       	push   $0x27
    22a9:	f2 e9 71 fd ff ff    	bnd jmp 2020 <_init+0x20>
    22af:	90                   	nop

Disassembly of section .plt.got:

00000000000022b0 <__cxa_finalize@plt>:
    22b0:	f3 0f 1e fa          	endbr64 
    22b4:	f2 ff 25 05 ad 00 00 	bnd jmp *0xad05(%rip)        # cfc0 <__cxa_finalize@GLIBC_2.2.5>
    22bb:	0f 1f 44 00 00       	nopl   0x0(%rax,%rax,1)

Disassembly of section .plt.sec:

00000000000022c0 <_Znam@plt>:
    22c0:	f3 0f 1e fa          	endbr64 
    22c4:	f2 ff 25 b5 ab 00 00 	bnd jmp *0xabb5(%rip)        # ce80 <_Znam@GLIBCXX_3.4>
    22cb:	0f 1f 44 00 00       	nopl   0x0(%rax,%rax,1)

00000000000022d0 <pthread_mutex_trylock@plt>:
    22d0:	f3 0f 1e fa          	endbr64 
    22d4:	f2 ff 25 ad ab 00 00 	bnd jmp *0xabad(%rip)        # ce88 <pthread_mutex_trylock@GLIBC_2.34>
    22db:	0f 1f 44 00 00       	nopl   0x0(%rax,%rax,1)

00000000000022e0 <_ZNSt14basic_ifstreamIcSt11char_traitsIcEED1Ev@plt>:
    22e0:	f3 0f 1e fa          	endbr64 
    22e4:	f2 ff 25 a5 ab 00 00 	bnd jmp *0xaba5(%rip)        # ce90 <_ZNSt14basic_ifstreamIcSt11char_traitsIcEED1Ev@GLIBCXX_3.4>
    22eb:	0f 1f 44 00 00       	nopl   0x0(%rax,%rax,1)

00000000000022f0 <pthread_cond_broadcast@plt>:
    22f0:	f3 0f 1e fa          	endbr64 
    22f4:	f2 ff 25 9d ab 00 00 	bnd jmp *0xab9d(%rip)        # ce98 <pthread_cond_broadcast@GLIBC_2.3.2>
    22fb:	0f 1f 44 00 00       	nopl   0x0(%rax,%rax,1)

0000000000002300 <_ZNKSt9basic_iosIcSt11char_traitsIcEEntEv@plt>:
    2300:	f3 0f 1e fa          	endbr64 
    2304:	f2 ff 25 95 ab 00 00 	bnd jmp *0xab95(%rip)        # cea0 <_ZNKSt9basic_iosIcSt11char_traitsIcEEntEv@GLIBCXX_3.4>
    230b:	0f 1f 44 00 00       	nopl   0x0(%rax,%rax,1)

0000000000002310 <posix_memalign@plt>:
    2310:	f3 0f 1e fa          	endbr64 
    2314:	f2 ff 25 8d ab 00 00 	bnd jmp *0xab8d(%rip)        # cea8 <posix_memalign@GLIBC_2.2.5>
    231b:	0f 1f 44 00 00       	nopl   0x0(%rax,%rax,1)

0000000000002320 <memset@plt>:
    2320:	f3 0f 1e fa          	endbr64 
    2324:	f2 ff 25 85 ab 00 00 	bnd jmp *0xab85(%rip)        # ceb0 <memset@GLIBC_2.2.5>
    232b:	0f 1f 44 00 00       	nopl   0x0(%rax,%rax,1)

0000000000002330 <__assert_fail@plt>:
    2330:	f3 0f 1e fa          	endbr64 
    2334:	f2 ff 25 7d ab 00 00 	bnd jmp *0xab7d(%rip)        # ceb8 <__assert_fail@GLIBC_2.2.5>
    233b:	0f 1f 44 00 00       	nopl   0x0(%rax,%rax,1)

0000000000002340 <_ZNSolsEf@plt>:
    2340:	f3 0f 1e fa          	endbr64 
    2344:	f2 ff 25 75 ab 00 00 	bnd jmp *0xab75(%rip)        # cec0 <_ZNSolsEf@GLIBCXX_3.4>
    234b:	0f 1f 44 00 00       	nopl   0x0(%rax,%rax,1)

0000000000002350 <pthread_mutex_unlock@plt>:
    2350:	f3 0f 1e fa          	endbr64 
    2354:	f2 ff 25 6d ab 00 00 	bnd jmp *0xab6d(%rip)        # cec8 <pthread_mutex_unlock@GLIBC_2.2.5>
    235b:	0f 1f 44 00 00       	nopl   0x0(%rax,%rax,1)

0000000000002360 <__cxa_atexit@plt>:
    2360:	f3 0f 1e fa          	endbr64 
    2364:	f2 ff 25 65 ab 00 00 	bnd jmp *0xab65(%rip)        # ced0 <__cxa_atexit@GLIBC_2.2.5>
    236b:	0f 1f 44 00 00       	nopl   0x0(%rax,%rax,1)

0000000000002370 <pthread_join@plt>:
    2370:	f3 0f 1e fa          	endbr64 
    2374:	f2 ff 25 5d ab 00 00 	bnd jmp *0xab5d(%rip)        # ced8 <pthread_join@GLIBC_2.34>
    237b:	0f 1f 44 00 00       	nopl   0x0(%rax,%rax,1)

0000000000002380 <_ZStlsISt11char_traitsIcEERSt13basic_ostreamIcT_ES5_PKc@plt>:
    2380:	f3 0f 1e fa          	endbr64 
    2384:	f2 ff 25 55 ab 00 00 	bnd jmp *0xab55(%rip)        # cee0 <_ZStlsISt11char_traitsIcEERSt13basic_ostreamIcT_ES5_PKc@GLIBCXX_3.4>
    238b:	0f 1f 44 00 00       	nopl   0x0(%rax,%rax,1)

0000000000002390 <_ZNSolsEPFRSoS_E@plt>:
    2390:	f3 0f 1e fa          	endbr64 
    2394:	f2 ff 25 4d ab 00 00 	bnd jmp *0xab4d(%rip)        # cee8 <_ZNSolsEPFRSoS_E@GLIBCXX_3.4>
    239b:	0f 1f 44 00 00       	nopl   0x0(%rax,%rax,1)

00000000000023a0 <_ZNSt14basic_ofstreamIcSt11char_traitsIcEEC1EPKcSt13_Ios_Openmode@plt>:
    23a0:	f3 0f 1e fa          	endbr64 
    23a4:	f2 ff 25 45 ab 00 00 	bnd jmp *0xab45(%rip)        # cef0 <_ZNSt14basic_ofstreamIcSt11char_traitsIcEEC1EPKcSt13_Ios_Openmode@GLIBCXX_3.4>
    23ab:	0f 1f 44 00 00       	nopl   0x0(%rax,%rax,1)

00000000000023b0 <__stack_chk_fail@plt>:
    23b0:	f3 0f 1e fa          	endbr64 
    23b4:	f2 ff 25 3d ab 00 00 	bnd jmp *0xab3d(%rip)        # cef8 <__stack_chk_fail@GLIBC_2.4>
    23bb:	0f 1f 44 00 00       	nopl   0x0(%rax,%rax,1)

00000000000023c0 <pthread_mutex_destroy@plt>:
    23c0:	f3 0f 1e fa          	endbr64 
    23c4:	f2 ff 25 35 ab 00 00 	bnd jmp *0xab35(%rip)        # cf00 <pthread_mutex_destroy@GLIBC_2.2.5>
    23cb:	0f 1f 44 00 00       	nopl   0x0(%rax,%rax,1)

00000000000023d0 <free@plt>:
    23d0:	f3 0f 1e fa          	endbr64 
    23d4:	f2 ff 25 2d ab 00 00 	bnd jmp *0xab2d(%rip)        # cf08 <free@GLIBC_2.2.5>
    23db:	0f 1f 44 00 00       	nopl   0x0(%rax,%rax,1)

00000000000023e0 <pthread_cond_init@plt>:
    23e0:	f3 0f 1e fa          	endbr64 
    23e4:	f2 ff 25 25 ab 00 00 	bnd jmp *0xab25(%rip)        # cf10 <pthread_cond_init@GLIBC_2.3.2>
    23eb:	0f 1f 44 00 00       	nopl   0x0(%rax,%rax,1)

00000000000023f0 <exit@plt>:
    23f0:	f3 0f 1e fa          	endbr64 
    23f4:	f2 ff 25 1d ab 00 00 	bnd jmp *0xab1d(%rip)        # cf18 <exit@GLIBC_2.2.5>
    23fb:	0f 1f 44 00 00       	nopl   0x0(%rax,%rax,1)

0000000000002400 <pthread_attr_init@plt>:
    2400:	f3 0f 1e fa          	endbr64 
    2404:	f2 ff 25 15 ab 00 00 	bnd jmp *0xab15(%rip)        # cf20 <pthread_attr_init@GLIBC_2.2.5>
    240b:	0f 1f 44 00 00       	nopl   0x0(%rax,%rax,1)

0000000000002410 <_ZNKSt9basic_iosIcSt11char_traitsIcEEcvbEv@plt>:
    2410:	f3 0f 1e fa          	endbr64 
    2414:	f2 ff 25 0d ab 00 00 	bnd jmp *0xab0d(%rip)        # cf28 <_ZNKSt9basic_iosIcSt11char_traitsIcEEcvbEv@GLIBCXX_3.4.21>
    241b:	0f 1f 44 00 00       	nopl   0x0(%rax,%rax,1)

0000000000002420 <_ZNSi4readEPcl@plt>:
    2420:	f3 0f 1e fa          	endbr64 
    2424:	f2 ff 25 05 ab 00 00 	bnd jmp *0xab05(%rip)        # cf30 <_ZNSi4readEPcl@GLIBCXX_3.4>
    242b:	0f 1f 44 00 00       	nopl   0x0(%rax,%rax,1)

0000000000002430 <_ZdaPv@plt>:
    2430:	f3 0f 1e fa          	endbr64 
    2434:	f2 ff 25 fd aa 00 00 	bnd jmp *0xaafd(%rip)        # cf38 <_ZdaPv@GLIBCXX_3.4>
    243b:	0f 1f 44 00 00       	nopl   0x0(%rax,%rax,1)

0000000000002440 <_ZNSo5writeEPKcl@plt>:
    2440:	f3 0f 1e fa          	endbr64 
    2444:	f2 ff 25 f5 aa 00 00 	bnd jmp *0xaaf5(%rip)        # cf40 <_ZNSo5writeEPKcl@GLIBCXX_3.4>
    244b:	0f 1f 44 00 00       	nopl   0x0(%rax,%rax,1)

0000000000002450 <pthread_attr_setdetachstate@plt>:
    2450:	f3 0f 1e fa          	endbr64 
    2454:	f2 ff 25 ed aa 00 00 	bnd jmp *0xaaed(%rip)        # cf48 <pthread_attr_setdetachstate@GLIBC_2.2.5>
    245b:	0f 1f 44 00 00       	nopl   0x0(%rax,%rax,1)

0000000000002460 <fprintf@plt>:
    2460:	f3 0f 1e fa          	endbr64 
    2464:	f2 ff 25 e5 aa 00 00 	bnd jmp *0xaae5(%rip)        # cf50 <fprintf@GLIBC_2.2.5>
    246b:	0f 1f 44 00 00       	nopl   0x0(%rax,%rax,1)

0000000000002470 <pthread_mutex_lock@plt>:
    2470:	f3 0f 1e fa          	endbr64 
    2474:	f2 ff 25 dd aa 00 00 	bnd jmp *0xaadd(%rip)        # cf58 <pthread_mutex_lock@GLIBC_2.2.5>
    247b:	0f 1f 44 00 00       	nopl   0x0(%rax,%rax,1)

0000000000002480 <_ZNSt14basic_ofstreamIcSt11char_traitsIcEED1Ev@plt>:
    2480:	f3 0f 1e fa          	endbr64 
    2484:	f2 ff 25 d5 aa 00 00 	bnd jmp *0xaad5(%rip)        # cf60 <_ZNSt14basic_ofstreamIcSt11char_traitsIcEED1Ev@GLIBCXX_3.4>
    248b:	0f 1f 44 00 00       	nopl   0x0(%rax,%rax,1)

0000000000002490 <pthread_mutex_init@plt>:
    2490:	f3 0f 1e fa          	endbr64 
    2494:	f2 ff 25 cd aa 00 00 	bnd jmp *0xaacd(%rip)        # cf68 <pthread_mutex_init@GLIBC_2.2.5>
    249b:	0f 1f 44 00 00       	nopl   0x0(%rax,%rax,1)

00000000000024a0 <pthread_cond_wait@plt>:
    24a0:	f3 0f 1e fa          	endbr64 
    24a4:	f2 ff 25 c5 aa 00 00 	bnd jmp *0xaac5(%rip)        # cf70 <pthread_cond_wait@GLIBC_2.3.2>
    24ab:	0f 1f 44 00 00       	nopl   0x0(%rax,%rax,1)

00000000000024b0 <_ZNSt8ios_base4InitC1Ev@plt>:
    24b0:	f3 0f 1e fa          	endbr64 
    24b4:	f2 ff 25 bd aa 00 00 	bnd jmp *0xaabd(%rip)        # cf78 <_ZNSt8ios_base4InitC1Ev@GLIBCXX_3.4>
    24bb:	0f 1f 44 00 00       	nopl   0x0(%rax,%rax,1)

00000000000024c0 <atoi@plt>:
    24c0:	f3 0f 1e fa          	endbr64 
    24c4:	f2 ff 25 b5 aa 00 00 	bnd jmp *0xaab5(%rip)        # cf80 <atoi@GLIBC_2.2.5>
    24cb:	0f 1f 44 00 00       	nopl   0x0(%rax,%rax,1)

00000000000024d0 <powf@plt>:
    24d0:	f3 0f 1e fa          	endbr64 
    24d4:	f2 ff 25 ad aa 00 00 	bnd jmp *0xaaad(%rip)        # cf88 <powf@GLIBC_2.27>
    24db:	0f 1f 44 00 00       	nopl   0x0(%rax,%rax,1)

00000000000024e0 <pthread_attr_destroy@plt>:
    24e0:	f3 0f 1e fa          	endbr64 
    24e4:	f2 ff 25 a5 aa 00 00 	bnd jmp *0xaaa5(%rip)        # cf90 <pthread_attr_destroy@GLIBC_2.2.5>
    24eb:	0f 1f 44 00 00       	nopl   0x0(%rax,%rax,1)

00000000000024f0 <_ZNSolsEi@plt>:
    24f0:	f3 0f 1e fa          	endbr64 
    24f4:	f2 ff 25 9d aa 00 00 	bnd jmp *0xaa9d(%rip)        # cf98 <_ZNSolsEi@GLIBCXX_3.4>
    24fb:	0f 1f 44 00 00       	nopl   0x0(%rax,%rax,1)

0000000000002500 <sqrtf@plt>:
    2500:	f3 0f 1e fa          	endbr64 
    2504:	f2 ff 25 95 aa 00 00 	bnd jmp *0xaa95(%rip)        # cfa0 <sqrtf@GLIBC_2.2.5>
    250b:	0f 1f 44 00 00       	nopl   0x0(%rax,%rax,1)

0000000000002510 <pthread_create@plt>:
    2510:	f3 0f 1e fa          	endbr64 
    2514:	f2 ff 25 8d aa 00 00 	bnd jmp *0xaa8d(%rip)        # cfa8 <pthread_create@GLIBC_2.34>
    251b:	0f 1f 44 00 00       	nopl   0x0(%rax,%rax,1)

0000000000002520 <_ZNSt14basic_ifstreamIcSt11char_traitsIcEEC1EPKcSt13_Ios_Openmode@plt>:
    2520:	f3 0f 1e fa          	endbr64 
    2524:	f2 ff 25 85 aa 00 00 	bnd jmp *0xaa85(%rip)        # cfb0 <_ZNSt14basic_ifstreamIcSt11char_traitsIcEEC1EPKcSt13_Ios_Openmode@GLIBCXX_3.4>
    252b:	0f 1f 44 00 00       	nopl   0x0(%rax,%rax,1)

0000000000002530 <pthread_cond_destroy@plt>:
    2530:	f3 0f 1e fa          	endbr64 
    2534:	f2 ff 25 7d aa 00 00 	bnd jmp *0xaa7d(%rip)        # cfb8 <pthread_cond_destroy@GLIBC_2.3.2>
    253b:	0f 1f 44 00 00       	nopl   0x0(%rax,%rax,1)

Disassembly of section .text:

0000000000002540 <_start>:
    2540:	f3 0f 1e fa          	endbr64 
    2544:	31 ed                	xor    %ebp,%ebp
    2546:	49 89 d1             	mov    %rdx,%r9
    2549:	5e                   	pop    %rsi
    254a:	48 89 e2             	mov    %rsp,%rdx
    254d:	48 83 e4 f0          	and    $0xfffffffffffffff0,%rsp
    2551:	50                   	push   %rax
    2552:	54                   	push   %rsp
    2553:	45 31 c0             	xor    %r8d,%r8d
    2556:	31 c9                	xor    %ecx,%ecx
    2558:	48 8d 3d 29 56 00 00 	lea    0x5629(%rip),%rdi        # 7b88 <main>
    255f:	ff 15 6b aa 00 00    	call   *0xaa6b(%rip)        # cfd0 <__libc_start_main@GLIBC_2.34>
    2565:	f4                   	hlt    
    2566:	66 2e 0f 1f 84 00 00 	cs nopw 0x0(%rax,%rax,1)
    256d:	00 00 00 

0000000000002570 <deregister_tm_clones>:
    2570:	48 8d 3d a9 aa 00 00 	lea    0xaaa9(%rip),%rdi        # d020 <__TMC_END__>
    2577:	48 8d 05 a2 aa 00 00 	lea    0xaaa2(%rip),%rax        # d020 <__TMC_END__>
    257e:	48 39 f8             	cmp    %rdi,%rax
    2581:	74 15                	je     2598 <deregister_tm_clones+0x28>
    2583:	48 8b 05 56 aa 00 00 	mov    0xaa56(%rip),%rax        # cfe0 <_ITM_deregisterTMCloneTable@Base>
    258a:	48 85 c0             	test   %rax,%rax
    258d:	74 09                	je     2598 <deregister_tm_clones+0x28>
    258f:	ff e0                	jmp    *%rax
    2591:	0f 1f 80 00 00 00 00 	nopl   0x0(%rax)
    2598:	c3                   	ret    
    2599:	0f 1f 80 00 00 00 00 	nopl   0x0(%rax)

00000000000025a0 <register_tm_clones>:
    25a0:	48 8d 3d 79 aa 00 00 	lea    0xaa79(%rip),%rdi        # d020 <__TMC_END__>
    25a7:	48 8d 35 72 aa 00 00 	lea    0xaa72(%rip),%rsi        # d020 <__TMC_END__>
    25ae:	48 29 fe             	sub    %rdi,%rsi
    25b1:	48 89 f0             	mov    %rsi,%rax
    25b4:	48 c1 ee 3f          	shr    $0x3f,%rsi
    25b8:	48 c1 f8 03          	sar    $0x3,%rax
    25bc:	48 01 c6             	add    %rax,%rsi
    25bf:	48 d1 fe             	sar    %rsi
    25c2:	74 14                	je     25d8 <register_tm_clones+0x38>
    25c4:	48 8b 05 25 aa 00 00 	mov    0xaa25(%rip),%rax        # cff0 <_ITM_registerTMCloneTable@Base>
    25cb:	48 85 c0             	test   %rax,%rax
    25ce:	74 08                	je     25d8 <register_tm_clones+0x38>
    25d0:	ff e0                	jmp    *%rax
    25d2:	66 0f 1f 44 00 00    	nopw   0x0(%rax,%rax,1)
    25d8:	c3                   	ret    
    25d9:	0f 1f 80 00 00 00 00 	nopl   0x0(%rax)

00000000000025e0 <__do_global_dtors_aux>:
    25e0:	f3 0f 1e fa          	endbr64 
    25e4:	80 3d a5 ac 00 00 00 	cmpb   $0x0,0xaca5(%rip)        # d290 <completed.0>
    25eb:	75 2b                	jne    2618 <__do_global_dtors_aux+0x38>
    25ed:	55                   	push   %rbp
    25ee:	48 83 3d ca a9 00 00 	cmpq   $0x0,0xa9ca(%rip)        # cfc0 <__cxa_finalize@GLIBC_2.2.5>
    25f5:	00 
    25f6:	48 89 e5             	mov    %rsp,%rbp
    25f9:	74 0c                	je     2607 <__do_global_dtors_aux+0x27>
    25fb:	48 8b 3d 06 aa 00 00 	mov    0xaa06(%rip),%rdi        # d008 <__dso_handle>
    2602:	e8 a9 fc ff ff       	call   22b0 <__cxa_finalize@plt>
    2607:	e8 64 ff ff ff       	call   2570 <deregister_tm_clones>
    260c:	c6 05 7d ac 00 00 01 	movb   $0x1,0xac7d(%rip)        # d290 <completed.0>
    2613:	5d                   	pop    %rbp
    2614:	c3                   	ret    
    2615:	0f 1f 00             	nopl   (%rax)
    2618:	c3                   	ret    
    2619:	0f 1f 80 00 00 00 00 	nopl   0x0(%rax)

0000000000002620 <frame_dummy>:
    2620:	f3 0f 1e fa          	endbr64 
    2624:	e9 77 ff ff ff       	jmp    25a0 <register_tm_clones>

0000000000002629 <_ZL14isLittleEndianv>:
    2629:	55                   	push   %rbp
    262a:	48 89 e5             	mov    %rsp,%rbp
    262d:	66 c7 45 fe ff 00    	movw   $0xff,-0x2(%rbp)
    2633:	0f b6 45 fe          	movzbl -0x2(%rbp),%eax
    2637:	3c ff                	cmp    $0xff,%al
    2639:	0f 94 c0             	sete   %al
    263c:	0f b6 c0             	movzbl %al,%eax
    263f:	5d                   	pop    %rbp
    2640:	c3                   	ret    

0000000000002641 <_ZL11bswap_floatf>:
    2641:	55                   	push   %rbp
    2642:	48 89 e5             	mov    %rsp,%rbp
    2645:	f3 0f 11 45 ec       	movss  %xmm0,-0x14(%rbp)
    264a:	f3 0f 10 45 ec       	movss  -0x14(%rbp),%xmm0
    264f:	f3 0f 11 45 fc       	movss  %xmm0,-0x4(%rbp)
    2654:	8b 45 fc             	mov    -0x4(%rbp),%eax
    2657:	c1 e8 18             	shr    $0x18,%eax
    265a:	89 c2                	mov    %eax,%edx
    265c:	8b 45 fc             	mov    -0x4(%rbp),%eax
    265f:	c1 e8 08             	shr    $0x8,%eax
    2662:	25 00 ff 00 00       	and    $0xff00,%eax
    2667:	09 c2                	or     %eax,%edx
    2669:	8b 45 fc             	mov    -0x4(%rbp),%eax
    266c:	c1 e0 08             	shl    $0x8,%eax
    266f:	25 00 00 ff 00       	and    $0xff0000,%eax
    2674:	09 c2                	or     %eax,%edx
    2676:	8b 45 fc             	mov    -0x4(%rbp),%eax
    2679:	c1 e0 18             	shl    $0x18,%eax
    267c:	09 d0                	or     %edx,%eax
    267e:	89 45 fc             	mov    %eax,-0x4(%rbp)
    2681:	f3 0f 10 45 fc       	movss  -0x4(%rbp),%xmm0
    2686:	5d                   	pop    %rbp
    2687:	c3                   	ret    

0000000000002688 <_ZL11bswap_int32i>:
    2688:	55                   	push   %rbp
    2689:	48 89 e5             	mov    %rsp,%rbp
    268c:	89 7d fc             	mov    %edi,-0x4(%rbp)
    268f:	8b 45 fc             	mov    -0x4(%rbp),%eax
    2692:	c1 e8 18             	shr    $0x18,%eax
    2695:	89 c2                	mov    %eax,%edx
    2697:	8b 45 fc             	mov    -0x4(%rbp),%eax
    269a:	c1 f8 08             	sar    $0x8,%eax
    269d:	25 00 ff 00 00       	and    $0xff00,%eax
    26a2:	09 c2                	or     %eax,%edx
    26a4:	8b 45 fc             	mov    -0x4(%rbp),%eax
    26a7:	c1 e0 08             	shl    $0x8,%eax
    26aa:	25 00 00 ff 00       	and    $0xff0000,%eax
    26af:	09 c2                	or     %eax,%edx
    26b1:	8b 45 fc             	mov    -0x4(%rbp),%eax
    26b4:	c1 e0 18             	shl    $0x18,%eax
    26b7:	09 d0                	or     %edx,%eax
    26b9:	5d                   	pop    %rbp
    26ba:	c3                   	ret    

00000000000026bb <_Z9hmgweightjPi>:
    26bb:	f3 0f 1e fa          	endbr64 
    26bf:	55                   	push   %rbp
    26c0:	48 89 e5             	mov    %rsp,%rbp
    26c3:	89 7d ec             	mov    %edi,-0x14(%rbp)
    26c6:	48 89 75 e0          	mov    %rsi,-0x20(%rbp)
    26ca:	c7 45 f0 00 00 00 00 	movl   $0x0,-0x10(%rbp)
    26d1:	c7 45 f8 01 00 00 00 	movl   $0x1,-0x8(%rbp)
    26d8:	c7 45 f4 00 00 00 00 	movl   $0x0,-0xc(%rbp)
    26df:	48 8b 45 e0          	mov    -0x20(%rbp),%rax
    26e3:	c7 00 ff ff ff ff    	movl   $0xffffffff,(%rax)
    26e9:	eb 33                	jmp    271e <_Z9hmgweightjPi+0x63>
    26eb:	8b 45 ec             	mov    -0x14(%rbp),%eax
    26ee:	23 45 f8             	and    -0x8(%rbp),%eax
    26f1:	89 45 fc             	mov    %eax,-0x4(%rbp)
    26f4:	8b 45 ec             	mov    -0x14(%rbp),%eax
    26f7:	23 45 f8             	and    -0x8(%rbp),%eax
    26fa:	83 f8 01             	cmp    $0x1,%eax
    26fd:	75 18                	jne    2717 <_Z9hmgweightjPi+0x5c>
    26ff:	83 45 f0 01          	addl   $0x1,-0x10(%rbp)
    2703:	48 8b 45 e0          	mov    -0x20(%rbp),%rax
    2707:	8b 00                	mov    (%rax),%eax
    2709:	83 f8 ff             	cmp    $0xffffffff,%eax
    270c:	75 09                	jne    2717 <_Z9hmgweightjPi+0x5c>
    270e:	8b 55 f4             	mov    -0xc(%rbp),%edx
    2711:	48 8b 45 e0          	mov    -0x20(%rbp),%rax
    2715:	89 10                	mov    %edx,(%rax)
    2717:	d1 6d ec             	shrl   -0x14(%rbp)
    271a:	83 45 f4 01          	addl   $0x1,-0xc(%rbp)
    271e:	83 7d ec 00          	cmpl   $0x0,-0x14(%rbp)
    2722:	75 c7                	jne    26eb <_Z9hmgweightjPi+0x30>
    2724:	8b 45 f0             	mov    -0x10(%rbp),%eax
    2727:	5d                   	pop    %rbp
    2728:	c3                   	ret    

0000000000002729 <_Z7InitSimPKcj>:
    2729:	f3 0f 1e fa          	endbr64 
    272d:	55                   	push   %rbp
    272e:	48 89 e5             	mov    %rsp,%rbp
    2731:	53                   	push   %rbx
    2732:	48 81 ec 18 03 00 00 	sub    $0x318,%rsp
    2739:	48 89 bd e8 fc ff ff 	mov    %rdi,-0x318(%rbp)
    2740:	89 b5 e4 fc ff ff    	mov    %esi,-0x31c(%rbp)
    2746:	64 48 8b 04 25 28 00 	mov    %fs:0x28,%rax
    274d:	00 00 
    274f:	48 89 45 e8          	mov    %rax,-0x18(%rbp)
    2753:	31 c0                	xor    %eax,%eax
    2755:	48 8d 95 fc fc ff ff 	lea    -0x304(%rbp),%rdx
    275c:	8b 85 e4 fc ff ff    	mov    -0x31c(%rbp),%eax
    2762:	48 89 d6             	mov    %rdx,%rsi
    2765:	89 c7                	mov    %eax,%edi
    2767:	e8 4f ff ff ff       	call   26bb <_Z9hmgweightjPi>
    276c:	83 f8 01             	cmp    $0x1,%eax
    276f:	0f 95 c0             	setne  %al
    2772:	84 c0                	test   %al,%al
    2774:	74 35                	je     27ab <_Z7InitSimPKcj+0x82>
    2776:	48 8d 05 cb 78 00 00 	lea    0x78cb(%rip),%rax        # a048 <_ZL22PARSEC_PROCESS_PRIVATE+0x8>
    277d:	48 89 c6             	mov    %rax,%rsi
    2780:	48 8d 05 f9 a9 00 00 	lea    0xa9f9(%rip),%rax        # d180 <_ZSt4cerr@GLIBCXX_3.4>
    2787:	48 89 c7             	mov    %rax,%rdi
    278a:	e8 f1 fb ff ff       	call   2380 <_ZStlsISt11char_traitsIcEERSt13basic_ostreamIcT_ES5_PKc@plt>
    278f:	48 8b 15 32 a8 00 00 	mov    0xa832(%rip),%rdx        # cfc8 <_ZSt4endlIcSt11char_traitsIcEERSt13basic_ostreamIT_T0_ES6_@GLIBCXX_3.4>
    2796:	48 89 d6             	mov    %rdx,%rsi
    2799:	48 89 c7             	mov    %rax,%rdi
    279c:	e8 ef fb ff ff       	call   2390 <_ZNSolsEPFRSoS_E@plt>
    27a1:	bf 01 00 00 00       	mov    $0x1,%edi
    27a6:	e8 45 fc ff ff       	call   23f0 <exit@plt>
    27ab:	8b 85 fc fc ff ff    	mov    -0x304(%rbp),%eax
    27b1:	89 c2                	mov    %eax,%edx
    27b3:	c1 ea 1f             	shr    $0x1f,%edx
    27b6:	01 d0                	add    %edx,%eax
    27b8:	d1 f8                	sar    %eax
    27ba:	ba 01 00 00 00       	mov    $0x1,%edx
    27bf:	89 c1                	mov    %eax,%ecx
    27c1:	d3 e2                	shl    %cl,%edx
    27c3:	89 d0                	mov    %edx,%eax
    27c5:	89 05 49 a8 00 00    	mov    %eax,0xa849(%rip)        # d014 <XDIVS>
    27cb:	8b 85 fc fc ff ff    	mov    -0x304(%rbp),%eax
    27d1:	89 c2                	mov    %eax,%edx
    27d3:	c1 ea 1f             	shr    $0x1f,%edx
    27d6:	01 d0                	add    %edx,%eax
    27d8:	d1 f8                	sar    %eax
    27da:	ba 01 00 00 00       	mov    $0x1,%edx
    27df:	89 c1                	mov    %eax,%ecx
    27e1:	d3 e2                	shl    %cl,%edx
    27e3:	89 d0                	mov    %edx,%eax
    27e5:	89 05 2d a8 00 00    	mov    %eax,0xa82d(%rip)        # d018 <ZDIVS>
    27eb:	8b 15 23 a8 00 00    	mov    0xa823(%rip),%edx        # d014 <XDIVS>
    27f1:	8b 05 21 a8 00 00    	mov    0xa821(%rip),%eax        # d018 <ZDIVS>
    27f7:	0f af c2             	imul   %edx,%eax
    27fa:	39 85 e4 fc ff ff    	cmp    %eax,-0x31c(%rbp)
    2800:	74 0e                	je     2810 <_Z7InitSimPKcj+0xe7>
    2802:	8b 05 0c a8 00 00    	mov    0xa80c(%rip),%eax        # d014 <XDIVS>
    2808:	01 c0                	add    %eax,%eax
    280a:	89 05 04 a8 00 00    	mov    %eax,0xa804(%rip)        # d014 <XDIVS>
    2810:	8b 15 fe a7 00 00    	mov    0xa7fe(%rip),%edx        # d014 <XDIVS>
    2816:	8b 05 fc a7 00 00    	mov    0xa7fc(%rip),%eax        # d018 <ZDIVS>
    281c:	0f af c2             	imul   %edx,%eax
    281f:	39 85 e4 fc ff ff    	cmp    %eax,-0x31c(%rbp)
    2825:	74 28                	je     284f <_Z7InitSimPKcj+0x126>
    2827:	48 8d 05 42 78 00 00 	lea    0x7842(%rip),%rax        # a070 <_ZL22PARSEC_PROCESS_PRIVATE+0x30>
    282e:	48 89 c1             	mov    %rax,%rcx
    2831:	ba 84 00 00 00       	mov    $0x84,%edx
    2836:	48 8d 05 5b 78 00 00 	lea    0x785b(%rip),%rax        # a098 <_ZL22PARSEC_PROCESS_PRIVATE+0x58>
    283d:	48 89 c6             	mov    %rax,%rsi
    2840:	48 8d 05 5e 78 00 00 	lea    0x785e(%rip),%rax        # a0a5 <_ZL22PARSEC_PROCESS_PRIVATE+0x65>
    2847:	48 89 c7             	mov    %rax,%rdi
    284a:	e8 e1 fa ff ff       	call   2330 <__assert_fail@plt>
    284f:	8b 15 bf a7 00 00    	mov    0xa7bf(%rip),%edx        # d014 <XDIVS>
    2855:	8b 05 bd a7 00 00    	mov    0xa7bd(%rip),%eax        # d018 <ZDIVS>
    285b:	0f af c2             	imul   %edx,%eax
    285e:	48 98                	cltq   
    2860:	48 ba ff ff ff ff ff 	movabs $0xfffffffffffffff,%rdx
    2867:	ff ff 0f 
    286a:	48 39 d0             	cmp    %rdx,%rax
    286d:	77 06                	ja     2875 <_Z7InitSimPKcj+0x14c>
    286f:	48 c1 e0 03          	shl    $0x3,%rax
    2873:	eb 07                	jmp    287c <_Z7InitSimPKcj+0x153>
    2875:	48 c7 c0 ff ff ff ff 	mov    $0xffffffffffffffff,%rax
    287c:	48 89 c7             	mov    %rax,%rdi
    287f:	e8 3c fa ff ff       	call   22c0 <_Znam@plt>
    2884:	48 89 05 cd aa 00 00 	mov    %rax,0xaacd(%rip)        # d358 <thread>
    288b:	8b 15 83 a7 00 00    	mov    0xa783(%rip),%edx        # d014 <XDIVS>
    2891:	8b 05 81 a7 00 00    	mov    0xa781(%rip),%eax        # d018 <ZDIVS>
    2897:	0f af c2             	imul   %edx,%eax
    289a:	48 98                	cltq   
    289c:	48 ba ff ff ff ff ff 	movabs $0xffffffffffffff,%rdx
    28a3:	ff ff 00 
    28a6:	48 39 d0             	cmp    %rdx,%rax
    28a9:	77 06                	ja     28b1 <_Z7InitSimPKcj+0x188>
    28ab:	48 c1 e0 07          	shl    $0x7,%rax
    28af:	eb 07                	jmp    28b8 <_Z7InitSimPKcj+0x18f>
    28b1:	48 c7 c0 ff ff ff ff 	mov    $0xffffffffffffffff,%rax
    28b8:	48 89 c7             	mov    %rax,%rdi
    28bb:	e8 00 fa ff ff       	call   22c0 <_Znam@plt>
    28c0:	48 89 05 49 aa 00 00 	mov    %rax,0xaa49(%rip)        # d310 <grids>
    28c7:	8b 15 47 a7 00 00    	mov    0xa747(%rip),%edx        # d014 <XDIVS>
    28cd:	8b 05 45 a7 00 00    	mov    0xa745(%rip),%eax        # d018 <ZDIVS>
    28d3:	0f af c2             	imul   %edx,%eax
    28d6:	48 63 d0             	movslq %eax,%rdx
    28d9:	48 b8 55 55 55 55 55 	movabs $0x555555555555555,%rax
    28e0:	55 55 05 
    28e3:	48 39 c2             	cmp    %rax,%rdx
    28e6:	77 0f                	ja     28f7 <_Z7InitSimPKcj+0x1ce>
    28e8:	48 89 d0             	mov    %rdx,%rax
    28eb:	48 01 c0             	add    %rax,%rax
    28ee:	48 01 d0             	add    %rdx,%rax
    28f1:	48 c1 e0 03          	shl    $0x3,%rax
    28f5:	eb 07                	jmp    28fe <_Z7InitSimPKcj+0x1d5>
    28f7:	48 c7 c0 ff ff ff ff 	mov    $0xffffffffffffffff,%rax
    28fe:	48 89 c7             	mov    %rax,%rdi
    2901:	e8 ba f9 ff ff       	call   22c0 <_Znam@plt>
    2906:	48 89 05 93 a9 00 00 	mov    %rax,0xa993(%rip)        # d2a0 <pools>
    290d:	48 8d 05 ac 77 00 00 	lea    0x77ac(%rip),%rax        # a0c0 <_ZL22PARSEC_PROCESS_PRIVATE+0x80>
    2914:	48 89 c6             	mov    %rax,%rsi
    2917:	48 8d 05 22 a7 00 00 	lea    0xa722(%rip),%rax        # d040 <_ZSt4cout@GLIBCXX_3.4>
    291e:	48 89 c7             	mov    %rax,%rdi
    2921:	e8 5a fa ff ff       	call   2380 <_ZStlsISt11char_traitsIcEERSt13basic_ostreamIcT_ES5_PKc@plt>
    2926:	48 89 c2             	mov    %rax,%rdx
    2929:	48 8b 85 e8 fc ff ff 	mov    -0x318(%rbp),%rax
    2930:	48 89 c6             	mov    %rax,%rsi
    2933:	48 89 d7             	mov    %rdx,%rdi
    2936:	e8 45 fa ff ff       	call   2380 <_ZStlsISt11char_traitsIcEERSt13basic_ostreamIcT_ES5_PKc@plt>
    293b:	48 89 c2             	mov    %rax,%rdx
    293e:	48 8d 05 8a 77 00 00 	lea    0x778a(%rip),%rax        # a0cf <_ZL22PARSEC_PROCESS_PRIVATE+0x8f>
    2945:	48 89 c6             	mov    %rax,%rsi
    2948:	48 89 d7             	mov    %rdx,%rdi
    294b:	e8 30 fa ff ff       	call   2380 <_ZStlsISt11char_traitsIcEERSt13basic_ostreamIcT_ES5_PKc@plt>
    2950:	48 8b 15 71 a6 00 00 	mov    0xa671(%rip),%rdx        # cfc8 <_ZSt4endlIcSt11char_traitsIcEERSt13basic_ostreamIT_T0_ES6_@GLIBCXX_3.4>
    2957:	48 89 d6             	mov    %rdx,%rsi
    295a:	48 89 c7             	mov    %rax,%rdi
    295d:	e8 2e fa ff ff       	call   2390 <_ZNSolsEPFRSoS_E@plt>
    2962:	48 8b 8d e8 fc ff ff 	mov    -0x318(%rbp),%rcx
    2969:	48 8d 85 e0 fd ff ff 	lea    -0x220(%rbp),%rax
    2970:	ba 04 00 00 00       	mov    $0x4,%edx
    2975:	48 89 ce             	mov    %rcx,%rsi
    2978:	48 89 c7             	mov    %rax,%rdi
    297b:	e8 a0 fb ff ff       	call   2520 <_ZNSt14basic_ifstreamIcSt11char_traitsIcEEC1EPKcSt13_Ios_Openmode@plt>
    2980:	48 8d 85 e0 fd ff ff 	lea    -0x220(%rbp),%rax
    2987:	48 05 00 01 00 00    	add    $0x100,%rax
    298d:	48 89 c7             	mov    %rax,%rdi
    2990:	e8 6b f9 ff ff       	call   2300 <_ZNKSt9basic_iosIcSt11char_traitsIcEEntEv@plt>
    2995:	84 c0                	test   %al,%al
    2997:	74 35                	je     29ce <_Z7InitSimPKcj+0x2a5>
    2999:	48 8d 05 34 77 00 00 	lea    0x7734(%rip),%rax        # a0d4 <_ZL22PARSEC_PROCESS_PRIVATE+0x94>
    29a0:	48 89 c6             	mov    %rax,%rsi
    29a3:	48 8d 05 d6 a7 00 00 	lea    0xa7d6(%rip),%rax        # d180 <_ZSt4cerr@GLIBCXX_3.4>
    29aa:	48 89 c7             	mov    %rax,%rdi
    29ad:	e8 ce f9 ff ff       	call   2380 <_ZStlsISt11char_traitsIcEERSt13basic_ostreamIcT_ES5_PKc@plt>
    29b2:	48 8b 15 0f a6 00 00 	mov    0xa60f(%rip),%rdx        # cfc8 <_ZSt4endlIcSt11char_traitsIcEERSt13basic_ostreamIT_T0_ES6_@GLIBCXX_3.4>
    29b9:	48 89 d6             	mov    %rdx,%rsi
    29bc:	48 89 c7             	mov    %rax,%rdi
    29bf:	e8 cc f9 ff ff       	call   2390 <_ZNSolsEPFRSoS_E@plt>
    29c4:	bf 01 00 00 00       	mov    $0x1,%edi
    29c9:	e8 22 fa ff ff       	call   23f0 <exit@plt>
    29ce:	48 8d 8d 00 fd ff ff 	lea    -0x300(%rbp),%rcx
    29d5:	48 8d 85 e0 fd ff ff 	lea    -0x220(%rbp),%rax
    29dc:	ba 04 00 00 00       	mov    $0x4,%edx
    29e1:	48 89 ce             	mov    %rcx,%rsi
    29e4:	48 89 c7             	mov    %rax,%rdi
    29e7:	e8 34 fa ff ff       	call   2420 <_ZNSi4readEPcl@plt>
    29ec:	48 8d 8d 04 fd ff ff 	lea    -0x2fc(%rbp),%rcx
    29f3:	48 8d 85 e0 fd ff ff 	lea    -0x220(%rbp),%rax
    29fa:	ba 04 00 00 00       	mov    $0x4,%edx
    29ff:	48 89 ce             	mov    %rcx,%rsi
    2a02:	48 89 c7             	mov    %rax,%rdi
    2a05:	e8 16 fa ff ff       	call   2420 <_ZNSi4readEPcl@plt>
    2a0a:	e8 1a fc ff ff       	call   2629 <_ZL14isLittleEndianv>
    2a0f:	85 c0                	test   %eax,%eax
    2a11:	0f 94 c0             	sete   %al
    2a14:	84 c0                	test   %al,%al
    2a16:	74 2e                	je     2a46 <_Z7InitSimPKcj+0x31d>
    2a18:	8b 85 00 fd ff ff    	mov    -0x300(%rbp),%eax
    2a1e:	66 0f 6e c0          	movd   %eax,%xmm0
    2a22:	e8 1a fc ff ff       	call   2641 <_ZL11bswap_floatf>
    2a27:	66 0f 7e c0          	movd   %xmm0,%eax
    2a2b:	89 05 77 a8 00 00    	mov    %eax,0xa877(%rip)        # d2a8 <restParticlesPerMeter>
    2a31:	8b 85 04 fd ff ff    	mov    -0x2fc(%rbp),%eax
    2a37:	89 c7                	mov    %eax,%edi
    2a39:	e8 4a fc ff ff       	call   2688 <_ZL11bswap_int32i>
    2a3e:	89 05 98 a8 00 00    	mov    %eax,0xa898(%rip)        # d2dc <numParticles>
    2a44:	eb 1c                	jmp    2a62 <_Z7InitSimPKcj+0x339>
    2a46:	f3 0f 10 85 00 fd ff 	movss  -0x300(%rbp),%xmm0
    2a4d:	ff 
    2a4e:	f3 0f 11 05 52 a8 00 	movss  %xmm0,0xa852(%rip)        # d2a8 <restParticlesPerMeter>
    2a55:	00 
    2a56:	8b 85 04 fd ff ff    	mov    -0x2fc(%rbp),%eax
    2a5c:	89 05 7a a8 00 00    	mov    %eax,0xa87a(%rip)        # d2dc <numParticles>
    2a62:	c7 85 2c fd ff ff 00 	movl   $0x0,-0x2d4(%rbp)
    2a69:	00 00 00 
    2a6c:	eb 4d                	jmp    2abb <_Z7InitSimPKcj+0x392>
    2a6e:	8b 05 68 a8 00 00    	mov    0xa868(%rip),%eax        # d2dc <numParticles>
    2a74:	8b 0d 9a a5 00 00    	mov    0xa59a(%rip),%ecx        # d014 <XDIVS>
    2a7a:	8b 15 98 a5 00 00    	mov    0xa598(%rip),%edx        # d018 <ZDIVS>
    2a80:	89 d3                	mov    %edx,%ebx
    2a82:	0f af d9             	imul   %ecx,%ebx
    2a85:	99                   	cltd   
    2a86:	f7 fb                	idiv   %ebx
    2a88:	89 c1                	mov    %eax,%ecx
    2a8a:	48 8b 35 0f a8 00 00 	mov    0xa80f(%rip),%rsi        # d2a0 <pools>
    2a91:	8b 85 2c fd ff ff    	mov    -0x2d4(%rbp),%eax
    2a97:	48 63 d0             	movslq %eax,%rdx
    2a9a:	48 89 d0             	mov    %rdx,%rax
    2a9d:	48 01 c0             	add    %rax,%rax
    2aa0:	48 01 d0             	add    %rdx,%rax
    2aa3:	48 c1 e0 03          	shl    $0x3,%rax
    2aa7:	48 01 f0             	add    %rsi,%rax
    2aaa:	89 ce                	mov    %ecx,%esi
    2aac:	48 89 c7             	mov    %rax,%rdi
    2aaf:	e8 07 5d 00 00       	call   87bb <_Z13cellpool_initP8cellpooli>
    2ab4:	83 85 2c fd ff ff 01 	addl   $0x1,-0x2d4(%rbp)
    2abb:	8b 15 53 a5 00 00    	mov    0xa553(%rip),%edx        # d014 <XDIVS>
    2ac1:	8b 05 51 a5 00 00    	mov    0xa551(%rip),%eax        # d018 <ZDIVS>
    2ac7:	0f af c2             	imul   %edx,%eax
    2aca:	39 85 2c fd ff ff    	cmp    %eax,-0x2d4(%rbp)
    2ad0:	7c 9c                	jl     2a6e <_Z7InitSimPKcj+0x345>
    2ad2:	f3 0f 10 0d ce a7 00 	movss  0xa7ce(%rip),%xmm1        # d2a8 <restParticlesPerMeter>
    2ad9:	00 
    2ada:	f3 0f 10 05 32 78 00 	movss  0x7832(%rip),%xmm0        # a314 <_ZL22PARSEC_PROCESS_PRIVATE+0x2d4>
    2ae1:	00 
    2ae2:	f3 0f 5e c1          	divss  %xmm1,%xmm0
    2ae6:	f3 0f 11 05 be a7 00 	movss  %xmm0,0xa7be(%rip)        # d2ac <h>
    2aed:	00 
    2aee:	f3 0f 10 0d b6 a7 00 	movss  0xa7b6(%rip),%xmm1        # d2ac <h>
    2af5:	00 
    2af6:	f3 0f 10 05 ae a7 00 	movss  0xa7ae(%rip),%xmm0        # d2ac <h>
    2afd:	00 
    2afe:	f3 0f 59 c1          	mulss  %xmm1,%xmm0
    2b02:	f3 0f 11 05 a6 a7 00 	movss  %xmm0,0xa7a6(%rip)        # d2b0 <hSq>
    2b09:	00 
    2b0a:	8b 05 9c a7 00 00    	mov    0xa79c(%rip),%eax        # d2ac <h>
    2b10:	f3 0f 10 0d 00 78 00 	movss  0x7800(%rip),%xmm1        # a318 <_ZL22PARSEC_PROCESS_PRIVATE+0x2d8>
    2b17:	00 
    2b18:	66 0f 6e c0          	movd   %eax,%xmm0
    2b1c:	e8 af f9 ff ff       	call   24d0 <powf@plt>
    2b21:	66 0f ef c9          	pxor   %xmm1,%xmm1
    2b25:	f3 0f 5a c8          	cvtss2sd %xmm0,%xmm1
    2b29:	f2 0f 10 05 ef 77 00 	movsd  0x77ef(%rip),%xmm0        # a320 <_ZL22PARSEC_PROCESS_PRIVATE+0x2e0>
    2b30:	00 
    2b31:	f2 0f 59 c8          	mulsd  %xmm0,%xmm1
    2b35:	f2 0f 10 05 eb 77 00 	movsd  0x77eb(%rip),%xmm0        # a328 <_ZL22PARSEC_PROCESS_PRIVATE+0x2e8>
    2b3c:	00 
    2b3d:	f2 0f 5e c1          	divsd  %xmm1,%xmm0
    2b41:	f2 0f 5a c0          	cvtsd2ss %xmm0,%xmm0
    2b45:	f3 0f 11 85 90 fd ff 	movss  %xmm0,-0x270(%rbp)
    2b4c:	ff 
    2b4d:	8b 05 59 a7 00 00    	mov    0xa759(%rip),%eax        # d2ac <h>
    2b53:	f3 0f 10 0d d5 77 00 	movss  0x77d5(%rip),%xmm1        # a330 <_ZL22PARSEC_PROCESS_PRIVATE+0x2f0>
    2b5a:	00 
    2b5b:	66 0f 6e c0          	movd   %eax,%xmm0
    2b5f:	e8 6c f9 ff ff       	call   24d0 <powf@plt>
    2b64:	f3 0f 10 0d c8 77 00 	movss  0x77c8(%rip),%xmm1        # a334 <_ZL22PARSEC_PROCESS_PRIVATE+0x2f4>
    2b6b:	00 
    2b6c:	f3 0f 59 c1          	mulss  %xmm1,%xmm0
    2b70:	66 0f ef c9          	pxor   %xmm1,%xmm1
    2b74:	f3 0f 5a c8          	cvtss2sd %xmm0,%xmm1
    2b78:	f2 0f 10 05 b8 77 00 	movsd  0x77b8(%rip),%xmm0        # a338 <_ZL22PARSEC_PROCESS_PRIVATE+0x2f8>
    2b7f:	00 
    2b80:	f2 0f 5e c1          	divsd  %xmm1,%xmm0
    2b84:	f2 0f 5a c0          	cvtsd2ss %xmm0,%xmm0
    2b88:	f3 0f 11 85 94 fd ff 	movss  %xmm0,-0x26c(%rbp)
    2b8f:	ff 
    2b90:	8b 05 16 a7 00 00    	mov    0xa716(%rip),%eax        # d2ac <h>
    2b96:	f3 0f 10 0d 92 77 00 	movss  0x7792(%rip),%xmm1        # a330 <_ZL22PARSEC_PROCESS_PRIVATE+0x2f0>
    2b9d:	00 
    2b9e:	66 0f 6e c0          	movd   %eax,%xmm0
    2ba2:	e8 29 f9 ff ff       	call   24d0 <powf@plt>
    2ba7:	f3 0f 10 0d 85 77 00 	movss  0x7785(%rip),%xmm1        # a334 <_ZL22PARSEC_PROCESS_PRIVATE+0x2f4>
    2bae:	00 
    2baf:	f3 0f 59 c1          	mulss  %xmm1,%xmm0
    2bb3:	66 0f ef c9          	pxor   %xmm1,%xmm1
    2bb7:	f3 0f 5a c8          	cvtss2sd %xmm0,%xmm1
    2bbb:	f2 0f 10 05 7d 77 00 	movsd  0x777d(%rip),%xmm0        # a340 <_ZL22PARSEC_PROCESS_PRIVATE+0x300>
    2bc2:	00 
    2bc3:	f2 0f 5e c1          	divsd  %xmm1,%xmm0
    2bc7:	f2 0f 5a c0          	cvtsd2ss %xmm0,%xmm0
    2bcb:	f3 0f 11 85 98 fd ff 	movss  %xmm0,-0x268(%rbp)
    2bd2:	ff 
    2bd3:	f3 0f 10 0d cd a6 00 	movss  0xa6cd(%rip),%xmm1        # d2a8 <restParticlesPerMeter>
    2bda:	00 
    2bdb:	f3 0f 10 05 c5 a6 00 	movss  0xa6c5(%rip),%xmm0        # d2a8 <restParticlesPerMeter>
    2be2:	00 
    2be3:	f3 0f 59 c8          	mulss  %xmm0,%xmm1
    2be7:	f3 0f 10 05 b9 a6 00 	movss  0xa6b9(%rip),%xmm0        # d2a8 <restParticlesPerMeter>
    2bee:	00 
    2bef:	f3 0f 59 c8          	mulss  %xmm0,%xmm1
    2bf3:	f3 0f 10 05 4d 77 00 	movss  0x774d(%rip),%xmm0        # a348 <_ZL22PARSEC_PROCESS_PRIVATE+0x308>
    2bfa:	00 
    2bfb:	f3 0f 5e c1          	divss  %xmm1,%xmm0
    2bff:	f3 0f 11 85 9c fd ff 	movss  %xmm0,-0x264(%rbp)
    2c06:	ff 
    2c07:	f3 0f 10 85 9c fd ff 	movss  -0x264(%rbp),%xmm0
    2c0e:	ff 
    2c0f:	f3 0f 59 85 90 fd ff 	mulss  -0x270(%rbp),%xmm0
    2c16:	ff 
    2c17:	f3 0f 11 05 95 a6 00 	movss  %xmm0,0xa695(%rip)        # d2b4 <densityCoeff>
    2c1e:	00 
    2c1f:	66 0f ef c9          	pxor   %xmm1,%xmm1
    2c23:	f3 0f 5a 8d 94 fd ff 	cvtss2sd -0x26c(%rbp),%xmm1
    2c2a:	ff 
    2c2b:	f2 0f 10 05 1d 77 00 	movsd  0x771d(%rip),%xmm0        # a350 <_ZL22PARSEC_PROCESS_PRIVATE+0x310>
    2c32:	00 
    2c33:	f2 0f 59 c8          	mulsd  %xmm0,%xmm1
    2c37:	f2 0f 10 05 19 77 00 	movsd  0x7719(%rip),%xmm0        # a358 <_ZL22PARSEC_PROCESS_PRIVATE+0x318>
    2c3e:	00 
    2c3f:	f2 0f 59 c8          	mulsd  %xmm0,%xmm1
    2c43:	f2 0f 10 05 05 77 00 	movsd  0x7705(%rip),%xmm0        # a350 <_ZL22PARSEC_PROCESS_PRIVATE+0x310>
    2c4a:	00 
    2c4b:	f2 0f 59 c8          	mulsd  %xmm0,%xmm1
    2c4f:	66 0f ef c0          	pxor   %xmm0,%xmm0
    2c53:	f3 0f 5a 85 9c fd ff 	cvtss2sd -0x264(%rbp),%xmm0
    2c5a:	ff 
    2c5b:	f2 0f 59 c1          	mulsd  %xmm1,%xmm0
    2c5f:	f2 0f 5a c0          	cvtsd2ss %xmm0,%xmm0
    2c63:	f3 0f 11 05 4d a6 00 	movss  %xmm0,0xa64d(%rip)        # d2b8 <pressureCoeff>
    2c6a:	00 
    2c6b:	f3 0f 10 8d 98 fd ff 	movss  -0x268(%rbp),%xmm1
    2c72:	ff 
    2c73:	f3 0f 10 05 e5 76 00 	movss  0x76e5(%rip),%xmm0        # a360 <_ZL22PARSEC_PROCESS_PRIVATE+0x320>
    2c7a:	00 
    2c7b:	f3 0f 59 c1          	mulss  %xmm1,%xmm0
    2c7f:	f3 0f 59 85 9c fd ff 	mulss  -0x264(%rbp),%xmm0
    2c86:	ff 
    2c87:	f3 0f 11 05 2d a6 00 	movss  %xmm0,0xa62d(%rip)        # d2bc <viscosityCoeff>
    2c8e:	00 
    2c8f:	48 8d 05 6a a7 00 00 	lea    0xa76a(%rip),%rax        # d400 <_ZL9domainMin>
    2c96:	48 89 c6             	mov    %rax,%rsi
    2c99:	48 8d 05 70 a7 00 00 	lea    0xa770(%rip),%rax        # d410 <_ZL9domainMax>
    2ca0:	48 89 c7             	mov    %rax,%rdi
    2ca3:	e8 3a 56 00 00       	call   82e2 <_ZNK4Vec3miERKS_>
    2ca8:	66 48 0f 7e c0       	movq   %xmm0,%rax
    2cad:	0f 28 c1             	movaps %xmm1,%xmm0
    2cb0:	48 89 85 d4 fd ff ff 	mov    %rax,-0x22c(%rbp)
    2cb7:	f3 0f 11 85 dc fd ff 	movss  %xmm0,-0x224(%rbp)
    2cbe:	ff 
    2cbf:	f3 0f 10 85 d4 fd ff 	movss  -0x22c(%rbp),%xmm0
    2cc6:	ff 
    2cc7:	f3 0f 10 0d dd a5 00 	movss  0xa5dd(%rip),%xmm1        # d2ac <h>
    2cce:	00 
    2ccf:	f3 0f 5e c1          	divss  %xmm1,%xmm0
    2cd3:	f3 0f 2c c0          	cvttss2si %xmm0,%eax
    2cd7:	89 05 e3 a5 00 00    	mov    %eax,0xa5e3(%rip)        # d2c0 <nx>
    2cdd:	f3 0f 10 85 d8 fd ff 	movss  -0x228(%rbp),%xmm0
    2ce4:	ff 
    2ce5:	f3 0f 10 0d bf a5 00 	movss  0xa5bf(%rip),%xmm1        # d2ac <h>
    2cec:	00 
    2ced:	f3 0f 5e c1          	divss  %xmm1,%xmm0
    2cf1:	f3 0f 2c c0          	cvttss2si %xmm0,%eax
    2cf5:	89 05 c9 a5 00 00    	mov    %eax,0xa5c9(%rip)        # d2c4 <ny>
    2cfb:	f3 0f 10 85 dc fd ff 	movss  -0x224(%rbp),%xmm0
    2d02:	ff 
    2d03:	f3 0f 10 0d a1 a5 00 	movss  0xa5a1(%rip),%xmm1        # d2ac <h>
    2d0a:	00 
    2d0b:	f3 0f 5e c1          	divss  %xmm1,%xmm0
    2d0f:	f3 0f 2c c0          	cvttss2si %xmm0,%eax
    2d13:	89 05 af a5 00 00    	mov    %eax,0xa5af(%rip)        # d2c8 <nz>
    2d19:	8b 05 a1 a5 00 00    	mov    0xa5a1(%rip),%eax        # d2c0 <nx>
    2d1f:	85 c0                	test   %eax,%eax
    2d21:	7e 14                	jle    2d37 <_Z7InitSimPKcj+0x60e>
    2d23:	8b 05 9b a5 00 00    	mov    0xa59b(%rip),%eax        # d2c4 <ny>
    2d29:	85 c0                	test   %eax,%eax
    2d2b:	7e 0a                	jle    2d37 <_Z7InitSimPKcj+0x60e>
    2d2d:	8b 05 95 a5 00 00    	mov    0xa595(%rip),%eax        # d2c8 <nz>
    2d33:	85 c0                	test   %eax,%eax
    2d35:	7f 28                	jg     2d5f <_Z7InitSimPKcj+0x636>
    2d37:	48 8d 05 32 73 00 00 	lea    0x7332(%rip),%rax        # a070 <_ZL22PARSEC_PROCESS_PRIVATE+0x30>
    2d3e:	48 89 c1             	mov    %rax,%rcx
    2d41:	ba b8 00 00 00       	mov    $0xb8,%edx
    2d46:	48 8d 05 4b 73 00 00 	lea    0x734b(%rip),%rax        # a098 <_ZL22PARSEC_PROCESS_PRIVATE+0x58>
    2d4d:	48 89 c6             	mov    %rax,%rsi
    2d50:	48 8d 05 9b 73 00 00 	lea    0x739b(%rip),%rax        # a0f2 <_ZL22PARSEC_PROCESS_PRIVATE+0xb2>
    2d57:	48 89 c7             	mov    %rax,%rdi
    2d5a:	e8 d1 f5 ff ff       	call   2330 <__assert_fail@plt>
    2d5f:	8b 15 5b a5 00 00    	mov    0xa55b(%rip),%edx        # d2c0 <nx>
    2d65:	8b 05 59 a5 00 00    	mov    0xa559(%rip),%eax        # d2c4 <ny>
    2d6b:	0f af d0             	imul   %eax,%edx
    2d6e:	8b 05 54 a5 00 00    	mov    0xa554(%rip),%eax        # d2c8 <nz>
    2d74:	0f af c2             	imul   %edx,%eax
    2d77:	89 05 63 a5 00 00    	mov    %eax,0xa563(%rip)        # d2e0 <numCells>
    2d7d:	48 8d 05 8c 73 00 00 	lea    0x738c(%rip),%rax        # a110 <_ZL22PARSEC_PROCESS_PRIVATE+0xd0>
    2d84:	48 89 c6             	mov    %rax,%rsi
    2d87:	48 8d 05 b2 a2 00 00 	lea    0xa2b2(%rip),%rax        # d040 <_ZSt4cout@GLIBCXX_3.4>
    2d8e:	48 89 c7             	mov    %rax,%rdi
    2d91:	e8 ea f5 ff ff       	call   2380 <_ZStlsISt11char_traitsIcEERSt13basic_ostreamIcT_ES5_PKc@plt>
    2d96:	48 89 c2             	mov    %rax,%rdx
    2d99:	8b 05 41 a5 00 00    	mov    0xa541(%rip),%eax        # d2e0 <numCells>
    2d9f:	89 c6                	mov    %eax,%esi
    2da1:	48 89 d7             	mov    %rdx,%rdi
    2da4:	e8 47 f7 ff ff       	call   24f0 <_ZNSolsEi@plt>
    2da9:	48 8b 15 18 a2 00 00 	mov    0xa218(%rip),%rdx        # cfc8 <_ZSt4endlIcSt11char_traitsIcEERSt13basic_ostreamIT_T0_ES6_@GLIBCXX_3.4>
    2db0:	48 89 d6             	mov    %rdx,%rsi
    2db3:	48 89 c7             	mov    %rax,%rdi
    2db6:	e8 d5 f5 ff ff       	call   2390 <_ZNSolsEPFRSoS_E@plt>
    2dbb:	f3 0f 10 85 d4 fd ff 	movss  -0x22c(%rbp),%xmm0
    2dc2:	ff 
    2dc3:	8b 05 f7 a4 00 00    	mov    0xa4f7(%rip),%eax        # d2c0 <nx>
    2dc9:	66 0f ef c9          	pxor   %xmm1,%xmm1
    2dcd:	f3 0f 2a c8          	cvtsi2ss %eax,%xmm1
    2dd1:	f3 0f 5e c1          	divss  %xmm1,%xmm0
    2dd5:	f3 0f 11 05 f3 a4 00 	movss  %xmm0,0xa4f3(%rip)        # d2d0 <delta>
    2ddc:	00 
    2ddd:	f3 0f 10 85 d8 fd ff 	movss  -0x228(%rbp),%xmm0
    2de4:	ff 
    2de5:	8b 05 d9 a4 00 00    	mov    0xa4d9(%rip),%eax        # d2c4 <ny>
    2deb:	66 0f ef c9          	pxor   %xmm1,%xmm1
    2def:	f3 0f 2a c8          	cvtsi2ss %eax,%xmm1
    2df3:	f3 0f 5e c1          	divss  %xmm1,%xmm0
    2df7:	f3 0f 11 05 d5 a4 00 	movss  %xmm0,0xa4d5(%rip)        # d2d4 <delta+0x4>
    2dfe:	00 
    2dff:	f3 0f 10 85 dc fd ff 	movss  -0x224(%rbp),%xmm0
    2e06:	ff 
    2e07:	8b 05 bb a4 00 00    	mov    0xa4bb(%rip),%eax        # d2c8 <nz>
    2e0d:	66 0f ef c9          	pxor   %xmm1,%xmm1
    2e11:	f3 0f 2a c8          	cvtsi2ss %eax,%xmm1
    2e15:	f3 0f 5e c1          	divss  %xmm1,%xmm0
    2e19:	f3 0f 11 05 b7 a4 00 	movss  %xmm0,0xa4b7(%rip)        # d2d8 <delta+0x8>
    2e20:	00 
    2e21:	f3 0f 10 05 a7 a4 00 	movss  0xa4a7(%rip),%xmm0        # d2d0 <delta>
    2e28:	00 
    2e29:	f3 0f 10 0d 7b a4 00 	movss  0xa47b(%rip),%xmm1        # d2ac <h>
    2e30:	00 
    2e31:	0f 2f c1             	comiss %xmm1,%xmm0
    2e34:	72 2a                	jb     2e60 <_Z7InitSimPKcj+0x737>
    2e36:	f3 0f 10 05 96 a4 00 	movss  0xa496(%rip),%xmm0        # d2d4 <delta+0x4>
    2e3d:	00 
    2e3e:	f3 0f 10 0d 66 a4 00 	movss  0xa466(%rip),%xmm1        # d2ac <h>
    2e45:	00 
    2e46:	0f 2f c1             	comiss %xmm1,%xmm0
    2e49:	72 15                	jb     2e60 <_Z7InitSimPKcj+0x737>
    2e4b:	f3 0f 10 05 85 a4 00 	movss  0xa485(%rip),%xmm0        # d2d8 <delta+0x8>
    2e52:	00 
    2e53:	f3 0f 10 0d 51 a4 00 	movss  0xa451(%rip),%xmm1        # d2ac <h>
    2e5a:	00 
    2e5b:	0f 2f c1             	comiss %xmm1,%xmm0
    2e5e:	73 28                	jae    2e88 <_Z7InitSimPKcj+0x75f>
    2e60:	48 8d 05 09 72 00 00 	lea    0x7209(%rip),%rax        # a070 <_ZL22PARSEC_PROCESS_PRIVATE+0x30>
    2e67:	48 89 c1             	mov    %rax,%rcx
    2e6a:	ba be 00 00 00       	mov    $0xbe,%edx
    2e6f:	48 8d 05 22 72 00 00 	lea    0x7222(%rip),%rax        # a098 <_ZL22PARSEC_PROCESS_PRIVATE+0x58>
    2e76:	48 89 c6             	mov    %rax,%rsi
    2e79:	48 8d 05 a8 72 00 00 	lea    0x72a8(%rip),%rax        # a128 <_ZL22PARSEC_PROCESS_PRIVATE+0xe8>
    2e80:	48 89 c7             	mov    %rax,%rdi
    2e83:	e8 a8 f4 ff ff       	call   2330 <__assert_fail@plt>
    2e88:	48 8d 05 c6 72 00 00 	lea    0x72c6(%rip),%rax        # a155 <_ZL22PARSEC_PROCESS_PRIVATE+0x115>
    2e8f:	48 89 c6             	mov    %rax,%rsi
    2e92:	48 8d 05 a7 a1 00 00 	lea    0xa1a7(%rip),%rax        # d040 <_ZSt4cout@GLIBCXX_3.4>
    2e99:	48 89 c7             	mov    %rax,%rdi
    2e9c:	e8 df f4 ff ff       	call   2380 <_ZStlsISt11char_traitsIcEERSt13basic_ostreamIcT_ES5_PKc@plt>
    2ea1:	48 89 c2             	mov    %rax,%rdx
    2ea4:	8b 05 26 a4 00 00    	mov    0xa426(%rip),%eax        # d2d0 <delta>
    2eaa:	66 0f 6e c0          	movd   %eax,%xmm0
    2eae:	48 89 d7             	mov    %rdx,%rdi
    2eb1:	e8 8a f4 ff ff       	call   2340 <_ZNSolsEf@plt>
    2eb6:	48 89 c2             	mov    %rax,%rdx
    2eb9:	48 8d 05 b0 72 00 00 	lea    0x72b0(%rip),%rax        # a170 <_ZL22PARSEC_PROCESS_PRIVATE+0x130>
    2ec0:	48 89 c6             	mov    %rax,%rsi
    2ec3:	48 89 d7             	mov    %rdx,%rdi
    2ec6:	e8 b5 f4 ff ff       	call   2380 <_ZStlsISt11char_traitsIcEERSt13basic_ostreamIcT_ES5_PKc@plt>
    2ecb:	48 89 c2             	mov    %rax,%rdx
    2ece:	8b 05 00 a4 00 00    	mov    0xa400(%rip),%eax        # d2d4 <delta+0x4>
    2ed4:	66 0f 6e c0          	movd   %eax,%xmm0
    2ed8:	48 89 d7             	mov    %rdx,%rdi
    2edb:	e8 60 f4 ff ff       	call   2340 <_ZNSolsEf@plt>
    2ee0:	48 89 c2             	mov    %rax,%rdx
    2ee3:	48 8d 05 86 72 00 00 	lea    0x7286(%rip),%rax        # a170 <_ZL22PARSEC_PROCESS_PRIVATE+0x130>
    2eea:	48 89 c6             	mov    %rax,%rsi
    2eed:	48 89 d7             	mov    %rdx,%rdi
    2ef0:	e8 8b f4 ff ff       	call   2380 <_ZStlsISt11char_traitsIcEERSt13basic_ostreamIcT_ES5_PKc@plt>
    2ef5:	48 89 c2             	mov    %rax,%rdx
    2ef8:	8b 05 da a3 00 00    	mov    0xa3da(%rip),%eax        # d2d8 <delta+0x8>
    2efe:	66 0f 6e c0          	movd   %eax,%xmm0
    2f02:	48 89 d7             	mov    %rdx,%rdi
    2f05:	e8 36 f4 ff ff       	call   2340 <_ZNSolsEf@plt>
    2f0a:	48 8b 15 b7 a0 00 00 	mov    0xa0b7(%rip),%rdx        # cfc8 <_ZSt4endlIcSt11char_traitsIcEERSt13basic_ostreamIT_T0_ES6_@GLIBCXX_3.4>
    2f11:	48 89 d6             	mov    %rdx,%rsi
    2f14:	48 89 c7             	mov    %rax,%rdi
    2f17:	e8 74 f4 ff ff       	call   2390 <_ZNSolsEPFRSoS_E@plt>
    2f1c:	8b 15 9e a3 00 00    	mov    0xa39e(%rip),%edx        # d2c0 <nx>
    2f22:	8b 05 ec a0 00 00    	mov    0xa0ec(%rip),%eax        # d014 <XDIVS>
    2f28:	39 c2                	cmp    %eax,%edx
    2f2a:	7c 10                	jl     2f3c <_Z7InitSimPKcj+0x813>
    2f2c:	8b 15 96 a3 00 00    	mov    0xa396(%rip),%edx        # d2c8 <nz>
    2f32:	8b 05 e0 a0 00 00    	mov    0xa0e0(%rip),%eax        # d018 <ZDIVS>
    2f38:	39 c2                	cmp    %eax,%edx
    2f3a:	7d 28                	jge    2f64 <_Z7InitSimPKcj+0x83b>
    2f3c:	48 8d 05 2d 71 00 00 	lea    0x712d(%rip),%rax        # a070 <_ZL22PARSEC_PROCESS_PRIVATE+0x30>
    2f43:	48 89 c1             	mov    %rax,%rcx
    2f46:	ba c2 00 00 00       	mov    $0xc2,%edx
    2f4b:	48 8d 05 46 71 00 00 	lea    0x7146(%rip),%rax        # a098 <_ZL22PARSEC_PROCESS_PRIVATE+0x58>
    2f52:	48 89 c6             	mov    %rax,%rsi
    2f55:	48 8d 05 16 72 00 00 	lea    0x7216(%rip),%rax        # a172 <_ZL22PARSEC_PROCESS_PRIVATE+0x132>
    2f5c:	48 89 c7             	mov    %rax,%rdi
    2f5f:	e8 cc f3 ff ff       	call   2330 <__assert_fail@plt>
    2f64:	c7 85 30 fd ff ff 00 	movl   $0x0,-0x2d0(%rbp)
    2f6b:	00 00 00 
    2f6e:	c7 85 34 fd ff ff 00 	movl   $0x0,-0x2cc(%rbp)
    2f75:	00 00 00 
    2f78:	c7 85 3c fd ff ff 00 	movl   $0x0,-0x2c4(%rbp)
    2f7f:	00 00 00 
    2f82:	e9 27 02 00 00       	jmp    31ae <_Z7InitSimPKcj+0xa85>
    2f87:	8b 85 34 fd ff ff    	mov    -0x2cc(%rbp),%eax
    2f8d:	89 85 c0 fd ff ff    	mov    %eax,-0x240(%rbp)
    2f93:	8b 05 27 a3 00 00    	mov    0xa327(%rip),%eax        # d2c0 <nx>
    2f99:	66 0f ef c0          	pxor   %xmm0,%xmm0
    2f9d:	f3 0f 2a c0          	cvtsi2ss %eax,%xmm0
    2fa1:	8b 05 6d a0 00 00    	mov    0xa06d(%rip),%eax        # d014 <XDIVS>
    2fa7:	66 0f ef d2          	pxor   %xmm2,%xmm2
    2fab:	f3 0f 2a d0          	cvtsi2ss %eax,%xmm2
    2faf:	0f 28 c8             	movaps %xmm0,%xmm1
    2fb2:	f3 0f 5e ca          	divss  %xmm2,%xmm1
    2fb6:	8b 85 3c fd ff ff    	mov    -0x2c4(%rbp),%eax
    2fbc:	83 c0 01             	add    $0x1,%eax
    2fbf:	66 0f ef c0          	pxor   %xmm0,%xmm0
    2fc3:	f3 0f 2a c0          	cvtsi2ss %eax,%xmm0
    2fc7:	f3 0f 59 c1          	mulss  %xmm1,%xmm0
    2fcb:	66 0f ef c9          	pxor   %xmm1,%xmm1
    2fcf:	f3 0f 5a c8          	cvtss2sd %xmm0,%xmm1
    2fd3:	f2 0f 10 05 7d 73 00 	movsd  0x737d(%rip),%xmm0        # a358 <_ZL22PARSEC_PROCESS_PRIVATE+0x318>
    2fda:	00 
    2fdb:	f2 0f 58 c1          	addsd  %xmm1,%xmm0
    2fdf:	f2 0f 2c c0          	cvttsd2si %xmm0,%eax
    2fe3:	89 85 34 fd ff ff    	mov    %eax,-0x2cc(%rbp)
    2fe9:	8b 85 c0 fd ff ff    	mov    -0x240(%rbp),%eax
    2fef:	3b 85 34 fd ff ff    	cmp    -0x2cc(%rbp),%eax
    2ff5:	7c 28                	jl     301f <_Z7InitSimPKcj+0x8f6>
    2ff7:	48 8d 05 72 70 00 00 	lea    0x7072(%rip),%rax        # a070 <_ZL22PARSEC_PROCESS_PRIVATE+0x30>
    2ffe:	48 89 c1             	mov    %rax,%rcx
    3001:	ba ca 00 00 00       	mov    $0xca,%edx
    3006:	48 8d 05 8b 70 00 00 	lea    0x708b(%rip),%rax        # a098 <_ZL22PARSEC_PROCESS_PRIVATE+0x58>
    300d:	48 89 c6             	mov    %rax,%rsi
    3010:	48 8d 05 76 71 00 00 	lea    0x7176(%rip),%rax        # a18d <_ZL22PARSEC_PROCESS_PRIVATE+0x14d>
    3017:	48 89 c7             	mov    %rax,%rdi
    301a:	e8 11 f3 ff ff       	call   2330 <__assert_fail@plt>
    301f:	c7 85 38 fd ff ff 00 	movl   $0x0,-0x2c8(%rbp)
    3026:	00 00 00 
    3029:	c7 85 40 fd ff ff 00 	movl   $0x0,-0x2c0(%rbp)
    3030:	00 00 00 
    3033:	e9 5d 01 00 00       	jmp    3195 <_Z7InitSimPKcj+0xa6c>
    3038:	8b 85 38 fd ff ff    	mov    -0x2c8(%rbp),%eax
    303e:	89 85 c4 fd ff ff    	mov    %eax,-0x23c(%rbp)
    3044:	8b 05 7e a2 00 00    	mov    0xa27e(%rip),%eax        # d2c8 <nz>
    304a:	66 0f ef c0          	pxor   %xmm0,%xmm0
    304e:	f3 0f 2a c0          	cvtsi2ss %eax,%xmm0
    3052:	8b 05 c0 9f 00 00    	mov    0x9fc0(%rip),%eax        # d018 <ZDIVS>
    3058:	66 0f ef d2          	pxor   %xmm2,%xmm2
    305c:	f3 0f 2a d0          	cvtsi2ss %eax,%xmm2
    3060:	0f 28 c8             	movaps %xmm0,%xmm1
    3063:	f3 0f 5e ca          	divss  %xmm2,%xmm1
    3067:	8b 85 40 fd ff ff    	mov    -0x2c0(%rbp),%eax
    306d:	83 c0 01             	add    $0x1,%eax
    3070:	66 0f ef c0          	pxor   %xmm0,%xmm0
    3074:	f3 0f 2a c0          	cvtsi2ss %eax,%xmm0
    3078:	f3 0f 59 c1          	mulss  %xmm1,%xmm0
    307c:	66 0f ef c9          	pxor   %xmm1,%xmm1
    3080:	f3 0f 5a c8          	cvtss2sd %xmm0,%xmm1
    3084:	f2 0f 10 05 cc 72 00 	movsd  0x72cc(%rip),%xmm0        # a358 <_ZL22PARSEC_PROCESS_PRIVATE+0x318>
    308b:	00 
    308c:	f2 0f 58 c1          	addsd  %xmm1,%xmm0
    3090:	f2 0f 2c c0          	cvttsd2si %xmm0,%eax
    3094:	89 85 38 fd ff ff    	mov    %eax,-0x2c8(%rbp)
    309a:	8b 85 c4 fd ff ff    	mov    -0x23c(%rbp),%eax
    30a0:	3b 85 38 fd ff ff    	cmp    -0x2c8(%rbp),%eax
    30a6:	7c 28                	jl     30d0 <_Z7InitSimPKcj+0x9a7>
    30a8:	48 8d 05 c1 6f 00 00 	lea    0x6fc1(%rip),%rax        # a070 <_ZL22PARSEC_PROCESS_PRIVATE+0x30>
    30af:	48 89 c1             	mov    %rax,%rcx
    30b2:	ba d1 00 00 00       	mov    $0xd1,%edx
    30b7:	48 8d 05 da 6f 00 00 	lea    0x6fda(%rip),%rax        # a098 <_ZL22PARSEC_PROCESS_PRIVATE+0x58>
    30be:	48 89 c6             	mov    %rax,%rsi
    30c1:	48 8d 05 cd 70 00 00 	lea    0x70cd(%rip),%rax        # a195 <_ZL22PARSEC_PROCESS_PRIVATE+0x155>
    30c8:	48 89 c7             	mov    %rax,%rdi
    30cb:	e8 60 f2 ff ff       	call   2330 <__assert_fail@plt>
    30d0:	48 8b 15 39 a2 00 00 	mov    0xa239(%rip),%rdx        # d310 <grids>
    30d7:	8b 85 30 fd ff ff    	mov    -0x2d0(%rbp),%eax
    30dd:	48 98                	cltq   
    30df:	48 c1 e0 07          	shl    $0x7,%rax
    30e3:	48 01 c2             	add    %rax,%rdx
    30e6:	8b 85 c0 fd ff ff    	mov    -0x240(%rbp),%eax
    30ec:	89 02                	mov    %eax,(%rdx)
    30ee:	48 8b 15 1b a2 00 00 	mov    0xa21b(%rip),%rdx        # d310 <grids>
    30f5:	8b 85 30 fd ff ff    	mov    -0x2d0(%rbp),%eax
    30fb:	48 98                	cltq   
    30fd:	48 c1 e0 07          	shl    $0x7,%rax
    3101:	48 01 c2             	add    %rax,%rdx
    3104:	8b 85 34 fd ff ff    	mov    -0x2cc(%rbp),%eax
    310a:	89 42 0c             	mov    %eax,0xc(%rdx)
    310d:	48 8b 15 fc a1 00 00 	mov    0xa1fc(%rip),%rdx        # d310 <grids>
    3114:	8b 85 30 fd ff ff    	mov    -0x2d0(%rbp),%eax
    311a:	48 98                	cltq   
    311c:	48 c1 e0 07          	shl    $0x7,%rax
    3120:	48 01 d0             	add    %rdx,%rax
    3123:	c7 40 04 00 00 00 00 	movl   $0x0,0x4(%rax)
    312a:	48 8b 15 df a1 00 00 	mov    0xa1df(%rip),%rdx        # d310 <grids>
    3131:	8b 85 30 fd ff ff    	mov    -0x2d0(%rbp),%eax
    3137:	48 98                	cltq   
    3139:	48 c1 e0 07          	shl    $0x7,%rax
    313d:	48 01 c2             	add    %rax,%rdx
    3140:	8b 05 7e a1 00 00    	mov    0xa17e(%rip),%eax        # d2c4 <ny>
    3146:	89 42 10             	mov    %eax,0x10(%rdx)
    3149:	48 8b 15 c0 a1 00 00 	mov    0xa1c0(%rip),%rdx        # d310 <grids>
    3150:	8b 85 30 fd ff ff    	mov    -0x2d0(%rbp),%eax
    3156:	48 98                	cltq   
    3158:	48 c1 e0 07          	shl    $0x7,%rax
    315c:	48 01 c2             	add    %rax,%rdx
    315f:	8b 85 c4 fd ff ff    	mov    -0x23c(%rbp),%eax
    3165:	89 42 08             	mov    %eax,0x8(%rdx)
    3168:	48 8b 15 a1 a1 00 00 	mov    0xa1a1(%rip),%rdx        # d310 <grids>
    316f:	8b 85 30 fd ff ff    	mov    -0x2d0(%rbp),%eax
    3175:	48 98                	cltq   
    3177:	48 c1 e0 07          	shl    $0x7,%rax
    317b:	48 01 c2             	add    %rax,%rdx
    317e:	8b 85 38 fd ff ff    	mov    -0x2c8(%rbp),%eax
    3184:	89 42 14             	mov    %eax,0x14(%rdx)
    3187:	83 85 40 fd ff ff 01 	addl   $0x1,-0x2c0(%rbp)
    318e:	83 85 30 fd ff ff 01 	addl   $0x1,-0x2d0(%rbp)
    3195:	8b 05 7d 9e 00 00    	mov    0x9e7d(%rip),%eax        # d018 <ZDIVS>
    319b:	39 85 40 fd ff ff    	cmp    %eax,-0x2c0(%rbp)
    31a1:	0f 8c 91 fe ff ff    	jl     3038 <_Z7InitSimPKcj+0x90f>
    31a7:	83 85 3c fd ff ff 01 	addl   $0x1,-0x2c4(%rbp)
    31ae:	8b 05 60 9e 00 00    	mov    0x9e60(%rip),%eax        # d014 <XDIVS>
    31b4:	39 85 3c fd ff ff    	cmp    %eax,-0x2c4(%rbp)
    31ba:	0f 8c c7 fd ff ff    	jl     2f87 <_Z7InitSimPKcj+0x85e>
    31c0:	8b 15 4e 9e 00 00    	mov    0x9e4e(%rip),%edx        # d014 <XDIVS>
    31c6:	8b 05 4c 9e 00 00    	mov    0x9e4c(%rip),%eax        # d018 <ZDIVS>
    31cc:	0f af c2             	imul   %edx,%eax
    31cf:	39 85 30 fd ff ff    	cmp    %eax,-0x2d0(%rbp)
    31d5:	74 28                	je     31ff <_Z7InitSimPKcj+0xad6>
    31d7:	48 8d 05 92 6e 00 00 	lea    0x6e92(%rip),%rax        # a070 <_ZL22PARSEC_PROCESS_PRIVATE+0x30>
    31de:	48 89 c1             	mov    %rax,%rcx
    31e1:	ba db 00 00 00       	mov    $0xdb,%edx
    31e6:	48 8d 05 ab 6e 00 00 	lea    0x6eab(%rip),%rax        # a098 <_ZL22PARSEC_PROCESS_PRIVATE+0x58>
    31ed:	48 89 c6             	mov    %rax,%rsi
    31f0:	48 8d 05 a6 6f 00 00 	lea    0x6fa6(%rip),%rax        # a19d <_ZL22PARSEC_PROCESS_PRIVATE+0x15d>
    31f7:	48 89 c7             	mov    %rax,%rdi
    31fa:	e8 31 f1 ff ff       	call   2330 <__assert_fail@plt>
    31ff:	8b 05 db a0 00 00    	mov    0xa0db(%rip),%eax        # d2e0 <numCells>
    3205:	48 98                	cltq   
    3207:	48 89 c7             	mov    %rax,%rdi
    320a:	e8 b1 f0 ff ff       	call   22c0 <_Znam@plt>
    320f:	48 89 05 02 a1 00 00 	mov    %rax,0xa102(%rip)        # d318 <border>
    3216:	c7 85 44 fd ff ff 00 	movl   $0x0,-0x2bc(%rbp)
    321d:	00 00 00 
    3220:	e9 90 03 00 00       	jmp    35b5 <_Z7InitSimPKcj+0xe8c>
    3225:	48 8b 15 e4 a0 00 00 	mov    0xa0e4(%rip),%rdx        # d310 <grids>
    322c:	8b 85 44 fd ff ff    	mov    -0x2bc(%rbp),%eax
    3232:	48 98                	cltq   
    3234:	48 c1 e0 07          	shl    $0x7,%rax
    3238:	48 01 d0             	add    %rdx,%rax
    323b:	8b 40 08             	mov    0x8(%rax),%eax
    323e:	89 85 48 fd ff ff    	mov    %eax,-0x2b8(%rbp)
    3244:	e9 40 03 00 00       	jmp    3589 <_Z7InitSimPKcj+0xe60>
    3249:	48 8b 15 c0 a0 00 00 	mov    0xa0c0(%rip),%rdx        # d310 <grids>
    3250:	8b 85 44 fd ff ff    	mov    -0x2bc(%rbp),%eax
    3256:	48 98                	cltq   
    3258:	48 c1 e0 07          	shl    $0x7,%rax
    325c:	48 01 d0             	add    %rdx,%rax
    325f:	8b 40 04             	mov    0x4(%rax),%eax
    3262:	89 85 4c fd ff ff    	mov    %eax,-0x2b4(%rbp)
    3268:	e9 f0 02 00 00       	jmp    355d <_Z7InitSimPKcj+0xe34>
    326d:	48 8b 15 9c a0 00 00 	mov    0xa09c(%rip),%rdx        # d310 <grids>
    3274:	8b 85 44 fd ff ff    	mov    -0x2bc(%rbp),%eax
    327a:	48 98                	cltq   
    327c:	48 c1 e0 07          	shl    $0x7,%rax
    3280:	48 01 d0             	add    %rdx,%rax
    3283:	8b 00                	mov    (%rax),%eax
    3285:	89 85 50 fd ff ff    	mov    %eax,-0x2b0(%rbp)
    328b:	e9 a1 02 00 00       	jmp    3531 <_Z7InitSimPKcj+0xe08>
    3290:	8b 05 2e a0 00 00    	mov    0xa02e(%rip),%eax        # d2c4 <ny>
    3296:	0f af 85 48 fd ff ff 	imul   -0x2b8(%rbp),%eax
    329d:	89 c2                	mov    %eax,%edx
    329f:	8b 85 4c fd ff ff    	mov    -0x2b4(%rbp),%eax
    32a5:	01 c2                	add    %eax,%edx
    32a7:	8b 05 13 a0 00 00    	mov    0xa013(%rip),%eax        # d2c0 <nx>
    32ad:	0f af d0             	imul   %eax,%edx
    32b0:	8b 85 50 fd ff ff    	mov    -0x2b0(%rbp),%eax
    32b6:	01 d0                	add    %edx,%eax
    32b8:	89 85 bc fd ff ff    	mov    %eax,-0x244(%rbp)
    32be:	48 8b 15 53 a0 00 00 	mov    0xa053(%rip),%rdx        # d318 <border>
    32c5:	8b 85 bc fd ff ff    	mov    -0x244(%rbp),%eax
    32cb:	48 98                	cltq   
    32cd:	48 01 d0             	add    %rdx,%rax
    32d0:	c6 00 00             	movb   $0x0,(%rax)
    32d3:	c7 85 54 fd ff ff ff 	movl   $0xffffffff,-0x2ac(%rbp)
    32da:	ff ff ff 
    32dd:	e9 38 02 00 00       	jmp    351a <_Z7InitSimPKcj+0xdf1>
    32e2:	c7 85 58 fd ff ff ff 	movl   $0xffffffff,-0x2a8(%rbp)
    32e9:	ff ff ff 
    32ec:	e9 f9 01 00 00       	jmp    34ea <_Z7InitSimPKcj+0xdc1>
    32f1:	c7 85 5c fd ff ff ff 	movl   $0xffffffff,-0x2a4(%rbp)
    32f8:	ff ff ff 
    32fb:	e9 bd 01 00 00       	jmp    34bd <_Z7InitSimPKcj+0xd94>
    3300:	8b 95 50 fd ff ff    	mov    -0x2b0(%rbp),%edx
    3306:	8b 85 5c fd ff ff    	mov    -0x2a4(%rbp),%eax
    330c:	01 d0                	add    %edx,%eax
    330e:	89 85 60 fd ff ff    	mov    %eax,-0x2a0(%rbp)
    3314:	8b 95 4c fd ff ff    	mov    -0x2b4(%rbp),%edx
    331a:	8b 85 58 fd ff ff    	mov    -0x2a8(%rbp),%eax
    3320:	01 d0                	add    %edx,%eax
    3322:	89 85 64 fd ff ff    	mov    %eax,-0x29c(%rbp)
    3328:	8b 95 48 fd ff ff    	mov    -0x2b8(%rbp),%edx
    332e:	8b 85 54 fd ff ff    	mov    -0x2ac(%rbp),%eax
    3334:	01 d0                	add    %edx,%eax
    3336:	89 85 68 fd ff ff    	mov    %eax,-0x298(%rbp)
    333c:	83 bd 60 fd ff ff 00 	cmpl   $0x0,-0x2a0(%rbp)
    3343:	79 0c                	jns    3351 <_Z7InitSimPKcj+0xc28>
    3345:	c7 85 60 fd ff ff 00 	movl   $0x0,-0x2a0(%rbp)
    334c:	00 00 00 
    334f:	eb 1d                	jmp    336e <_Z7InitSimPKcj+0xc45>
    3351:	8b 05 69 9f 00 00    	mov    0x9f69(%rip),%eax        # d2c0 <nx>
    3357:	39 85 60 fd ff ff    	cmp    %eax,-0x2a0(%rbp)
    335d:	7c 0f                	jl     336e <_Z7InitSimPKcj+0xc45>
    335f:	8b 05 5b 9f 00 00    	mov    0x9f5b(%rip),%eax        # d2c0 <nx>
    3365:	83 e8 01             	sub    $0x1,%eax
    3368:	89 85 60 fd ff ff    	mov    %eax,-0x2a0(%rbp)
    336e:	83 bd 64 fd ff ff 00 	cmpl   $0x0,-0x29c(%rbp)
    3375:	79 0c                	jns    3383 <_Z7InitSimPKcj+0xc5a>
    3377:	c7 85 64 fd ff ff 00 	movl   $0x0,-0x29c(%rbp)
    337e:	00 00 00 
    3381:	eb 1d                	jmp    33a0 <_Z7InitSimPKcj+0xc77>
    3383:	8b 05 3b 9f 00 00    	mov    0x9f3b(%rip),%eax        # d2c4 <ny>
    3389:	39 85 64 fd ff ff    	cmp    %eax,-0x29c(%rbp)
    338f:	7c 0f                	jl     33a0 <_Z7InitSimPKcj+0xc77>
    3391:	8b 05 2d 9f 00 00    	mov    0x9f2d(%rip),%eax        # d2c4 <ny>
    3397:	83 e8 01             	sub    $0x1,%eax
    339a:	89 85 64 fd ff ff    	mov    %eax,-0x29c(%rbp)
    33a0:	83 bd 68 fd ff ff 00 	cmpl   $0x0,-0x298(%rbp)
    33a7:	79 0c                	jns    33b5 <_Z7InitSimPKcj+0xc8c>
    33a9:	c7 85 68 fd ff ff 00 	movl   $0x0,-0x298(%rbp)
    33b0:	00 00 00 
    33b3:	eb 1d                	jmp    33d2 <_Z7InitSimPKcj+0xca9>
    33b5:	8b 05 0d 9f 00 00    	mov    0x9f0d(%rip),%eax        # d2c8 <nz>
    33bb:	39 85 68 fd ff ff    	cmp    %eax,-0x298(%rbp)
    33c1:	7c 0f                	jl     33d2 <_Z7InitSimPKcj+0xca9>
    33c3:	8b 05 ff 9e 00 00    	mov    0x9eff(%rip),%eax        # d2c8 <nz>
    33c9:	83 e8 01             	sub    $0x1,%eax
    33cc:	89 85 68 fd ff ff    	mov    %eax,-0x298(%rbp)
    33d2:	48 8b 15 37 9f 00 00 	mov    0x9f37(%rip),%rdx        # d310 <grids>
    33d9:	8b 85 44 fd ff ff    	mov    -0x2bc(%rbp),%eax
    33df:	48 98                	cltq   
    33e1:	48 c1 e0 07          	shl    $0x7,%rax
    33e5:	48 01 d0             	add    %rdx,%rax
    33e8:	8b 00                	mov    (%rax),%eax
    33ea:	39 85 60 fd ff ff    	cmp    %eax,-0x2a0(%rbp)
    33f0:	0f 8c a9 00 00 00    	jl     349f <_Z7InitSimPKcj+0xd76>
    33f6:	48 8b 15 13 9f 00 00 	mov    0x9f13(%rip),%rdx        # d310 <grids>
    33fd:	8b 85 44 fd ff ff    	mov    -0x2bc(%rbp),%eax
    3403:	48 98                	cltq   
    3405:	48 c1 e0 07          	shl    $0x7,%rax
    3409:	48 01 d0             	add    %rdx,%rax
    340c:	8b 40 0c             	mov    0xc(%rax),%eax
    340f:	39 85 60 fd ff ff    	cmp    %eax,-0x2a0(%rbp)
    3415:	0f 8d 84 00 00 00    	jge    349f <_Z7InitSimPKcj+0xd76>
    341b:	48 8b 15 ee 9e 00 00 	mov    0x9eee(%rip),%rdx        # d310 <grids>
    3422:	8b 85 44 fd ff ff    	mov    -0x2bc(%rbp),%eax
    3428:	48 98                	cltq   
    342a:	48 c1 e0 07          	shl    $0x7,%rax
    342e:	48 01 d0             	add    %rdx,%rax
    3431:	8b 40 04             	mov    0x4(%rax),%eax
    3434:	39 85 64 fd ff ff    	cmp    %eax,-0x29c(%rbp)
    343a:	7c 63                	jl     349f <_Z7InitSimPKcj+0xd76>
    343c:	48 8b 15 cd 9e 00 00 	mov    0x9ecd(%rip),%rdx        # d310 <grids>
    3443:	8b 85 44 fd ff ff    	mov    -0x2bc(%rbp),%eax
    3449:	48 98                	cltq   
    344b:	48 c1 e0 07          	shl    $0x7,%rax
    344f:	48 01 d0             	add    %rdx,%rax
    3452:	8b 40 10             	mov    0x10(%rax),%eax
    3455:	39 85 64 fd ff ff    	cmp    %eax,-0x29c(%rbp)
    345b:	7d 42                	jge    349f <_Z7InitSimPKcj+0xd76>
    345d:	48 8b 15 ac 9e 00 00 	mov    0x9eac(%rip),%rdx        # d310 <grids>
    3464:	8b 85 44 fd ff ff    	mov    -0x2bc(%rbp),%eax
    346a:	48 98                	cltq   
    346c:	48 c1 e0 07          	shl    $0x7,%rax
    3470:	48 01 d0             	add    %rdx,%rax
    3473:	8b 40 08             	mov    0x8(%rax),%eax
    3476:	39 85 68 fd ff ff    	cmp    %eax,-0x298(%rbp)
    347c:	7c 21                	jl     349f <_Z7InitSimPKcj+0xd76>
    347e:	48 8b 15 8b 9e 00 00 	mov    0x9e8b(%rip),%rdx        # d310 <grids>
    3485:	8b 85 44 fd ff ff    	mov    -0x2bc(%rbp),%eax
    348b:	48 98                	cltq   
    348d:	48 c1 e0 07          	shl    $0x7,%rax
    3491:	48 01 d0             	add    %rdx,%rax
    3494:	8b 40 14             	mov    0x14(%rax),%eax
    3497:	39 85 68 fd ff ff    	cmp    %eax,-0x298(%rbp)
    349d:	7c 17                	jl     34b6 <_Z7InitSimPKcj+0xd8d>
    349f:	48 8b 15 72 9e 00 00 	mov    0x9e72(%rip),%rdx        # d318 <border>
    34a6:	8b 85 bc fd ff ff    	mov    -0x244(%rbp),%eax
    34ac:	48 98                	cltq   
    34ae:	48 01 d0             	add    %rdx,%rax
    34b1:	c6 00 01             	movb   $0x1,(%rax)
    34b4:	eb 14                	jmp    34ca <_Z7InitSimPKcj+0xda1>
    34b6:	83 85 5c fd ff ff 01 	addl   $0x1,-0x2a4(%rbp)
    34bd:	83 bd 5c fd ff ff 01 	cmpl   $0x1,-0x2a4(%rbp)
    34c4:	0f 8e 36 fe ff ff    	jle    3300 <_Z7InitSimPKcj+0xbd7>
    34ca:	48 8b 15 47 9e 00 00 	mov    0x9e47(%rip),%rdx        # d318 <border>
    34d1:	8b 85 bc fd ff ff    	mov    -0x244(%rbp),%eax
    34d7:	48 98                	cltq   
    34d9:	48 01 d0             	add    %rdx,%rax
    34dc:	0f b6 00             	movzbl (%rax),%eax
    34df:	84 c0                	test   %al,%al
    34e1:	75 16                	jne    34f9 <_Z7InitSimPKcj+0xdd0>
    34e3:	83 85 58 fd ff ff 01 	addl   $0x1,-0x2a8(%rbp)
    34ea:	83 bd 58 fd ff ff 01 	cmpl   $0x1,-0x2a8(%rbp)
    34f1:	0f 8e fa fd ff ff    	jle    32f1 <_Z7InitSimPKcj+0xbc8>
    34f7:	eb 01                	jmp    34fa <_Z7InitSimPKcj+0xdd1>
    34f9:	90                   	nop
    34fa:	48 8b 15 17 9e 00 00 	mov    0x9e17(%rip),%rdx        # d318 <border>
    3501:	8b 85 bc fd ff ff    	mov    -0x244(%rbp),%eax
    3507:	48 98                	cltq   
    3509:	48 01 d0             	add    %rdx,%rax
    350c:	0f b6 00             	movzbl (%rax),%eax
    350f:	84 c0                	test   %al,%al
    3511:	75 16                	jne    3529 <_Z7InitSimPKcj+0xe00>
    3513:	83 85 54 fd ff ff 01 	addl   $0x1,-0x2ac(%rbp)
    351a:	83 bd 54 fd ff ff 01 	cmpl   $0x1,-0x2ac(%rbp)
    3521:	0f 8e bb fd ff ff    	jle    32e2 <_Z7InitSimPKcj+0xbb9>
    3527:	eb 01                	jmp    352a <_Z7InitSimPKcj+0xe01>
    3529:	90                   	nop
    352a:	83 85 50 fd ff ff 01 	addl   $0x1,-0x2b0(%rbp)
    3531:	48 8b 15 d8 9d 00 00 	mov    0x9dd8(%rip),%rdx        # d310 <grids>
    3538:	8b 85 44 fd ff ff    	mov    -0x2bc(%rbp),%eax
    353e:	48 98                	cltq   
    3540:	48 c1 e0 07          	shl    $0x7,%rax
    3544:	48 01 d0             	add    %rdx,%rax
    3547:	8b 40 0c             	mov    0xc(%rax),%eax
    354a:	39 85 50 fd ff ff    	cmp    %eax,-0x2b0(%rbp)
    3550:	0f 8c 3a fd ff ff    	jl     3290 <_Z7InitSimPKcj+0xb67>
    3556:	83 85 4c fd ff ff 01 	addl   $0x1,-0x2b4(%rbp)
    355d:	48 8b 15 ac 9d 00 00 	mov    0x9dac(%rip),%rdx        # d310 <grids>
    3564:	8b 85 44 fd ff ff    	mov    -0x2bc(%rbp),%eax
    356a:	48 98                	cltq   
    356c:	48 c1 e0 07          	shl    $0x7,%rax
    3570:	48 01 d0             	add    %rdx,%rax
    3573:	8b 40 10             	mov    0x10(%rax),%eax
    3576:	39 85 4c fd ff ff    	cmp    %eax,-0x2b4(%rbp)
    357c:	0f 8c eb fc ff ff    	jl     326d <_Z7InitSimPKcj+0xb44>
    3582:	83 85 48 fd ff ff 01 	addl   $0x1,-0x2b8(%rbp)
    3589:	48 8b 15 80 9d 00 00 	mov    0x9d80(%rip),%rdx        # d310 <grids>
    3590:	8b 85 44 fd ff ff    	mov    -0x2bc(%rbp),%eax
    3596:	48 98                	cltq   
    3598:	48 c1 e0 07          	shl    $0x7,%rax
    359c:	48 01 d0             	add    %rdx,%rax
    359f:	8b 40 14             	mov    0x14(%rax),%eax
    35a2:	39 85 48 fd ff ff    	cmp    %eax,-0x2b8(%rbp)
    35a8:	0f 8c 9b fc ff ff    	jl     3249 <_Z7InitSimPKcj+0xb20>
    35ae:	83 85 44 fd ff ff 01 	addl   $0x1,-0x2bc(%rbp)
    35b5:	8b 15 59 9a 00 00    	mov    0x9a59(%rip),%edx        # d014 <XDIVS>
    35bb:	8b 05 57 9a 00 00    	mov    0x9a57(%rip),%eax        # d018 <ZDIVS>
    35c1:	0f af c2             	imul   %edx,%eax
    35c4:	39 85 44 fd ff ff    	cmp    %eax,-0x2bc(%rbp)
    35ca:	0f 8c 55 fc ff ff    	jl     3225 <_Z7InitSimPKcj+0xafc>
    35d0:	48 8d 05 49 9d 00 00 	lea    0x9d49(%rip),%rax        # d320 <attr>
    35d7:	48 89 c7             	mov    %rax,%rdi
    35da:	e8 21 ee ff ff       	call   2400 <pthread_attr_init@plt>
    35df:	be 00 00 00 00       	mov    $0x0,%esi
    35e4:	48 8d 05 35 9d 00 00 	lea    0x9d35(%rip),%rax        # d320 <attr>
    35eb:	48 89 c7             	mov    %rax,%rdi
    35ee:	e8 5d ee ff ff       	call   2450 <pthread_attr_setdetachstate@plt>
    35f3:	8b 05 e7 9c 00 00    	mov    0x9ce7(%rip),%eax        # d2e0 <numCells>
    35f9:	48 98                	cltq   
    35fb:	48 ba ff ff ff ff ff 	movabs $0xfffffffffffffff,%rdx
    3602:	ff ff 0f 
    3605:	48 39 d0             	cmp    %rdx,%rax
    3608:	77 06                	ja     3610 <_Z7InitSimPKcj+0xee7>
    360a:	48 c1 e0 03          	shl    $0x3,%rax
    360e:	eb 07                	jmp    3617 <_Z7InitSimPKcj+0xeee>
    3610:	48 c7 c0 ff ff ff ff 	mov    $0xffffffffffffffff,%rax
    3617:	48 89 c7             	mov    %rax,%rdi
    361a:	e8 a1 ec ff ff       	call   22c0 <_Znam@plt>
    361f:	48 89 05 3a 9d 00 00 	mov    %rax,0x9d3a(%rip)        # d360 <mutex>
    3626:	c7 85 6c fd ff ff 00 	movl   $0x0,-0x294(%rbp)
    362d:	00 00 00 
    3630:	e9 e7 00 00 00       	jmp    371c <_Z7InitSimPKcj+0xff3>
    3635:	48 8b 15 dc 9c 00 00 	mov    0x9cdc(%rip),%rdx        # d318 <border>
    363c:	8b 85 6c fd ff ff    	mov    -0x294(%rbp),%eax
    3642:	48 98                	cltq   
    3644:	48 01 d0             	add    %rdx,%rax
    3647:	0f b6 00             	movzbl (%rax),%eax
    364a:	84 c0                	test   %al,%al
    364c:	74 07                	je     3655 <_Z7InitSimPKcj+0xf2c>
    364e:	b8 80 00 00 00       	mov    $0x80,%eax
    3653:	eb 05                	jmp    365a <_Z7InitSimPKcj+0xf31>
    3655:	b8 01 00 00 00       	mov    $0x1,%eax
    365a:	89 85 b8 fd ff ff    	mov    %eax,-0x248(%rbp)
    3660:	8b 85 b8 fd ff ff    	mov    -0x248(%rbp),%eax
    3666:	48 63 d0             	movslq %eax,%rdx
    3669:	48 b8 33 33 33 33 33 	movabs $0x333333333333333,%rax
    3670:	33 33 03 
    3673:	48 39 c2             	cmp    %rax,%rdx
    3676:	77 13                	ja     368b <_Z7InitSimPKcj+0xf62>
    3678:	48 89 d0             	mov    %rdx,%rax
    367b:	48 c1 e0 02          	shl    $0x2,%rax
    367f:	48 01 d0             	add    %rdx,%rax
    3682:	48 c1 e0 03          	shl    $0x3,%rax
    3686:	48 89 c2             	mov    %rax,%rdx
    3689:	eb 07                	jmp    3692 <_Z7InitSimPKcj+0xf69>
    368b:	48 c7 c2 ff ff ff ff 	mov    $0xffffffffffffffff,%rdx
    3692:	48 8b 0d c7 9c 00 00 	mov    0x9cc7(%rip),%rcx        # d360 <mutex>
    3699:	8b 85 6c fd ff ff    	mov    -0x294(%rbp),%eax
    369f:	48 98                	cltq   
    36a1:	48 c1 e0 03          	shl    $0x3,%rax
    36a5:	48 8d 1c 01          	lea    (%rcx,%rax,1),%rbx
    36a9:	48 89 d7             	mov    %rdx,%rdi
    36ac:	e8 0f ec ff ff       	call   22c0 <_Znam@plt>
    36b1:	48 89 03             	mov    %rax,(%rbx)
    36b4:	c7 85 70 fd ff ff 00 	movl   $0x0,-0x290(%rbp)
    36bb:	00 00 00 
    36be:	eb 47                	jmp    3707 <_Z7InitSimPKcj+0xfde>
    36c0:	48 8b 15 99 9c 00 00 	mov    0x9c99(%rip),%rdx        # d360 <mutex>
    36c7:	8b 85 6c fd ff ff    	mov    -0x294(%rbp),%eax
    36cd:	48 98                	cltq   
    36cf:	48 c1 e0 03          	shl    $0x3,%rax
    36d3:	48 01 d0             	add    %rdx,%rax
    36d6:	48 8b 08             	mov    (%rax),%rcx
    36d9:	8b 85 70 fd ff ff    	mov    -0x290(%rbp),%eax
    36df:	48 63 d0             	movslq %eax,%rdx
    36e2:	48 89 d0             	mov    %rdx,%rax
    36e5:	48 c1 e0 02          	shl    $0x2,%rax
    36e9:	48 01 d0             	add    %rdx,%rax
    36ec:	48 c1 e0 03          	shl    $0x3,%rax
    36f0:	48 01 c8             	add    %rcx,%rax
    36f3:	be 00 00 00 00       	mov    $0x0,%esi
    36f8:	48 89 c7             	mov    %rax,%rdi
    36fb:	e8 90 ed ff ff       	call   2490 <pthread_mutex_init@plt>
    3700:	83 85 70 fd ff ff 01 	addl   $0x1,-0x290(%rbp)
    3707:	8b 85 70 fd ff ff    	mov    -0x290(%rbp),%eax
    370d:	3b 85 b8 fd ff ff    	cmp    -0x248(%rbp),%eax
    3713:	7c ab                	jl     36c0 <_Z7InitSimPKcj+0xf97>
    3715:	83 85 6c fd ff ff 01 	addl   $0x1,-0x294(%rbp)
    371c:	8b 05 be 9b 00 00    	mov    0x9bbe(%rip),%eax        # d2e0 <numCells>
    3722:	39 85 6c fd ff ff    	cmp    %eax,-0x294(%rbp)
    3728:	0f 8c 07 ff ff ff    	jl     3635 <_Z7InitSimPKcj+0xf0c>
    372e:	8b 15 e0 98 00 00    	mov    0x98e0(%rip),%edx        # d014 <XDIVS>
    3734:	8b 05 de 98 00 00    	mov    0x98de(%rip),%eax        # d018 <ZDIVS>
    373a:	0f af c2             	imul   %edx,%eax
    373d:	89 c2                	mov    %eax,%edx
    373f:	be 00 00 00 00       	mov    $0x0,%esi
    3744:	48 8d 05 35 9c 00 00 	lea    0x9c35(%rip),%rax        # d380 <barrier>
    374b:	48 89 c7             	mov    %rax,%rdi
    374e:	e8 57 54 00 00       	call   8baa <_Z19parsec_barrier_initP16parsec_barrier_tPKij>
    3753:	8b 05 87 9b 00 00    	mov    0x9b87(%rip),%eax        # d2e0 <numCells>
    3759:	48 63 d0             	movslq %eax,%rdx
    375c:	48 89 d0             	mov    %rdx,%rax
    375f:	48 c1 e0 03          	shl    $0x3,%rax
    3763:	48 29 d0             	sub    %rdx,%rax
    3766:	48 c1 e0 07          	shl    $0x7,%rax
    376a:	48 89 c2             	mov    %rax,%rdx
    376d:	be 80 00 00 00       	mov    $0x80,%esi
    3772:	48 8d 05 6f 9b 00 00 	lea    0x9b6f(%rip),%rax        # d2e8 <cells>
    3779:	48 89 c7             	mov    %rax,%rdi
    377c:	e8 8f eb ff ff       	call   2310 <posix_memalign@plt>
    3781:	89 85 a0 fd ff ff    	mov    %eax,-0x260(%rbp)
    3787:	8b 05 53 9b 00 00    	mov    0x9b53(%rip),%eax        # d2e0 <numCells>
    378d:	48 63 d0             	movslq %eax,%rdx
    3790:	48 89 d0             	mov    %rdx,%rax
    3793:	48 c1 e0 03          	shl    $0x3,%rax
    3797:	48 29 d0             	sub    %rdx,%rax
    379a:	48 c1 e0 07          	shl    $0x7,%rax
    379e:	48 89 c2             	mov    %rax,%rdx
    37a1:	be 80 00 00 00       	mov    $0x80,%esi
    37a6:	48 8d 05 43 9b 00 00 	lea    0x9b43(%rip),%rax        # d2f0 <cells2>
    37ad:	48 89 c7             	mov    %rax,%rdi
    37b0:	e8 5b eb ff ff       	call   2310 <posix_memalign@plt>
    37b5:	89 85 a4 fd ff ff    	mov    %eax,-0x25c(%rbp)
    37bb:	8b 05 1f 9b 00 00    	mov    0x9b1f(%rip),%eax        # d2e0 <numCells>
    37c1:	48 98                	cltq   
    37c3:	48 c1 e0 02          	shl    $0x2,%rax
    37c7:	48 89 c2             	mov    %rax,%rdx
    37ca:	be 80 00 00 00       	mov    $0x80,%esi
    37cf:	48 8d 05 22 9b 00 00 	lea    0x9b22(%rip),%rax        # d2f8 <cnumPars>
    37d6:	48 89 c7             	mov    %rax,%rdi
    37d9:	e8 32 eb ff ff       	call   2310 <posix_memalign@plt>
    37de:	89 85 a8 fd ff ff    	mov    %eax,-0x258(%rbp)
    37e4:	8b 05 f6 9a 00 00    	mov    0x9af6(%rip),%eax        # d2e0 <numCells>
    37ea:	48 98                	cltq   
    37ec:	48 c1 e0 02          	shl    $0x2,%rax
    37f0:	48 89 c2             	mov    %rax,%rdx
    37f3:	be 80 00 00 00       	mov    $0x80,%esi
    37f8:	48 8d 05 01 9b 00 00 	lea    0x9b01(%rip),%rax        # d300 <cnumPars2>
    37ff:	48 89 c7             	mov    %rax,%rdi
    3802:	e8 09 eb ff ff       	call   2310 <posix_memalign@plt>
    3807:	89 85 ac fd ff ff    	mov    %eax,-0x254(%rbp)
    380d:	8b 05 cd 9a 00 00    	mov    0x9acd(%rip),%eax        # d2e0 <numCells>
    3813:	48 98                	cltq   
    3815:	48 c1 e0 03          	shl    $0x3,%rax
    3819:	48 89 c2             	mov    %rax,%rdx
    381c:	be 80 00 00 00       	mov    $0x80,%esi
    3821:	48 8d 05 e0 9a 00 00 	lea    0x9ae0(%rip),%rax        # d308 <last_cells>
    3828:	48 89 c7             	mov    %rax,%rdi
    382b:	e8 e0 ea ff ff       	call   2310 <posix_memalign@plt>
    3830:	89 85 b0 fd ff ff    	mov    %eax,-0x250(%rbp)
    3836:	83 bd a0 fd ff ff 00 	cmpl   $0x0,-0x260(%rbp)
    383d:	75 24                	jne    3863 <_Z7InitSimPKcj+0x113a>
    383f:	83 bd a4 fd ff ff 00 	cmpl   $0x0,-0x25c(%rbp)
    3846:	75 1b                	jne    3863 <_Z7InitSimPKcj+0x113a>
    3848:	83 bd a8 fd ff ff 00 	cmpl   $0x0,-0x258(%rbp)
    384f:	75 12                	jne    3863 <_Z7InitSimPKcj+0x113a>
    3851:	83 bd ac fd ff ff 00 	cmpl   $0x0,-0x254(%rbp)
    3858:	75 09                	jne    3863 <_Z7InitSimPKcj+0x113a>
    385a:	83 bd b0 fd ff ff 00 	cmpl   $0x0,-0x250(%rbp)
    3861:	74 28                	je     388b <_Z7InitSimPKcj+0x1162>
    3863:	48 8d 05 06 68 00 00 	lea    0x6806(%rip),%rax        # a070 <_ZL22PARSEC_PROCESS_PRIVATE+0x30>
    386a:	48 89 c1             	mov    %rax,%rcx
    386d:	ba 2d 01 00 00       	mov    $0x12d,%edx
    3872:	48 8d 05 1f 68 00 00 	lea    0x681f(%rip),%rax        # a098 <_ZL22PARSEC_PROCESS_PRIVATE+0x58>
    3879:	48 89 c6             	mov    %rax,%rsi
    387c:	48 8d 05 2d 69 00 00 	lea    0x692d(%rip),%rax        # a1b0 <_ZL22PARSEC_PROCESS_PRIVATE+0x170>
    3883:	48 89 c7             	mov    %rax,%rdi
    3886:	e8 a5 ea ff ff       	call   2330 <__assert_fail@plt>
    388b:	c7 85 74 fd ff ff 00 	movl   $0x0,-0x28c(%rbp)
    3892:	00 00 00 
    3895:	eb 73                	jmp    390a <_Z7InitSimPKcj+0x11e1>
    3897:	48 8b 0d 4a 9a 00 00 	mov    0x9a4a(%rip),%rcx        # d2e8 <cells>
    389e:	8b 85 74 fd ff ff    	mov    -0x28c(%rbp),%eax
    38a4:	48 63 d0             	movslq %eax,%rdx
    38a7:	48 89 d0             	mov    %rdx,%rax
    38aa:	48 c1 e0 03          	shl    $0x3,%rax
    38ae:	48 29 d0             	sub    %rdx,%rax
    38b1:	48 c1 e0 07          	shl    $0x7,%rax
    38b5:	48 01 c8             	add    %rcx,%rax
    38b8:	48 89 c6             	mov    %rax,%rsi
    38bb:	bf 80 03 00 00       	mov    $0x380,%edi
    38c0:	e8 fb 46 00 00       	call   7fc0 <_ZnwmPv>
    38c5:	48 89 c7             	mov    %rax,%rdi
    38c8:	e8 6d 4b 00 00       	call   843a <_ZN4CellC1Ev>
    38cd:	48 8b 0d 1c 9a 00 00 	mov    0x9a1c(%rip),%rcx        # d2f0 <cells2>
    38d4:	8b 85 74 fd ff ff    	mov    -0x28c(%rbp),%eax
    38da:	48 63 d0             	movslq %eax,%rdx
    38dd:	48 89 d0             	mov    %rdx,%rax
    38e0:	48 c1 e0 03          	shl    $0x3,%rax
    38e4:	48 29 d0             	sub    %rdx,%rax
    38e7:	48 c1 e0 07          	shl    $0x7,%rax
    38eb:	48 01 c8             	add    %rcx,%rax
    38ee:	48 89 c6             	mov    %rax,%rsi
    38f1:	bf 80 03 00 00       	mov    $0x380,%edi
    38f6:	e8 c5 46 00 00       	call   7fc0 <_ZnwmPv>
    38fb:	48 89 c7             	mov    %rax,%rdi
    38fe:	e8 37 4b 00 00       	call   843a <_ZN4CellC1Ev>
    3903:	83 85 74 fd ff ff 01 	addl   $0x1,-0x28c(%rbp)
    390a:	8b 05 d0 99 00 00    	mov    0x99d0(%rip),%eax        # d2e0 <numCells>
    3910:	39 85 74 fd ff ff    	cmp    %eax,-0x28c(%rbp)
    3916:	0f 8c 7b ff ff ff    	jl     3897 <_Z7InitSimPKcj+0x116e>
    391c:	8b 05 be 99 00 00    	mov    0x99be(%rip),%eax        # d2e0 <numCells>
    3922:	48 98                	cltq   
    3924:	48 8d 14 85 00 00 00 	lea    0x0(,%rax,4),%rdx
    392b:	00 
    392c:	48 8b 05 c5 99 00 00 	mov    0x99c5(%rip),%rax        # d2f8 <cnumPars>
    3933:	be 00 00 00 00       	mov    $0x0,%esi
    3938:	48 89 c7             	mov    %rax,%rdi
    393b:	e8 e0 e9 ff ff       	call   2320 <memset@plt>
    3940:	c7 85 78 fd ff ff 00 	movl   $0x0,-0x288(%rbp)
    3947:	00 00 00 
    394a:	c7 85 7c fd ff ff 00 	movl   $0x0,-0x284(%rbp)
    3951:	00 00 00 
    3954:	e9 2c 06 00 00       	jmp    3f85 <_Z7InitSimPKcj+0x185c>
    3959:	48 8d 8d 08 fd ff ff 	lea    -0x2f8(%rbp),%rcx
    3960:	48 8d 85 e0 fd ff ff 	lea    -0x220(%rbp),%rax
    3967:	ba 04 00 00 00       	mov    $0x4,%edx
    396c:	48 89 ce             	mov    %rcx,%rsi
    396f:	48 89 c7             	mov    %rax,%rdi
    3972:	e8 a9 ea ff ff       	call   2420 <_ZNSi4readEPcl@plt>
    3977:	48 8d 8d 0c fd ff ff 	lea    -0x2f4(%rbp),%rcx
    397e:	48 8d 85 e0 fd ff ff 	lea    -0x220(%rbp),%rax
    3985:	ba 04 00 00 00       	mov    $0x4,%edx
    398a:	48 89 ce             	mov    %rcx,%rsi
    398d:	48 89 c7             	mov    %rax,%rdi
    3990:	e8 8b ea ff ff       	call   2420 <_ZNSi4readEPcl@plt>
    3995:	48 8d 8d 10 fd ff ff 	lea    -0x2f0(%rbp),%rcx
    399c:	48 8d 85 e0 fd ff ff 	lea    -0x220(%rbp),%rax
    39a3:	ba 04 00 00 00       	mov    $0x4,%edx
    39a8:	48 89 ce             	mov    %rcx,%rsi
    39ab:	48 89 c7             	mov    %rax,%rdi
    39ae:	e8 6d ea ff ff       	call   2420 <_ZNSi4readEPcl@plt>
    39b3:	48 8d 8d 14 fd ff ff 	lea    -0x2ec(%rbp),%rcx
    39ba:	48 8d 85 e0 fd ff ff 	lea    -0x220(%rbp),%rax
    39c1:	ba 04 00 00 00       	mov    $0x4,%edx
    39c6:	48 89 ce             	mov    %rcx,%rsi
    39c9:	48 89 c7             	mov    %rax,%rdi
    39cc:	e8 4f ea ff ff       	call   2420 <_ZNSi4readEPcl@plt>
    39d1:	48 8d 8d 18 fd ff ff 	lea    -0x2e8(%rbp),%rcx
    39d8:	48 8d 85 e0 fd ff ff 	lea    -0x220(%rbp),%rax
    39df:	ba 04 00 00 00       	mov    $0x4,%edx
    39e4:	48 89 ce             	mov    %rcx,%rsi
    39e7:	48 89 c7             	mov    %rax,%rdi
    39ea:	e8 31 ea ff ff       	call   2420 <_ZNSi4readEPcl@plt>
    39ef:	48 8d 8d 1c fd ff ff 	lea    -0x2e4(%rbp),%rcx
    39f6:	48 8d 85 e0 fd ff ff 	lea    -0x220(%rbp),%rax
    39fd:	ba 04 00 00 00       	mov    $0x4,%edx
    3a02:	48 89 ce             	mov    %rcx,%rsi
    3a05:	48 89 c7             	mov    %rax,%rdi
    3a08:	e8 13 ea ff ff       	call   2420 <_ZNSi4readEPcl@plt>
    3a0d:	48 8d 8d 20 fd ff ff 	lea    -0x2e0(%rbp),%rcx
    3a14:	48 8d 85 e0 fd ff ff 	lea    -0x220(%rbp),%rax
    3a1b:	ba 04 00 00 00       	mov    $0x4,%edx
    3a20:	48 89 ce             	mov    %rcx,%rsi
    3a23:	48 89 c7             	mov    %rax,%rdi
    3a26:	e8 f5 e9 ff ff       	call   2420 <_ZNSi4readEPcl@plt>
    3a2b:	48 8d 8d 24 fd ff ff 	lea    -0x2dc(%rbp),%rcx
    3a32:	48 8d 85 e0 fd ff ff 	lea    -0x220(%rbp),%rax
    3a39:	ba 04 00 00 00       	mov    $0x4,%edx
    3a3e:	48 89 ce             	mov    %rcx,%rsi
    3a41:	48 89 c7             	mov    %rax,%rdi
    3a44:	e8 d7 e9 ff ff       	call   2420 <_ZNSi4readEPcl@plt>
    3a49:	48 8d 8d 28 fd ff ff 	lea    -0x2d8(%rbp),%rcx
    3a50:	48 8d 85 e0 fd ff ff 	lea    -0x220(%rbp),%rax
    3a57:	ba 04 00 00 00       	mov    $0x4,%edx
    3a5c:	48 89 ce             	mov    %rcx,%rsi
    3a5f:	48 89 c7             	mov    %rax,%rdi
    3a62:	e8 b9 e9 ff ff       	call   2420 <_ZNSi4readEPcl@plt>
    3a67:	e8 bd eb ff ff       	call   2629 <_ZL14isLittleEndianv>
    3a6c:	85 c0                	test   %eax,%eax
    3a6e:	0f 94 c0             	sete   %al
    3a71:	84 c0                	test   %al,%al
    3a73:	0f 84 e1 00 00 00    	je     3b5a <_Z7InitSimPKcj+0x1431>
    3a79:	8b 85 08 fd ff ff    	mov    -0x2f8(%rbp),%eax
    3a7f:	66 0f 6e c0          	movd   %eax,%xmm0
    3a83:	e8 b9 eb ff ff       	call   2641 <_ZL11bswap_floatf>
    3a88:	66 0f 7e c0          	movd   %xmm0,%eax
    3a8c:	89 85 08 fd ff ff    	mov    %eax,-0x2f8(%rbp)
    3a92:	8b 85 0c fd ff ff    	mov    -0x2f4(%rbp),%eax
    3a98:	66 0f 6e c0          	movd   %eax,%xmm0
    3a9c:	e8 a0 eb ff ff       	call   2641 <_ZL11bswap_floatf>
    3aa1:	66 0f 7e c0          	movd   %xmm0,%eax
    3aa5:	89 85 0c fd ff ff    	mov    %eax,-0x2f4(%rbp)
    3aab:	8b 85 10 fd ff ff    	mov    -0x2f0(%rbp),%eax
    3ab1:	66 0f 6e c0          	movd   %eax,%xmm0
    3ab5:	e8 87 eb ff ff       	call   2641 <_ZL11bswap_floatf>
    3aba:	66 0f 7e c0          	movd   %xmm0,%eax
    3abe:	89 85 10 fd ff ff    	mov    %eax,-0x2f0(%rbp)
    3ac4:	8b 85 14 fd ff ff    	mov    -0x2ec(%rbp),%eax
    3aca:	66 0f 6e c0          	movd   %eax,%xmm0
    3ace:	e8 6e eb ff ff       	call   2641 <_ZL11bswap_floatf>
    3ad3:	66 0f 7e c0          	movd   %xmm0,%eax
    3ad7:	89 85 14 fd ff ff    	mov    %eax,-0x2ec(%rbp)
    3add:	8b 85 18 fd ff ff    	mov    -0x2e8(%rbp),%eax
    3ae3:	66 0f 6e c0          	movd   %eax,%xmm0
    3ae7:	e8 55 eb ff ff       	call   2641 <_ZL11bswap_floatf>
    3aec:	66 0f 7e c0          	movd   %xmm0,%eax
    3af0:	89 85 18 fd ff ff    	mov    %eax,-0x2e8(%rbp)
    3af6:	8b 85 1c fd ff ff    	mov    -0x2e4(%rbp),%eax
    3afc:	66 0f 6e c0          	movd   %eax,%xmm0
    3b00:	e8 3c eb ff ff       	call   2641 <_ZL11bswap_floatf>
    3b05:	66 0f 7e c0          	movd   %xmm0,%eax
    3b09:	89 85 1c fd ff ff    	mov    %eax,-0x2e4(%rbp)
    3b0f:	8b 85 20 fd ff ff    	mov    -0x2e0(%rbp),%eax
    3b15:	66 0f 6e c0          	movd   %eax,%xmm0
    3b19:	e8 23 eb ff ff       	call   2641 <_ZL11bswap_floatf>
    3b1e:	66 0f 7e c0          	movd   %xmm0,%eax
    3b22:	89 85 20 fd ff ff    	mov    %eax,-0x2e0(%rbp)
    3b28:	8b 85 24 fd ff ff    	mov    -0x2dc(%rbp),%eax
    3b2e:	66 0f 6e c0          	movd   %eax,%xmm0
    3b32:	e8 0a eb ff ff       	call   2641 <_ZL11bswap_floatf>
    3b37:	66 0f 7e c0          	movd   %xmm0,%eax
    3b3b:	89 85 24 fd ff ff    	mov    %eax,-0x2dc(%rbp)
    3b41:	8b 85 28 fd ff ff    	mov    -0x2d8(%rbp),%eax
    3b47:	66 0f 6e c0          	movd   %eax,%xmm0
    3b4b:	e8 f1 ea ff ff       	call   2641 <_ZL11bswap_floatf>
    3b50:	66 0f 7e c0          	movd   %xmm0,%eax
    3b54:	89 85 28 fd ff ff    	mov    %eax,-0x2d8(%rbp)
    3b5a:	f3 0f 10 85 08 fd ff 	movss  -0x2f8(%rbp),%xmm0
    3b61:	ff 
    3b62:	f3 0f 10 0d 96 98 00 	movss  0x9896(%rip),%xmm1        # d400 <_ZL9domainMin>
    3b69:	00 
    3b6a:	f3 0f 5c c1          	subss  %xmm1,%xmm0
    3b6e:	f3 0f 10 0d 5a 97 00 	movss  0x975a(%rip),%xmm1        # d2d0 <delta>
    3b75:	00 
    3b76:	f3 0f 5e c1          	divss  %xmm1,%xmm0
    3b7a:	f3 0f 2c c0          	cvttss2si %xmm0,%eax
    3b7e:	89 85 80 fd ff ff    	mov    %eax,-0x280(%rbp)
    3b84:	f3 0f 10 85 0c fd ff 	movss  -0x2f4(%rbp),%xmm0
    3b8b:	ff 
    3b8c:	f3 0f 10 0d 70 98 00 	movss  0x9870(%rip),%xmm1        # d404 <_ZL9domainMin+0x4>
    3b93:	00 
    3b94:	f3 0f 5c c1          	subss  %xmm1,%xmm0
    3b98:	f3 0f 10 0d 34 97 00 	movss  0x9734(%rip),%xmm1        # d2d4 <delta+0x4>
    3b9f:	00 
    3ba0:	f3 0f 5e c1          	divss  %xmm1,%xmm0
    3ba4:	f3 0f 2c c0          	cvttss2si %xmm0,%eax
    3ba8:	89 85 84 fd ff ff    	mov    %eax,-0x27c(%rbp)
    3bae:	f3 0f 10 85 10 fd ff 	movss  -0x2f0(%rbp),%xmm0
    3bb5:	ff 
    3bb6:	f3 0f 10 0d 4a 98 00 	movss  0x984a(%rip),%xmm1        # d408 <_ZL9domainMin+0x8>
    3bbd:	00 
    3bbe:	f3 0f 5c c1          	subss  %xmm1,%xmm0
    3bc2:	f3 0f 10 0d 0e 97 00 	movss  0x970e(%rip),%xmm1        # d2d8 <delta+0x8>
    3bc9:	00 
    3bca:	f3 0f 5e c1          	divss  %xmm1,%xmm0
    3bce:	f3 0f 2c c0          	cvttss2si %xmm0,%eax
    3bd2:	89 85 88 fd ff ff    	mov    %eax,-0x278(%rbp)
    3bd8:	83 bd 80 fd ff ff 00 	cmpl   $0x0,-0x280(%rbp)
    3bdf:	79 0c                	jns    3bed <_Z7InitSimPKcj+0x14c4>
    3be1:	c7 85 80 fd ff ff 00 	movl   $0x0,-0x280(%rbp)
    3be8:	00 00 00 
    3beb:	eb 1d                	jmp    3c0a <_Z7InitSimPKcj+0x14e1>
    3bed:	8b 05 cd 96 00 00    	mov    0x96cd(%rip),%eax        # d2c0 <nx>
    3bf3:	39 85 80 fd ff ff    	cmp    %eax,-0x280(%rbp)
    3bf9:	7c 0f                	jl     3c0a <_Z7InitSimPKcj+0x14e1>
    3bfb:	8b 05 bf 96 00 00    	mov    0x96bf(%rip),%eax        # d2c0 <nx>
    3c01:	83 e8 01             	sub    $0x1,%eax
    3c04:	89 85 80 fd ff ff    	mov    %eax,-0x280(%rbp)
    3c0a:	83 bd 84 fd ff ff 00 	cmpl   $0x0,-0x27c(%rbp)
    3c11:	79 0c                	jns    3c1f <_Z7InitSimPKcj+0x14f6>
    3c13:	c7 85 84 fd ff ff 00 	movl   $0x0,-0x27c(%rbp)
    3c1a:	00 00 00 
    3c1d:	eb 1d                	jmp    3c3c <_Z7InitSimPKcj+0x1513>
    3c1f:	8b 05 9f 96 00 00    	mov    0x969f(%rip),%eax        # d2c4 <ny>
    3c25:	39 85 84 fd ff ff    	cmp    %eax,-0x27c(%rbp)
    3c2b:	7c 0f                	jl     3c3c <_Z7InitSimPKcj+0x1513>
    3c2d:	8b 05 91 96 00 00    	mov    0x9691(%rip),%eax        # d2c4 <ny>
    3c33:	83 e8 01             	sub    $0x1,%eax
    3c36:	89 85 84 fd ff ff    	mov    %eax,-0x27c(%rbp)
    3c3c:	83 bd 88 fd ff ff 00 	cmpl   $0x0,-0x278(%rbp)
    3c43:	79 0c                	jns    3c51 <_Z7InitSimPKcj+0x1528>
    3c45:	c7 85 88 fd ff ff 00 	movl   $0x0,-0x278(%rbp)
    3c4c:	00 00 00 
    3c4f:	eb 1d                	jmp    3c6e <_Z7InitSimPKcj+0x1545>
    3c51:	8b 05 71 96 00 00    	mov    0x9671(%rip),%eax        # d2c8 <nz>
    3c57:	39 85 88 fd ff ff    	cmp    %eax,-0x278(%rbp)
    3c5d:	7c 0f                	jl     3c6e <_Z7InitSimPKcj+0x1545>
    3c5f:	8b 05 63 96 00 00    	mov    0x9663(%rip),%eax        # d2c8 <nz>
    3c65:	83 e8 01             	sub    $0x1,%eax
    3c68:	89 85 88 fd ff ff    	mov    %eax,-0x278(%rbp)
    3c6e:	8b 05 50 96 00 00    	mov    0x9650(%rip),%eax        # d2c4 <ny>
    3c74:	0f af 85 88 fd ff ff 	imul   -0x278(%rbp),%eax
    3c7b:	89 c2                	mov    %eax,%edx
    3c7d:	8b 85 84 fd ff ff    	mov    -0x27c(%rbp),%eax
    3c83:	01 c2                	add    %eax,%edx
    3c85:	8b 05 35 96 00 00    	mov    0x9635(%rip),%eax        # d2c0 <nx>
    3c8b:	0f af d0             	imul   %eax,%edx
    3c8e:	8b 85 80 fd ff ff    	mov    -0x280(%rbp),%eax
    3c94:	01 d0                	add    %edx,%eax
    3c96:	89 85 b4 fd ff ff    	mov    %eax,-0x24c(%rbp)
    3c9c:	48 8b 0d 45 96 00 00 	mov    0x9645(%rip),%rcx        # d2e8 <cells>
    3ca3:	8b 85 b4 fd ff ff    	mov    -0x24c(%rbp),%eax
    3ca9:	48 63 d0             	movslq %eax,%rdx
    3cac:	48 89 d0             	mov    %rdx,%rax
    3caf:	48 c1 e0 03          	shl    $0x3,%rax
    3cb3:	48 29 d0             	sub    %rdx,%rax
    3cb6:	48 c1 e0 07          	shl    $0x7,%rax
    3cba:	48 01 c8             	add    %rcx,%rax
    3cbd:	48 89 85 c8 fd ff ff 	mov    %rax,-0x238(%rbp)
    3cc4:	48 8b 15 2d 96 00 00 	mov    0x962d(%rip),%rdx        # d2f8 <cnumPars>
    3ccb:	8b 85 b4 fd ff ff    	mov    -0x24c(%rbp),%eax
    3cd1:	48 98                	cltq   
    3cd3:	48 c1 e0 02          	shl    $0x2,%rax
    3cd7:	48 01 d0             	add    %rdx,%rax
    3cda:	8b 00                	mov    (%rax),%eax
    3cdc:	89 85 8c fd ff ff    	mov    %eax,-0x274(%rbp)
    3ce2:	eb 1c                	jmp    3d00 <_Z7InitSimPKcj+0x15d7>
    3ce4:	48 8b 85 c8 fd ff ff 	mov    -0x238(%rbp),%rax
    3ceb:	48 8b 80 40 03 00 00 	mov    0x340(%rax),%rax
    3cf2:	48 89 85 c8 fd ff ff 	mov    %rax,-0x238(%rbp)
    3cf9:	83 ad 8c fd ff ff 10 	subl   $0x10,-0x274(%rbp)
    3d00:	83 bd 8c fd ff ff 10 	cmpl   $0x10,-0x274(%rbp)
    3d07:	7f db                	jg     3ce4 <_Z7InitSimPKcj+0x15bb>
    3d09:	8b 85 8c fd ff ff    	mov    -0x274(%rbp),%eax
    3d0f:	83 e0 0f             	and    $0xf,%eax
    3d12:	85 c0                	test   %eax,%eax
    3d14:	0f 85 8f 00 00 00    	jne    3da9 <_Z7InitSimPKcj+0x1680>
    3d1a:	48 8b 15 d7 95 00 00 	mov    0x95d7(%rip),%rdx        # d2f8 <cnumPars>
    3d21:	8b 85 b4 fd ff ff    	mov    -0x24c(%rbp),%eax
    3d27:	48 98                	cltq   
    3d29:	48 c1 e0 02          	shl    $0x2,%rax
    3d2d:	48 01 d0             	add    %rdx,%rax
    3d30:	8b 00                	mov    (%rax),%eax
    3d32:	85 c0                	test   %eax,%eax
    3d34:	74 73                	je     3da9 <_Z7InitSimPKcj+0x1680>
    3d36:	48 8b 0d 63 95 00 00 	mov    0x9563(%rip),%rcx        # d2a0 <pools>
    3d3d:	8b 85 78 fd ff ff    	mov    -0x288(%rbp),%eax
    3d43:	48 63 d0             	movslq %eax,%rdx
    3d46:	48 89 d0             	mov    %rdx,%rax
    3d49:	48 01 c0             	add    %rax,%rax
    3d4c:	48 01 d0             	add    %rdx,%rax
    3d4f:	48 c1 e0 03          	shl    $0x3,%rax
    3d53:	48 01 c8             	add    %rcx,%rax
    3d56:	48 89 c7             	mov    %rax,%rdi
    3d59:	e8 3e 4b 00 00       	call   889c <_Z16cellpool_getcellP8cellpool>
    3d5e:	48 8b 95 c8 fd ff ff 	mov    -0x238(%rbp),%rdx
    3d65:	48 89 82 40 03 00 00 	mov    %rax,0x340(%rdx)
    3d6c:	8b 85 78 fd ff ff    	mov    -0x288(%rbp),%eax
    3d72:	83 c0 01             	add    $0x1,%eax
    3d75:	8b 0d 99 92 00 00    	mov    0x9299(%rip),%ecx        # d014 <XDIVS>
    3d7b:	8b 15 97 92 00 00    	mov    0x9297(%rip),%edx        # d018 <ZDIVS>
    3d81:	0f af ca             	imul   %edx,%ecx
    3d84:	99                   	cltd   
    3d85:	f7 f9                	idiv   %ecx
    3d87:	89 95 78 fd ff ff    	mov    %edx,-0x288(%rbp)
    3d8d:	48 8b 85 c8 fd ff ff 	mov    -0x238(%rbp),%rax
    3d94:	48 8b 80 40 03 00 00 	mov    0x340(%rax),%rax
    3d9b:	48 89 85 c8 fd ff ff 	mov    %rax,-0x238(%rbp)
    3da2:	83 ad 8c fd ff ff 10 	subl   $0x10,-0x274(%rbp)
    3da9:	f3 0f 10 85 08 fd ff 	movss  -0x2f8(%rbp),%xmm0
    3db0:	ff 
    3db1:	48 8b 8d c8 fd ff ff 	mov    -0x238(%rbp),%rcx
    3db8:	8b 85 8c fd ff ff    	mov    -0x274(%rbp),%eax
    3dbe:	48 63 d0             	movslq %eax,%rdx
    3dc1:	48 89 d0             	mov    %rdx,%rax
    3dc4:	48 01 c0             	add    %rax,%rax
    3dc7:	48 01 d0             	add    %rdx,%rax
    3dca:	48 c1 e0 02          	shl    $0x2,%rax
    3dce:	48 01 c8             	add    %rcx,%rax
    3dd1:	f3 0f 11 00          	movss  %xmm0,(%rax)
    3dd5:	f3 0f 10 85 0c fd ff 	movss  -0x2f4(%rbp),%xmm0
    3ddc:	ff 
    3ddd:	48 8b 8d c8 fd ff ff 	mov    -0x238(%rbp),%rcx
    3de4:	8b 85 8c fd ff ff    	mov    -0x274(%rbp),%eax
    3dea:	48 63 d0             	movslq %eax,%rdx
    3ded:	48 89 d0             	mov    %rdx,%rax
    3df0:	48 01 c0             	add    %rax,%rax
    3df3:	48 01 d0             	add    %rdx,%rax
    3df6:	48 c1 e0 02          	shl    $0x2,%rax
    3dfa:	48 01 c8             	add    %rcx,%rax
    3dfd:	48 83 c0 04          	add    $0x4,%rax
    3e01:	f3 0f 11 00          	movss  %xmm0,(%rax)
    3e05:	f3 0f 10 85 10 fd ff 	movss  -0x2f0(%rbp),%xmm0
    3e0c:	ff 
    3e0d:	48 8b 8d c8 fd ff ff 	mov    -0x238(%rbp),%rcx
    3e14:	8b 85 8c fd ff ff    	mov    -0x274(%rbp),%eax
    3e1a:	48 63 d0             	movslq %eax,%rdx
    3e1d:	48 89 d0             	mov    %rdx,%rax
    3e20:	48 01 c0             	add    %rax,%rax
    3e23:	48 01 d0             	add    %rdx,%rax
    3e26:	48 c1 e0 02          	shl    $0x2,%rax
    3e2a:	48 01 c8             	add    %rcx,%rax
    3e2d:	48 83 c0 08          	add    $0x8,%rax
    3e31:	f3 0f 11 00          	movss  %xmm0,(%rax)
    3e35:	f3 0f 10 85 14 fd ff 	movss  -0x2ec(%rbp),%xmm0
    3e3c:	ff 
    3e3d:	48 8b 8d c8 fd ff ff 	mov    -0x238(%rbp),%rcx
    3e44:	8b 85 8c fd ff ff    	mov    -0x274(%rbp),%eax
    3e4a:	48 63 d0             	movslq %eax,%rdx
    3e4d:	48 89 d0             	mov    %rdx,%rax
    3e50:	48 01 c0             	add    %rax,%rax
    3e53:	48 01 d0             	add    %rdx,%rax
    3e56:	48 c1 e0 02          	shl    $0x2,%rax
    3e5a:	48 01 c8             	add    %rcx,%rax
    3e5d:	48 05 c0 00 00 00    	add    $0xc0,%rax
    3e63:	f3 0f 11 00          	movss  %xmm0,(%rax)
    3e67:	f3 0f 10 85 18 fd ff 	movss  -0x2e8(%rbp),%xmm0
    3e6e:	ff 
    3e6f:	48 8b 8d c8 fd ff ff 	mov    -0x238(%rbp),%rcx
    3e76:	8b 85 8c fd ff ff    	mov    -0x274(%rbp),%eax
    3e7c:	48 63 d0             	movslq %eax,%rdx
    3e7f:	48 89 d0             	mov    %rdx,%rax
    3e82:	48 01 c0             	add    %rax,%rax
    3e85:	48 01 d0             	add    %rdx,%rax
    3e88:	48 c1 e0 02          	shl    $0x2,%rax
    3e8c:	48 01 c8             	add    %rcx,%rax
    3e8f:	48 05 c4 00 00 00    	add    $0xc4,%rax
    3e95:	f3 0f 11 00          	movss  %xmm0,(%rax)
    3e99:	f3 0f 10 85 1c fd ff 	movss  -0x2e4(%rbp),%xmm0
    3ea0:	ff 
    3ea1:	48 8b 8d c8 fd ff ff 	mov    -0x238(%rbp),%rcx
    3ea8:	8b 85 8c fd ff ff    	mov    -0x274(%rbp),%eax
    3eae:	48 63 d0             	movslq %eax,%rdx
    3eb1:	48 89 d0             	mov    %rdx,%rax
    3eb4:	48 01 c0             	add    %rax,%rax
    3eb7:	48 01 d0             	add    %rdx,%rax
    3eba:	48 c1 e0 02          	shl    $0x2,%rax
    3ebe:	48 01 c8             	add    %rcx,%rax
    3ec1:	48 05 c8 00 00 00    	add    $0xc8,%rax
    3ec7:	f3 0f 11 00          	movss  %xmm0,(%rax)
    3ecb:	f3 0f 10 85 20 fd ff 	movss  -0x2e0(%rbp),%xmm0
    3ed2:	ff 
    3ed3:	48 8b 8d c8 fd ff ff 	mov    -0x238(%rbp),%rcx
    3eda:	8b 85 8c fd ff ff    	mov    -0x274(%rbp),%eax
    3ee0:	48 63 d0             	movslq %eax,%rdx
    3ee3:	48 89 d0             	mov    %rdx,%rax
    3ee6:	48 01 c0             	add    %rax,%rax
    3ee9:	48 01 d0             	add    %rdx,%rax
    3eec:	48 c1 e0 02          	shl    $0x2,%rax
    3ef0:	48 01 c8             	add    %rcx,%rax
    3ef3:	48 05 80 01 00 00    	add    $0x180,%rax
    3ef9:	f3 0f 11 00          	movss  %xmm0,(%rax)
    3efd:	f3 0f 10 85 24 fd ff 	movss  -0x2dc(%rbp),%xmm0
    3f04:	ff 
    3f05:	48 8b 8d c8 fd ff ff 	mov    -0x238(%rbp),%rcx
    3f0c:	8b 85 8c fd ff ff    	mov    -0x274(%rbp),%eax
    3f12:	48 63 d0             	movslq %eax,%rdx
    3f15:	48 89 d0             	mov    %rdx,%rax
    3f18:	48 01 c0             	add    %rax,%rax
    3f1b:	48 01 d0             	add    %rdx,%rax
    3f1e:	48 c1 e0 02          	shl    $0x2,%rax
    3f22:	48 01 c8             	add    %rcx,%rax
    3f25:	48 05 84 01 00 00    	add    $0x184,%rax
    3f2b:	f3 0f 11 00          	movss  %xmm0,(%rax)
    3f2f:	f3 0f 10 85 28 fd ff 	movss  -0x2d8(%rbp),%xmm0
    3f36:	ff 
    3f37:	48 8b 8d c8 fd ff ff 	mov    -0x238(%rbp),%rcx
    3f3e:	8b 85 8c fd ff ff    	mov    -0x274(%rbp),%eax
    3f44:	48 63 d0             	movslq %eax,%rdx
    3f47:	48 89 d0             	mov    %rdx,%rax
    3f4a:	48 01 c0             	add    %rax,%rax
    3f4d:	48 01 d0             	add    %rdx,%rax
    3f50:	48 c1 e0 02          	shl    $0x2,%rax
    3f54:	48 01 c8             	add    %rcx,%rax
    3f57:	48 05 88 01 00 00    	add    $0x188,%rax
    3f5d:	f3 0f 11 00          	movss  %xmm0,(%rax)
    3f61:	48 8b 15 90 93 00 00 	mov    0x9390(%rip),%rdx        # d2f8 <cnumPars>
    3f68:	8b 85 b4 fd ff ff    	mov    -0x24c(%rbp),%eax
    3f6e:	48 98                	cltq   
    3f70:	48 c1 e0 02          	shl    $0x2,%rax
    3f74:	48 01 d0             	add    %rdx,%rax
    3f77:	8b 10                	mov    (%rax),%edx
    3f79:	83 c2 01             	add    $0x1,%edx
    3f7c:	89 10                	mov    %edx,(%rax)
    3f7e:	83 85 7c fd ff ff 01 	addl   $0x1,-0x284(%rbp)
    3f85:	8b 05 51 93 00 00    	mov    0x9351(%rip),%eax        # d2dc <numParticles>
    3f8b:	39 85 7c fd ff ff    	cmp    %eax,-0x284(%rbp)
    3f91:	0f 8c c2 f9 ff ff    	jl     3959 <_Z7InitSimPKcj+0x1230>
    3f97:	48 8d 05 4b 62 00 00 	lea    0x624b(%rip),%rax        # a1e9 <_ZL22PARSEC_PROCESS_PRIVATE+0x1a9>
    3f9e:	48 89 c6             	mov    %rax,%rsi
    3fa1:	48 8d 05 98 90 00 00 	lea    0x9098(%rip),%rax        # d040 <_ZSt4cout@GLIBCXX_3.4>
    3fa8:	48 89 c7             	mov    %rax,%rdi
    3fab:	e8 d0 e3 ff ff       	call   2380 <_ZStlsISt11char_traitsIcEERSt13basic_ostreamIcT_ES5_PKc@plt>
    3fb0:	48 89 c2             	mov    %rax,%rdx
    3fb3:	8b 05 23 93 00 00    	mov    0x9323(%rip),%eax        # d2dc <numParticles>
    3fb9:	89 c6                	mov    %eax,%esi
    3fbb:	48 89 d7             	mov    %rdx,%rdi
    3fbe:	e8 2d e5 ff ff       	call   24f0 <_ZNSolsEi@plt>
    3fc3:	48 8b 15 fe 8f 00 00 	mov    0x8ffe(%rip),%rdx        # cfc8 <_ZSt4endlIcSt11char_traitsIcEERSt13basic_ostreamIT_T0_ES6_@GLIBCXX_3.4>
    3fca:	48 89 d6             	mov    %rdx,%rsi
    3fcd:	48 89 c7             	mov    %rax,%rdi
    3fd0:	e8 bb e3 ff ff       	call   2390 <_ZNSolsEPFRSoS_E@plt>
    3fd5:	48 8d 85 e0 fd ff ff 	lea    -0x220(%rbp),%rax
    3fdc:	48 89 c7             	mov    %rax,%rdi
    3fdf:	e8 fc e2 ff ff       	call   22e0 <_ZNSt14basic_ifstreamIcSt11char_traitsIcEED1Ev@plt>
    3fe4:	48 8b 45 e8          	mov    -0x18(%rbp),%rax
    3fe8:	64 48 2b 04 25 28 00 	sub    %fs:0x28,%rax
    3fef:	00 00 
    3ff1:	74 05                	je     3ff8 <_Z7InitSimPKcj+0x18cf>
    3ff3:	e8 b8 e3 ff ff       	call   23b0 <__stack_chk_fail@plt>
    3ff8:	48 8b 5d f8          	mov    -0x8(%rbp),%rbx
    3ffc:	c9                   	leave  
    3ffd:	c3                   	ret    

0000000000003ffe <_Z8SaveFilePKc>:
    3ffe:	f3 0f 1e fa          	endbr64 
    4002:	55                   	push   %rbp
    4003:	48 89 e5             	mov    %rsp,%rbp
    4006:	48 81 ec 60 02 00 00 	sub    $0x260,%rsp
    400d:	48 89 bd a8 fd ff ff 	mov    %rdi,-0x258(%rbp)
    4014:	64 48 8b 04 25 28 00 	mov    %fs:0x28,%rax
    401b:	00 00 
    401d:	48 89 45 f8          	mov    %rax,-0x8(%rbp)
    4021:	31 c0                	xor    %eax,%eax
    4023:	48 8d 05 d5 61 00 00 	lea    0x61d5(%rip),%rax        # a1ff <_ZL22PARSEC_PROCESS_PRIVATE+0x1bf>
    402a:	48 89 c6             	mov    %rax,%rsi
    402d:	48 8d 05 0c 90 00 00 	lea    0x900c(%rip),%rax        # d040 <_ZSt4cout@GLIBCXX_3.4>
    4034:	48 89 c7             	mov    %rax,%rdi
    4037:	e8 44 e3 ff ff       	call   2380 <_ZStlsISt11char_traitsIcEERSt13basic_ostreamIcT_ES5_PKc@plt>
    403c:	48 89 c2             	mov    %rax,%rdx
    403f:	48 8b 85 a8 fd ff ff 	mov    -0x258(%rbp),%rax
    4046:	48 89 c6             	mov    %rax,%rsi
    4049:	48 89 d7             	mov    %rdx,%rdi
    404c:	e8 2f e3 ff ff       	call   2380 <_ZStlsISt11char_traitsIcEERSt13basic_ostreamIcT_ES5_PKc@plt>
    4051:	48 89 c2             	mov    %rax,%rdx
    4054:	48 8d 05 74 60 00 00 	lea    0x6074(%rip),%rax        # a0cf <_ZL22PARSEC_PROCESS_PRIVATE+0x8f>
    405b:	48 89 c6             	mov    %rax,%rsi
    405e:	48 89 d7             	mov    %rdx,%rdi
    4061:	e8 1a e3 ff ff       	call   2380 <_ZStlsISt11char_traitsIcEERSt13basic_ostreamIcT_ES5_PKc@plt>
    4066:	48 8b 15 5b 8f 00 00 	mov    0x8f5b(%rip),%rdx        # cfc8 <_ZSt4endlIcSt11char_traitsIcEERSt13basic_ostreamIT_T0_ES6_@GLIBCXX_3.4>
    406d:	48 89 d6             	mov    %rdx,%rsi
    4070:	48 89 c7             	mov    %rax,%rdi
    4073:	e8 18 e3 ff ff       	call   2390 <_ZNSolsEPFRSoS_E@plt>
    4078:	48 8b 8d a8 fd ff ff 	mov    -0x258(%rbp),%rcx
    407f:	48 8d 85 f0 fd ff ff 	lea    -0x210(%rbp),%rax
    4086:	ba 04 00 00 00       	mov    $0x4,%edx
    408b:	48 89 ce             	mov    %rcx,%rsi
    408e:	48 89 c7             	mov    %rax,%rdi
    4091:	e8 0a e3 ff ff       	call   23a0 <_ZNSt14basic_ofstreamIcSt11char_traitsIcEEC1EPKcSt13_Ios_Openmode@plt>
    4096:	48 8d 85 f0 fd ff ff 	lea    -0x210(%rbp),%rax
    409d:	48 05 f8 00 00 00    	add    $0xf8,%rax
    40a3:	48 89 c7             	mov    %rax,%rdi
    40a6:	e8 65 e3 ff ff       	call   2410 <_ZNKSt9basic_iosIcSt11char_traitsIcEEcvbEv@plt>
    40ab:	84 c0                	test   %al,%al
    40ad:	75 28                	jne    40d7 <_Z8SaveFilePKc+0xd9>
    40af:	48 8d 05 57 61 00 00 	lea    0x6157(%rip),%rax        # a20d <_ZL22PARSEC_PROCESS_PRIVATE+0x1cd>
    40b6:	48 89 c1             	mov    %rax,%rcx
    40b9:	ba 8c 01 00 00       	mov    $0x18c,%edx
    40be:	48 8d 05 d3 5f 00 00 	lea    0x5fd3(%rip),%rax        # a098 <_ZL22PARSEC_PROCESS_PRIVATE+0x58>
    40c5:	48 89 c6             	mov    %rax,%rsi
    40c8:	48 8d 05 59 61 00 00 	lea    0x6159(%rip),%rax        # a228 <_ZL22PARSEC_PROCESS_PRIVATE+0x1e8>
    40cf:	48 89 c7             	mov    %rax,%rdi
    40d2:	e8 59 e2 ff ff       	call   2330 <__assert_fail@plt>
    40d7:	e8 4d e5 ff ff       	call   2629 <_ZL14isLittleEndianv>
    40dc:	85 c0                	test   %eax,%eax
    40de:	0f 94 c0             	sete   %al
    40e1:	84 c0                	test   %al,%al
    40e3:	74 6a                	je     414f <_Z8SaveFilePKc+0x151>
    40e5:	8b 05 bd 91 00 00    	mov    0x91bd(%rip),%eax        # d2a8 <restParticlesPerMeter>
    40eb:	66 0f 6e c0          	movd   %eax,%xmm0
    40ef:	e8 4d e5 ff ff       	call   2641 <_ZL11bswap_floatf>
    40f4:	66 0f 7e c0          	movd   %xmm0,%eax
    40f8:	89 85 d0 fd ff ff    	mov    %eax,-0x230(%rbp)
    40fe:	8b 05 d8 91 00 00    	mov    0x91d8(%rip),%eax        # d2dc <numParticles>
    4104:	89 c7                	mov    %eax,%edi
    4106:	e8 7d e5 ff ff       	call   2688 <_ZL11bswap_int32i>
    410b:	89 85 d4 fd ff ff    	mov    %eax,-0x22c(%rbp)
    4111:	48 8d 8d d0 fd ff ff 	lea    -0x230(%rbp),%rcx
    4118:	48 8d 85 f0 fd ff ff 	lea    -0x210(%rbp),%rax
    411f:	ba 04 00 00 00       	mov    $0x4,%edx
    4124:	48 89 ce             	mov    %rcx,%rsi
    4127:	48 89 c7             	mov    %rax,%rdi
    412a:	e8 11 e3 ff ff       	call   2440 <_ZNSo5writeEPKcl@plt>
    412f:	48 8d 8d d4 fd ff ff 	lea    -0x22c(%rbp),%rcx
    4136:	48 8d 85 f0 fd ff ff 	lea    -0x210(%rbp),%rax
    413d:	ba 04 00 00 00       	mov    $0x4,%edx
    4142:	48 89 ce             	mov    %rcx,%rsi
    4145:	48 89 c7             	mov    %rax,%rdi
    4148:	e8 f3 e2 ff ff       	call   2440 <_ZNSo5writeEPKcl@plt>
    414d:	eb 3c                	jmp    418b <_Z8SaveFilePKc+0x18d>
    414f:	48 8d 85 f0 fd ff ff 	lea    -0x210(%rbp),%rax
    4156:	ba 04 00 00 00       	mov    $0x4,%edx
    415b:	48 8d 0d 46 91 00 00 	lea    0x9146(%rip),%rcx        # d2a8 <restParticlesPerMeter>
    4162:	48 89 ce             	mov    %rcx,%rsi
    4165:	48 89 c7             	mov    %rax,%rdi
    4168:	e8 d3 e2 ff ff       	call   2440 <_ZNSo5writeEPKcl@plt>
    416d:	48 8d 85 f0 fd ff ff 	lea    -0x210(%rbp),%rax
    4174:	ba 04 00 00 00       	mov    $0x4,%edx
    4179:	48 8d 0d 5c 91 00 00 	lea    0x915c(%rip),%rcx        # d2dc <numParticles>
    4180:	48 89 ce             	mov    %rcx,%rsi
    4183:	48 89 c7             	mov    %rax,%rdi
    4186:	e8 b5 e2 ff ff       	call   2440 <_ZNSo5writeEPKcl@plt>
    418b:	c7 85 d8 fd ff ff 00 	movl   $0x0,-0x228(%rbp)
    4192:	00 00 00 
    4195:	c7 85 dc fd ff ff 00 	movl   $0x0,-0x224(%rbp)
    419c:	00 00 00 
    419f:	e9 53 06 00 00       	jmp    47f7 <_Z8SaveFilePKc+0x7f9>
    41a4:	48 8b 0d 3d 91 00 00 	mov    0x913d(%rip),%rcx        # d2e8 <cells>
    41ab:	8b 85 dc fd ff ff    	mov    -0x224(%rbp),%eax
    41b1:	48 63 d0             	movslq %eax,%rdx
    41b4:	48 89 d0             	mov    %rdx,%rax
    41b7:	48 c1 e0 03          	shl    $0x3,%rax
    41bb:	48 29 d0             	sub    %rdx,%rax
    41be:	48 c1 e0 07          	shl    $0x7,%rax
    41c2:	48 01 c8             	add    %rcx,%rax
    41c5:	48 89 85 e8 fd ff ff 	mov    %rax,-0x218(%rbp)
    41cc:	48 8b 15 25 91 00 00 	mov    0x9125(%rip),%rdx        # d2f8 <cnumPars>
    41d3:	8b 85 dc fd ff ff    	mov    -0x224(%rbp),%eax
    41d9:	48 98                	cltq   
    41db:	48 c1 e0 02          	shl    $0x2,%rax
    41df:	48 01 d0             	add    %rdx,%rax
    41e2:	8b 00                	mov    (%rax),%eax
    41e4:	89 85 e4 fd ff ff    	mov    %eax,-0x21c(%rbp)
    41ea:	c7 85 e0 fd ff ff 00 	movl   $0x0,-0x220(%rbp)
    41f1:	00 00 00 
    41f4:	e9 e5 05 00 00       	jmp    47de <_Z8SaveFilePKc+0x7e0>
    41f9:	e8 2b e4 ff ff       	call   2629 <_ZL14isLittleEndianv>
    41fe:	85 c0                	test   %eax,%eax
    4200:	0f 94 c0             	sete   %al
    4203:	84 c0                	test   %al,%al
    4205:	0f 84 71 02 00 00    	je     447c <_Z8SaveFilePKc+0x47e>
    420b:	8b 85 e0 fd ff ff    	mov    -0x220(%rbp),%eax
    4211:	99                   	cltd   
    4212:	c1 ea 1c             	shr    $0x1c,%edx
    4215:	01 d0                	add    %edx,%eax
    4217:	83 e0 0f             	and    $0xf,%eax
    421a:	29 d0                	sub    %edx,%eax
    421c:	48 8b 8d e8 fd ff ff 	mov    -0x218(%rbp),%rcx
    4223:	48 63 d0             	movslq %eax,%rdx
    4226:	48 89 d0             	mov    %rdx,%rax
    4229:	48 01 c0             	add    %rax,%rax
    422c:	48 01 d0             	add    %rdx,%rax
    422f:	48 c1 e0 02          	shl    $0x2,%rax
    4233:	48 01 c8             	add    %rcx,%rax
    4236:	8b 00                	mov    (%rax),%eax
    4238:	66 0f 6e c0          	movd   %eax,%xmm0
    423c:	e8 00 e4 ff ff       	call   2641 <_ZL11bswap_floatf>
    4241:	66 0f 7e c0          	movd   %xmm0,%eax
    4245:	89 85 b4 fd ff ff    	mov    %eax,-0x24c(%rbp)
    424b:	8b 85 e0 fd ff ff    	mov    -0x220(%rbp),%eax
    4251:	99                   	cltd   
    4252:	c1 ea 1c             	shr    $0x1c,%edx
    4255:	01 d0                	add    %edx,%eax
    4257:	83 e0 0f             	and    $0xf,%eax
    425a:	29 d0                	sub    %edx,%eax
    425c:	48 8b 8d e8 fd ff ff 	mov    -0x218(%rbp),%rcx
    4263:	48 63 d0             	movslq %eax,%rdx
    4266:	48 89 d0             	mov    %rdx,%rax
    4269:	48 01 c0             	add    %rax,%rax
    426c:	48 01 d0             	add    %rdx,%rax
    426f:	48 c1 e0 02          	shl    $0x2,%rax
    4273:	48 01 c8             	add    %rcx,%rax
    4276:	48 83 c0 04          	add    $0x4,%rax
    427a:	8b 00                	mov    (%rax),%eax
    427c:	66 0f 6e c0          	movd   %eax,%xmm0
    4280:	e8 bc e3 ff ff       	call   2641 <_ZL11bswap_floatf>
    4285:	66 0f 7e c0          	movd   %xmm0,%eax
    4289:	89 85 b8 fd ff ff    	mov    %eax,-0x248(%rbp)
    428f:	8b 85 e0 fd ff ff    	mov    -0x220(%rbp),%eax
    4295:	99                   	cltd   
    4296:	c1 ea 1c             	shr    $0x1c,%edx
    4299:	01 d0                	add    %edx,%eax
    429b:	83 e0 0f             	and    $0xf,%eax
    429e:	29 d0                	sub    %edx,%eax
    42a0:	48 8b 8d e8 fd ff ff 	mov    -0x218(%rbp),%rcx
    42a7:	48 63 d0             	movslq %eax,%rdx
    42aa:	48 89 d0             	mov    %rdx,%rax
    42ad:	48 01 c0             	add    %rax,%rax
    42b0:	48 01 d0             	add    %rdx,%rax
    42b3:	48 c1 e0 02          	shl    $0x2,%rax
    42b7:	48 01 c8             	add    %rcx,%rax
    42ba:	48 83 c0 08          	add    $0x8,%rax
    42be:	8b 00                	mov    (%rax),%eax
    42c0:	66 0f 6e c0          	movd   %eax,%xmm0
    42c4:	e8 78 e3 ff ff       	call   2641 <_ZL11bswap_floatf>
    42c9:	66 0f 7e c0          	movd   %xmm0,%eax
    42cd:	89 85 bc fd ff ff    	mov    %eax,-0x244(%rbp)
    42d3:	8b 85 e0 fd ff ff    	mov    -0x220(%rbp),%eax
    42d9:	99                   	cltd   
    42da:	c1 ea 1c             	shr    $0x1c,%edx
    42dd:	01 d0                	add    %edx,%eax
    42df:	83 e0 0f             	and    $0xf,%eax
    42e2:	29 d0                	sub    %edx,%eax
    42e4:	48 8b 8d e8 fd ff ff 	mov    -0x218(%rbp),%rcx
    42eb:	48 63 d0             	movslq %eax,%rdx
    42ee:	48 89 d0             	mov    %rdx,%rax
    42f1:	48 01 c0             	add    %rax,%rax
    42f4:	48 01 d0             	add    %rdx,%rax
    42f7:	48 c1 e0 02          	shl    $0x2,%rax
    42fb:	48 01 c8             	add    %rcx,%rax
    42fe:	48 05 c0 00 00 00    	add    $0xc0,%rax
    4304:	8b 00                	mov    (%rax),%eax
    4306:	66 0f 6e c0          	movd   %eax,%xmm0
    430a:	e8 32 e3 ff ff       	call   2641 <_ZL11bswap_floatf>
    430f:	66 0f 7e c0          	movd   %xmm0,%eax
    4313:	89 85 c0 fd ff ff    	mov    %eax,-0x240(%rbp)
    4319:	8b 85 e0 fd ff ff    	mov    -0x220(%rbp),%eax
    431f:	99                   	cltd   
    4320:	c1 ea 1c             	shr    $0x1c,%edx
    4323:	01 d0                	add    %edx,%eax
    4325:	83 e0 0f             	and    $0xf,%eax
    4328:	29 d0                	sub    %edx,%eax
    432a:	48 8b 8d e8 fd ff ff 	mov    -0x218(%rbp),%rcx
    4331:	48 63 d0             	movslq %eax,%rdx
    4334:	48 89 d0             	mov    %rdx,%rax
    4337:	48 01 c0             	add    %rax,%rax
    433a:	48 01 d0             	add    %rdx,%rax
    433d:	48 c1 e0 02          	shl    $0x2,%rax
    4341:	48 01 c8             	add    %rcx,%rax
    4344:	48 05 c4 00 00 00    	add    $0xc4,%rax
    434a:	8b 00                	mov    (%rax),%eax
    434c:	66 0f 6e c0          	movd   %eax,%xmm0
    4350:	e8 ec e2 ff ff       	call   2641 <_ZL11bswap_floatf>
    4355:	66 0f 7e c0          	movd   %xmm0,%eax
    4359:	89 85 c4 fd ff ff    	mov    %eax,-0x23c(%rbp)
    435f:	8b 85 e0 fd ff ff    	mov    -0x220(%rbp),%eax
    4365:	99                   	cltd   
    4366:	c1 ea 1c             	shr    $0x1c,%edx
    4369:	01 d0                	add    %edx,%eax
    436b:	83 e0 0f             	and    $0xf,%eax
    436e:	29 d0                	sub    %edx,%eax
    4370:	48 8b 8d e8 fd ff ff 	mov    -0x218(%rbp),%rcx
    4377:	48 63 d0             	movslq %eax,%rdx
    437a:	48 89 d0             	mov    %rdx,%rax
    437d:	48 01 c0             	add    %rax,%rax
    4380:	48 01 d0             	add    %rdx,%rax
    4383:	48 c1 e0 02          	shl    $0x2,%rax
    4387:	48 01 c8             	add    %rcx,%rax
    438a:	48 05 c8 00 00 00    	add    $0xc8,%rax
    4390:	8b 00                	mov    (%rax),%eax
    4392:	66 0f 6e c0          	movd   %eax,%xmm0
    4396:	e8 a6 e2 ff ff       	call   2641 <_ZL11bswap_floatf>
    439b:	66 0f 7e c0          	movd   %xmm0,%eax
    439f:	89 85 c8 fd ff ff    	mov    %eax,-0x238(%rbp)
    43a5:	8b 85 e0 fd ff ff    	mov    -0x220(%rbp),%eax
    43ab:	99                   	cltd   
    43ac:	c1 ea 1c             	shr    $0x1c,%edx
    43af:	01 d0                	add    %edx,%eax
    43b1:	83 e0 0f             	and    $0xf,%eax
    43b4:	29 d0                	sub    %edx,%eax
    43b6:	48 8b 8d e8 fd ff ff 	mov    -0x218(%rbp),%rcx
    43bd:	48 63 d0             	movslq %eax,%rdx
    43c0:	48 89 d0             	mov    %rdx,%rax
    43c3:	48 01 c0             	add    %rax,%rax
    43c6:	48 01 d0             	add    %rdx,%rax
    43c9:	48 c1 e0 02          	shl    $0x2,%rax
    43cd:	48 01 c8             	add    %rcx,%rax
    43d0:	48 05 80 01 00 00    	add    $0x180,%rax
    43d6:	8b 00                	mov    (%rax),%eax
    43d8:	66 0f 6e c0          	movd   %eax,%xmm0
    43dc:	e8 60 e2 ff ff       	call   2641 <_ZL11bswap_floatf>
    43e1:	66 0f 7e c0          	movd   %xmm0,%eax
    43e5:	89 85 cc fd ff ff    	mov    %eax,-0x234(%rbp)
    43eb:	8b 85 e0 fd ff ff    	mov    -0x220(%rbp),%eax
    43f1:	99                   	cltd   
    43f2:	c1 ea 1c             	shr    $0x1c,%edx
    43f5:	01 d0                	add    %edx,%eax
    43f7:	83 e0 0f             	and    $0xf,%eax
    43fa:	29 d0                	sub    %edx,%eax
    43fc:	48 8b 8d e8 fd ff ff 	mov    -0x218(%rbp),%rcx
    4403:	48 63 d0             	movslq %eax,%rdx
    4406:	48 89 d0             	mov    %rdx,%rax
    4409:	48 01 c0             	add    %rax,%rax
    440c:	48 01 d0             	add    %rdx,%rax
    440f:	48 c1 e0 02          	shl    $0x2,%rax
    4413:	48 01 c8             	add    %rcx,%rax
    4416:	48 05 84 01 00 00    	add    $0x184,%rax
    441c:	8b 00                	mov    (%rax),%eax
    441e:	66 0f 6e c0          	movd   %eax,%xmm0
    4422:	e8 1a e2 ff ff       	call   2641 <_ZL11bswap_floatf>
    4427:	66 0f 7e c0          	movd   %xmm0,%eax
    442b:	89 85 d0 fd ff ff    	mov    %eax,-0x230(%rbp)
    4431:	8b 85 e0 fd ff ff    	mov    -0x220(%rbp),%eax
    4437:	99                   	cltd   
    4438:	c1 ea 1c             	shr    $0x1c,%edx
    443b:	01 d0                	add    %edx,%eax
    443d:	83 e0 0f             	and    $0xf,%eax
    4440:	29 d0                	sub    %edx,%eax
    4442:	48 8b 8d e8 fd ff ff 	mov    -0x218(%rbp),%rcx
    4449:	48 63 d0             	movslq %eax,%rdx
    444c:	48 89 d0             	mov    %rdx,%rax
    444f:	48 01 c0             	add    %rax,%rax
    4452:	48 01 d0             	add    %rdx,%rax
    4455:	48 c1 e0 02          	shl    $0x2,%rax
    4459:	48 01 c8             	add    %rcx,%rax
    445c:	48 05 88 01 00 00    	add    $0x188,%rax
    4462:	8b 00                	mov    (%rax),%eax
    4464:	66 0f 6e c0          	movd   %eax,%xmm0
    4468:	e8 d4 e1 ff ff       	call   2641 <_ZL11bswap_floatf>
    446d:	66 0f 7e c0          	movd   %xmm0,%eax
    4471:	89 85 d4 fd ff ff    	mov    %eax,-0x22c(%rbp)
    4477:	e9 1b 02 00 00       	jmp    4697 <_Z8SaveFilePKc+0x699>
    447c:	8b 85 e0 fd ff ff    	mov    -0x220(%rbp),%eax
    4482:	99                   	cltd   
    4483:	c1 ea 1c             	shr    $0x1c,%edx
    4486:	01 d0                	add    %edx,%eax
    4488:	83 e0 0f             	and    $0xf,%eax
    448b:	29 d0                	sub    %edx,%eax
    448d:	48 8b 8d e8 fd ff ff 	mov    -0x218(%rbp),%rcx
    4494:	48 63 d0             	movslq %eax,%rdx
    4497:	48 89 d0             	mov    %rdx,%rax
    449a:	48 01 c0             	add    %rax,%rax
    449d:	48 01 d0             	add    %rdx,%rax
    44a0:	48 c1 e0 02          	shl    $0x2,%rax
    44a4:	48 01 c8             	add    %rcx,%rax
    44a7:	f3 0f 10 00          	movss  (%rax),%xmm0
    44ab:	f3 0f 11 85 b4 fd ff 	movss  %xmm0,-0x24c(%rbp)
    44b2:	ff 
    44b3:	8b 85 e0 fd ff ff    	mov    -0x220(%rbp),%eax
    44b9:	99                   	cltd   
    44ba:	c1 ea 1c             	shr    $0x1c,%edx
    44bd:	01 d0                	add    %edx,%eax
    44bf:	83 e0 0f             	and    $0xf,%eax
    44c2:	29 d0                	sub    %edx,%eax
    44c4:	48 8b 8d e8 fd ff ff 	mov    -0x218(%rbp),%rcx
    44cb:	48 63 d0             	movslq %eax,%rdx
    44ce:	48 89 d0             	mov    %rdx,%rax
    44d1:	48 01 c0             	add    %rax,%rax
    44d4:	48 01 d0             	add    %rdx,%rax
    44d7:	48 c1 e0 02          	shl    $0x2,%rax
    44db:	48 01 c8             	add    %rcx,%rax
    44de:	48 83 c0 04          	add    $0x4,%rax
    44e2:	f3 0f 10 00          	movss  (%rax),%xmm0
    44e6:	f3 0f 11 85 b8 fd ff 	movss  %xmm0,-0x248(%rbp)
    44ed:	ff 
    44ee:	8b 85 e0 fd ff ff    	mov    -0x220(%rbp),%eax
    44f4:	99                   	cltd   
    44f5:	c1 ea 1c             	shr    $0x1c,%edx
    44f8:	01 d0                	add    %edx,%eax
    44fa:	83 e0 0f             	and    $0xf,%eax
    44fd:	29 d0                	sub    %edx,%eax
    44ff:	48 8b 8d e8 fd ff ff 	mov    -0x218(%rbp),%rcx
    4506:	48 63 d0             	movslq %eax,%rdx
    4509:	48 89 d0             	mov    %rdx,%rax
    450c:	48 01 c0             	add    %rax,%rax
    450f:	48 01 d0             	add    %rdx,%rax
    4512:	48 c1 e0 02          	shl    $0x2,%rax
    4516:	48 01 c8             	add    %rcx,%rax
    4519:	48 83 c0 08          	add    $0x8,%rax
    451d:	f3 0f 10 00          	movss  (%rax),%xmm0
    4521:	f3 0f 11 85 bc fd ff 	movss  %xmm0,-0x244(%rbp)
    4528:	ff 
    4529:	8b 85 e0 fd ff ff    	mov    -0x220(%rbp),%eax
    452f:	99                   	cltd   
    4530:	c1 ea 1c             	shr    $0x1c,%edx
    4533:	01 d0                	add    %edx,%eax
    4535:	83 e0 0f             	and    $0xf,%eax
    4538:	29 d0                	sub    %edx,%eax
    453a:	48 8b 8d e8 fd ff ff 	mov    -0x218(%rbp),%rcx
    4541:	48 63 d0             	movslq %eax,%rdx
    4544:	48 89 d0             	mov    %rdx,%rax
    4547:	48 01 c0             	add    %rax,%rax
    454a:	48 01 d0             	add    %rdx,%rax
    454d:	48 c1 e0 02          	shl    $0x2,%rax
    4551:	48 01 c8             	add    %rcx,%rax
    4554:	48 05 c0 00 00 00    	add    $0xc0,%rax
    455a:	f3 0f 10 00          	movss  (%rax),%xmm0
    455e:	f3 0f 11 85 c0 fd ff 	movss  %xmm0,-0x240(%rbp)
    4565:	ff 
    4566:	8b 85 e0 fd ff ff    	mov    -0x220(%rbp),%eax
    456c:	99                   	cltd   
    456d:	c1 ea 1c             	shr    $0x1c,%edx
    4570:	01 d0                	add    %edx,%eax
    4572:	83 e0 0f             	and    $0xf,%eax
    4575:	29 d0                	sub    %edx,%eax
    4577:	48 8b 8d e8 fd ff ff 	mov    -0x218(%rbp),%rcx
    457e:	48 63 d0             	movslq %eax,%rdx
    4581:	48 89 d0             	mov    %rdx,%rax
    4584:	48 01 c0             	add    %rax,%rax
    4587:	48 01 d0             	add    %rdx,%rax
    458a:	48 c1 e0 02          	shl    $0x2,%rax
    458e:	48 01 c8             	add    %rcx,%rax
    4591:	48 05 c4 00 00 00    	add    $0xc4,%rax
    4597:	f3 0f 10 00          	movss  (%rax),%xmm0
    459b:	f3 0f 11 85 c4 fd ff 	movss  %xmm0,-0x23c(%rbp)
    45a2:	ff 
    45a3:	8b 85 e0 fd ff ff    	mov    -0x220(%rbp),%eax
    45a9:	99                   	cltd   
    45aa:	c1 ea 1c             	shr    $0x1c,%edx
    45ad:	01 d0                	add    %edx,%eax
    45af:	83 e0 0f             	and    $0xf,%eax
    45b2:	29 d0                	sub    %edx,%eax
    45b4:	48 8b 8d e8 fd ff ff 	mov    -0x218(%rbp),%rcx
    45bb:	48 63 d0             	movslq %eax,%rdx
    45be:	48 89 d0             	mov    %rdx,%rax
    45c1:	48 01 c0             	add    %rax,%rax
    45c4:	48 01 d0             	add    %rdx,%rax
    45c7:	48 c1 e0 02          	shl    $0x2,%rax
    45cb:	48 01 c8             	add    %rcx,%rax
    45ce:	48 05 c8 00 00 00    	add    $0xc8,%rax
    45d4:	f3 0f 10 00          	movss  (%rax),%xmm0
    45d8:	f3 0f 11 85 c8 fd ff 	movss  %xmm0,-0x238(%rbp)
    45df:	ff 
    45e0:	8b 85 e0 fd ff ff    	mov    -0x220(%rbp),%eax
    45e6:	99                   	cltd   
    45e7:	c1 ea 1c             	shr    $0x1c,%edx
    45ea:	01 d0                	add    %edx,%eax
    45ec:	83 e0 0f             	and    $0xf,%eax
    45ef:	29 d0                	sub    %edx,%eax
    45f1:	48 8b 8d e8 fd ff ff 	mov    -0x218(%rbp),%rcx
    45f8:	48 63 d0             	movslq %eax,%rdx
    45fb:	48 89 d0             	mov    %rdx,%rax
    45fe:	48 01 c0             	add    %rax,%rax
    4601:	48 01 d0             	add    %rdx,%rax
    4604:	48 c1 e0 02          	shl    $0x2,%rax
    4608:	48 01 c8             	add    %rcx,%rax
    460b:	48 05 80 01 00 00    	add    $0x180,%rax
    4611:	f3 0f 10 00          	movss  (%rax),%xmm0
    4615:	f3 0f 11 85 cc fd ff 	movss  %xmm0,-0x234(%rbp)
    461c:	ff 
    461d:	8b 85 e0 fd ff ff    	mov    -0x220(%rbp),%eax
    4623:	99                   	cltd   
    4624:	c1 ea 1c             	shr    $0x1c,%edx
    4627:	01 d0                	add    %edx,%eax
    4629:	83 e0 0f             	and    $0xf,%eax
    462c:	29 d0                	sub    %edx,%eax
    462e:	48 8b 8d e8 fd ff ff 	mov    -0x218(%rbp),%rcx
    4635:	48 63 d0             	movslq %eax,%rdx
    4638:	48 89 d0             	mov    %rdx,%rax
    463b:	48 01 c0             	add    %rax,%rax
    463e:	48 01 d0             	add    %rdx,%rax
    4641:	48 c1 e0 02          	shl    $0x2,%rax
    4645:	48 01 c8             	add    %rcx,%rax
    4648:	48 05 84 01 00 00    	add    $0x184,%rax
    464e:	f3 0f 10 00          	movss  (%rax),%xmm0
    4652:	f3 0f 11 85 d0 fd ff 	movss  %xmm0,-0x230(%rbp)
    4659:	ff 
    465a:	8b 85 e0 fd ff ff    	mov    -0x220(%rbp),%eax
    4660:	99                   	cltd   
    4661:	c1 ea 1c             	shr    $0x1c,%edx
    4664:	01 d0                	add    %edx,%eax
    4666:	83 e0 0f             	and    $0xf,%eax
    4669:	29 d0                	sub    %edx,%eax
    466b:	48 8b 8d e8 fd ff ff 	mov    -0x218(%rbp),%rcx
    4672:	48 63 d0             	movslq %eax,%rdx
    4675:	48 89 d0             	mov    %rdx,%rax
    4678:	48 01 c0             	add    %rax,%rax
    467b:	48 01 d0             	add    %rdx,%rax
    467e:	48 c1 e0 02          	shl    $0x2,%rax
    4682:	48 01 c8             	add    %rcx,%rax
    4685:	48 05 88 01 00 00    	add    $0x188,%rax
    468b:	f3 0f 10 00          	movss  (%rax),%xmm0
    468f:	f3 0f 11 85 d4 fd ff 	movss  %xmm0,-0x22c(%rbp)
    4696:	ff 
    4697:	48 8d 8d b4 fd ff ff 	lea    -0x24c(%rbp),%rcx
    469e:	48 8d 85 f0 fd ff ff 	lea    -0x210(%rbp),%rax
    46a5:	ba 04 00 00 00       	mov    $0x4,%edx
    46aa:	48 89 ce             	mov    %rcx,%rsi
    46ad:	48 89 c7             	mov    %rax,%rdi
    46b0:	e8 8b dd ff ff       	call   2440 <_ZNSo5writeEPKcl@plt>
    46b5:	48 8d 8d b8 fd ff ff 	lea    -0x248(%rbp),%rcx
    46bc:	48 8d 85 f0 fd ff ff 	lea    -0x210(%rbp),%rax
    46c3:	ba 04 00 00 00       	mov    $0x4,%edx
    46c8:	48 89 ce             	mov    %rcx,%rsi
    46cb:	48 89 c7             	mov    %rax,%rdi
    46ce:	e8 6d dd ff ff       	call   2440 <_ZNSo5writeEPKcl@plt>
    46d3:	48 8d 8d bc fd ff ff 	lea    -0x244(%rbp),%rcx
    46da:	48 8d 85 f0 fd ff ff 	lea    -0x210(%rbp),%rax
    46e1:	ba 04 00 00 00       	mov    $0x4,%edx
    46e6:	48 89 ce             	mov    %rcx,%rsi
    46e9:	48 89 c7             	mov    %rax,%rdi
    46ec:	e8 4f dd ff ff       	call   2440 <_ZNSo5writeEPKcl@plt>
    46f1:	48 8d 8d c0 fd ff ff 	lea    -0x240(%rbp),%rcx
    46f8:	48 8d 85 f0 fd ff ff 	lea    -0x210(%rbp),%rax
    46ff:	ba 04 00 00 00       	mov    $0x4,%edx
    4704:	48 89 ce             	mov    %rcx,%rsi
    4707:	48 89 c7             	mov    %rax,%rdi
    470a:	e8 31 dd ff ff       	call   2440 <_ZNSo5writeEPKcl@plt>
    470f:	48 8d 8d c4 fd ff ff 	lea    -0x23c(%rbp),%rcx
    4716:	48 8d 85 f0 fd ff ff 	lea    -0x210(%rbp),%rax
    471d:	ba 04 00 00 00       	mov    $0x4,%edx
    4722:	48 89 ce             	mov    %rcx,%rsi
    4725:	48 89 c7             	mov    %rax,%rdi
    4728:	e8 13 dd ff ff       	call   2440 <_ZNSo5writeEPKcl@plt>
    472d:	48 8d 8d c8 fd ff ff 	lea    -0x238(%rbp),%rcx
    4734:	48 8d 85 f0 fd ff ff 	lea    -0x210(%rbp),%rax
    473b:	ba 04 00 00 00       	mov    $0x4,%edx
    4740:	48 89 ce             	mov    %rcx,%rsi
    4743:	48 89 c7             	mov    %rax,%rdi
    4746:	e8 f5 dc ff ff       	call   2440 <_ZNSo5writeEPKcl@plt>
    474b:	48 8d 8d cc fd ff ff 	lea    -0x234(%rbp),%rcx
    4752:	48 8d 85 f0 fd ff ff 	lea    -0x210(%rbp),%rax
    4759:	ba 04 00 00 00       	mov    $0x4,%edx
    475e:	48 89 ce             	mov    %rcx,%rsi
    4761:	48 89 c7             	mov    %rax,%rdi
    4764:	e8 d7 dc ff ff       	call   2440 <_ZNSo5writeEPKcl@plt>
    4769:	48 8d 8d d0 fd ff ff 	lea    -0x230(%rbp),%rcx
    4770:	48 8d 85 f0 fd ff ff 	lea    -0x210(%rbp),%rax
    4777:	ba 04 00 00 00       	mov    $0x4,%edx
    477c:	48 89 ce             	mov    %rcx,%rsi
    477f:	48 89 c7             	mov    %rax,%rdi
    4782:	e8 b9 dc ff ff       	call   2440 <_ZNSo5writeEPKcl@plt>
    4787:	48 8d 8d d4 fd ff ff 	lea    -0x22c(%rbp),%rcx
    478e:	48 8d 85 f0 fd ff ff 	lea    -0x210(%rbp),%rax
    4795:	ba 04 00 00 00       	mov    $0x4,%edx
    479a:	48 89 ce             	mov    %rcx,%rsi
    479d:	48 89 c7             	mov    %rax,%rdi
    47a0:	e8 9b dc ff ff       	call   2440 <_ZNSo5writeEPKcl@plt>
    47a5:	83 85 d8 fd ff ff 01 	addl   $0x1,-0x228(%rbp)
    47ac:	8b 85 e0 fd ff ff    	mov    -0x220(%rbp),%eax
    47b2:	99                   	cltd   
    47b3:	c1 ea 1c             	shr    $0x1c,%edx
    47b6:	01 d0                	add    %edx,%eax
    47b8:	83 e0 0f             	and    $0xf,%eax
    47bb:	29 d0                	sub    %edx,%eax
    47bd:	83 f8 0f             	cmp    $0xf,%eax
    47c0:	75 15                	jne    47d7 <_Z8SaveFilePKc+0x7d9>
    47c2:	48 8b 85 e8 fd ff ff 	mov    -0x218(%rbp),%rax
    47c9:	48 8b 80 40 03 00 00 	mov    0x340(%rax),%rax
    47d0:	48 89 85 e8 fd ff ff 	mov    %rax,-0x218(%rbp)
    47d7:	83 85 e0 fd ff ff 01 	addl   $0x1,-0x220(%rbp)
    47de:	8b 85 e0 fd ff ff    	mov    -0x220(%rbp),%eax
    47e4:	3b 85 e4 fd ff ff    	cmp    -0x21c(%rbp),%eax
    47ea:	0f 8c 09 fa ff ff    	jl     41f9 <_Z8SaveFilePKc+0x1fb>
    47f0:	83 85 dc fd ff ff 01 	addl   $0x1,-0x224(%rbp)
    47f7:	8b 05 e3 8a 00 00    	mov    0x8ae3(%rip),%eax        # d2e0 <numCells>
    47fd:	39 85 dc fd ff ff    	cmp    %eax,-0x224(%rbp)
    4803:	0f 8c 9b f9 ff ff    	jl     41a4 <_Z8SaveFilePKc+0x1a6>
    4809:	8b 05 cd 8a 00 00    	mov    0x8acd(%rip),%eax        # d2dc <numParticles>
    480f:	39 85 d8 fd ff ff    	cmp    %eax,-0x228(%rbp)
    4815:	74 28                	je     483f <_Z8SaveFilePKc+0x841>
    4817:	48 8d 05 ef 59 00 00 	lea    0x59ef(%rip),%rax        # a20d <_ZL22PARSEC_PROCESS_PRIVATE+0x1cd>
    481e:	48 89 c1             	mov    %rax,%rcx
    4821:	ba cc 01 00 00       	mov    $0x1cc,%edx
    4826:	48 8d 05 6b 58 00 00 	lea    0x586b(%rip),%rax        # a098 <_ZL22PARSEC_PROCESS_PRIVATE+0x58>
    482d:	48 89 c6             	mov    %rax,%rsi
    4830:	48 8d 05 f6 59 00 00 	lea    0x59f6(%rip),%rax        # a22d <_ZL22PARSEC_PROCESS_PRIVATE+0x1ed>
    4837:	48 89 c7             	mov    %rax,%rdi
    483a:	e8 f1 da ff ff       	call   2330 <__assert_fail@plt>
    483f:	48 8d 85 f0 fd ff ff 	lea    -0x210(%rbp),%rax
    4846:	48 89 c7             	mov    %rax,%rdi
    4849:	e8 32 dc ff ff       	call   2480 <_ZNSt14basic_ofstreamIcSt11char_traitsIcEED1Ev@plt>
    484e:	48 8b 45 f8          	mov    -0x8(%rbp),%rax
    4852:	64 48 2b 04 25 28 00 	sub    %fs:0x28,%rax
    4859:	00 00 
    485b:	74 05                	je     4862 <_Z8SaveFilePKc+0x864>
    485d:	e8 4e db ff ff       	call   23b0 <__stack_chk_fail@plt>
    4862:	c9                   	leave  
    4863:	c3                   	ret    

0000000000004864 <_Z10CleanUpSimv>:
    4864:	f3 0f 1e fa          	endbr64 
    4868:	55                   	push   %rbp
    4869:	48 89 e5             	mov    %rsp,%rbp
    486c:	48 83 ec 30          	sub    $0x30,%rsp
    4870:	c7 45 dc 00 00 00 00 	movl   $0x0,-0x24(%rbp)
    4877:	eb 73                	jmp    48ec <_Z10CleanUpSimv+0x88>
    4879:	48 8b 0d 68 8a 00 00 	mov    0x8a68(%rip),%rcx        # d2e8 <cells>
    4880:	8b 45 dc             	mov    -0x24(%rbp),%eax
    4883:	48 63 d0             	movslq %eax,%rdx
    4886:	48 89 d0             	mov    %rdx,%rax
    4889:	48 c1 e0 03          	shl    $0x3,%rax
    488d:	48 29 d0             	sub    %rdx,%rax
    4890:	48 c1 e0 07          	shl    $0x7,%rax
    4894:	48 01 c8             	add    %rcx,%rax
    4897:	48 89 45 f0          	mov    %rax,-0x10(%rbp)
    489b:	eb 3b                	jmp    48d8 <_Z10CleanUpSimv+0x74>
    489d:	48 8b 45 f0          	mov    -0x10(%rbp),%rax
    48a1:	48 8b 80 40 03 00 00 	mov    0x340(%rax),%rax
    48a8:	48 89 45 f8          	mov    %rax,-0x8(%rbp)
    48ac:	48 8b 45 f8          	mov    -0x8(%rbp),%rax
    48b0:	48 8b 90 40 03 00 00 	mov    0x340(%rax),%rdx
    48b7:	48 8b 45 f0          	mov    -0x10(%rbp),%rax
    48bb:	48 89 90 40 03 00 00 	mov    %rdx,0x340(%rax)
    48c2:	48 8b 05 d7 89 00 00 	mov    0x89d7(%rip),%rax        # d2a0 <pools>
    48c9:	48 8b 55 f8          	mov    -0x8(%rbp),%rdx
    48cd:	48 89 d6             	mov    %rdx,%rsi
    48d0:	48 89 c7             	mov    %rax,%rdi
    48d3:	e8 95 40 00 00       	call   896d <_Z19cellpool_returncellP8cellpoolP4Cell>
    48d8:	48 8b 45 f0          	mov    -0x10(%rbp),%rax
    48dc:	48 8b 80 40 03 00 00 	mov    0x340(%rax),%rax
    48e3:	48 85 c0             	test   %rax,%rax
    48e6:	75 b5                	jne    489d <_Z10CleanUpSimv+0x39>
    48e8:	83 45 dc 01          	addl   $0x1,-0x24(%rbp)
    48ec:	8b 05 ee 89 00 00    	mov    0x89ee(%rip),%eax        # d2e0 <numCells>
    48f2:	39 45 dc             	cmp    %eax,-0x24(%rbp)
    48f5:	7c 82                	jl     4879 <_Z10CleanUpSimv+0x15>
    48f7:	c7 45 e0 00 00 00 00 	movl   $0x0,-0x20(%rbp)
    48fe:	eb 29                	jmp    4929 <_Z10CleanUpSimv+0xc5>
    4900:	48 8b 0d 99 89 00 00 	mov    0x8999(%rip),%rcx        # d2a0 <pools>
    4907:	8b 45 e0             	mov    -0x20(%rbp),%eax
    490a:	48 63 d0             	movslq %eax,%rdx
    490d:	48 89 d0             	mov    %rdx,%rax
    4910:	48 01 c0             	add    %rax,%rax
    4913:	48 01 d0             	add    %rdx,%rax
    4916:	48 c1 e0 03          	shl    $0x3,%rax
    491a:	48 01 c8             	add    %rcx,%rax
    491d:	48 89 c7             	mov    %rax,%rdi
    4920:	e8 da 40 00 00       	call   89ff <_Z16cellpool_destroyP8cellpool>
    4925:	83 45 e0 01          	addl   $0x1,-0x20(%rbp)
    4929:	8b 15 e5 86 00 00    	mov    0x86e5(%rip),%edx        # d014 <XDIVS>
    492f:	8b 05 e3 86 00 00    	mov    0x86e3(%rip),%eax        # d018 <ZDIVS>
    4935:	0f af c2             	imul   %edx,%eax
    4938:	39 45 e0             	cmp    %eax,-0x20(%rbp)
    493b:	7c c3                	jl     4900 <_Z10CleanUpSimv+0x9c>
    493d:	48 8d 05 dc 89 00 00 	lea    0x89dc(%rip),%rax        # d320 <attr>
    4944:	48 89 c7             	mov    %rax,%rdi
    4947:	e8 94 db ff ff       	call   24e0 <pthread_attr_destroy@plt>
    494c:	c7 45 e4 00 00 00 00 	movl   $0x0,-0x1c(%rbp)
    4953:	e9 ac 00 00 00       	jmp    4a04 <_Z10CleanUpSimv+0x1a0>
    4958:	48 8b 15 b9 89 00 00 	mov    0x89b9(%rip),%rdx        # d318 <border>
    495f:	8b 45 e4             	mov    -0x1c(%rbp),%eax
    4962:	48 98                	cltq   
    4964:	48 01 d0             	add    %rdx,%rax
    4967:	0f b6 00             	movzbl (%rax),%eax
    496a:	84 c0                	test   %al,%al
    496c:	74 07                	je     4975 <_Z10CleanUpSimv+0x111>
    496e:	b8 80 00 00 00       	mov    $0x80,%eax
    4973:	eb 05                	jmp    497a <_Z10CleanUpSimv+0x116>
    4975:	b8 01 00 00 00       	mov    $0x1,%eax
    497a:	89 45 ec             	mov    %eax,-0x14(%rbp)
    497d:	c7 45 e8 00 00 00 00 	movl   $0x0,-0x18(%rbp)
    4984:	eb 39                	jmp    49bf <_Z10CleanUpSimv+0x15b>
    4986:	48 8b 15 d3 89 00 00 	mov    0x89d3(%rip),%rdx        # d360 <mutex>
    498d:	8b 45 e4             	mov    -0x1c(%rbp),%eax
    4990:	48 98                	cltq   
    4992:	48 c1 e0 03          	shl    $0x3,%rax
    4996:	48 01 d0             	add    %rdx,%rax
    4999:	48 8b 08             	mov    (%rax),%rcx
    499c:	8b 45 e8             	mov    -0x18(%rbp),%eax
    499f:	48 63 d0             	movslq %eax,%rdx
    49a2:	48 89 d0             	mov    %rdx,%rax
    49a5:	48 c1 e0 02          	shl    $0x2,%rax
    49a9:	48 01 d0             	add    %rdx,%rax
    49ac:	48 c1 e0 03          	shl    $0x3,%rax
    49b0:	48 01 c8             	add    %rcx,%rax
    49b3:	48 89 c7             	mov    %rax,%rdi
    49b6:	e8 05 da ff ff       	call   23c0 <pthread_mutex_destroy@plt>
    49bb:	83 45 e8 01          	addl   $0x1,-0x18(%rbp)
    49bf:	8b 45 e8             	mov    -0x18(%rbp),%eax
    49c2:	3b 45 ec             	cmp    -0x14(%rbp),%eax
    49c5:	7c bf                	jl     4986 <_Z10CleanUpSimv+0x122>
    49c7:	48 8b 15 92 89 00 00 	mov    0x8992(%rip),%rdx        # d360 <mutex>
    49ce:	8b 45 e4             	mov    -0x1c(%rbp),%eax
    49d1:	48 98                	cltq   
    49d3:	48 c1 e0 03          	shl    $0x3,%rax
    49d7:	48 01 d0             	add    %rdx,%rax
    49da:	48 8b 00             	mov    (%rax),%rax
    49dd:	48 85 c0             	test   %rax,%rax
    49e0:	74 1e                	je     4a00 <_Z10CleanUpSimv+0x19c>
    49e2:	48 8b 15 77 89 00 00 	mov    0x8977(%rip),%rdx        # d360 <mutex>
    49e9:	8b 45 e4             	mov    -0x1c(%rbp),%eax
    49ec:	48 98                	cltq   
    49ee:	48 c1 e0 03          	shl    $0x3,%rax
    49f2:	48 01 d0             	add    %rdx,%rax
    49f5:	48 8b 00             	mov    (%rax),%rax
    49f8:	48 89 c7             	mov    %rax,%rdi
    49fb:	e8 30 da ff ff       	call   2430 <_ZdaPv@plt>
    4a00:	83 45 e4 01          	addl   $0x1,-0x1c(%rbp)
    4a04:	8b 05 d6 88 00 00    	mov    0x88d6(%rip),%eax        # d2e0 <numCells>
    4a0a:	39 45 e4             	cmp    %eax,-0x1c(%rbp)
    4a0d:	0f 8c 45 ff ff ff    	jl     4958 <_Z10CleanUpSimv+0xf4>
    4a13:	48 8b 05 46 89 00 00 	mov    0x8946(%rip),%rax        # d360 <mutex>
    4a1a:	48 85 c0             	test   %rax,%rax
    4a1d:	74 0f                	je     4a2e <_Z10CleanUpSimv+0x1ca>
    4a1f:	48 8b 05 3a 89 00 00 	mov    0x893a(%rip),%rax        # d360 <mutex>
    4a26:	48 89 c7             	mov    %rax,%rdi
    4a29:	e8 02 da ff ff       	call   2430 <_ZdaPv@plt>
    4a2e:	48 8d 05 4b 89 00 00 	lea    0x894b(%rip),%rax        # d380 <barrier>
    4a35:	48 89 c7             	mov    %rax,%rdi
    4a38:	e8 31 42 00 00       	call   8c6e <_Z22parsec_barrier_destroyP16parsec_barrier_t>
    4a3d:	48 8b 05 d4 88 00 00 	mov    0x88d4(%rip),%rax        # d318 <border>
    4a44:	48 85 c0             	test   %rax,%rax
    4a47:	74 0f                	je     4a58 <_Z10CleanUpSimv+0x1f4>
    4a49:	48 8b 05 c8 88 00 00 	mov    0x88c8(%rip),%rax        # d318 <border>
    4a50:	48 89 c7             	mov    %rax,%rdi
    4a53:	e8 d8 d9 ff ff       	call   2430 <_ZdaPv@plt>
    4a58:	48 8b 05 89 88 00 00 	mov    0x8889(%rip),%rax        # d2e8 <cells>
    4a5f:	48 89 c7             	mov    %rax,%rdi
    4a62:	e8 69 d9 ff ff       	call   23d0 <free@plt>
    4a67:	48 8b 05 82 88 00 00 	mov    0x8882(%rip),%rax        # d2f0 <cells2>
    4a6e:	48 89 c7             	mov    %rax,%rdi
    4a71:	e8 5a d9 ff ff       	call   23d0 <free@plt>
    4a76:	48 8b 05 7b 88 00 00 	mov    0x887b(%rip),%rax        # d2f8 <cnumPars>
    4a7d:	48 89 c7             	mov    %rax,%rdi
    4a80:	e8 4b d9 ff ff       	call   23d0 <free@plt>
    4a85:	48 8b 05 74 88 00 00 	mov    0x8874(%rip),%rax        # d300 <cnumPars2>
    4a8c:	48 89 c7             	mov    %rax,%rdi
    4a8f:	e8 3c d9 ff ff       	call   23d0 <free@plt>
    4a94:	48 8b 05 6d 88 00 00 	mov    0x886d(%rip),%rax        # d308 <last_cells>
    4a9b:	48 89 c7             	mov    %rax,%rdi
    4a9e:	e8 2d d9 ff ff       	call   23d0 <free@plt>
    4aa3:	48 8b 05 ae 88 00 00 	mov    0x88ae(%rip),%rax        # d358 <thread>
    4aaa:	48 85 c0             	test   %rax,%rax
    4aad:	74 0f                	je     4abe <_Z10CleanUpSimv+0x25a>
    4aaf:	48 8b 05 a2 88 00 00 	mov    0x88a2(%rip),%rax        # d358 <thread>
    4ab6:	48 89 c7             	mov    %rax,%rdi
    4ab9:	e8 72 d9 ff ff       	call   2430 <_ZdaPv@plt>
    4abe:	48 8b 05 4b 88 00 00 	mov    0x884b(%rip),%rax        # d310 <grids>
    4ac5:	48 85 c0             	test   %rax,%rax
    4ac8:	74 0f                	je     4ad9 <_Z10CleanUpSimv+0x275>
    4aca:	48 8b 05 3f 88 00 00 	mov    0x883f(%rip),%rax        # d310 <grids>
    4ad1:	48 89 c7             	mov    %rax,%rdi
    4ad4:	e8 57 d9 ff ff       	call   2430 <_ZdaPv@plt>
    4ad9:	90                   	nop
    4ada:	c9                   	leave  
    4adb:	c3                   	ret    

0000000000004adc <_Z16ClearParticlesMTi>:
    4adc:	f3 0f 1e fa          	endbr64 
    4ae0:	55                   	push   %rbp
    4ae1:	48 89 e5             	mov    %rsp,%rbp
    4ae4:	89 7d ec             	mov    %edi,-0x14(%rbp)
    4ae7:	48 8b 15 22 88 00 00 	mov    0x8822(%rip),%rdx        # d310 <grids>
    4aee:	8b 45 ec             	mov    -0x14(%rbp),%eax
    4af1:	48 98                	cltq   
    4af3:	48 c1 e0 07          	shl    $0x7,%rax
    4af7:	48 01 d0             	add    %rdx,%rax
    4afa:	8b 40 08             	mov    0x8(%rax),%eax
    4afd:	89 45 f0             	mov    %eax,-0x10(%rbp)
    4b00:	e9 21 01 00 00       	jmp    4c26 <_Z16ClearParticlesMTi+0x14a>
    4b05:	48 8b 15 04 88 00 00 	mov    0x8804(%rip),%rdx        # d310 <grids>
    4b0c:	8b 45 ec             	mov    -0x14(%rbp),%eax
    4b0f:	48 98                	cltq   
    4b11:	48 c1 e0 07          	shl    $0x7,%rax
    4b15:	48 01 d0             	add    %rdx,%rax
    4b18:	8b 40 04             	mov    0x4(%rax),%eax
    4b1b:	89 45 f4             	mov    %eax,-0xc(%rbp)
    4b1e:	e9 e0 00 00 00       	jmp    4c03 <_Z16ClearParticlesMTi+0x127>
    4b23:	48 8b 15 e6 87 00 00 	mov    0x87e6(%rip),%rdx        # d310 <grids>
    4b2a:	8b 45 ec             	mov    -0x14(%rbp),%eax
    4b2d:	48 98                	cltq   
    4b2f:	48 c1 e0 07          	shl    $0x7,%rax
    4b33:	48 01 d0             	add    %rdx,%rax
    4b36:	8b 00                	mov    (%rax),%eax
    4b38:	89 45 f8             	mov    %eax,-0x8(%rbp)
    4b3b:	e9 a0 00 00 00       	jmp    4be0 <_Z16ClearParticlesMTi+0x104>
    4b40:	8b 05 7e 87 00 00    	mov    0x877e(%rip),%eax        # d2c4 <ny>
    4b46:	0f af 45 f0          	imul   -0x10(%rbp),%eax
    4b4a:	89 c2                	mov    %eax,%edx
    4b4c:	8b 45 f4             	mov    -0xc(%rbp),%eax
    4b4f:	01 c2                	add    %eax,%edx
    4b51:	8b 05 69 87 00 00    	mov    0x8769(%rip),%eax        # d2c0 <nx>
    4b57:	0f af d0             	imul   %eax,%edx
    4b5a:	8b 45 f8             	mov    -0x8(%rbp),%eax
    4b5d:	01 d0                	add    %edx,%eax
    4b5f:	89 45 fc             	mov    %eax,-0x4(%rbp)
    4b62:	48 8b 15 8f 87 00 00 	mov    0x878f(%rip),%rdx        # d2f8 <cnumPars>
    4b69:	8b 45 fc             	mov    -0x4(%rbp),%eax
    4b6c:	48 98                	cltq   
    4b6e:	48 c1 e0 02          	shl    $0x2,%rax
    4b72:	48 01 d0             	add    %rdx,%rax
    4b75:	c7 00 00 00 00 00    	movl   $0x0,(%rax)
    4b7b:	48 8b 0d 66 87 00 00 	mov    0x8766(%rip),%rcx        # d2e8 <cells>
    4b82:	8b 45 fc             	mov    -0x4(%rbp),%eax
    4b85:	48 63 d0             	movslq %eax,%rdx
    4b88:	48 89 d0             	mov    %rdx,%rax
    4b8b:	48 c1 e0 03          	shl    $0x3,%rax
    4b8f:	48 29 d0             	sub    %rdx,%rax
    4b92:	48 c1 e0 07          	shl    $0x7,%rax
    4b96:	48 01 c8             	add    %rcx,%rax
    4b99:	48 c7 80 40 03 00 00 	movq   $0x0,0x340(%rax)
    4ba0:	00 00 00 00 
    4ba4:	48 8b 0d 3d 87 00 00 	mov    0x873d(%rip),%rcx        # d2e8 <cells>
    4bab:	8b 45 fc             	mov    -0x4(%rbp),%eax
    4bae:	48 63 d0             	movslq %eax,%rdx
    4bb1:	48 89 d0             	mov    %rdx,%rax
    4bb4:	48 c1 e0 03          	shl    $0x3,%rax
    4bb8:	48 29 d0             	sub    %rdx,%rax
    4bbb:	48 c1 e0 07          	shl    $0x7,%rax
    4bbf:	48 89 c6             	mov    %rax,%rsi
    4bc2:	48 8b 15 3f 87 00 00 	mov    0x873f(%rip),%rdx        # d308 <last_cells>
    4bc9:	8b 45 fc             	mov    -0x4(%rbp),%eax
    4bcc:	48 98                	cltq   
    4bce:	48 c1 e0 03          	shl    $0x3,%rax
    4bd2:	48 01 d0             	add    %rdx,%rax
    4bd5:	48 8d 14 31          	lea    (%rcx,%rsi,1),%rdx
    4bd9:	48 89 10             	mov    %rdx,(%rax)
    4bdc:	83 45 f8 01          	addl   $0x1,-0x8(%rbp)
    4be0:	48 8b 15 29 87 00 00 	mov    0x8729(%rip),%rdx        # d310 <grids>
    4be7:	8b 45 ec             	mov    -0x14(%rbp),%eax
    4bea:	48 98                	cltq   
    4bec:	48 c1 e0 07          	shl    $0x7,%rax
    4bf0:	48 01 d0             	add    %rdx,%rax
    4bf3:	8b 40 0c             	mov    0xc(%rax),%eax
    4bf6:	39 45 f8             	cmp    %eax,-0x8(%rbp)
    4bf9:	0f 8c 41 ff ff ff    	jl     4b40 <_Z16ClearParticlesMTi+0x64>
    4bff:	83 45 f4 01          	addl   $0x1,-0xc(%rbp)
    4c03:	48 8b 15 06 87 00 00 	mov    0x8706(%rip),%rdx        # d310 <grids>
    4c0a:	8b 45 ec             	mov    -0x14(%rbp),%eax
    4c0d:	48 98                	cltq   
    4c0f:	48 c1 e0 07          	shl    $0x7,%rax
    4c13:	48 01 d0             	add    %rdx,%rax
    4c16:	8b 40 10             	mov    0x10(%rax),%eax
    4c19:	39 45 f4             	cmp    %eax,-0xc(%rbp)
    4c1c:	0f 8c 01 ff ff ff    	jl     4b23 <_Z16ClearParticlesMTi+0x47>
    4c22:	83 45 f0 01          	addl   $0x1,-0x10(%rbp)
    4c26:	48 8b 15 e3 86 00 00 	mov    0x86e3(%rip),%rdx        # d310 <grids>
    4c2d:	8b 45 ec             	mov    -0x14(%rbp),%eax
    4c30:	48 98                	cltq   
    4c32:	48 c1 e0 07          	shl    $0x7,%rax
    4c36:	48 01 d0             	add    %rdx,%rax
    4c39:	8b 40 14             	mov    0x14(%rax),%eax
    4c3c:	39 45 f0             	cmp    %eax,-0x10(%rbp)
    4c3f:	0f 8c c0 fe ff ff    	jl     4b05 <_Z16ClearParticlesMTi+0x29>
    4c45:	90                   	nop
    4c46:	90                   	nop
    4c47:	5d                   	pop    %rbp
    4c48:	c3                   	ret    

0000000000004c49 <_Z13RebuildGridMTi>:
    4c49:	f3 0f 1e fa          	endbr64 
    4c4d:	55                   	push   %rbp
    4c4e:	48 89 e5             	mov    %rsp,%rbp
    4c51:	48 83 ec 60          	sub    $0x60,%rsp
    4c55:	89 7d ac             	mov    %edi,-0x54(%rbp)
    4c58:	48 8b 15 b1 86 00 00 	mov    0x86b1(%rip),%rdx        # d310 <grids>
    4c5f:	8b 45 ac             	mov    -0x54(%rbp),%eax
    4c62:	48 98                	cltq   
    4c64:	48 c1 e0 07          	shl    $0x7,%rax
    4c68:	48 01 d0             	add    %rdx,%rax
    4c6b:	8b 40 08             	mov    0x8(%rax),%eax
    4c6e:	89 45 bc             	mov    %eax,-0x44(%rbp)
    4c71:	e9 97 05 00 00       	jmp    520d <_Z13RebuildGridMTi+0x5c4>
    4c76:	48 8b 15 93 86 00 00 	mov    0x8693(%rip),%rdx        # d310 <grids>
    4c7d:	8b 45 ac             	mov    -0x54(%rbp),%eax
    4c80:	48 98                	cltq   
    4c82:	48 c1 e0 07          	shl    $0x7,%rax
    4c86:	48 01 d0             	add    %rdx,%rax
    4c89:	8b 40 04             	mov    0x4(%rax),%eax
    4c8c:	89 45 c0             	mov    %eax,-0x40(%rbp)
    4c8f:	e9 56 05 00 00       	jmp    51ea <_Z13RebuildGridMTi+0x5a1>
    4c94:	48 8b 15 75 86 00 00 	mov    0x8675(%rip),%rdx        # d310 <grids>
    4c9b:	8b 45 ac             	mov    -0x54(%rbp),%eax
    4c9e:	48 98                	cltq   
    4ca0:	48 c1 e0 07          	shl    $0x7,%rax
    4ca4:	48 01 d0             	add    %rdx,%rax
    4ca7:	8b 00                	mov    (%rax),%eax
    4ca9:	89 45 c4             	mov    %eax,-0x3c(%rbp)
    4cac:	e9 16 05 00 00       	jmp    51c7 <_Z13RebuildGridMTi+0x57e>
    4cb1:	8b 05 0d 86 00 00    	mov    0x860d(%rip),%eax        # d2c4 <ny>
    4cb7:	0f af 45 bc          	imul   -0x44(%rbp),%eax
    4cbb:	89 c2                	mov    %eax,%edx
    4cbd:	8b 45 c0             	mov    -0x40(%rbp),%eax
    4cc0:	01 c2                	add    %eax,%edx
    4cc2:	8b 05 f8 85 00 00    	mov    0x85f8(%rip),%eax        # d2c0 <nx>
    4cc8:	0f af d0             	imul   %eax,%edx
    4ccb:	8b 45 c4             	mov    -0x3c(%rbp),%eax
    4cce:	01 d0                	add    %edx,%eax
    4cd0:	89 45 d8             	mov    %eax,-0x28(%rbp)
    4cd3:	48 8b 0d 16 86 00 00 	mov    0x8616(%rip),%rcx        # d2f0 <cells2>
    4cda:	8b 45 d8             	mov    -0x28(%rbp),%eax
    4cdd:	48 63 d0             	movslq %eax,%rdx
    4ce0:	48 89 d0             	mov    %rdx,%rax
    4ce3:	48 c1 e0 03          	shl    $0x3,%rax
    4ce7:	48 29 d0             	sub    %rdx,%rax
    4cea:	48 c1 e0 07          	shl    $0x7,%rax
    4cee:	48 01 c8             	add    %rcx,%rax
    4cf1:	48 89 45 e8          	mov    %rax,-0x18(%rbp)
    4cf5:	48 8b 15 04 86 00 00 	mov    0x8604(%rip),%rdx        # d300 <cnumPars2>
    4cfc:	8b 45 d8             	mov    -0x28(%rbp),%eax
    4cff:	48 98                	cltq   
    4d01:	48 c1 e0 02          	shl    $0x2,%rax
    4d05:	48 01 d0             	add    %rdx,%rax
    4d08:	8b 00                	mov    (%rax),%eax
    4d0a:	89 45 dc             	mov    %eax,-0x24(%rbp)
    4d0d:	c7 45 c8 00 00 00 00 	movl   $0x0,-0x38(%rbp)
    4d14:	e9 46 04 00 00       	jmp    515f <_Z13RebuildGridMTi+0x516>
    4d19:	8b 45 c8             	mov    -0x38(%rbp),%eax
    4d1c:	99                   	cltd   
    4d1d:	c1 ea 1c             	shr    $0x1c,%edx
    4d20:	01 d0                	add    %edx,%eax
    4d22:	83 e0 0f             	and    $0xf,%eax
    4d25:	29 d0                	sub    %edx,%eax
    4d27:	48 8b 4d e8          	mov    -0x18(%rbp),%rcx
    4d2b:	48 63 d0             	movslq %eax,%rdx
    4d2e:	48 89 d0             	mov    %rdx,%rax
    4d31:	48 01 c0             	add    %rax,%rax
    4d34:	48 01 d0             	add    %rdx,%rax
    4d37:	48 c1 e0 02          	shl    $0x2,%rax
    4d3b:	48 01 c8             	add    %rcx,%rax
    4d3e:	f3 0f 10 00          	movss  (%rax),%xmm0
    4d42:	f3 0f 10 0d b6 86 00 	movss  0x86b6(%rip),%xmm1        # d400 <_ZL9domainMin>
    4d49:	00 
    4d4a:	f3 0f 5c c1          	subss  %xmm1,%xmm0
    4d4e:	f3 0f 10 0d 7a 85 00 	movss  0x857a(%rip),%xmm1        # d2d0 <delta>
    4d55:	00 
    4d56:	f3 0f 5e c1          	divss  %xmm1,%xmm0
    4d5a:	f3 0f 2c c0          	cvttss2si %xmm0,%eax
    4d5e:	89 45 cc             	mov    %eax,-0x34(%rbp)
    4d61:	8b 45 c8             	mov    -0x38(%rbp),%eax
    4d64:	99                   	cltd   
    4d65:	c1 ea 1c             	shr    $0x1c,%edx
    4d68:	01 d0                	add    %edx,%eax
    4d6a:	83 e0 0f             	and    $0xf,%eax
    4d6d:	29 d0                	sub    %edx,%eax
    4d6f:	48 8b 4d e8          	mov    -0x18(%rbp),%rcx
    4d73:	48 63 d0             	movslq %eax,%rdx
    4d76:	48 89 d0             	mov    %rdx,%rax
    4d79:	48 01 c0             	add    %rax,%rax
    4d7c:	48 01 d0             	add    %rdx,%rax
    4d7f:	48 c1 e0 02          	shl    $0x2,%rax
    4d83:	48 01 c8             	add    %rcx,%rax
    4d86:	48 83 c0 04          	add    $0x4,%rax
    4d8a:	f3 0f 10 00          	movss  (%rax),%xmm0
    4d8e:	f3 0f 10 0d 6e 86 00 	movss  0x866e(%rip),%xmm1        # d404 <_ZL9domainMin+0x4>
    4d95:	00 
    4d96:	f3 0f 5c c1          	subss  %xmm1,%xmm0
    4d9a:	f3 0f 10 0d 32 85 00 	movss  0x8532(%rip),%xmm1        # d2d4 <delta+0x4>
    4da1:	00 
    4da2:	f3 0f 5e c1          	divss  %xmm1,%xmm0
    4da6:	f3 0f 2c c0          	cvttss2si %xmm0,%eax
    4daa:	89 45 d0             	mov    %eax,-0x30(%rbp)
    4dad:	8b 45 c8             	mov    -0x38(%rbp),%eax
    4db0:	99                   	cltd   
    4db1:	c1 ea 1c             	shr    $0x1c,%edx
    4db4:	01 d0                	add    %edx,%eax
    4db6:	83 e0 0f             	and    $0xf,%eax
    4db9:	29 d0                	sub    %edx,%eax
    4dbb:	48 8b 4d e8          	mov    -0x18(%rbp),%rcx
    4dbf:	48 63 d0             	movslq %eax,%rdx
    4dc2:	48 89 d0             	mov    %rdx,%rax
    4dc5:	48 01 c0             	add    %rax,%rax
    4dc8:	48 01 d0             	add    %rdx,%rax
    4dcb:	48 c1 e0 02          	shl    $0x2,%rax
    4dcf:	48 01 c8             	add    %rcx,%rax
    4dd2:	48 83 c0 08          	add    $0x8,%rax
    4dd6:	f3 0f 10 00          	movss  (%rax),%xmm0
    4dda:	f3 0f 10 0d 26 86 00 	movss  0x8626(%rip),%xmm1        # d408 <_ZL9domainMin+0x8>
    4de1:	00 
    4de2:	f3 0f 5c c1          	subss  %xmm1,%xmm0
    4de6:	f3 0f 10 0d ea 84 00 	movss  0x84ea(%rip),%xmm1        # d2d8 <delta+0x8>
    4ded:	00 
    4dee:	f3 0f 5e c1          	divss  %xmm1,%xmm0
    4df2:	f3 0f 2c c0          	cvttss2si %xmm0,%eax
    4df6:	89 45 d4             	mov    %eax,-0x2c(%rbp)
    4df9:	83 7d cc 00          	cmpl   $0x0,-0x34(%rbp)
    4dfd:	79 09                	jns    4e08 <_Z13RebuildGridMTi+0x1bf>
    4dff:	c7 45 cc 00 00 00 00 	movl   $0x0,-0x34(%rbp)
    4e06:	eb 17                	jmp    4e1f <_Z13RebuildGridMTi+0x1d6>
    4e08:	8b 05 b2 84 00 00    	mov    0x84b2(%rip),%eax        # d2c0 <nx>
    4e0e:	39 45 cc             	cmp    %eax,-0x34(%rbp)
    4e11:	7c 0c                	jl     4e1f <_Z13RebuildGridMTi+0x1d6>
    4e13:	8b 05 a7 84 00 00    	mov    0x84a7(%rip),%eax        # d2c0 <nx>
    4e19:	83 e8 01             	sub    $0x1,%eax
    4e1c:	89 45 cc             	mov    %eax,-0x34(%rbp)
    4e1f:	83 7d d0 00          	cmpl   $0x0,-0x30(%rbp)
    4e23:	79 09                	jns    4e2e <_Z13RebuildGridMTi+0x1e5>
    4e25:	c7 45 d0 00 00 00 00 	movl   $0x0,-0x30(%rbp)
    4e2c:	eb 17                	jmp    4e45 <_Z13RebuildGridMTi+0x1fc>
    4e2e:	8b 05 90 84 00 00    	mov    0x8490(%rip),%eax        # d2c4 <ny>
    4e34:	39 45 d0             	cmp    %eax,-0x30(%rbp)
    4e37:	7c 0c                	jl     4e45 <_Z13RebuildGridMTi+0x1fc>
    4e39:	8b 05 85 84 00 00    	mov    0x8485(%rip),%eax        # d2c4 <ny>
    4e3f:	83 e8 01             	sub    $0x1,%eax
    4e42:	89 45 d0             	mov    %eax,-0x30(%rbp)
    4e45:	83 7d d4 00          	cmpl   $0x0,-0x2c(%rbp)
    4e49:	79 09                	jns    4e54 <_Z13RebuildGridMTi+0x20b>
    4e4b:	c7 45 d4 00 00 00 00 	movl   $0x0,-0x2c(%rbp)
    4e52:	eb 17                	jmp    4e6b <_Z13RebuildGridMTi+0x222>
    4e54:	8b 05 6e 84 00 00    	mov    0x846e(%rip),%eax        # d2c8 <nz>
    4e5a:	39 45 d4             	cmp    %eax,-0x2c(%rbp)
    4e5d:	7c 0c                	jl     4e6b <_Z13RebuildGridMTi+0x222>
    4e5f:	8b 05 63 84 00 00    	mov    0x8463(%rip),%eax        # d2c8 <nz>
    4e65:	83 e8 01             	sub    $0x1,%eax
    4e68:	89 45 d4             	mov    %eax,-0x2c(%rbp)
    4e6b:	8b 05 53 84 00 00    	mov    0x8453(%rip),%eax        # d2c4 <ny>
    4e71:	0f af 45 d4          	imul   -0x2c(%rbp),%eax
    4e75:	89 c2                	mov    %eax,%edx
    4e77:	8b 45 d0             	mov    -0x30(%rbp),%eax
    4e7a:	01 c2                	add    %eax,%edx
    4e7c:	8b 05 3e 84 00 00    	mov    0x843e(%rip),%eax        # d2c0 <nx>
    4e82:	0f af d0             	imul   %eax,%edx
    4e85:	8b 45 cc             	mov    -0x34(%rbp),%eax
    4e88:	01 d0                	add    %edx,%eax
    4e8a:	89 45 e0             	mov    %eax,-0x20(%rbp)
    4e8d:	48 8b 15 84 84 00 00 	mov    0x8484(%rip),%rdx        # d318 <border>
    4e94:	8b 45 e0             	mov    -0x20(%rbp),%eax
    4e97:	48 98                	cltq   
    4e99:	48 01 d0             	add    %rdx,%rax
    4e9c:	0f b6 00             	movzbl (%rax),%eax
    4e9f:	84 c0                	test   %al,%al
    4ea1:	74 1e                	je     4ec1 <_Z13RebuildGridMTi+0x278>
    4ea3:	48 8b 15 b6 84 00 00 	mov    0x84b6(%rip),%rdx        # d360 <mutex>
    4eaa:	8b 45 e0             	mov    -0x20(%rbp),%eax
    4ead:	48 98                	cltq   
    4eaf:	48 c1 e0 03          	shl    $0x3,%rax
    4eb3:	48 01 d0             	add    %rdx,%rax
    4eb6:	48 8b 00             	mov    (%rax),%rax
    4eb9:	48 89 c7             	mov    %rax,%rdi
    4ebc:	e8 af d5 ff ff       	call   2470 <pthread_mutex_lock@plt>
    4ec1:	48 8b 15 40 84 00 00 	mov    0x8440(%rip),%rdx        # d308 <last_cells>
    4ec8:	8b 45 e0             	mov    -0x20(%rbp),%eax
    4ecb:	48 98                	cltq   
    4ecd:	48 c1 e0 03          	shl    $0x3,%rax
    4ed1:	48 01 d0             	add    %rdx,%rax
    4ed4:	48 8b 00             	mov    (%rax),%rax
    4ed7:	48 89 45 f0          	mov    %rax,-0x10(%rbp)
    4edb:	48 8b 15 16 84 00 00 	mov    0x8416(%rip),%rdx        # d2f8 <cnumPars>
    4ee2:	8b 45 e0             	mov    -0x20(%rbp),%eax
    4ee5:	48 98                	cltq   
    4ee7:	48 c1 e0 02          	shl    $0x2,%rax
    4eeb:	48 01 d0             	add    %rdx,%rax
    4eee:	8b 00                	mov    (%rax),%eax
    4ef0:	89 45 e4             	mov    %eax,-0x1c(%rbp)
    4ef3:	8b 45 e4             	mov    -0x1c(%rbp),%eax
    4ef6:	83 e0 0f             	and    $0xf,%eax
    4ef9:	85 c0                	test   %eax,%eax
    4efb:	75 72                	jne    4f6f <_Z13RebuildGridMTi+0x326>
    4efd:	48 8b 15 f4 83 00 00 	mov    0x83f4(%rip),%rdx        # d2f8 <cnumPars>
    4f04:	8b 45 e0             	mov    -0x20(%rbp),%eax
    4f07:	48 98                	cltq   
    4f09:	48 c1 e0 02          	shl    $0x2,%rax
    4f0d:	48 01 d0             	add    %rdx,%rax
    4f10:	8b 00                	mov    (%rax),%eax
    4f12:	85 c0                	test   %eax,%eax
    4f14:	74 59                	je     4f6f <_Z13RebuildGridMTi+0x326>
    4f16:	48 8b 0d 83 83 00 00 	mov    0x8383(%rip),%rcx        # d2a0 <pools>
    4f1d:	8b 45 ac             	mov    -0x54(%rbp),%eax
    4f20:	48 63 d0             	movslq %eax,%rdx
    4f23:	48 89 d0             	mov    %rdx,%rax
    4f26:	48 01 c0             	add    %rax,%rax
    4f29:	48 01 d0             	add    %rdx,%rax
    4f2c:	48 c1 e0 03          	shl    $0x3,%rax
    4f30:	48 01 c8             	add    %rcx,%rax
    4f33:	48 89 c7             	mov    %rax,%rdi
    4f36:	e8 61 39 00 00       	call   889c <_Z16cellpool_getcellP8cellpool>
    4f3b:	48 8b 55 f0          	mov    -0x10(%rbp),%rdx
    4f3f:	48 89 82 40 03 00 00 	mov    %rax,0x340(%rdx)
    4f46:	48 8b 45 f0          	mov    -0x10(%rbp),%rax
    4f4a:	48 8b 80 40 03 00 00 	mov    0x340(%rax),%rax
    4f51:	48 89 45 f0          	mov    %rax,-0x10(%rbp)
    4f55:	48 8b 15 ac 83 00 00 	mov    0x83ac(%rip),%rdx        # d308 <last_cells>
    4f5c:	8b 45 e0             	mov    -0x20(%rbp),%eax
    4f5f:	48 98                	cltq   
    4f61:	48 c1 e0 03          	shl    $0x3,%rax
    4f65:	48 01 c2             	add    %rax,%rdx
    4f68:	48 8b 45 f0          	mov    -0x10(%rbp),%rax
    4f6c:	48 89 02             	mov    %rax,(%rdx)
    4f6f:	48 8b 15 82 83 00 00 	mov    0x8382(%rip),%rdx        # d2f8 <cnumPars>
    4f76:	8b 45 e0             	mov    -0x20(%rbp),%eax
    4f79:	48 98                	cltq   
    4f7b:	48 c1 e0 02          	shl    $0x2,%rax
    4f7f:	48 01 d0             	add    %rdx,%rax
    4f82:	8b 10                	mov    (%rax),%edx
    4f84:	83 c2 01             	add    $0x1,%edx
    4f87:	89 10                	mov    %edx,(%rax)
    4f89:	48 8b 15 88 83 00 00 	mov    0x8388(%rip),%rdx        # d318 <border>
    4f90:	8b 45 e0             	mov    -0x20(%rbp),%eax
    4f93:	48 98                	cltq   
    4f95:	48 01 d0             	add    %rdx,%rax
    4f98:	0f b6 00             	movzbl (%rax),%eax
    4f9b:	84 c0                	test   %al,%al
    4f9d:	74 1e                	je     4fbd <_Z13RebuildGridMTi+0x374>
    4f9f:	48 8b 15 ba 83 00 00 	mov    0x83ba(%rip),%rdx        # d360 <mutex>
    4fa6:	8b 45 e0             	mov    -0x20(%rbp),%eax
    4fa9:	48 98                	cltq   
    4fab:	48 c1 e0 03          	shl    $0x3,%rax
    4faf:	48 01 d0             	add    %rdx,%rax
    4fb2:	48 8b 00             	mov    (%rax),%rax
    4fb5:	48 89 c7             	mov    %rax,%rdi
    4fb8:	e8 93 d3 ff ff       	call   2350 <pthread_mutex_unlock@plt>
    4fbd:	8b 45 c8             	mov    -0x38(%rbp),%eax
    4fc0:	99                   	cltd   
    4fc1:	c1 ea 1c             	shr    $0x1c,%edx
    4fc4:	01 d0                	add    %edx,%eax
    4fc6:	83 e0 0f             	and    $0xf,%eax
    4fc9:	29 d0                	sub    %edx,%eax
    4fcb:	89 c7                	mov    %eax,%edi
    4fcd:	8b 45 e4             	mov    -0x1c(%rbp),%eax
    4fd0:	99                   	cltd   
    4fd1:	c1 ea 1c             	shr    $0x1c,%edx
    4fd4:	01 d0                	add    %edx,%eax
    4fd6:	83 e0 0f             	and    $0xf,%eax
    4fd9:	29 d0                	sub    %edx,%eax
    4fdb:	48 8b 4d f0          	mov    -0x10(%rbp),%rcx
    4fdf:	48 63 d0             	movslq %eax,%rdx
    4fe2:	48 89 d0             	mov    %rdx,%rax
    4fe5:	48 01 c0             	add    %rax,%rax
    4fe8:	48 01 d0             	add    %rdx,%rax
    4feb:	48 c1 e0 02          	shl    $0x2,%rax
    4fef:	48 8d 14 01          	lea    (%rcx,%rax,1),%rdx
    4ff3:	48 8b 75 e8          	mov    -0x18(%rbp),%rsi
    4ff7:	48 63 cf             	movslq %edi,%rcx
    4ffa:	48 89 c8             	mov    %rcx,%rax
    4ffd:	48 01 c0             	add    %rax,%rax
    5000:	48 01 c8             	add    %rcx,%rax
    5003:	48 c1 e0 02          	shl    $0x2,%rax
    5007:	48 01 f0             	add    %rsi,%rax
    500a:	48 8b 08             	mov    (%rax),%rcx
    500d:	48 89 0a             	mov    %rcx,(%rdx)
    5010:	8b 40 08             	mov    0x8(%rax),%eax
    5013:	89 42 08             	mov    %eax,0x8(%rdx)
    5016:	8b 45 c8             	mov    -0x38(%rbp),%eax
    5019:	99                   	cltd   
    501a:	c1 ea 1c             	shr    $0x1c,%edx
    501d:	01 d0                	add    %edx,%eax
    501f:	83 e0 0f             	and    $0xf,%eax
    5022:	29 d0                	sub    %edx,%eax
    5024:	89 c7                	mov    %eax,%edi
    5026:	8b 45 e4             	mov    -0x1c(%rbp),%eax
    5029:	99                   	cltd   
    502a:	c1 ea 1c             	shr    $0x1c,%edx
    502d:	01 d0                	add    %edx,%eax
    502f:	83 e0 0f             	and    $0xf,%eax
    5032:	29 d0                	sub    %edx,%eax
    5034:	48 8b 4d f0          	mov    -0x10(%rbp),%rcx
    5038:	48 63 d0             	movslq %eax,%rdx
    503b:	48 89 d0             	mov    %rdx,%rax
    503e:	48 01 c0             	add    %rax,%rax
    5041:	48 01 d0             	add    %rdx,%rax
    5044:	48 c1 e0 02          	shl    $0x2,%rax
    5048:	48 01 c8             	add    %rcx,%rax
    504b:	48 8d 90 c0 00 00 00 	lea    0xc0(%rax),%rdx
    5052:	48 8b 75 e8          	mov    -0x18(%rbp),%rsi
    5056:	48 63 cf             	movslq %edi,%rcx
    5059:	48 89 c8             	mov    %rcx,%rax
    505c:	48 01 c0             	add    %rax,%rax
    505f:	48 01 c8             	add    %rcx,%rax
    5062:	48 c1 e0 02          	shl    $0x2,%rax
    5066:	48 01 f0             	add    %rsi,%rax
    5069:	48 05 c0 00 00 00    	add    $0xc0,%rax
    506f:	48 8b 08             	mov    (%rax),%rcx
    5072:	48 89 0a             	mov    %rcx,(%rdx)
    5075:	8b 40 08             	mov    0x8(%rax),%eax
    5078:	89 42 08             	mov    %eax,0x8(%rdx)
    507b:	8b 45 c8             	mov    -0x38(%rbp),%eax
    507e:	99                   	cltd   
    507f:	c1 ea 1c             	shr    $0x1c,%edx
    5082:	01 d0                	add    %edx,%eax
    5084:	83 e0 0f             	and    $0xf,%eax
    5087:	29 d0                	sub    %edx,%eax
    5089:	89 c7                	mov    %eax,%edi
    508b:	8b 45 e4             	mov    -0x1c(%rbp),%eax
    508e:	99                   	cltd   
    508f:	c1 ea 1c             	shr    $0x1c,%edx
    5092:	01 d0                	add    %edx,%eax
    5094:	83 e0 0f             	and    $0xf,%eax
    5097:	29 d0                	sub    %edx,%eax
    5099:	48 8b 4d f0          	mov    -0x10(%rbp),%rcx
    509d:	48 63 d0             	movslq %eax,%rdx
    50a0:	48 89 d0             	mov    %rdx,%rax
    50a3:	48 01 c0             	add    %rax,%rax
    50a6:	48 01 d0             	add    %rdx,%rax
    50a9:	48 c1 e0 02          	shl    $0x2,%rax
    50ad:	48 01 c8             	add    %rcx,%rax
    50b0:	48 8d 90 80 01 00 00 	lea    0x180(%rax),%rdx
    50b7:	48 8b 75 e8          	mov    -0x18(%rbp),%rsi
    50bb:	48 63 cf             	movslq %edi,%rcx
    50be:	48 89 c8             	mov    %rcx,%rax
    50c1:	48 01 c0             	add    %rax,%rax
    50c4:	48 01 c8             	add    %rcx,%rax
    50c7:	48 c1 e0 02          	shl    $0x2,%rax
    50cb:	48 01 f0             	add    %rsi,%rax
    50ce:	48 05 80 01 00 00    	add    $0x180,%rax
    50d4:	48 8b 08             	mov    (%rax),%rcx
    50d7:	48 89 0a             	mov    %rcx,(%rdx)
    50da:	8b 40 08             	mov    0x8(%rax),%eax
    50dd:	89 42 08             	mov    %eax,0x8(%rdx)
    50e0:	8b 45 c8             	mov    -0x38(%rbp),%eax
    50e3:	99                   	cltd   
    50e4:	c1 ea 1c             	shr    $0x1c,%edx
    50e7:	01 d0                	add    %edx,%eax
    50e9:	83 e0 0f             	and    $0xf,%eax
    50ec:	29 d0                	sub    %edx,%eax
    50ee:	83 f8 0f             	cmp    $0xf,%eax
    50f1:	75 68                	jne    515b <_Z13RebuildGridMTi+0x512>
    50f3:	48 8b 45 e8          	mov    -0x18(%rbp),%rax
    50f7:	48 89 45 f8          	mov    %rax,-0x8(%rbp)
    50fb:	48 8b 45 e8          	mov    -0x18(%rbp),%rax
    50ff:	48 8b 80 40 03 00 00 	mov    0x340(%rax),%rax
    5106:	48 89 45 e8          	mov    %rax,-0x18(%rbp)
    510a:	48 8b 0d df 81 00 00 	mov    0x81df(%rip),%rcx        # d2f0 <cells2>
    5111:	8b 45 d8             	mov    -0x28(%rbp),%eax
    5114:	48 63 d0             	movslq %eax,%rdx
    5117:	48 89 d0             	mov    %rdx,%rax
    511a:	48 c1 e0 03          	shl    $0x3,%rax
    511e:	48 29 d0             	sub    %rdx,%rax
    5121:	48 c1 e0 07          	shl    $0x7,%rax
    5125:	48 01 c8             	add    %rcx,%rax
    5128:	48 39 45 f8          	cmp    %rax,-0x8(%rbp)
    512c:	74 2d                	je     515b <_Z13RebuildGridMTi+0x512>
    512e:	48 8b 0d 6b 81 00 00 	mov    0x816b(%rip),%rcx        # d2a0 <pools>
    5135:	8b 45 ac             	mov    -0x54(%rbp),%eax
    5138:	48 63 d0             	movslq %eax,%rdx
    513b:	48 89 d0             	mov    %rdx,%rax
    513e:	48 01 c0             	add    %rax,%rax
    5141:	48 01 d0             	add    %rdx,%rax
    5144:	48 c1 e0 03          	shl    $0x3,%rax
    5148:	48 8d 14 01          	lea    (%rcx,%rax,1),%rdx
    514c:	48 8b 45 f8          	mov    -0x8(%rbp),%rax
    5150:	48 89 c6             	mov    %rax,%rsi
    5153:	48 89 d7             	mov    %rdx,%rdi
    5156:	e8 12 38 00 00       	call   896d <_Z19cellpool_returncellP8cellpoolP4Cell>
    515b:	83 45 c8 01          	addl   $0x1,-0x38(%rbp)
    515f:	8b 45 c8             	mov    -0x38(%rbp),%eax
    5162:	3b 45 dc             	cmp    -0x24(%rbp),%eax
    5165:	0f 8c ae fb ff ff    	jl     4d19 <_Z13RebuildGridMTi+0xd0>
    516b:	48 83 7d e8 00       	cmpq   $0x0,-0x18(%rbp)
    5170:	74 51                	je     51c3 <_Z13RebuildGridMTi+0x57a>
    5172:	48 8b 0d 77 81 00 00 	mov    0x8177(%rip),%rcx        # d2f0 <cells2>
    5179:	8b 45 d8             	mov    -0x28(%rbp),%eax
    517c:	48 63 d0             	movslq %eax,%rdx
    517f:	48 89 d0             	mov    %rdx,%rax
    5182:	48 c1 e0 03          	shl    $0x3,%rax
    5186:	48 29 d0             	sub    %rdx,%rax
    5189:	48 c1 e0 07          	shl    $0x7,%rax
    518d:	48 01 c8             	add    %rcx,%rax
    5190:	48 39 45 e8          	cmp    %rax,-0x18(%rbp)
    5194:	74 2d                	je     51c3 <_Z13RebuildGridMTi+0x57a>
    5196:	48 8b 0d 03 81 00 00 	mov    0x8103(%rip),%rcx        # d2a0 <pools>
    519d:	8b 45 ac             	mov    -0x54(%rbp),%eax
    51a0:	48 63 d0             	movslq %eax,%rdx
    51a3:	48 89 d0             	mov    %rdx,%rax
    51a6:	48 01 c0             	add    %rax,%rax
    51a9:	48 01 d0             	add    %rdx,%rax
    51ac:	48 c1 e0 03          	shl    $0x3,%rax
    51b0:	48 8d 14 01          	lea    (%rcx,%rax,1),%rdx
    51b4:	48 8b 45 e8          	mov    -0x18(%rbp),%rax
    51b8:	48 89 c6             	mov    %rax,%rsi
    51bb:	48 89 d7             	mov    %rdx,%rdi
    51be:	e8 aa 37 00 00       	call   896d <_Z19cellpool_returncellP8cellpoolP4Cell>
    51c3:	83 45 c4 01          	addl   $0x1,-0x3c(%rbp)
    51c7:	48 8b 15 42 81 00 00 	mov    0x8142(%rip),%rdx        # d310 <grids>
    51ce:	8b 45 ac             	mov    -0x54(%rbp),%eax
    51d1:	48 98                	cltq   
    51d3:	48 c1 e0 07          	shl    $0x7,%rax
    51d7:	48 01 d0             	add    %rdx,%rax
    51da:	8b 40 0c             	mov    0xc(%rax),%eax
    51dd:	39 45 c4             	cmp    %eax,-0x3c(%rbp)
    51e0:	0f 8c cb fa ff ff    	jl     4cb1 <_Z13RebuildGridMTi+0x68>
    51e6:	83 45 c0 01          	addl   $0x1,-0x40(%rbp)
    51ea:	48 8b 15 1f 81 00 00 	mov    0x811f(%rip),%rdx        # d310 <grids>
    51f1:	8b 45 ac             	mov    -0x54(%rbp),%eax
    51f4:	48 98                	cltq   
    51f6:	48 c1 e0 07          	shl    $0x7,%rax
    51fa:	48 01 d0             	add    %rdx,%rax
    51fd:	8b 40 10             	mov    0x10(%rax),%eax
    5200:	39 45 c0             	cmp    %eax,-0x40(%rbp)
    5203:	0f 8c 8b fa ff ff    	jl     4c94 <_Z13RebuildGridMTi+0x4b>
    5209:	83 45 bc 01          	addl   $0x1,-0x44(%rbp)
    520d:	48 8b 15 fc 80 00 00 	mov    0x80fc(%rip),%rdx        # d310 <grids>
    5214:	8b 45 ac             	mov    -0x54(%rbp),%eax
    5217:	48 98                	cltq   
    5219:	48 c1 e0 07          	shl    $0x7,%rax
    521d:	48 01 d0             	add    %rdx,%rax
    5220:	8b 40 14             	mov    0x14(%rax),%eax
    5223:	39 45 bc             	cmp    %eax,-0x44(%rbp)
    5226:	0f 8c 4a fa ff ff    	jl     4c76 <_Z13RebuildGridMTi+0x2d>
    522c:	90                   	nop
    522d:	90                   	nop
    522e:	c9                   	leave  
    522f:	c3                   	ret    

0000000000005230 <_Z17InitNeighCellListiiiPi>:
    5230:	f3 0f 1e fa          	endbr64 
    5234:	55                   	push   %rbp
    5235:	48 89 e5             	mov    %rsp,%rbp
    5238:	89 7d cc             	mov    %edi,-0x34(%rbp)
    523b:	89 75 c8             	mov    %esi,-0x38(%rbp)
    523e:	89 55 c4             	mov    %edx,-0x3c(%rbp)
    5241:	48 89 4d b8          	mov    %rcx,-0x48(%rbp)
    5245:	c7 45 dc 00 00 00 00 	movl   $0x0,-0x24(%rbp)
    524c:	8b 05 72 80 00 00    	mov    0x8072(%rip),%eax        # d2c4 <ny>
    5252:	0f af 45 c4          	imul   -0x3c(%rbp),%eax
    5256:	89 c2                	mov    %eax,%edx
    5258:	8b 45 c8             	mov    -0x38(%rbp),%eax
    525b:	01 c2                	add    %eax,%edx
    525d:	8b 05 5d 80 00 00    	mov    0x805d(%rip),%eax        # d2c0 <nx>
    5263:	0f af d0             	imul   %eax,%edx
    5266:	8b 45 cc             	mov    -0x34(%rbp),%eax
    5269:	01 d0                	add    %edx,%eax
    526b:	89 45 ec             	mov    %eax,-0x14(%rbp)
    526e:	8b 45 dc             	mov    -0x24(%rbp),%eax
    5271:	48 98                	cltq   
    5273:	48 8d 14 85 00 00 00 	lea    0x0(,%rax,4),%rdx
    527a:	00 
    527b:	48 8b 45 b8          	mov    -0x48(%rbp),%rax
    527f:	48 01 c2             	add    %rax,%rdx
    5282:	8b 45 ec             	mov    -0x14(%rbp),%eax
    5285:	89 02                	mov    %eax,(%rdx)
    5287:	83 45 dc 01          	addl   $0x1,-0x24(%rbp)
    528b:	c7 45 e0 ff ff ff ff 	movl   $0xffffffff,-0x20(%rbp)
    5292:	e9 f4 00 00 00       	jmp    538b <_Z17InitNeighCellListiiiPi+0x15b>
    5297:	c7 45 e4 ff ff ff ff 	movl   $0xffffffff,-0x1c(%rbp)
    529e:	e9 da 00 00 00       	jmp    537d <_Z17InitNeighCellListiiiPi+0x14d>
    52a3:	c7 45 e8 ff ff ff ff 	movl   $0xffffffff,-0x18(%rbp)
    52aa:	e9 c0 00 00 00       	jmp    536f <_Z17InitNeighCellListiiiPi+0x13f>
    52af:	8b 55 cc             	mov    -0x34(%rbp),%edx
    52b2:	8b 45 e0             	mov    -0x20(%rbp),%eax
    52b5:	01 d0                	add    %edx,%eax
    52b7:	89 45 f0             	mov    %eax,-0x10(%rbp)
    52ba:	8b 55 c8             	mov    -0x38(%rbp),%edx
    52bd:	8b 45 e4             	mov    -0x1c(%rbp),%eax
    52c0:	01 d0                	add    %edx,%eax
    52c2:	89 45 f4             	mov    %eax,-0xc(%rbp)
    52c5:	8b 55 c4             	mov    -0x3c(%rbp),%edx
    52c8:	8b 45 e8             	mov    -0x18(%rbp),%eax
    52cb:	01 d0                	add    %edx,%eax
    52cd:	89 45 f8             	mov    %eax,-0x8(%rbp)
    52d0:	83 7d f0 00          	cmpl   $0x0,-0x10(%rbp)
    52d4:	0f 88 91 00 00 00    	js     536b <_Z17InitNeighCellListiiiPi+0x13b>
    52da:	8b 05 e0 7f 00 00    	mov    0x7fe0(%rip),%eax        # d2c0 <nx>
    52e0:	39 45 f0             	cmp    %eax,-0x10(%rbp)
    52e3:	0f 8d 82 00 00 00    	jge    536b <_Z17InitNeighCellListiiiPi+0x13b>
    52e9:	83 7d f4 00          	cmpl   $0x0,-0xc(%rbp)
    52ed:	78 7c                	js     536b <_Z17InitNeighCellListiiiPi+0x13b>
    52ef:	8b 05 cf 7f 00 00    	mov    0x7fcf(%rip),%eax        # d2c4 <ny>
    52f5:	39 45 f4             	cmp    %eax,-0xc(%rbp)
    52f8:	7d 71                	jge    536b <_Z17InitNeighCellListiiiPi+0x13b>
    52fa:	83 7d f8 00          	cmpl   $0x0,-0x8(%rbp)
    52fe:	78 6b                	js     536b <_Z17InitNeighCellListiiiPi+0x13b>
    5300:	8b 05 c2 7f 00 00    	mov    0x7fc2(%rip),%eax        # d2c8 <nz>
    5306:	39 45 f8             	cmp    %eax,-0x8(%rbp)
    5309:	7d 60                	jge    536b <_Z17InitNeighCellListiiiPi+0x13b>
    530b:	8b 05 b3 7f 00 00    	mov    0x7fb3(%rip),%eax        # d2c4 <ny>
    5311:	0f af 45 f8          	imul   -0x8(%rbp),%eax
    5315:	89 c2                	mov    %eax,%edx
    5317:	8b 45 f4             	mov    -0xc(%rbp),%eax
    531a:	01 c2                	add    %eax,%edx
    531c:	8b 05 9e 7f 00 00    	mov    0x7f9e(%rip),%eax        # d2c0 <nx>
    5322:	0f af d0             	imul   %eax,%edx
    5325:	8b 45 f0             	mov    -0x10(%rbp),%eax
    5328:	01 d0                	add    %edx,%eax
    532a:	89 45 fc             	mov    %eax,-0x4(%rbp)
    532d:	8b 45 fc             	mov    -0x4(%rbp),%eax
    5330:	3b 45 ec             	cmp    -0x14(%rbp),%eax
    5333:	7d 36                	jge    536b <_Z17InitNeighCellListiiiPi+0x13b>
    5335:	48 8b 15 bc 7f 00 00 	mov    0x7fbc(%rip),%rdx        # d2f8 <cnumPars>
    533c:	8b 45 fc             	mov    -0x4(%rbp),%eax
    533f:	48 98                	cltq   
    5341:	48 c1 e0 02          	shl    $0x2,%rax
    5345:	48 01 d0             	add    %rdx,%rax
    5348:	8b 00                	mov    (%rax),%eax
    534a:	85 c0                	test   %eax,%eax
    534c:	74 1d                	je     536b <_Z17InitNeighCellListiiiPi+0x13b>
    534e:	8b 45 dc             	mov    -0x24(%rbp),%eax
    5351:	48 98                	cltq   
    5353:	48 8d 14 85 00 00 00 	lea    0x0(,%rax,4),%rdx
    535a:	00 
    535b:	48 8b 45 b8          	mov    -0x48(%rbp),%rax
    535f:	48 01 c2             	add    %rax,%rdx
    5362:	8b 45 fc             	mov    -0x4(%rbp),%eax
    5365:	89 02                	mov    %eax,(%rdx)
    5367:	83 45 dc 01          	addl   $0x1,-0x24(%rbp)
    536b:	83 45 e8 01          	addl   $0x1,-0x18(%rbp)
    536f:	83 7d e8 01          	cmpl   $0x1,-0x18(%rbp)
    5373:	0f 8e 36 ff ff ff    	jle    52af <_Z17InitNeighCellListiiiPi+0x7f>
    5379:	83 45 e4 01          	addl   $0x1,-0x1c(%rbp)
    537d:	83 7d e4 01          	cmpl   $0x1,-0x1c(%rbp)
    5381:	0f 8e 1c ff ff ff    	jle    52a3 <_Z17InitNeighCellListiiiPi+0x73>
    5387:	83 45 e0 01          	addl   $0x1,-0x20(%rbp)
    538b:	83 7d e0 01          	cmpl   $0x1,-0x20(%rbp)
    538f:	0f 8e 02 ff ff ff    	jle    5297 <_Z17InitNeighCellListiiiPi+0x67>
    5395:	8b 45 dc             	mov    -0x24(%rbp),%eax
    5398:	5d                   	pop    %rbp
    5399:	c3                   	ret    

000000000000539a <_Z24InitDensitiesAndForcesMTi>:
    539a:	f3 0f 1e fa          	endbr64 
    539e:	55                   	push   %rbp
    539f:	48 89 e5             	mov    %rsp,%rbp
    53a2:	89 7d dc             	mov    %edi,-0x24(%rbp)
    53a5:	48 8b 15 64 7f 00 00 	mov    0x7f64(%rip),%rdx        # d310 <grids>
    53ac:	8b 45 dc             	mov    -0x24(%rbp),%eax
    53af:	48 98                	cltq   
    53b1:	48 c1 e0 07          	shl    $0x7,%rax
    53b5:	48 01 d0             	add    %rdx,%rax
    53b8:	8b 40 08             	mov    0x8(%rax),%eax
    53bb:	89 45 e0             	mov    %eax,-0x20(%rbp)
    53be:	e9 84 01 00 00       	jmp    5547 <_Z24InitDensitiesAndForcesMTi+0x1ad>
    53c3:	48 8b 15 46 7f 00 00 	mov    0x7f46(%rip),%rdx        # d310 <grids>
    53ca:	8b 45 dc             	mov    -0x24(%rbp),%eax
    53cd:	48 98                	cltq   
    53cf:	48 c1 e0 07          	shl    $0x7,%rax
    53d3:	48 01 d0             	add    %rdx,%rax
    53d6:	8b 40 04             	mov    0x4(%rax),%eax
    53d9:	89 45 e4             	mov    %eax,-0x1c(%rbp)
    53dc:	e9 43 01 00 00       	jmp    5524 <_Z24InitDensitiesAndForcesMTi+0x18a>
    53e1:	48 8b 15 28 7f 00 00 	mov    0x7f28(%rip),%rdx        # d310 <grids>
    53e8:	8b 45 dc             	mov    -0x24(%rbp),%eax
    53eb:	48 98                	cltq   
    53ed:	48 c1 e0 07          	shl    $0x7,%rax
    53f1:	48 01 d0             	add    %rdx,%rax
    53f4:	8b 00                	mov    (%rax),%eax
    53f6:	89 45 e8             	mov    %eax,-0x18(%rbp)
    53f9:	e9 03 01 00 00       	jmp    5501 <_Z24InitDensitiesAndForcesMTi+0x167>
    53fe:	8b 05 c0 7e 00 00    	mov    0x7ec0(%rip),%eax        # d2c4 <ny>
    5404:	0f af 45 e0          	imul   -0x20(%rbp),%eax
    5408:	89 c2                	mov    %eax,%edx
    540a:	8b 45 e4             	mov    -0x1c(%rbp),%eax
    540d:	01 c2                	add    %eax,%edx
    540f:	8b 05 ab 7e 00 00    	mov    0x7eab(%rip),%eax        # d2c0 <nx>
    5415:	0f af d0             	imul   %eax,%edx
    5418:	8b 45 e8             	mov    -0x18(%rbp),%eax
    541b:	01 d0                	add    %edx,%eax
    541d:	89 45 f0             	mov    %eax,-0x10(%rbp)
    5420:	48 8b 0d c1 7e 00 00 	mov    0x7ec1(%rip),%rcx        # d2e8 <cells>
    5427:	8b 45 f0             	mov    -0x10(%rbp),%eax
    542a:	48 63 d0             	movslq %eax,%rdx
    542d:	48 89 d0             	mov    %rdx,%rax
    5430:	48 c1 e0 03          	shl    $0x3,%rax
    5434:	48 29 d0             	sub    %rdx,%rax
    5437:	48 c1 e0 07          	shl    $0x7,%rax
    543b:	48 01 c8             	add    %rcx,%rax
    543e:	48 89 45 f8          	mov    %rax,-0x8(%rbp)
    5442:	48 8b 15 af 7e 00 00 	mov    0x7eaf(%rip),%rdx        # d2f8 <cnumPars>
    5449:	8b 45 f0             	mov    -0x10(%rbp),%eax
    544c:	48 98                	cltq   
    544e:	48 c1 e0 02          	shl    $0x2,%rax
    5452:	48 01 d0             	add    %rdx,%rax
    5455:	8b 00                	mov    (%rax),%eax
    5457:	89 45 f4             	mov    %eax,-0xc(%rbp)
    545a:	c7 45 ec 00 00 00 00 	movl   $0x0,-0x14(%rbp)
    5461:	e9 8b 00 00 00       	jmp    54f1 <_Z24InitDensitiesAndForcesMTi+0x157>
    5466:	8b 45 ec             	mov    -0x14(%rbp),%eax
    5469:	99                   	cltd   
    546a:	c1 ea 1c             	shr    $0x1c,%edx
    546d:	01 d0                	add    %edx,%eax
    546f:	83 e0 0f             	and    $0xf,%eax
    5472:	29 d0                	sub    %edx,%eax
    5474:	89 c2                	mov    %eax,%edx
    5476:	48 8b 45 f8          	mov    -0x8(%rbp),%rax
    547a:	48 63 d2             	movslq %edx,%rdx
    547d:	48 81 c2 c0 00 00 00 	add    $0xc0,%rdx
    5484:	66 0f ef c0          	pxor   %xmm0,%xmm0
    5488:	f3 0f 11 04 90       	movss  %xmm0,(%rax,%rdx,4)
    548d:	8b 45 ec             	mov    -0x14(%rbp),%eax
    5490:	99                   	cltd   
    5491:	c1 ea 1c             	shr    $0x1c,%edx
    5494:	01 d0                	add    %edx,%eax
    5496:	83 e0 0f             	and    $0xf,%eax
    5499:	29 d0                	sub    %edx,%eax
    549b:	48 8b 4d f8          	mov    -0x8(%rbp),%rcx
    549f:	48 63 d0             	movslq %eax,%rdx
    54a2:	48 89 d0             	mov    %rdx,%rax
    54a5:	48 01 c0             	add    %rax,%rax
    54a8:	48 01 d0             	add    %rdx,%rax
    54ab:	48 c1 e0 02          	shl    $0x2,%rax
    54af:	48 01 c8             	add    %rcx,%rax
    54b2:	48 05 40 02 00 00    	add    $0x240,%rax
    54b8:	48 8b 15 31 7f 00 00 	mov    0x7f31(%rip),%rdx        # d3f0 <_ZL20externalAcceleration>
    54bf:	48 89 10             	mov    %rdx,(%rax)
    54c2:	8b 15 30 7f 00 00    	mov    0x7f30(%rip),%edx        # d3f8 <_ZL20externalAcceleration+0x8>
    54c8:	89 50 08             	mov    %edx,0x8(%rax)
    54cb:	8b 45 ec             	mov    -0x14(%rbp),%eax
    54ce:	99                   	cltd   
    54cf:	c1 ea 1c             	shr    $0x1c,%edx
    54d2:	01 d0                	add    %edx,%eax
    54d4:	83 e0 0f             	and    $0xf,%eax
    54d7:	29 d0                	sub    %edx,%eax
    54d9:	83 f8 0f             	cmp    $0xf,%eax
    54dc:	75 0f                	jne    54ed <_Z24InitDensitiesAndForcesMTi+0x153>
    54de:	48 8b 45 f8          	mov    -0x8(%rbp),%rax
    54e2:	48 8b 80 40 03 00 00 	mov    0x340(%rax),%rax
    54e9:	48 89 45 f8          	mov    %rax,-0x8(%rbp)
    54ed:	83 45 ec 01          	addl   $0x1,-0x14(%rbp)
    54f1:	8b 45 ec             	mov    -0x14(%rbp),%eax
    54f4:	3b 45 f4             	cmp    -0xc(%rbp),%eax
    54f7:	0f 8c 69 ff ff ff    	jl     5466 <_Z24InitDensitiesAndForcesMTi+0xcc>
    54fd:	83 45 e8 01          	addl   $0x1,-0x18(%rbp)
    5501:	48 8b 15 08 7e 00 00 	mov    0x7e08(%rip),%rdx        # d310 <grids>
    5508:	8b 45 dc             	mov    -0x24(%rbp),%eax
    550b:	48 98                	cltq   
    550d:	48 c1 e0 07          	shl    $0x7,%rax
    5511:	48 01 d0             	add    %rdx,%rax
    5514:	8b 40 0c             	mov    0xc(%rax),%eax
    5517:	39 45 e8             	cmp    %eax,-0x18(%rbp)
    551a:	0f 8c de fe ff ff    	jl     53fe <_Z24InitDensitiesAndForcesMTi+0x64>
    5520:	83 45 e4 01          	addl   $0x1,-0x1c(%rbp)
    5524:	48 8b 15 e5 7d 00 00 	mov    0x7de5(%rip),%rdx        # d310 <grids>
    552b:	8b 45 dc             	mov    -0x24(%rbp),%eax
    552e:	48 98                	cltq   
    5530:	48 c1 e0 07          	shl    $0x7,%rax
    5534:	48 01 d0             	add    %rdx,%rax
    5537:	8b 40 10             	mov    0x10(%rax),%eax
    553a:	39 45 e4             	cmp    %eax,-0x1c(%rbp)
    553d:	0f 8c 9e fe ff ff    	jl     53e1 <_Z24InitDensitiesAndForcesMTi+0x47>
    5543:	83 45 e0 01          	addl   $0x1,-0x20(%rbp)
    5547:	48 8b 15 c2 7d 00 00 	mov    0x7dc2(%rip),%rdx        # d310 <grids>
    554e:	8b 45 dc             	mov    -0x24(%rbp),%eax
    5551:	48 98                	cltq   
    5553:	48 c1 e0 07          	shl    $0x7,%rax
    5557:	48 01 d0             	add    %rdx,%rax
    555a:	8b 40 14             	mov    0x14(%rax),%eax
    555d:	39 45 e0             	cmp    %eax,-0x20(%rbp)
    5560:	0f 8c 5d fe ff ff    	jl     53c3 <_Z24InitDensitiesAndForcesMTi+0x29>
    5566:	90                   	nop
    5567:	90                   	nop
    5568:	5d                   	pop    %rbp
    5569:	c3                   	ret    

000000000000556a <_Z18ComputeDensitiesMTi>:
    556a:	f3 0f 1e fa          	endbr64 
    556e:	55                   	push   %rbp
    556f:	48 89 e5             	mov    %rsp,%rbp
    5572:	48 81 ec f0 00 00 00 	sub    $0xf0,%rsp
    5579:	89 bd 1c ff ff ff    	mov    %edi,-0xe4(%rbp)
    557f:	64 48 8b 04 25 28 00 	mov    %fs:0x28,%rax
    5586:	00 00 
    5588:	48 89 45 f8          	mov    %rax,-0x8(%rbp)
    558c:	31 c0                	xor    %eax,%eax
    558e:	48 8b 15 7b 7d 00 00 	mov    0x7d7b(%rip),%rdx        # d310 <grids>
    5595:	8b 85 1c ff ff ff    	mov    -0xe4(%rbp),%eax
    559b:	48 98                	cltq   
    559d:	48 c1 e0 07          	shl    $0x7,%rax
    55a1:	48 01 d0             	add    %rdx,%rax
    55a4:	8b 40 08             	mov    0x8(%rax),%eax
    55a7:	89 85 28 ff ff ff    	mov    %eax,-0xd8(%rbp)
    55ad:	e9 27 06 00 00       	jmp    5bd9 <_Z18ComputeDensitiesMTi+0x66f>
    55b2:	48 8b 15 57 7d 00 00 	mov    0x7d57(%rip),%rdx        # d310 <grids>
    55b9:	8b 85 1c ff ff ff    	mov    -0xe4(%rbp),%eax
    55bf:	48 98                	cltq   
    55c1:	48 c1 e0 07          	shl    $0x7,%rax
    55c5:	48 01 d0             	add    %rdx,%rax
    55c8:	8b 40 04             	mov    0x4(%rax),%eax
    55cb:	89 85 2c ff ff ff    	mov    %eax,-0xd4(%rbp)
    55d1:	e9 d7 05 00 00       	jmp    5bad <_Z18ComputeDensitiesMTi+0x643>
    55d6:	48 8b 15 33 7d 00 00 	mov    0x7d33(%rip),%rdx        # d310 <grids>
    55dd:	8b 85 1c ff ff ff    	mov    -0xe4(%rbp),%eax
    55e3:	48 98                	cltq   
    55e5:	48 c1 e0 07          	shl    $0x7,%rax
    55e9:	48 01 d0             	add    %rdx,%rax
    55ec:	8b 00                	mov    (%rax),%eax
    55ee:	89 85 30 ff ff ff    	mov    %eax,-0xd0(%rbp)
    55f4:	e9 88 05 00 00       	jmp    5b81 <_Z18ComputeDensitiesMTi+0x617>
    55f9:	8b 05 c5 7c 00 00    	mov    0x7cc5(%rip),%eax        # d2c4 <ny>
    55ff:	0f af 85 28 ff ff ff 	imul   -0xd8(%rbp),%eax
    5606:	89 c2                	mov    %eax,%edx
    5608:	8b 85 2c ff ff ff    	mov    -0xd4(%rbp),%eax
    560e:	01 c2                	add    %eax,%edx
    5610:	8b 05 aa 7c 00 00    	mov    0x7caa(%rip),%eax        # d2c0 <nx>
    5616:	0f af d0             	imul   %eax,%edx
    5619:	8b 85 30 ff ff ff    	mov    -0xd0(%rbp),%eax
    561f:	01 d0                	add    %edx,%eax
    5621:	89 85 40 ff ff ff    	mov    %eax,-0xc0(%rbp)
    5627:	48 8b 15 ca 7c 00 00 	mov    0x7cca(%rip),%rdx        # d2f8 <cnumPars>
    562e:	8b 85 40 ff ff ff    	mov    -0xc0(%rbp),%eax
    5634:	48 98                	cltq   
    5636:	48 c1 e0 02          	shl    $0x2,%rax
    563a:	48 01 d0             	add    %rdx,%rax
    563d:	8b 00                	mov    (%rax),%eax
    563f:	89 85 44 ff ff ff    	mov    %eax,-0xbc(%rbp)
    5645:	83 bd 44 ff ff ff 00 	cmpl   $0x0,-0xbc(%rbp)
    564c:	0f 84 27 05 00 00    	je     5b79 <_Z18ComputeDensitiesMTi+0x60f>
    5652:	48 8d 4d 80          	lea    -0x80(%rbp),%rcx
    5656:	8b 95 28 ff ff ff    	mov    -0xd8(%rbp),%edx
    565c:	8b b5 2c ff ff ff    	mov    -0xd4(%rbp),%esi
    5662:	8b 85 30 ff ff ff    	mov    -0xd0(%rbp),%eax
    5668:	89 c7                	mov    %eax,%edi
    566a:	e8 c1 fb ff ff       	call   5230 <_Z17InitNeighCellListiiiPi>
    566f:	89 85 48 ff ff ff    	mov    %eax,-0xb8(%rbp)
    5675:	48 8b 0d 6c 7c 00 00 	mov    0x7c6c(%rip),%rcx        # d2e8 <cells>
    567c:	8b 85 40 ff ff ff    	mov    -0xc0(%rbp),%eax
    5682:	48 63 d0             	movslq %eax,%rdx
    5685:	48 89 d0             	mov    %rdx,%rax
    5688:	48 c1 e0 03          	shl    $0x3,%rax
    568c:	48 29 d0             	sub    %rdx,%rax
    568f:	48 c1 e0 07          	shl    $0x7,%rax
    5693:	48 01 c8             	add    %rcx,%rax
    5696:	48 89 85 60 ff ff ff 	mov    %rax,-0xa0(%rbp)
    569d:	c7 85 34 ff ff ff 00 	movl   $0x0,-0xcc(%rbp)
    56a4:	00 00 00 
    56a7:	e9 b9 04 00 00       	jmp    5b65 <_Z18ComputeDensitiesMTi+0x5fb>
    56ac:	c7 85 38 ff ff ff 00 	movl   $0x0,-0xc8(%rbp)
    56b3:	00 00 00 
    56b6:	e9 66 04 00 00       	jmp    5b21 <_Z18ComputeDensitiesMTi+0x5b7>
    56bb:	8b 85 38 ff ff ff    	mov    -0xc8(%rbp),%eax
    56c1:	48 98                	cltq   
    56c3:	8b 44 85 80          	mov    -0x80(%rbp,%rax,4),%eax
    56c7:	89 85 4c ff ff ff    	mov    %eax,-0xb4(%rbp)
    56cd:	48 8b 0d 14 7c 00 00 	mov    0x7c14(%rip),%rcx        # d2e8 <cells>
    56d4:	8b 85 4c ff ff ff    	mov    -0xb4(%rbp),%eax
    56da:	48 63 d0             	movslq %eax,%rdx
    56dd:	48 89 d0             	mov    %rdx,%rax
    56e0:	48 c1 e0 03          	shl    $0x3,%rax
    56e4:	48 29 d0             	sub    %rdx,%rax
    56e7:	48 c1 e0 07          	shl    $0x7,%rax
    56eb:	48 01 c8             	add    %rcx,%rax
    56ee:	48 89 85 68 ff ff ff 	mov    %rax,-0x98(%rbp)
    56f5:	48 8b 15 fc 7b 00 00 	mov    0x7bfc(%rip),%rdx        # d2f8 <cnumPars>
    56fc:	8b 85 4c ff ff ff    	mov    -0xb4(%rbp),%eax
    5702:	48 98                	cltq   
    5704:	48 c1 e0 02          	shl    $0x2,%rax
    5708:	48 01 d0             	add    %rdx,%rax
    570b:	8b 00                	mov    (%rax),%eax
    570d:	89 85 50 ff ff ff    	mov    %eax,-0xb0(%rbp)
    5713:	c7 85 3c ff ff ff 00 	movl   $0x0,-0xc4(%rbp)
    571a:	00 00 00 
    571d:	e9 e6 03 00 00       	jmp    5b08 <_Z18ComputeDensitiesMTi+0x59e>
    5722:	8b 85 3c ff ff ff    	mov    -0xc4(%rbp),%eax
    5728:	99                   	cltd   
    5729:	c1 ea 1c             	shr    $0x1c,%edx
    572c:	01 d0                	add    %edx,%eax
    572e:	83 e0 0f             	and    $0xf,%eax
    5731:	29 d0                	sub    %edx,%eax
    5733:	48 63 d0             	movslq %eax,%rdx
    5736:	48 89 d0             	mov    %rdx,%rax
    5739:	48 01 c0             	add    %rax,%rax
    573c:	48 01 d0             	add    %rdx,%rax
    573f:	48 c1 e0 02          	shl    $0x2,%rax
    5743:	48 8b 95 68 ff ff ff 	mov    -0x98(%rbp),%rdx
    574a:	48 8d 0c 10          	lea    (%rax,%rdx,1),%rcx
    574e:	8b 85 34 ff ff ff    	mov    -0xcc(%rbp),%eax
    5754:	99                   	cltd   
    5755:	c1 ea 1c             	shr    $0x1c,%edx
    5758:	01 d0                	add    %edx,%eax
    575a:	83 e0 0f             	and    $0xf,%eax
    575d:	29 d0                	sub    %edx,%eax
    575f:	48 63 d0             	movslq %eax,%rdx
    5762:	48 89 d0             	mov    %rdx,%rax
    5765:	48 01 c0             	add    %rax,%rax
    5768:	48 01 d0             	add    %rdx,%rax
    576b:	48 c1 e0 02          	shl    $0x2,%rax
    576f:	48 8b 95 60 ff ff ff 	mov    -0xa0(%rbp),%rdx
    5776:	48 01 d0             	add    %rdx,%rax
    5779:	48 39 c1             	cmp    %rax,%rcx
    577c:	0f 83 54 03 00 00    	jae    5ad6 <_Z18ComputeDensitiesMTi+0x56c>
    5782:	8b 85 3c ff ff ff    	mov    -0xc4(%rbp),%eax
    5788:	99                   	cltd   
    5789:	c1 ea 1c             	shr    $0x1c,%edx
    578c:	01 d0                	add    %edx,%eax
    578e:	83 e0 0f             	and    $0xf,%eax
    5791:	29 d0                	sub    %edx,%eax
    5793:	48 63 d0             	movslq %eax,%rdx
    5796:	48 89 d0             	mov    %rdx,%rax
    5799:	48 01 c0             	add    %rax,%rax
    579c:	48 01 d0             	add    %rdx,%rax
    579f:	48 c1 e0 02          	shl    $0x2,%rax
    57a3:	48 8b 95 68 ff ff ff 	mov    -0x98(%rbp),%rdx
    57aa:	48 01 c2             	add    %rax,%rdx
    57ad:	8b 85 34 ff ff ff    	mov    -0xcc(%rbp),%eax
    57b3:	89 c1                	mov    %eax,%ecx
    57b5:	c1 f9 1f             	sar    $0x1f,%ecx
    57b8:	c1 e9 1c             	shr    $0x1c,%ecx
    57bb:	01 c8                	add    %ecx,%eax
    57bd:	83 e0 0f             	and    $0xf,%eax
    57c0:	29 c8                	sub    %ecx,%eax
    57c2:	48 63 c8             	movslq %eax,%rcx
    57c5:	48 89 c8             	mov    %rcx,%rax
    57c8:	48 01 c0             	add    %rax,%rax
    57cb:	48 01 c8             	add    %rcx,%rax
    57ce:	48 c1 e0 02          	shl    $0x2,%rax
    57d2:	48 8b 8d 60 ff ff ff 	mov    -0xa0(%rbp),%rcx
    57d9:	48 01 c8             	add    %rcx,%rax
    57dc:	48 89 d6             	mov    %rdx,%rsi
    57df:	48 89 c7             	mov    %rax,%rdi
    57e2:	e8 fb 2a 00 00       	call   82e2 <_ZNK4Vec3miERKS_>
    57e7:	66 48 0f 7e c0       	movq   %xmm0,%rax
    57ec:	0f 28 c1             	movaps %xmm1,%xmm0
    57ef:	48 89 85 74 ff ff ff 	mov    %rax,-0x8c(%rbp)
    57f6:	f3 0f 11 85 7c ff ff 	movss  %xmm0,-0x84(%rbp)
    57fd:	ff 
    57fe:	48 8d 85 74 ff ff ff 	lea    -0x8c(%rbp),%rax
    5805:	48 89 c7             	mov    %rax,%rdi
    5808:	e8 21 28 00 00       	call   802e <_ZNK4Vec311GetLengthSqEv>
    580d:	66 0f 7e c0          	movd   %xmm0,%eax
    5811:	89 85 54 ff ff ff    	mov    %eax,-0xac(%rbp)
    5817:	f3 0f 10 05 91 7a 00 	movss  0x7a91(%rip),%xmm0        # d2b0 <hSq>
    581e:	00 
    581f:	0f 2f 85 54 ff ff ff 	comiss -0xac(%rbp),%xmm0
    5826:	0f 86 aa 02 00 00    	jbe    5ad6 <_Z18ComputeDensitiesMTi+0x56c>
    582c:	f3 0f 10 05 7c 7a 00 	movss  0x7a7c(%rip),%xmm0        # d2b0 <hSq>
    5833:	00 
    5834:	f3 0f 5c 85 54 ff ff 	subss  -0xac(%rbp),%xmm0
    583b:	ff 
    583c:	f3 0f 11 85 58 ff ff 	movss  %xmm0,-0xa8(%rbp)
    5843:	ff 
    5844:	f3 0f 10 85 58 ff ff 	movss  -0xa8(%rbp),%xmm0
    584b:	ff 
    584c:	f3 0f 59 c0          	mulss  %xmm0,%xmm0
    5850:	f3 0f 10 8d 58 ff ff 	movss  -0xa8(%rbp),%xmm1
    5857:	ff 
    5858:	f3 0f 59 c1          	mulss  %xmm1,%xmm0
    585c:	f3 0f 11 85 5c ff ff 	movss  %xmm0,-0xa4(%rbp)
    5863:	ff 
    5864:	48 8b 15 ad 7a 00 00 	mov    0x7aad(%rip),%rdx        # d318 <border>
    586b:	8b 85 40 ff ff ff    	mov    -0xc0(%rbp),%eax
    5871:	48 98                	cltq   
    5873:	48 01 d0             	add    %rdx,%rax
    5876:	0f b6 00             	movzbl (%rax),%eax
    5879:	84 c0                	test   %al,%al
    587b:	0f 84 d5 00 00 00    	je     5956 <_Z18ComputeDensitiesMTi+0x3ec>
    5881:	48 8b 15 d8 7a 00 00 	mov    0x7ad8(%rip),%rdx        # d360 <mutex>
    5888:	8b 85 40 ff ff ff    	mov    -0xc0(%rbp),%eax
    588e:	48 98                	cltq   
    5890:	48 c1 e0 03          	shl    $0x3,%rax
    5894:	48 01 d0             	add    %rdx,%rax
    5897:	48 8b 08             	mov    (%rax),%rcx
    589a:	8b 85 34 ff ff ff    	mov    -0xcc(%rbp),%eax
    58a0:	99                   	cltd   
    58a1:	c1 ea 19             	shr    $0x19,%edx
    58a4:	01 d0                	add    %edx,%eax
    58a6:	83 e0 7f             	and    $0x7f,%eax
    58a9:	29 d0                	sub    %edx,%eax
    58ab:	48 63 d0             	movslq %eax,%rdx
    58ae:	48 89 d0             	mov    %rdx,%rax
    58b1:	48 c1 e0 02          	shl    $0x2,%rax
    58b5:	48 01 d0             	add    %rdx,%rax
    58b8:	48 c1 e0 03          	shl    $0x3,%rax
    58bc:	48 01 c8             	add    %rcx,%rax
    58bf:	48 89 c7             	mov    %rax,%rdi
    58c2:	e8 a9 cb ff ff       	call   2470 <pthread_mutex_lock@plt>
    58c7:	8b 85 34 ff ff ff    	mov    -0xcc(%rbp),%eax
    58cd:	99                   	cltd   
    58ce:	c1 ea 1c             	shr    $0x1c,%edx
    58d1:	01 d0                	add    %edx,%eax
    58d3:	83 e0 0f             	and    $0xf,%eax
    58d6:	29 d0                	sub    %edx,%eax
    58d8:	89 c2                	mov    %eax,%edx
    58da:	48 8b 85 60 ff ff ff 	mov    -0xa0(%rbp),%rax
    58e1:	48 63 ca             	movslq %edx,%rcx
    58e4:	48 81 c1 c0 00 00 00 	add    $0xc0,%rcx
    58eb:	f3 0f 10 04 88       	movss  (%rax,%rcx,4),%xmm0
    58f0:	f3 0f 58 85 5c ff ff 	addss  -0xa4(%rbp),%xmm0
    58f7:	ff 
    58f8:	48 8b 85 60 ff ff ff 	mov    -0xa0(%rbp),%rax
    58ff:	48 63 d2             	movslq %edx,%rdx
    5902:	48 81 c2 c0 00 00 00 	add    $0xc0,%rdx
    5909:	f3 0f 11 04 90       	movss  %xmm0,(%rax,%rdx,4)
    590e:	48 8b 15 4b 7a 00 00 	mov    0x7a4b(%rip),%rdx        # d360 <mutex>
    5915:	8b 85 40 ff ff ff    	mov    -0xc0(%rbp),%eax
    591b:	48 98                	cltq   
    591d:	48 c1 e0 03          	shl    $0x3,%rax
    5921:	48 01 d0             	add    %rdx,%rax
    5924:	48 8b 08             	mov    (%rax),%rcx
    5927:	8b 85 34 ff ff ff    	mov    -0xcc(%rbp),%eax
    592d:	99                   	cltd   
    592e:	c1 ea 19             	shr    $0x19,%edx
    5931:	01 d0                	add    %edx,%eax
    5933:	83 e0 7f             	and    $0x7f,%eax
    5936:	29 d0                	sub    %edx,%eax
    5938:	48 63 d0             	movslq %eax,%rdx
    593b:	48 89 d0             	mov    %rdx,%rax
    593e:	48 c1 e0 02          	shl    $0x2,%rax
    5942:	48 01 d0             	add    %rdx,%rax
    5945:	48 c1 e0 03          	shl    $0x3,%rax
    5949:	48 01 c8             	add    %rcx,%rax
    594c:	48 89 c7             	mov    %rax,%rdi
    594f:	e8 fc c9 ff ff       	call   2350 <pthread_mutex_unlock@plt>
    5954:	eb 47                	jmp    599d <_Z18ComputeDensitiesMTi+0x433>
    5956:	8b 85 34 ff ff ff    	mov    -0xcc(%rbp),%eax
    595c:	99                   	cltd   
    595d:	c1 ea 1c             	shr    $0x1c,%edx
    5960:	01 d0                	add    %edx,%eax
    5962:	83 e0 0f             	and    $0xf,%eax
    5965:	29 d0                	sub    %edx,%eax
    5967:	89 c2                	mov    %eax,%edx
    5969:	48 8b 85 60 ff ff ff 	mov    -0xa0(%rbp),%rax
    5970:	48 63 ca             	movslq %edx,%rcx
    5973:	48 81 c1 c0 00 00 00 	add    $0xc0,%rcx
    597a:	f3 0f 10 04 88       	movss  (%rax,%rcx,4),%xmm0
    597f:	f3 0f 58 85 5c ff ff 	addss  -0xa4(%rbp),%xmm0
    5986:	ff 
    5987:	48 8b 85 60 ff ff ff 	mov    -0xa0(%rbp),%rax
    598e:	48 63 d2             	movslq %edx,%rdx
    5991:	48 81 c2 c0 00 00 00 	add    $0xc0,%rdx
    5998:	f3 0f 11 04 90       	movss  %xmm0,(%rax,%rdx,4)
    599d:	48 8b 15 74 79 00 00 	mov    0x7974(%rip),%rdx        # d318 <border>
    59a4:	8b 85 4c ff ff ff    	mov    -0xb4(%rbp),%eax
    59aa:	48 98                	cltq   
    59ac:	48 01 d0             	add    %rdx,%rax
    59af:	0f b6 00             	movzbl (%rax),%eax
    59b2:	84 c0                	test   %al,%al
    59b4:	0f 84 d5 00 00 00    	je     5a8f <_Z18ComputeDensitiesMTi+0x525>
    59ba:	48 8b 15 9f 79 00 00 	mov    0x799f(%rip),%rdx        # d360 <mutex>
    59c1:	8b 85 4c ff ff ff    	mov    -0xb4(%rbp),%eax
    59c7:	48 98                	cltq   
    59c9:	48 c1 e0 03          	shl    $0x3,%rax
    59cd:	48 01 d0             	add    %rdx,%rax
    59d0:	48 8b 08             	mov    (%rax),%rcx
    59d3:	8b 85 3c ff ff ff    	mov    -0xc4(%rbp),%eax
    59d9:	99                   	cltd   
    59da:	c1 ea 19             	shr    $0x19,%edx
    59dd:	01 d0                	add    %edx,%eax
    59df:	83 e0 7f             	and    $0x7f,%eax
    59e2:	29 d0                	sub    %edx,%eax
    59e4:	48 63 d0             	movslq %eax,%rdx
    59e7:	48 89 d0             	mov    %rdx,%rax
    59ea:	48 c1 e0 02          	shl    $0x2,%rax
    59ee:	48 01 d0             	add    %rdx,%rax
    59f1:	48 c1 e0 03          	shl    $0x3,%rax
    59f5:	48 01 c8             	add    %rcx,%rax
    59f8:	48 89 c7             	mov    %rax,%rdi
    59fb:	e8 70 ca ff ff       	call   2470 <pthread_mutex_lock@plt>
    5a00:	8b 85 3c ff ff ff    	mov    -0xc4(%rbp),%eax
    5a06:	99                   	cltd   
    5a07:	c1 ea 1c             	shr    $0x1c,%edx
    5a0a:	01 d0                	add    %edx,%eax
    5a0c:	83 e0 0f             	and    $0xf,%eax
    5a0f:	29 d0                	sub    %edx,%eax
    5a11:	89 c2                	mov    %eax,%edx
    5a13:	48 8b 85 68 ff ff ff 	mov    -0x98(%rbp),%rax
    5a1a:	48 63 ca             	movslq %edx,%rcx
    5a1d:	48 81 c1 c0 00 00 00 	add    $0xc0,%rcx
    5a24:	f3 0f 10 04 88       	movss  (%rax,%rcx,4),%xmm0
    5a29:	f3 0f 58 85 5c ff ff 	addss  -0xa4(%rbp),%xmm0
    5a30:	ff 
    5a31:	48 8b 85 68 ff ff ff 	mov    -0x98(%rbp),%rax
    5a38:	48 63 d2             	movslq %edx,%rdx
    5a3b:	48 81 c2 c0 00 00 00 	add    $0xc0,%rdx
    5a42:	f3 0f 11 04 90       	movss  %xmm0,(%rax,%rdx,4)
    5a47:	48 8b 15 12 79 00 00 	mov    0x7912(%rip),%rdx        # d360 <mutex>
    5a4e:	8b 85 4c ff ff ff    	mov    -0xb4(%rbp),%eax
    5a54:	48 98                	cltq   
    5a56:	48 c1 e0 03          	shl    $0x3,%rax
    5a5a:	48 01 d0             	add    %rdx,%rax
    5a5d:	48 8b 08             	mov    (%rax),%rcx
    5a60:	8b 85 3c ff ff ff    	mov    -0xc4(%rbp),%eax
    5a66:	99                   	cltd   
    5a67:	c1 ea 19             	shr    $0x19,%edx
    5a6a:	01 d0                	add    %edx,%eax
    5a6c:	83 e0 7f             	and    $0x7f,%eax
    5a6f:	29 d0                	sub    %edx,%eax
    5a71:	48 63 d0             	movslq %eax,%rdx
    5a74:	48 89 d0             	mov    %rdx,%rax
    5a77:	48 c1 e0 02          	shl    $0x2,%rax
    5a7b:	48 01 d0             	add    %rdx,%rax
    5a7e:	48 c1 e0 03          	shl    $0x3,%rax
    5a82:	48 01 c8             	add    %rcx,%rax
    5a85:	48 89 c7             	mov    %rax,%rdi
    5a88:	e8 c3 c8 ff ff       	call   2350 <pthread_mutex_unlock@plt>
    5a8d:	eb 47                	jmp    5ad6 <_Z18ComputeDensitiesMTi+0x56c>
    5a8f:	8b 85 3c ff ff ff    	mov    -0xc4(%rbp),%eax
    5a95:	99                   	cltd   
    5a96:	c1 ea 1c             	shr    $0x1c,%edx
    5a99:	01 d0                	add    %edx,%eax
    5a9b:	83 e0 0f             	and    $0xf,%eax
    5a9e:	29 d0                	sub    %edx,%eax
    5aa0:	89 c2                	mov    %eax,%edx
    5aa2:	48 8b 85 68 ff ff ff 	mov    -0x98(%rbp),%rax
    5aa9:	48 63 ca             	movslq %edx,%rcx
    5aac:	48 81 c1 c0 00 00 00 	add    $0xc0,%rcx
    5ab3:	f3 0f 10 04 88       	movss  (%rax,%rcx,4),%xmm0
    5ab8:	f3 0f 58 85 5c ff ff 	addss  -0xa4(%rbp),%xmm0
    5abf:	ff 
    5ac0:	48 8b 85 68 ff ff ff 	mov    -0x98(%rbp),%rax
    5ac7:	48 63 d2             	movslq %edx,%rdx
    5aca:	48 81 c2 c0 00 00 00 	add    $0xc0,%rdx
    5ad1:	f3 0f 11 04 90       	movss  %xmm0,(%rax,%rdx,4)
    5ad6:	8b 85 3c ff ff ff    	mov    -0xc4(%rbp),%eax
    5adc:	99                   	cltd   
    5add:	c1 ea 1c             	shr    $0x1c,%edx
    5ae0:	01 d0                	add    %edx,%eax
    5ae2:	83 e0 0f             	and    $0xf,%eax
    5ae5:	29 d0                	sub    %edx,%eax
    5ae7:	83 f8 0f             	cmp    $0xf,%eax
    5aea:	75 15                	jne    5b01 <_Z18ComputeDensitiesMTi+0x597>
    5aec:	48 8b 85 68 ff ff ff 	mov    -0x98(%rbp),%rax
    5af3:	48 8b 80 40 03 00 00 	mov    0x340(%rax),%rax
    5afa:	48 89 85 68 ff ff ff 	mov    %rax,-0x98(%rbp)
    5b01:	83 85 3c ff ff ff 01 	addl   $0x1,-0xc4(%rbp)
    5b08:	8b 85 3c ff ff ff    	mov    -0xc4(%rbp),%eax
    5b0e:	3b 85 50 ff ff ff    	cmp    -0xb0(%rbp),%eax
    5b14:	0f 8c 08 fc ff ff    	jl     5722 <_Z18ComputeDensitiesMTi+0x1b8>
    5b1a:	83 85 38 ff ff ff 01 	addl   $0x1,-0xc8(%rbp)
    5b21:	8b 85 38 ff ff ff    	mov    -0xc8(%rbp),%eax
    5b27:	3b 85 48 ff ff ff    	cmp    -0xb8(%rbp),%eax
    5b2d:	0f 8c 88 fb ff ff    	jl     56bb <_Z18ComputeDensitiesMTi+0x151>
    5b33:	8b 85 34 ff ff ff    	mov    -0xcc(%rbp),%eax
    5b39:	99                   	cltd   
    5b3a:	c1 ea 1c             	shr    $0x1c,%edx
    5b3d:	01 d0                	add    %edx,%eax
    5b3f:	83 e0 0f             	and    $0xf,%eax
    5b42:	29 d0                	sub    %edx,%eax
    5b44:	83 f8 0f             	cmp    $0xf,%eax
    5b47:	75 15                	jne    5b5e <_Z18ComputeDensitiesMTi+0x5f4>
    5b49:	48 8b 85 60 ff ff ff 	mov    -0xa0(%rbp),%rax
    5b50:	48 8b 80 40 03 00 00 	mov    0x340(%rax),%rax
    5b57:	48 89 85 60 ff ff ff 	mov    %rax,-0xa0(%rbp)
    5b5e:	83 85 34 ff ff ff 01 	addl   $0x1,-0xcc(%rbp)
    5b65:	8b 85 34 ff ff ff    	mov    -0xcc(%rbp),%eax
    5b6b:	3b 85 44 ff ff ff    	cmp    -0xbc(%rbp),%eax
    5b71:	0f 8c 35 fb ff ff    	jl     56ac <_Z18ComputeDensitiesMTi+0x142>
    5b77:	eb 01                	jmp    5b7a <_Z18ComputeDensitiesMTi+0x610>
    5b79:	90                   	nop
    5b7a:	83 85 30 ff ff ff 01 	addl   $0x1,-0xd0(%rbp)
    5b81:	48 8b 15 88 77 00 00 	mov    0x7788(%rip),%rdx        # d310 <grids>
    5b88:	8b 85 1c ff ff ff    	mov    -0xe4(%rbp),%eax
    5b8e:	48 98                	cltq   
    5b90:	48 c1 e0 07          	shl    $0x7,%rax
    5b94:	48 01 d0             	add    %rdx,%rax
    5b97:	8b 40 0c             	mov    0xc(%rax),%eax
    5b9a:	39 85 30 ff ff ff    	cmp    %eax,-0xd0(%rbp)
    5ba0:	0f 8c 53 fa ff ff    	jl     55f9 <_Z18ComputeDensitiesMTi+0x8f>
    5ba6:	83 85 2c ff ff ff 01 	addl   $0x1,-0xd4(%rbp)
    5bad:	48 8b 15 5c 77 00 00 	mov    0x775c(%rip),%rdx        # d310 <grids>
    5bb4:	8b 85 1c ff ff ff    	mov    -0xe4(%rbp),%eax
    5bba:	48 98                	cltq   
    5bbc:	48 c1 e0 07          	shl    $0x7,%rax
    5bc0:	48 01 d0             	add    %rdx,%rax
    5bc3:	8b 40 10             	mov    0x10(%rax),%eax
    5bc6:	39 85 2c ff ff ff    	cmp    %eax,-0xd4(%rbp)
    5bcc:	0f 8c 04 fa ff ff    	jl     55d6 <_Z18ComputeDensitiesMTi+0x6c>
    5bd2:	83 85 28 ff ff ff 01 	addl   $0x1,-0xd8(%rbp)
    5bd9:	48 8b 15 30 77 00 00 	mov    0x7730(%rip),%rdx        # d310 <grids>
    5be0:	8b 85 1c ff ff ff    	mov    -0xe4(%rbp),%eax
    5be6:	48 98                	cltq   
    5be8:	48 c1 e0 07          	shl    $0x7,%rax
    5bec:	48 01 d0             	add    %rdx,%rax
    5bef:	8b 40 14             	mov    0x14(%rax),%eax
    5bf2:	39 85 28 ff ff ff    	cmp    %eax,-0xd8(%rbp)
    5bf8:	0f 8c b4 f9 ff ff    	jl     55b2 <_Z18ComputeDensitiesMTi+0x48>
    5bfe:	90                   	nop
    5bff:	48 8b 45 f8          	mov    -0x8(%rbp),%rax
    5c03:	64 48 2b 04 25 28 00 	sub    %fs:0x28,%rax
    5c0a:	00 00 
    5c0c:	74 05                	je     5c13 <_Z18ComputeDensitiesMTi+0x6a9>
    5c0e:	e8 9d c7 ff ff       	call   23b0 <__stack_chk_fail@plt>
    5c13:	c9                   	leave  
    5c14:	c3                   	ret    

0000000000005c15 <_Z19ComputeDensities2MTi>:
    5c15:	f3 0f 1e fa          	endbr64 
    5c19:	55                   	push   %rbp
    5c1a:	48 89 e5             	mov    %rsp,%rbp
    5c1d:	89 7d cc             	mov    %edi,-0x34(%rbp)
    5c20:	f3 0f 10 0d 88 76 00 	movss  0x7688(%rip),%xmm1        # d2b0 <hSq>
    5c27:	00 
    5c28:	f3 0f 10 05 80 76 00 	movss  0x7680(%rip),%xmm0        # d2b0 <hSq>
    5c2f:	00 
    5c30:	f3 0f 59 c8          	mulss  %xmm0,%xmm1
    5c34:	f3 0f 10 05 74 76 00 	movss  0x7674(%rip),%xmm0        # d2b0 <hSq>
    5c3b:	00 
    5c3c:	f3 0f 59 c1          	mulss  %xmm1,%xmm0
    5c40:	f3 0f 11 45 ec       	movss  %xmm0,-0x14(%rbp)
    5c45:	48 8b 15 c4 76 00 00 	mov    0x76c4(%rip),%rdx        # d310 <grids>
    5c4c:	8b 45 cc             	mov    -0x34(%rbp),%eax
    5c4f:	48 98                	cltq   
    5c51:	48 c1 e0 07          	shl    $0x7,%rax
    5c55:	48 01 d0             	add    %rdx,%rax
    5c58:	8b 40 08             	mov    0x8(%rax),%eax
    5c5b:	89 45 dc             	mov    %eax,-0x24(%rbp)
    5c5e:	e9 9c 01 00 00       	jmp    5dff <_Z19ComputeDensities2MTi+0x1ea>
    5c63:	48 8b 15 a6 76 00 00 	mov    0x76a6(%rip),%rdx        # d310 <grids>
    5c6a:	8b 45 cc             	mov    -0x34(%rbp),%eax
    5c6d:	48 98                	cltq   
    5c6f:	48 c1 e0 07          	shl    $0x7,%rax
    5c73:	48 01 d0             	add    %rdx,%rax
    5c76:	8b 40 04             	mov    0x4(%rax),%eax
    5c79:	89 45 e0             	mov    %eax,-0x20(%rbp)
    5c7c:	e9 5b 01 00 00       	jmp    5ddc <_Z19ComputeDensities2MTi+0x1c7>
    5c81:	48 8b 15 88 76 00 00 	mov    0x7688(%rip),%rdx        # d310 <grids>
    5c88:	8b 45 cc             	mov    -0x34(%rbp),%eax
    5c8b:	48 98                	cltq   
    5c8d:	48 c1 e0 07          	shl    $0x7,%rax
    5c91:	48 01 d0             	add    %rdx,%rax
    5c94:	8b 00                	mov    (%rax),%eax
    5c96:	89 45 e4             	mov    %eax,-0x1c(%rbp)
    5c99:	e9 1b 01 00 00       	jmp    5db9 <_Z19ComputeDensities2MTi+0x1a4>
    5c9e:	8b 05 20 76 00 00    	mov    0x7620(%rip),%eax        # d2c4 <ny>
    5ca4:	0f af 45 dc          	imul   -0x24(%rbp),%eax
    5ca8:	89 c2                	mov    %eax,%edx
    5caa:	8b 45 e0             	mov    -0x20(%rbp),%eax
    5cad:	01 c2                	add    %eax,%edx
    5caf:	8b 05 0b 76 00 00    	mov    0x760b(%rip),%eax        # d2c0 <nx>
    5cb5:	0f af d0             	imul   %eax,%edx
    5cb8:	8b 45 e4             	mov    -0x1c(%rbp),%eax
    5cbb:	01 d0                	add    %edx,%eax
    5cbd:	89 45 f0             	mov    %eax,-0x10(%rbp)
    5cc0:	48 8b 0d 21 76 00 00 	mov    0x7621(%rip),%rcx        # d2e8 <cells>
    5cc7:	8b 45 f0             	mov    -0x10(%rbp),%eax
    5cca:	48 63 d0             	movslq %eax,%rdx
    5ccd:	48 89 d0             	mov    %rdx,%rax
    5cd0:	48 c1 e0 03          	shl    $0x3,%rax
    5cd4:	48 29 d0             	sub    %rdx,%rax
    5cd7:	48 c1 e0 07          	shl    $0x7,%rax
    5cdb:	48 01 c8             	add    %rcx,%rax
    5cde:	48 89 45 f8          	mov    %rax,-0x8(%rbp)
    5ce2:	48 8b 15 0f 76 00 00 	mov    0x760f(%rip),%rdx        # d2f8 <cnumPars>
    5ce9:	8b 45 f0             	mov    -0x10(%rbp),%eax
    5cec:	48 98                	cltq   
    5cee:	48 c1 e0 02          	shl    $0x2,%rax
    5cf2:	48 01 d0             	add    %rdx,%rax
    5cf5:	8b 00                	mov    (%rax),%eax
    5cf7:	89 45 f4             	mov    %eax,-0xc(%rbp)
    5cfa:	c7 45 e8 00 00 00 00 	movl   $0x0,-0x18(%rbp)
    5d01:	e9 a3 00 00 00       	jmp    5da9 <_Z19ComputeDensities2MTi+0x194>
    5d06:	8b 45 e8             	mov    -0x18(%rbp),%eax
    5d09:	99                   	cltd   
    5d0a:	c1 ea 1c             	shr    $0x1c,%edx
    5d0d:	01 d0                	add    %edx,%eax
    5d0f:	83 e0 0f             	and    $0xf,%eax
    5d12:	29 d0                	sub    %edx,%eax
    5d14:	89 c2                	mov    %eax,%edx
    5d16:	48 8b 45 f8          	mov    -0x8(%rbp),%rax
    5d1a:	48 63 ca             	movslq %edx,%rcx
    5d1d:	48 81 c1 c0 00 00 00 	add    $0xc0,%rcx
    5d24:	f3 0f 10 04 88       	movss  (%rax,%rcx,4),%xmm0
    5d29:	f3 0f 58 45 ec       	addss  -0x14(%rbp),%xmm0
    5d2e:	48 8b 45 f8          	mov    -0x8(%rbp),%rax
    5d32:	48 63 d2             	movslq %edx,%rdx
    5d35:	48 81 c2 c0 00 00 00 	add    $0xc0,%rdx
    5d3c:	f3 0f 11 04 90       	movss  %xmm0,(%rax,%rdx,4)
    5d41:	8b 45 e8             	mov    -0x18(%rbp),%eax
    5d44:	99                   	cltd   
    5d45:	c1 ea 1c             	shr    $0x1c,%edx
    5d48:	01 d0                	add    %edx,%eax
    5d4a:	83 e0 0f             	and    $0xf,%eax
    5d4d:	29 d0                	sub    %edx,%eax
    5d4f:	89 c2                	mov    %eax,%edx
    5d51:	48 8b 45 f8          	mov    -0x8(%rbp),%rax
    5d55:	48 63 ca             	movslq %edx,%rcx
    5d58:	48 81 c1 c0 00 00 00 	add    $0xc0,%rcx
    5d5f:	f3 0f 10 0c 88       	movss  (%rax,%rcx,4),%xmm1
    5d64:	f3 0f 10 05 48 75 00 	movss  0x7548(%rip),%xmm0        # d2b4 <densityCoeff>
    5d6b:	00 
    5d6c:	f3 0f 59 c1          	mulss  %xmm1,%xmm0
    5d70:	48 8b 45 f8          	mov    -0x8(%rbp),%rax
    5d74:	48 63 d2             	movslq %edx,%rdx
    5d77:	48 81 c2 c0 00 00 00 	add    $0xc0,%rdx
    5d7e:	f3 0f 11 04 90       	movss  %xmm0,(%rax,%rdx,4)
    5d83:	8b 45 e8             	mov    -0x18(%rbp),%eax
    5d86:	99                   	cltd   
    5d87:	c1 ea 1c             	shr    $0x1c,%edx
    5d8a:	01 d0                	add    %edx,%eax
    5d8c:	83 e0 0f             	and    $0xf,%eax
    5d8f:	29 d0                	sub    %edx,%eax
    5d91:	83 f8 0f             	cmp    $0xf,%eax
    5d94:	75 0f                	jne    5da5 <_Z19ComputeDensities2MTi+0x190>
    5d96:	48 8b 45 f8          	mov    -0x8(%rbp),%rax
    5d9a:	48 8b 80 40 03 00 00 	mov    0x340(%rax),%rax
    5da1:	48 89 45 f8          	mov    %rax,-0x8(%rbp)
    5da5:	83 45 e8 01          	addl   $0x1,-0x18(%rbp)
    5da9:	8b 45 e8             	mov    -0x18(%rbp),%eax
    5dac:	3b 45 f4             	cmp    -0xc(%rbp),%eax
    5daf:	0f 8c 51 ff ff ff    	jl     5d06 <_Z19ComputeDensities2MTi+0xf1>
    5db5:	83 45 e4 01          	addl   $0x1,-0x1c(%rbp)
    5db9:	48 8b 15 50 75 00 00 	mov    0x7550(%rip),%rdx        # d310 <grids>
    5dc0:	8b 45 cc             	mov    -0x34(%rbp),%eax
    5dc3:	48 98                	cltq   
    5dc5:	48 c1 e0 07          	shl    $0x7,%rax
    5dc9:	48 01 d0             	add    %rdx,%rax
    5dcc:	8b 40 0c             	mov    0xc(%rax),%eax
    5dcf:	39 45 e4             	cmp    %eax,-0x1c(%rbp)
    5dd2:	0f 8c c6 fe ff ff    	jl     5c9e <_Z19ComputeDensities2MTi+0x89>
    5dd8:	83 45 e0 01          	addl   $0x1,-0x20(%rbp)
    5ddc:	48 8b 15 2d 75 00 00 	mov    0x752d(%rip),%rdx        # d310 <grids>
    5de3:	8b 45 cc             	mov    -0x34(%rbp),%eax
    5de6:	48 98                	cltq   
    5de8:	48 c1 e0 07          	shl    $0x7,%rax
    5dec:	48 01 d0             	add    %rdx,%rax
    5def:	8b 40 10             	mov    0x10(%rax),%eax
    5df2:	39 45 e0             	cmp    %eax,-0x20(%rbp)
    5df5:	0f 8c 86 fe ff ff    	jl     5c81 <_Z19ComputeDensities2MTi+0x6c>
    5dfb:	83 45 dc 01          	addl   $0x1,-0x24(%rbp)
    5dff:	48 8b 15 0a 75 00 00 	mov    0x750a(%rip),%rdx        # d310 <grids>
    5e06:	8b 45 cc             	mov    -0x34(%rbp),%eax
    5e09:	48 98                	cltq   
    5e0b:	48 c1 e0 07          	shl    $0x7,%rax
    5e0f:	48 01 d0             	add    %rdx,%rax
    5e12:	8b 40 14             	mov    0x14(%rax),%eax
    5e15:	39 45 dc             	cmp    %eax,-0x24(%rbp)
    5e18:	0f 8c 45 fe ff ff    	jl     5c63 <_Z19ComputeDensities2MTi+0x4e>
    5e1e:	90                   	nop
    5e1f:	90                   	nop
    5e20:	5d                   	pop    %rbp
    5e21:	c3                   	ret    

0000000000005e22 <_Z15ComputeForcesMTi>:
    5e22:	f3 0f 1e fa          	endbr64 
    5e26:	55                   	push   %rbp
    5e27:	48 89 e5             	mov    %rsp,%rbp
    5e2a:	41 54                	push   %r12
    5e2c:	53                   	push   %rbx
    5e2d:	48 81 ec 20 01 00 00 	sub    $0x120,%rsp
    5e34:	89 bd dc fe ff ff    	mov    %edi,-0x124(%rbp)
    5e3a:	64 48 8b 04 25 28 00 	mov    %fs:0x28,%rax
    5e41:	00 00 
    5e43:	48 89 45 e8          	mov    %rax,-0x18(%rbp)
    5e47:	31 c0                	xor    %eax,%eax
    5e49:	48 8b 15 c0 74 00 00 	mov    0x74c0(%rip),%rdx        # d310 <grids>
    5e50:	8b 85 dc fe ff ff    	mov    -0x124(%rbp),%eax
    5e56:	48 98                	cltq   
    5e58:	48 c1 e0 07          	shl    $0x7,%rax
    5e5c:	48 01 d0             	add    %rdx,%rax
    5e5f:	8b 40 08             	mov    0x8(%rax),%eax
    5e62:	89 85 ec fe ff ff    	mov    %eax,-0x114(%rbp)
    5e68:	e9 b7 08 00 00       	jmp    6724 <_Z15ComputeForcesMTi+0x902>
    5e6d:	48 8b 15 9c 74 00 00 	mov    0x749c(%rip),%rdx        # d310 <grids>
    5e74:	8b 85 dc fe ff ff    	mov    -0x124(%rbp),%eax
    5e7a:	48 98                	cltq   
    5e7c:	48 c1 e0 07          	shl    $0x7,%rax
    5e80:	48 01 d0             	add    %rdx,%rax
    5e83:	8b 40 04             	mov    0x4(%rax),%eax
    5e86:	89 85 f0 fe ff ff    	mov    %eax,-0x110(%rbp)
    5e8c:	e9 67 08 00 00       	jmp    66f8 <_Z15ComputeForcesMTi+0x8d6>
    5e91:	48 8b 15 78 74 00 00 	mov    0x7478(%rip),%rdx        # d310 <grids>
    5e98:	8b 85 dc fe ff ff    	mov    -0x124(%rbp),%eax
    5e9e:	48 98                	cltq   
    5ea0:	48 c1 e0 07          	shl    $0x7,%rax
    5ea4:	48 01 d0             	add    %rdx,%rax
    5ea7:	8b 00                	mov    (%rax),%eax
    5ea9:	89 85 f4 fe ff ff    	mov    %eax,-0x10c(%rbp)
    5eaf:	e9 18 08 00 00       	jmp    66cc <_Z15ComputeForcesMTi+0x8aa>
    5eb4:	8b 05 0a 74 00 00    	mov    0x740a(%rip),%eax        # d2c4 <ny>
    5eba:	0f af 85 ec fe ff ff 	imul   -0x114(%rbp),%eax
    5ec1:	89 c2                	mov    %eax,%edx
    5ec3:	8b 85 f0 fe ff ff    	mov    -0x110(%rbp),%eax
    5ec9:	01 c2                	add    %eax,%edx
    5ecb:	8b 05 ef 73 00 00    	mov    0x73ef(%rip),%eax        # d2c0 <nx>
    5ed1:	0f af d0             	imul   %eax,%edx
    5ed4:	8b 85 f4 fe ff ff    	mov    -0x10c(%rbp),%eax
    5eda:	01 d0                	add    %edx,%eax
    5edc:	89 85 04 ff ff ff    	mov    %eax,-0xfc(%rbp)
    5ee2:	48 8b 15 0f 74 00 00 	mov    0x740f(%rip),%rdx        # d2f8 <cnumPars>
    5ee9:	8b 85 04 ff ff ff    	mov    -0xfc(%rbp),%eax
    5eef:	48 98                	cltq   
    5ef1:	48 c1 e0 02          	shl    $0x2,%rax
    5ef5:	48 01 d0             	add    %rdx,%rax
    5ef8:	8b 00                	mov    (%rax),%eax
    5efa:	89 85 08 ff ff ff    	mov    %eax,-0xf8(%rbp)
    5f00:	83 bd 08 ff ff ff 00 	cmpl   $0x0,-0xf8(%rbp)
    5f07:	0f 84 b7 07 00 00    	je     66c4 <_Z15ComputeForcesMTi+0x8a2>
    5f0d:	48 8d 8d 70 ff ff ff 	lea    -0x90(%rbp),%rcx
    5f14:	8b 95 ec fe ff ff    	mov    -0x114(%rbp),%edx
    5f1a:	8b b5 f0 fe ff ff    	mov    -0x110(%rbp),%esi
    5f20:	8b 85 f4 fe ff ff    	mov    -0x10c(%rbp),%eax
    5f26:	89 c7                	mov    %eax,%edi
    5f28:	e8 03 f3 ff ff       	call   5230 <_Z17InitNeighCellListiiiPi>
    5f2d:	89 85 0c ff ff ff    	mov    %eax,-0xf4(%rbp)
    5f33:	48 8b 0d ae 73 00 00 	mov    0x73ae(%rip),%rcx        # d2e8 <cells>
    5f3a:	8b 85 04 ff ff ff    	mov    -0xfc(%rbp),%eax
    5f40:	48 63 d0             	movslq %eax,%rdx
    5f43:	48 89 d0             	mov    %rdx,%rax
    5f46:	48 c1 e0 03          	shl    $0x3,%rax
    5f4a:	48 29 d0             	sub    %rdx,%rax
    5f4d:	48 c1 e0 07          	shl    $0x7,%rax
    5f51:	48 01 c8             	add    %rcx,%rax
    5f54:	48 89 85 20 ff ff ff 	mov    %rax,-0xe0(%rbp)
    5f5b:	c7 85 f8 fe ff ff 00 	movl   $0x0,-0x108(%rbp)
    5f62:	00 00 00 
    5f65:	e9 46 07 00 00       	jmp    66b0 <_Z15ComputeForcesMTi+0x88e>
    5f6a:	c7 85 fc fe ff ff 00 	movl   $0x0,-0x104(%rbp)
    5f71:	00 00 00 
    5f74:	e9 f3 06 00 00       	jmp    666c <_Z15ComputeForcesMTi+0x84a>
    5f79:	8b 85 fc fe ff ff    	mov    -0x104(%rbp),%eax
    5f7f:	48 98                	cltq   
    5f81:	8b 84 85 70 ff ff ff 	mov    -0x90(%rbp,%rax,4),%eax
    5f88:	89 85 10 ff ff ff    	mov    %eax,-0xf0(%rbp)
    5f8e:	48 8b 0d 53 73 00 00 	mov    0x7353(%rip),%rcx        # d2e8 <cells>
    5f95:	8b 85 10 ff ff ff    	mov    -0xf0(%rbp),%eax
    5f9b:	48 63 d0             	movslq %eax,%rdx
    5f9e:	48 89 d0             	mov    %rdx,%rax
    5fa1:	48 c1 e0 03          	shl    $0x3,%rax
    5fa5:	48 29 d0             	sub    %rdx,%rax
    5fa8:	48 c1 e0 07          	shl    $0x7,%rax
    5fac:	48 01 c8             	add    %rcx,%rax
    5faf:	48 89 85 28 ff ff ff 	mov    %rax,-0xd8(%rbp)
    5fb6:	48 8b 15 3b 73 00 00 	mov    0x733b(%rip),%rdx        # d2f8 <cnumPars>
    5fbd:	8b 85 10 ff ff ff    	mov    -0xf0(%rbp),%eax
    5fc3:	48 98                	cltq   
    5fc5:	48 c1 e0 02          	shl    $0x2,%rax
    5fc9:	48 01 d0             	add    %rdx,%rax
    5fcc:	8b 00                	mov    (%rax),%eax
    5fce:	89 85 14 ff ff ff    	mov    %eax,-0xec(%rbp)
    5fd4:	c7 85 00 ff ff ff 00 	movl   $0x0,-0x100(%rbp)
    5fdb:	00 00 00 
    5fde:	e9 70 06 00 00       	jmp    6653 <_Z15ComputeForcesMTi+0x831>
    5fe3:	8b 85 00 ff ff ff    	mov    -0x100(%rbp),%eax
    5fe9:	99                   	cltd   
    5fea:	c1 ea 1c             	shr    $0x1c,%edx
    5fed:	01 d0                	add    %edx,%eax
    5fef:	83 e0 0f             	and    $0xf,%eax
    5ff2:	29 d0                	sub    %edx,%eax
    5ff4:	48 63 d0             	movslq %eax,%rdx
    5ff7:	48 89 d0             	mov    %rdx,%rax
    5ffa:	48 01 c0             	add    %rax,%rax
    5ffd:	48 01 d0             	add    %rdx,%rax
    6000:	48 c1 e0 02          	shl    $0x2,%rax
    6004:	48 8b 95 28 ff ff ff 	mov    -0xd8(%rbp),%rdx
    600b:	48 8d 0c 10          	lea    (%rax,%rdx,1),%rcx
    600f:	8b 85 f8 fe ff ff    	mov    -0x108(%rbp),%eax
    6015:	99                   	cltd   
    6016:	c1 ea 1c             	shr    $0x1c,%edx
    6019:	01 d0                	add    %edx,%eax
    601b:	83 e0 0f             	and    $0xf,%eax
    601e:	29 d0                	sub    %edx,%eax
    6020:	48 63 d0             	movslq %eax,%rdx
    6023:	48 89 d0             	mov    %rdx,%rax
    6026:	48 01 c0             	add    %rax,%rax
    6029:	48 01 d0             	add    %rdx,%rax
    602c:	48 c1 e0 02          	shl    $0x2,%rax
    6030:	48 8b 95 20 ff ff ff 	mov    -0xe0(%rbp),%rdx
    6037:	48 01 d0             	add    %rdx,%rax
    603a:	48 39 c1             	cmp    %rax,%rcx
    603d:	0f 83 de 05 00 00    	jae    6621 <_Z15ComputeForcesMTi+0x7ff>
    6043:	8b 85 00 ff ff ff    	mov    -0x100(%rbp),%eax
    6049:	99                   	cltd   
    604a:	c1 ea 1c             	shr    $0x1c,%edx
    604d:	01 d0                	add    %edx,%eax
    604f:	83 e0 0f             	and    $0xf,%eax
    6052:	29 d0                	sub    %edx,%eax
    6054:	48 63 d0             	movslq %eax,%rdx
    6057:	48 89 d0             	mov    %rdx,%rax
    605a:	48 01 c0             	add    %rax,%rax
    605d:	48 01 d0             	add    %rdx,%rax
    6060:	48 c1 e0 02          	shl    $0x2,%rax
    6064:	48 8b 95 28 ff ff ff 	mov    -0xd8(%rbp),%rdx
    606b:	48 01 c2             	add    %rax,%rdx
    606e:	8b 85 f8 fe ff ff    	mov    -0x108(%rbp),%eax
    6074:	89 c1                	mov    %eax,%ecx
    6076:	c1 f9 1f             	sar    $0x1f,%ecx
    6079:	c1 e9 1c             	shr    $0x1c,%ecx
    607c:	01 c8                	add    %ecx,%eax
    607e:	83 e0 0f             	and    $0xf,%eax
    6081:	29 c8                	sub    %ecx,%eax
    6083:	48 63 c8             	movslq %eax,%rcx
    6086:	48 89 c8             	mov    %rcx,%rax
    6089:	48 01 c0             	add    %rax,%rax
    608c:	48 01 c8             	add    %rcx,%rax
    608f:	48 c1 e0 02          	shl    $0x2,%rax
    6093:	48 8b 8d 20 ff ff ff 	mov    -0xe0(%rbp),%rcx
    609a:	48 01 c8             	add    %rcx,%rax
    609d:	48 89 d6             	mov    %rdx,%rsi
    60a0:	48 89 c7             	mov    %rax,%rdi
    60a3:	e8 3a 22 00 00       	call   82e2 <_ZNK4Vec3miERKS_>
    60a8:	66 48 0f 7e c0       	movq   %xmm0,%rax
    60ad:	0f 28 c1             	movaps %xmm1,%xmm0
    60b0:	48 89 85 34 ff ff ff 	mov    %rax,-0xcc(%rbp)
    60b7:	f3 0f 11 85 3c ff ff 	movss  %xmm0,-0xc4(%rbp)
    60be:	ff 
    60bf:	48 8d 85 34 ff ff ff 	lea    -0xcc(%rbp),%rax
    60c6:	48 89 c7             	mov    %rax,%rdi
    60c9:	e8 60 1f 00 00       	call   802e <_ZNK4Vec311GetLengthSqEv>
    60ce:	66 0f 7e c0          	movd   %xmm0,%eax
    60d2:	89 85 e8 fe ff ff    	mov    %eax,-0x118(%rbp)
    60d8:	f3 0f 10 8d e8 fe ff 	movss  -0x118(%rbp),%xmm1
    60df:	ff 
    60e0:	f3 0f 10 05 c8 71 00 	movss  0x71c8(%rip),%xmm0        # d2b0 <hSq>
    60e7:	00 
    60e8:	0f 2f c1             	comiss %xmm1,%xmm0
    60eb:	0f 86 30 05 00 00    	jbe    6621 <_Z15ComputeForcesMTi+0x7ff>
    60f1:	f3 0f 10 05 6f 42 00 	movss  0x426f(%rip),%xmm0        # a368 <_ZL22PARSEC_PROCESS_PRIVATE+0x328>
    60f8:	00 
    60f9:	f3 0f 11 85 64 ff ff 	movss  %xmm0,-0x9c(%rbp)
    6100:	ff 
    6101:	48 8d 95 64 ff ff ff 	lea    -0x9c(%rbp),%rdx
    6108:	48 8d 85 e8 fe ff ff 	lea    -0x118(%rbp),%rax
    610f:	48 89 d6             	mov    %rdx,%rsi
    6112:	48 89 c7             	mov    %rax,%rdi
    6115:	e8 ea 23 00 00       	call   8504 <_ZSt3maxIfERKT_S2_S2_>
    611a:	8b 00                	mov    (%rax),%eax
    611c:	66 0f 6e c0          	movd   %eax,%xmm0
    6120:	e8 db c3 ff ff       	call   2500 <sqrtf@plt>
    6125:	66 0f 7e c0          	movd   %xmm0,%eax
    6129:	89 85 18 ff ff ff    	mov    %eax,-0xe8(%rbp)
    612f:	f3 0f 10 05 75 71 00 	movss  0x7175(%rip),%xmm0        # d2ac <h>
    6136:	00 
    6137:	f3 0f 5c 85 18 ff ff 	subss  -0xe8(%rbp),%xmm0
    613e:	ff 
    613f:	f3 0f 11 85 1c ff ff 	movss  %xmm0,-0xe4(%rbp)
    6146:	ff 
    6147:	8b 85 f8 fe ff ff    	mov    -0x108(%rbp),%eax
    614d:	99                   	cltd   
    614e:	c1 ea 1c             	shr    $0x1c,%edx
    6151:	01 d0                	add    %edx,%eax
    6153:	83 e0 0f             	and    $0xf,%eax
    6156:	29 d0                	sub    %edx,%eax
    6158:	89 c2                	mov    %eax,%edx
    615a:	48 8b 85 20 ff ff ff 	mov    -0xe0(%rbp),%rax
    6161:	48 63 d2             	movslq %edx,%rdx
    6164:	48 81 c2 c0 00 00 00 	add    $0xc0,%rdx
    616b:	f3 0f 10 0c 90       	movss  (%rax,%rdx,4),%xmm1
    6170:	8b 85 00 ff ff ff    	mov    -0x100(%rbp),%eax
    6176:	99                   	cltd   
    6177:	c1 ea 1c             	shr    $0x1c,%edx
    617a:	01 d0                	add    %edx,%eax
    617c:	83 e0 0f             	and    $0xf,%eax
    617f:	29 d0                	sub    %edx,%eax
    6181:	89 c2                	mov    %eax,%edx
    6183:	48 8b 85 28 ff ff ff 	mov    -0xd8(%rbp),%rax
    618a:	48 63 d2             	movslq %edx,%rdx
    618d:	48 81 c2 c0 00 00 00 	add    $0xc0,%rdx
    6194:	f3 0f 10 04 90       	movss  (%rax,%rdx,4),%xmm0
    6199:	f3 0f 58 c1          	addss  %xmm1,%xmm0
    619d:	f3 0f 10 0d c7 41 00 	movss  0x41c7(%rip),%xmm1        # a36c <_ZL22PARSEC_PROCESS_PRIVATE+0x32c>
    61a4:	00 
    61a5:	f3 0f 5c c1          	subss  %xmm1,%xmm0
    61a9:	66 0f 7e c3          	movd   %xmm0,%ebx
    61ad:	f3 0f 10 85 1c ff ff 	movss  -0xe4(%rbp),%xmm0
    61b4:	ff 
    61b5:	f3 0f 59 c0          	mulss  %xmm0,%xmm0
    61b9:	f3 0f 5e 85 18 ff ff 	divss  -0xe8(%rbp),%xmm0
    61c0:	ff 
    61c1:	66 41 0f 7e c4       	movd   %xmm0,%r12d
    61c6:	8b 15 ec 70 00 00    	mov    0x70ec(%rip),%edx        # d2b8 <pressureCoeff>
    61cc:	48 8d 85 34 ff ff ff 	lea    -0xcc(%rbp),%rax
    61d3:	66 0f 6e c2          	movd   %edx,%xmm0
    61d7:	48 89 c7             	mov    %rax,%rdi
    61da:	e8 bb 21 00 00       	call   839a <_ZNK4Vec3mlEf>
    61df:	66 48 0f 7e c0       	movq   %xmm0,%rax
    61e4:	0f 28 c1             	movaps %xmm1,%xmm0
    61e7:	48 89 85 58 ff ff ff 	mov    %rax,-0xa8(%rbp)
    61ee:	f3 0f 11 85 60 ff ff 	movss  %xmm0,-0xa0(%rbp)
    61f5:	ff 
    61f6:	48 8d 85 58 ff ff ff 	lea    -0xa8(%rbp),%rax
    61fd:	66 41 0f 6e c4       	movd   %r12d,%xmm0
    6202:	48 89 c7             	mov    %rax,%rdi
    6205:	e8 90 21 00 00       	call   839a <_ZNK4Vec3mlEf>
    620a:	66 48 0f 7e c0       	movq   %xmm0,%rax
    620f:	0f 28 c1             	movaps %xmm1,%xmm0
    6212:	48 89 85 64 ff ff ff 	mov    %rax,-0x9c(%rbp)
    6219:	f3 0f 11 85 6c ff ff 	movss  %xmm0,-0x94(%rbp)
    6220:	ff 
    6221:	48 8d 85 64 ff ff ff 	lea    -0x9c(%rbp),%rax
    6228:	66 0f 6e c3          	movd   %ebx,%xmm0
    622c:	48 89 c7             	mov    %rax,%rdi
    622f:	e8 66 21 00 00       	call   839a <_ZNK4Vec3mlEf>
    6234:	66 48 0f 7e c0       	movq   %xmm0,%rax
    6239:	0f 28 c1             	movaps %xmm1,%xmm0
    623c:	48 89 85 40 ff ff ff 	mov    %rax,-0xc0(%rbp)
    6243:	f3 0f 11 85 48 ff ff 	movss  %xmm0,-0xb8(%rbp)
    624a:	ff 
    624b:	8b 1d 6b 70 00 00    	mov    0x706b(%rip),%ebx        # d2bc <viscosityCoeff>
    6251:	8b 85 f8 fe ff ff    	mov    -0x108(%rbp),%eax
    6257:	99                   	cltd   
    6258:	c1 ea 1c             	shr    $0x1c,%edx
    625b:	01 d0                	add    %edx,%eax
    625d:	83 e0 0f             	and    $0xf,%eax
    6260:	29 d0                	sub    %edx,%eax
    6262:	48 63 d0             	movslq %eax,%rdx
    6265:	48 89 d0             	mov    %rdx,%rax
    6268:	48 01 c0             	add    %rax,%rax
    626b:	48 01 d0             	add    %rdx,%rax
    626e:	48 c1 e0 02          	shl    $0x2,%rax
    6272:	48 8d 90 80 01 00 00 	lea    0x180(%rax),%rdx
    6279:	48 8b 85 20 ff ff ff 	mov    -0xe0(%rbp),%rax
    6280:	48 01 c2             	add    %rax,%rdx
    6283:	8b 85 00 ff ff ff    	mov    -0x100(%rbp),%eax
    6289:	89 c1                	mov    %eax,%ecx
    628b:	c1 f9 1f             	sar    $0x1f,%ecx
    628e:	c1 e9 1c             	shr    $0x1c,%ecx
    6291:	01 c8                	add    %ecx,%eax
    6293:	83 e0 0f             	and    $0xf,%eax
    6296:	29 c8                	sub    %ecx,%eax
    6298:	48 63 c8             	movslq %eax,%rcx
    629b:	48 89 c8             	mov    %rcx,%rax
    629e:	48 01 c0             	add    %rax,%rax
    62a1:	48 01 c8             	add    %rcx,%rax
    62a4:	48 c1 e0 02          	shl    $0x2,%rax
    62a8:	48 8d 88 80 01 00 00 	lea    0x180(%rax),%rcx
    62af:	48 8b 85 28 ff ff ff 	mov    -0xd8(%rbp),%rax
    62b6:	48 01 c8             	add    %rcx,%rax
    62b9:	48 89 d6             	mov    %rdx,%rsi
    62bc:	48 89 c7             	mov    %rax,%rdi
    62bf:	e8 1e 20 00 00       	call   82e2 <_ZNK4Vec3miERKS_>
    62c4:	66 48 0f 7e c0       	movq   %xmm0,%rax
    62c9:	0f 28 c1             	movaps %xmm1,%xmm0
    62cc:	48 89 85 4c ff ff ff 	mov    %rax,-0xb4(%rbp)
    62d3:	f3 0f 11 85 54 ff ff 	movss  %xmm0,-0xac(%rbp)
    62da:	ff 
    62db:	48 8d 85 4c ff ff ff 	lea    -0xb4(%rbp),%rax
    62e2:	66 0f 6e c3          	movd   %ebx,%xmm0
    62e6:	48 89 c7             	mov    %rax,%rdi
    62e9:	e8 ac 20 00 00       	call   839a <_ZNK4Vec3mlEf>
    62ee:	66 48 0f 7e c0       	movq   %xmm0,%rax
    62f3:	0f 28 c1             	movaps %xmm1,%xmm0
    62f6:	48 89 85 58 ff ff ff 	mov    %rax,-0xa8(%rbp)
    62fd:	f3 0f 11 85 60 ff ff 	movss  %xmm0,-0xa0(%rbp)
    6304:	ff 
    6305:	8b 95 1c ff ff ff    	mov    -0xe4(%rbp),%edx
    630b:	48 8d 85 58 ff ff ff 	lea    -0xa8(%rbp),%rax
    6312:	66 0f 6e c2          	movd   %edx,%xmm0
    6316:	48 89 c7             	mov    %rax,%rdi
    6319:	e8 7c 20 00 00       	call   839a <_ZNK4Vec3mlEf>
    631e:	66 48 0f 7e c0       	movq   %xmm0,%rax
    6323:	0f 28 c1             	movaps %xmm1,%xmm0
    6326:	48 89 85 64 ff ff ff 	mov    %rax,-0x9c(%rbp)
    632d:	f3 0f 11 85 6c ff ff 	movss  %xmm0,-0x94(%rbp)
    6334:	ff 
    6335:	48 8d 95 64 ff ff ff 	lea    -0x9c(%rbp),%rdx
    633c:	48 8d 85 40 ff ff ff 	lea    -0xc0(%rbp),%rax
    6343:	48 89 d6             	mov    %rdx,%rsi
    6346:	48 89 c7             	mov    %rax,%rdi
    6349:	e8 36 1d 00 00       	call   8084 <_ZN4Vec3pLERKS_>
    634e:	8b 85 f8 fe ff ff    	mov    -0x108(%rbp),%eax
    6354:	99                   	cltd   
    6355:	c1 ea 1c             	shr    $0x1c,%edx
    6358:	01 d0                	add    %edx,%eax
    635a:	83 e0 0f             	and    $0xf,%eax
    635d:	29 d0                	sub    %edx,%eax
    635f:	89 c2                	mov    %eax,%edx
    6361:	48 8b 85 20 ff ff ff 	mov    -0xe0(%rbp),%rax
    6368:	48 63 d2             	movslq %edx,%rdx
    636b:	48 81 c2 c0 00 00 00 	add    $0xc0,%rdx
    6372:	f3 0f 10 0c 90       	movss  (%rax,%rdx,4),%xmm1
    6377:	8b 85 00 ff ff ff    	mov    -0x100(%rbp),%eax
    637d:	99                   	cltd   
    637e:	c1 ea 1c             	shr    $0x1c,%edx
    6381:	01 d0                	add    %edx,%eax
    6383:	83 e0 0f             	and    $0xf,%eax
    6386:	29 d0                	sub    %edx,%eax
    6388:	89 c2                	mov    %eax,%edx
    638a:	48 8b 85 28 ff ff ff 	mov    -0xd8(%rbp),%rax
    6391:	48 63 d2             	movslq %edx,%rdx
    6394:	48 81 c2 c0 00 00 00 	add    $0xc0,%rdx
    639b:	f3 0f 10 04 90       	movss  (%rax,%rdx,4),%xmm0
    63a0:	f3 0f 59 c8          	mulss  %xmm0,%xmm1
    63a4:	66 0f 7e ca          	movd   %xmm1,%edx
    63a8:	48 8d 85 40 ff ff ff 	lea    -0xc0(%rbp),%rax
    63af:	66 0f 6e c2          	movd   %edx,%xmm0
    63b3:	48 89 c7             	mov    %rax,%rdi
    63b6:	e8 03 1e 00 00       	call   81be <_ZN4Vec3dVEf>
    63bb:	48 8b 15 56 6f 00 00 	mov    0x6f56(%rip),%rdx        # d318 <border>
    63c2:	8b 85 04 ff ff ff    	mov    -0xfc(%rbp),%eax
    63c8:	48 98                	cltq   
    63ca:	48 01 d0             	add    %rdx,%rax
    63cd:	0f b6 00             	movzbl (%rax),%eax
    63d0:	84 c0                	test   %al,%al
    63d2:	0f 84 d2 00 00 00    	je     64aa <_Z15ComputeForcesMTi+0x688>
    63d8:	48 8b 15 81 6f 00 00 	mov    0x6f81(%rip),%rdx        # d360 <mutex>
    63df:	8b 85 04 ff ff ff    	mov    -0xfc(%rbp),%eax
    63e5:	48 98                	cltq   
    63e7:	48 c1 e0 03          	shl    $0x3,%rax
    63eb:	48 01 d0             	add    %rdx,%rax
    63ee:	48 8b 08             	mov    (%rax),%rcx
    63f1:	8b 85 f8 fe ff ff    	mov    -0x108(%rbp),%eax
    63f7:	99                   	cltd   
    63f8:	c1 ea 19             	shr    $0x19,%edx
    63fb:	01 d0                	add    %edx,%eax
    63fd:	83 e0 7f             	and    $0x7f,%eax
    6400:	29 d0                	sub    %edx,%eax
    6402:	48 63 d0             	movslq %eax,%rdx
    6405:	48 89 d0             	mov    %rdx,%rax
    6408:	48 c1 e0 02          	shl    $0x2,%rax
    640c:	48 01 d0             	add    %rdx,%rax
    640f:	48 c1 e0 03          	shl    $0x3,%rax
    6413:	48 01 c8             	add    %rcx,%rax
    6416:	48 89 c7             	mov    %rax,%rdi
    6419:	e8 52 c0 ff ff       	call   2470 <pthread_mutex_lock@plt>
    641e:	8b 85 f8 fe ff ff    	mov    -0x108(%rbp),%eax
    6424:	99                   	cltd   
    6425:	c1 ea 1c             	shr    $0x1c,%edx
    6428:	01 d0                	add    %edx,%eax
    642a:	83 e0 0f             	and    $0xf,%eax
    642d:	29 d0                	sub    %edx,%eax
    642f:	48 63 d0             	movslq %eax,%rdx
    6432:	48 89 d0             	mov    %rdx,%rax
    6435:	48 01 c0             	add    %rax,%rax
    6438:	48 01 d0             	add    %rdx,%rax
    643b:	48 c1 e0 02          	shl    $0x2,%rax
    643f:	48 8d 90 40 02 00 00 	lea    0x240(%rax),%rdx
    6446:	48 8b 85 20 ff ff ff 	mov    -0xe0(%rbp),%rax
    644d:	48 01 c2             	add    %rax,%rdx
    6450:	48 8d 85 40 ff ff ff 	lea    -0xc0(%rbp),%rax
    6457:	48 89 c6             	mov    %rax,%rsi
    645a:	48 89 d7             	mov    %rdx,%rdi
    645d:	e8 22 1c 00 00       	call   8084 <_ZN4Vec3pLERKS_>
    6462:	48 8b 15 f7 6e 00 00 	mov    0x6ef7(%rip),%rdx        # d360 <mutex>
    6469:	8b 85 04 ff ff ff    	mov    -0xfc(%rbp),%eax
    646f:	48 98                	cltq   
    6471:	48 c1 e0 03          	shl    $0x3,%rax
    6475:	48 01 d0             	add    %rdx,%rax
    6478:	48 8b 08             	mov    (%rax),%rcx
    647b:	8b 85 f8 fe ff ff    	mov    -0x108(%rbp),%eax
    6481:	99                   	cltd   
    6482:	c1 ea 19             	shr    $0x19,%edx
    6485:	01 d0                	add    %edx,%eax
    6487:	83 e0 7f             	and    $0x7f,%eax
    648a:	29 d0                	sub    %edx,%eax
    648c:	48 63 d0             	movslq %eax,%rdx
    648f:	48 89 d0             	mov    %rdx,%rax
    6492:	48 c1 e0 02          	shl    $0x2,%rax
    6496:	48 01 d0             	add    %rdx,%rax
    6499:	48 c1 e0 03          	shl    $0x3,%rax
    649d:	48 01 c8             	add    %rcx,%rax
    64a0:	48 89 c7             	mov    %rax,%rdi
    64a3:	e8 a8 be ff ff       	call   2350 <pthread_mutex_unlock@plt>
    64a8:	eb 44                	jmp    64ee <_Z15ComputeForcesMTi+0x6cc>
    64aa:	8b 85 f8 fe ff ff    	mov    -0x108(%rbp),%eax
    64b0:	99                   	cltd   
    64b1:	c1 ea 1c             	shr    $0x1c,%edx
    64b4:	01 d0                	add    %edx,%eax
    64b6:	83 e0 0f             	and    $0xf,%eax
    64b9:	29 d0                	sub    %edx,%eax
    64bb:	48 63 d0             	movslq %eax,%rdx
    64be:	48 89 d0             	mov    %rdx,%rax
    64c1:	48 01 c0             	add    %rax,%rax
    64c4:	48 01 d0             	add    %rdx,%rax
    64c7:	48 c1 e0 02          	shl    $0x2,%rax
    64cb:	48 8d 90 40 02 00 00 	lea    0x240(%rax),%rdx
    64d2:	48 8b 85 20 ff ff ff 	mov    -0xe0(%rbp),%rax
    64d9:	48 01 c2             	add    %rax,%rdx
    64dc:	48 8d 85 40 ff ff ff 	lea    -0xc0(%rbp),%rax
    64e3:	48 89 c6             	mov    %rax,%rsi
    64e6:	48 89 d7             	mov    %rdx,%rdi
    64e9:	e8 96 1b 00 00       	call   8084 <_ZN4Vec3pLERKS_>
    64ee:	48 8b 15 23 6e 00 00 	mov    0x6e23(%rip),%rdx        # d318 <border>
    64f5:	8b 85 10 ff ff ff    	mov    -0xf0(%rbp),%eax
    64fb:	48 98                	cltq   
    64fd:	48 01 d0             	add    %rdx,%rax
    6500:	0f b6 00             	movzbl (%rax),%eax
    6503:	84 c0                	test   %al,%al
    6505:	0f 84 d2 00 00 00    	je     65dd <_Z15ComputeForcesMTi+0x7bb>
    650b:	48 8b 15 4e 6e 00 00 	mov    0x6e4e(%rip),%rdx        # d360 <mutex>
    6512:	8b 85 10 ff ff ff    	mov    -0xf0(%rbp),%eax
    6518:	48 98                	cltq   
    651a:	48 c1 e0 03          	shl    $0x3,%rax
    651e:	48 01 d0             	add    %rdx,%rax
    6521:	48 8b 08             	mov    (%rax),%rcx
    6524:	8b 85 00 ff ff ff    	mov    -0x100(%rbp),%eax
    652a:	99                   	cltd   
    652b:	c1 ea 19             	shr    $0x19,%edx
    652e:	01 d0                	add    %edx,%eax
    6530:	83 e0 7f             	and    $0x7f,%eax
    6533:	29 d0                	sub    %edx,%eax
    6535:	48 63 d0             	movslq %eax,%rdx
    6538:	48 89 d0             	mov    %rdx,%rax
    653b:	48 c1 e0 02          	shl    $0x2,%rax
    653f:	48 01 d0             	add    %rdx,%rax
    6542:	48 c1 e0 03          	shl    $0x3,%rax
    6546:	48 01 c8             	add    %rcx,%rax
    6549:	48 89 c7             	mov    %rax,%rdi
    654c:	e8 1f bf ff ff       	call   2470 <pthread_mutex_lock@plt>
    6551:	8b 85 00 ff ff ff    	mov    -0x100(%rbp),%eax
    6557:	99                   	cltd   
    6558:	c1 ea 1c             	shr    $0x1c,%edx
    655b:	01 d0                	add    %edx,%eax
    655d:	83 e0 0f             	and    $0xf,%eax
    6560:	29 d0                	sub    %edx,%eax
    6562:	48 63 d0             	movslq %eax,%rdx
    6565:	48 89 d0             	mov    %rdx,%rax
    6568:	48 01 c0             	add    %rax,%rax
    656b:	48 01 d0             	add    %rdx,%rax
    656e:	48 c1 e0 02          	shl    $0x2,%rax
    6572:	48 8d 90 40 02 00 00 	lea    0x240(%rax),%rdx
    6579:	48 8b 85 28 ff ff ff 	mov    -0xd8(%rbp),%rax
    6580:	48 01 c2             	add    %rax,%rdx
    6583:	48 8d 85 40 ff ff ff 	lea    -0xc0(%rbp),%rax
    658a:	48 89 c6             	mov    %rax,%rsi
    658d:	48 89 d7             	mov    %rdx,%rdi
    6590:	e8 5f 1b 00 00       	call   80f4 <_ZN4Vec3mIERKS_>
    6595:	48 8b 15 c4 6d 00 00 	mov    0x6dc4(%rip),%rdx        # d360 <mutex>
    659c:	8b 85 10 ff ff ff    	mov    -0xf0(%rbp),%eax
    65a2:	48 98                	cltq   
    65a4:	48 c1 e0 03          	shl    $0x3,%rax
    65a8:	48 01 d0             	add    %rdx,%rax
    65ab:	48 8b 08             	mov    (%rax),%rcx
    65ae:	8b 85 00 ff ff ff    	mov    -0x100(%rbp),%eax
    65b4:	99                   	cltd   
    65b5:	c1 ea 19             	shr    $0x19,%edx
    65b8:	01 d0                	add    %edx,%eax
    65ba:	83 e0 7f             	and    $0x7f,%eax
    65bd:	29 d0                	sub    %edx,%eax
    65bf:	48 63 d0             	movslq %eax,%rdx
    65c2:	48 89 d0             	mov    %rdx,%rax
    65c5:	48 c1 e0 02          	shl    $0x2,%rax
    65c9:	48 01 d0             	add    %rdx,%rax
    65cc:	48 c1 e0 03          	shl    $0x3,%rax
    65d0:	48 01 c8             	add    %rcx,%rax
    65d3:	48 89 c7             	mov    %rax,%rdi
    65d6:	e8 75 bd ff ff       	call   2350 <pthread_mutex_unlock@plt>
    65db:	eb 44                	jmp    6621 <_Z15ComputeForcesMTi+0x7ff>
    65dd:	8b 85 00 ff ff ff    	mov    -0x100(%rbp),%eax
    65e3:	99                   	cltd   
    65e4:	c1 ea 1c             	shr    $0x1c,%edx
    65e7:	01 d0                	add    %edx,%eax
    65e9:	83 e0 0f             	and    $0xf,%eax
    65ec:	29 d0                	sub    %edx,%eax
    65ee:	48 63 d0             	movslq %eax,%rdx
    65f1:	48 89 d0             	mov    %rdx,%rax
    65f4:	48 01 c0             	add    %rax,%rax
    65f7:	48 01 d0             	add    %rdx,%rax
    65fa:	48 c1 e0 02          	shl    $0x2,%rax
    65fe:	48 8d 90 40 02 00 00 	lea    0x240(%rax),%rdx
    6605:	48 8b 85 28 ff ff ff 	mov    -0xd8(%rbp),%rax
    660c:	48 01 c2             	add    %rax,%rdx
    660f:	48 8d 85 40 ff ff ff 	lea    -0xc0(%rbp),%rax
    6616:	48 89 c6             	mov    %rax,%rsi
    6619:	48 89 d7             	mov    %rdx,%rdi
    661c:	e8 d3 1a 00 00       	call   80f4 <_ZN4Vec3mIERKS_>
    6621:	8b 85 00 ff ff ff    	mov    -0x100(%rbp),%eax
    6627:	99                   	cltd   
    6628:	c1 ea 1c             	shr    $0x1c,%edx
    662b:	01 d0                	add    %edx,%eax
    662d:	83 e0 0f             	and    $0xf,%eax
    6630:	29 d0                	sub    %edx,%eax
    6632:	83 f8 0f             	cmp    $0xf,%eax
    6635:	75 15                	jne    664c <_Z15ComputeForcesMTi+0x82a>
    6637:	48 8b 85 28 ff ff ff 	mov    -0xd8(%rbp),%rax
    663e:	48 8b 80 40 03 00 00 	mov    0x340(%rax),%rax
    6645:	48 89 85 28 ff ff ff 	mov    %rax,-0xd8(%rbp)
    664c:	83 85 00 ff ff ff 01 	addl   $0x1,-0x100(%rbp)
    6653:	8b 85 00 ff ff ff    	mov    -0x100(%rbp),%eax
    6659:	3b 85 14 ff ff ff    	cmp    -0xec(%rbp),%eax
    665f:	0f 8c 7e f9 ff ff    	jl     5fe3 <_Z15ComputeForcesMTi+0x1c1>
    6665:	83 85 fc fe ff ff 01 	addl   $0x1,-0x104(%rbp)
    666c:	8b 85 fc fe ff ff    	mov    -0x104(%rbp),%eax
    6672:	3b 85 0c ff ff ff    	cmp    -0xf4(%rbp),%eax
    6678:	0f 8c fb f8 ff ff    	jl     5f79 <_Z15ComputeForcesMTi+0x157>
    667e:	8b 85 f8 fe ff ff    	mov    -0x108(%rbp),%eax
    6684:	99                   	cltd   
    6685:	c1 ea 1c             	shr    $0x1c,%edx
    6688:	01 d0                	add    %edx,%eax
    668a:	83 e0 0f             	and    $0xf,%eax
    668d:	29 d0                	sub    %edx,%eax
    668f:	83 f8 0f             	cmp    $0xf,%eax
    6692:	75 15                	jne    66a9 <_Z15ComputeForcesMTi+0x887>
    6694:	48 8b 85 20 ff ff ff 	mov    -0xe0(%rbp),%rax
    669b:	48 8b 80 40 03 00 00 	mov    0x340(%rax),%rax
    66a2:	48 89 85 20 ff ff ff 	mov    %rax,-0xe0(%rbp)
    66a9:	83 85 f8 fe ff ff 01 	addl   $0x1,-0x108(%rbp)
    66b0:	8b 85 f8 fe ff ff    	mov    -0x108(%rbp),%eax
    66b6:	3b 85 08 ff ff ff    	cmp    -0xf8(%rbp),%eax
    66bc:	0f 8c a8 f8 ff ff    	jl     5f6a <_Z15ComputeForcesMTi+0x148>
    66c2:	eb 01                	jmp    66c5 <_Z15ComputeForcesMTi+0x8a3>
    66c4:	90                   	nop
    66c5:	83 85 f4 fe ff ff 01 	addl   $0x1,-0x10c(%rbp)
    66cc:	48 8b 15 3d 6c 00 00 	mov    0x6c3d(%rip),%rdx        # d310 <grids>
    66d3:	8b 85 dc fe ff ff    	mov    -0x124(%rbp),%eax
    66d9:	48 98                	cltq   
    66db:	48 c1 e0 07          	shl    $0x7,%rax
    66df:	48 01 d0             	add    %rdx,%rax
    66e2:	8b 40 0c             	mov    0xc(%rax),%eax
    66e5:	39 85 f4 fe ff ff    	cmp    %eax,-0x10c(%rbp)
    66eb:	0f 8c c3 f7 ff ff    	jl     5eb4 <_Z15ComputeForcesMTi+0x92>
    66f1:	83 85 f0 fe ff ff 01 	addl   $0x1,-0x110(%rbp)
    66f8:	48 8b 15 11 6c 00 00 	mov    0x6c11(%rip),%rdx        # d310 <grids>
    66ff:	8b 85 dc fe ff ff    	mov    -0x124(%rbp),%eax
    6705:	48 98                	cltq   
    6707:	48 c1 e0 07          	shl    $0x7,%rax
    670b:	48 01 d0             	add    %rdx,%rax
    670e:	8b 40 10             	mov    0x10(%rax),%eax
    6711:	39 85 f0 fe ff ff    	cmp    %eax,-0x110(%rbp)
    6717:	0f 8c 74 f7 ff ff    	jl     5e91 <_Z15ComputeForcesMTi+0x6f>
    671d:	83 85 ec fe ff ff 01 	addl   $0x1,-0x114(%rbp)
    6724:	48 8b 15 e5 6b 00 00 	mov    0x6be5(%rip),%rdx        # d310 <grids>
    672b:	8b 85 dc fe ff ff    	mov    -0x124(%rbp),%eax
    6731:	48 98                	cltq   
    6733:	48 c1 e0 07          	shl    $0x7,%rax
    6737:	48 01 d0             	add    %rdx,%rax
    673a:	8b 40 14             	mov    0x14(%rax),%eax
    673d:	39 85 ec fe ff ff    	cmp    %eax,-0x114(%rbp)
    6743:	0f 8c 24 f7 ff ff    	jl     5e6d <_Z15ComputeForcesMTi+0x4b>
    6749:	90                   	nop
    674a:	48 8b 45 e8          	mov    -0x18(%rbp),%rax
    674e:	64 48 2b 04 25 28 00 	sub    %fs:0x28,%rax
    6755:	00 00 
    6757:	74 05                	je     675e <_Z15ComputeForcesMTi+0x93c>
    6759:	e8 52 bc ff ff       	call   23b0 <__stack_chk_fail@plt>
    675e:	48 81 c4 20 01 00 00 	add    $0x120,%rsp
    6765:	5b                   	pop    %rbx
    6766:	41 5c                	pop    %r12
    6768:	5d                   	pop    %rbp
    6769:	c3                   	ret    

000000000000676a <_Z19ProcessCollisionsMTi>:
    676a:	f3 0f 1e fa          	endbr64 
    676e:	55                   	push   %rbp
    676f:	48 89 e5             	mov    %rsp,%rbp
    6772:	48 83 ec 70          	sub    $0x70,%rsp
    6776:	89 7d 9c             	mov    %edi,-0x64(%rbp)
    6779:	64 48 8b 04 25 28 00 	mov    %fs:0x28,%rax
    6780:	00 00 
    6782:	48 89 45 f8          	mov    %rax,-0x8(%rbp)
    6786:	31 c0                	xor    %eax,%eax
    6788:	48 8b 15 81 6b 00 00 	mov    0x6b81(%rip),%rdx        # d310 <grids>
    678f:	8b 45 9c             	mov    -0x64(%rbp),%eax
    6792:	48 98                	cltq   
    6794:	48 c1 e0 07          	shl    $0x7,%rax
    6798:	48 01 d0             	add    %rdx,%rax
    679b:	8b 40 08             	mov    0x8(%rax),%eax
    679e:	89 45 a4             	mov    %eax,-0x5c(%rbp)
    67a1:	e9 f4 06 00 00       	jmp    6e9a <_Z19ProcessCollisionsMTi+0x730>
    67a6:	48 8b 15 63 6b 00 00 	mov    0x6b63(%rip),%rdx        # d310 <grids>
    67ad:	8b 45 9c             	mov    -0x64(%rbp),%eax
    67b0:	48 98                	cltq   
    67b2:	48 c1 e0 07          	shl    $0x7,%rax
    67b6:	48 01 d0             	add    %rdx,%rax
    67b9:	8b 40 04             	mov    0x4(%rax),%eax
    67bc:	89 45 a8             	mov    %eax,-0x58(%rbp)
    67bf:	e9 b3 06 00 00       	jmp    6e77 <_Z19ProcessCollisionsMTi+0x70d>
    67c4:	48 8b 15 45 6b 00 00 	mov    0x6b45(%rip),%rdx        # d310 <grids>
    67cb:	8b 45 9c             	mov    -0x64(%rbp),%eax
    67ce:	48 98                	cltq   
    67d0:	48 c1 e0 07          	shl    $0x7,%rax
    67d4:	48 01 d0             	add    %rdx,%rax
    67d7:	8b 00                	mov    (%rax),%eax
    67d9:	89 45 ac             	mov    %eax,-0x54(%rbp)
    67dc:	e9 73 06 00 00       	jmp    6e54 <_Z19ProcessCollisionsMTi+0x6ea>
    67e1:	83 7d ac 00          	cmpl   $0x0,-0x54(%rbp)
    67e5:	74 46                	je     682d <_Z19ProcessCollisionsMTi+0xc3>
    67e7:	83 7d a8 00          	cmpl   $0x0,-0x58(%rbp)
    67eb:	74 40                	je     682d <_Z19ProcessCollisionsMTi+0xc3>
    67ed:	83 7d a4 00          	cmpl   $0x0,-0x5c(%rbp)
    67f1:	74 3a                	je     682d <_Z19ProcessCollisionsMTi+0xc3>
    67f3:	8b 05 c7 6a 00 00    	mov    0x6ac7(%rip),%eax        # d2c0 <nx>
    67f9:	83 e8 01             	sub    $0x1,%eax
    67fc:	39 45 ac             	cmp    %eax,-0x54(%rbp)
    67ff:	74 2c                	je     682d <_Z19ProcessCollisionsMTi+0xc3>
    6801:	8b 05 bd 6a 00 00    	mov    0x6abd(%rip),%eax        # d2c4 <ny>
    6807:	83 e8 01             	sub    $0x1,%eax
    680a:	39 45 a8             	cmp    %eax,-0x58(%rbp)
    680d:	0f 94 c0             	sete   %al
    6810:	0f b6 d0             	movzbl %al,%edx
    6813:	8b 05 af 6a 00 00    	mov    0x6aaf(%rip),%eax        # d2c8 <nz>
    6819:	83 e8 01             	sub    $0x1,%eax
    681c:	39 45 a4             	cmp    %eax,-0x5c(%rbp)
    681f:	0f 94 c0             	sete   %al
    6822:	0f b6 c0             	movzbl %al,%eax
    6825:	39 c2                	cmp    %eax,%edx
    6827:	0f 85 22 06 00 00    	jne    6e4f <_Z19ProcessCollisionsMTi+0x6e5>
    682d:	8b 05 91 6a 00 00    	mov    0x6a91(%rip),%eax        # d2c4 <ny>
    6833:	0f af 45 a4          	imul   -0x5c(%rbp),%eax
    6837:	89 c2                	mov    %eax,%edx
    6839:	8b 45 a8             	mov    -0x58(%rbp),%eax
    683c:	01 c2                	add    %eax,%edx
    683e:	8b 05 7c 6a 00 00    	mov    0x6a7c(%rip),%eax        # d2c0 <nx>
    6844:	0f af d0             	imul   %eax,%edx
    6847:	8b 45 ac             	mov    -0x54(%rbp),%eax
    684a:	01 d0                	add    %edx,%eax
    684c:	89 45 b4             	mov    %eax,-0x4c(%rbp)
    684f:	48 8b 0d 92 6a 00 00 	mov    0x6a92(%rip),%rcx        # d2e8 <cells>
    6856:	8b 45 b4             	mov    -0x4c(%rbp),%eax
    6859:	48 63 d0             	movslq %eax,%rdx
    685c:	48 89 d0             	mov    %rdx,%rax
    685f:	48 c1 e0 03          	shl    $0x3,%rax
    6863:	48 29 d0             	sub    %rdx,%rax
    6866:	48 c1 e0 07          	shl    $0x7,%rax
    686a:	48 01 c8             	add    %rcx,%rax
    686d:	48 89 45 d8          	mov    %rax,-0x28(%rbp)
    6871:	48 8b 15 80 6a 00 00 	mov    0x6a80(%rip),%rdx        # d2f8 <cnumPars>
    6878:	8b 45 b4             	mov    -0x4c(%rbp),%eax
    687b:	48 98                	cltq   
    687d:	48 c1 e0 02          	shl    $0x2,%rax
    6881:	48 01 d0             	add    %rdx,%rax
    6884:	8b 00                	mov    (%rax),%eax
    6886:	89 45 b8             	mov    %eax,-0x48(%rbp)
    6889:	c7 45 b0 00 00 00 00 	movl   $0x0,-0x50(%rbp)
    6890:	e9 ac 05 00 00       	jmp    6e41 <_Z19ProcessCollisionsMTi+0x6d7>
    6895:	8b 45 b0             	mov    -0x50(%rbp),%eax
    6898:	99                   	cltd   
    6899:	c1 ea 1c             	shr    $0x1c,%edx
    689c:	01 d0                	add    %edx,%eax
    689e:	83 e0 0f             	and    $0xf,%eax
    68a1:	29 d0                	sub    %edx,%eax
    68a3:	89 45 bc             	mov    %eax,-0x44(%rbp)
    68a6:	8b 15 64 67 00 00    	mov    0x6764(%rip),%edx        # d010 <_ZL8timeStep>
    68ac:	8b 45 bc             	mov    -0x44(%rbp),%eax
    68af:	48 63 c8             	movslq %eax,%rcx
    68b2:	48 89 c8             	mov    %rcx,%rax
    68b5:	48 01 c0             	add    %rax,%rax
    68b8:	48 01 c8             	add    %rcx,%rax
    68bb:	48 c1 e0 02          	shl    $0x2,%rax
    68bf:	48 8d 88 c0 00 00 00 	lea    0xc0(%rax),%rcx
    68c6:	48 8b 45 d8          	mov    -0x28(%rbp),%rax
    68ca:	48 01 c8             	add    %rcx,%rax
    68cd:	66 0f 6e c2          	movd   %edx,%xmm0
    68d1:	48 89 c7             	mov    %rax,%rdi
    68d4:	e8 c1 1a 00 00       	call   839a <_ZNK4Vec3mlEf>
    68d9:	66 48 0f 7e c0       	movq   %xmm0,%rax
    68de:	0f 28 c1             	movaps %xmm1,%xmm0
    68e1:	48 89 45 ec          	mov    %rax,-0x14(%rbp)
    68e5:	f3 0f 11 45 f4       	movss  %xmm0,-0xc(%rbp)
    68ea:	8b 45 bc             	mov    -0x44(%rbp),%eax
    68ed:	48 63 d0             	movslq %eax,%rdx
    68f0:	48 89 d0             	mov    %rdx,%rax
    68f3:	48 01 c0             	add    %rax,%rax
    68f6:	48 01 d0             	add    %rdx,%rax
    68f9:	48 c1 e0 02          	shl    $0x2,%rax
    68fd:	48 8b 55 d8          	mov    -0x28(%rbp),%rdx
    6901:	48 01 c2             	add    %rax,%rdx
    6904:	48 8d 45 ec          	lea    -0x14(%rbp),%rax
    6908:	48 89 c6             	mov    %rax,%rsi
    690b:	48 89 d7             	mov    %rdx,%rdi
    690e:	e8 17 19 00 00       	call   822a <_ZNK4Vec3plERKS_>
    6913:	66 48 0f 7e c0       	movq   %xmm0,%rax
    6918:	0f 28 c1             	movaps %xmm1,%xmm0
    691b:	48 89 45 e0          	mov    %rax,-0x20(%rbp)
    691f:	f3 0f 11 45 e8       	movss  %xmm0,-0x18(%rbp)
    6924:	83 7d ac 00          	cmpl   $0x0,-0x54(%rbp)
    6928:	0f 85 c8 00 00 00    	jne    69f6 <_Z19ProcessCollisionsMTi+0x28c>
    692e:	f3 0f 10 45 e0       	movss  -0x20(%rbp),%xmm0
    6933:	f3 0f 10 15 c5 6a 00 	movss  0x6ac5(%rip),%xmm2        # d400 <_ZL9domainMin>
    693a:	00 
    693b:	0f 28 c8             	movaps %xmm0,%xmm1
    693e:	f3 0f 5c ca          	subss  %xmm2,%xmm1
    6942:	f3 0f 10 05 26 3a 00 	movss  0x3a26(%rip),%xmm0        # a370 <_ZL22PARSEC_PROCESS_PRIVATE+0x330>
    6949:	00 
    694a:	f3 0f 5c c1          	subss  %xmm1,%xmm0
    694e:	f3 0f 11 45 c0       	movss  %xmm0,-0x40(%rbp)
    6953:	f3 0f 10 45 c0       	movss  -0x40(%rbp),%xmm0
    6958:	0f 2f 05 15 3a 00 00 	comiss 0x3a15(%rip),%xmm0        # a374 <_ZL22PARSEC_PROCESS_PRIVATE+0x334>
    695f:	0f 86 91 00 00 00    	jbe    69f6 <_Z19ProcessCollisionsMTi+0x28c>
    6965:	48 8b 4d d8          	mov    -0x28(%rbp),%rcx
    6969:	8b 45 bc             	mov    -0x44(%rbp),%eax
    696c:	48 63 d0             	movslq %eax,%rdx
    696f:	48 89 d0             	mov    %rdx,%rax
    6972:	48 01 c0             	add    %rax,%rax
    6975:	48 01 d0             	add    %rdx,%rax
    6978:	48 c1 e0 02          	shl    $0x2,%rax
    697c:	48 01 c8             	add    %rcx,%rax
    697f:	48 05 40 02 00 00    	add    $0x240,%rax
    6985:	f3 0f 10 08          	movss  (%rax),%xmm1
    6989:	f3 0f 10 55 c0       	movss  -0x40(%rbp),%xmm2
    698e:	f3 0f 10 05 e2 39 00 	movss  0x39e2(%rip),%xmm0        # a378 <_ZL22PARSEC_PROCESS_PRIVATE+0x338>
    6995:	00 
    6996:	f3 0f 59 c2          	mulss  %xmm2,%xmm0
    699a:	48 8b 4d d8          	mov    -0x28(%rbp),%rcx
    699e:	8b 45 bc             	mov    -0x44(%rbp),%eax
    69a1:	48 63 d0             	movslq %eax,%rdx
    69a4:	48 89 d0             	mov    %rdx,%rax
    69a7:	48 01 c0             	add    %rax,%rax
    69aa:	48 01 d0             	add    %rdx,%rax
    69ad:	48 c1 e0 02          	shl    $0x2,%rax
    69b1:	48 01 c8             	add    %rcx,%rax
    69b4:	48 05 80 01 00 00    	add    $0x180,%rax
    69ba:	f3 0f 10 18          	movss  (%rax),%xmm3
    69be:	f3 0f 10 15 b6 39 00 	movss  0x39b6(%rip),%xmm2        # a37c <_ZL22PARSEC_PROCESS_PRIVATE+0x33c>
    69c5:	00 
    69c6:	f3 0f 59 d3          	mulss  %xmm3,%xmm2
    69ca:	f3 0f 5c c2          	subss  %xmm2,%xmm0
    69ce:	f3 0f 58 c1          	addss  %xmm1,%xmm0
    69d2:	48 8b 4d d8          	mov    -0x28(%rbp),%rcx
    69d6:	8b 45 bc             	mov    -0x44(%rbp),%eax
    69d9:	48 63 d0             	movslq %eax,%rdx
    69dc:	48 89 d0             	mov    %rdx,%rax
    69df:	48 01 c0             	add    %rax,%rax
    69e2:	48 01 d0             	add    %rdx,%rax
    69e5:	48 c1 e0 02          	shl    $0x2,%rax
    69e9:	48 01 c8             	add    %rcx,%rax
    69ec:	48 05 40 02 00 00    	add    $0x240,%rax
    69f2:	f3 0f 11 00          	movss  %xmm0,(%rax)
    69f6:	8b 05 c4 68 00 00    	mov    0x68c4(%rip),%eax        # d2c0 <nx>
    69fc:	83 e8 01             	sub    $0x1,%eax
    69ff:	39 45 ac             	cmp    %eax,-0x54(%rbp)
    6a02:	0f 85 c8 00 00 00    	jne    6ad0 <_Z19ProcessCollisionsMTi+0x366>
    6a08:	f3 0f 10 05 00 6a 00 	movss  0x6a00(%rip),%xmm0        # d410 <_ZL9domainMax>
    6a0f:	00 
    6a10:	f3 0f 10 55 e0       	movss  -0x20(%rbp),%xmm2
    6a15:	0f 28 c8             	movaps %xmm0,%xmm1
    6a18:	f3 0f 5c ca          	subss  %xmm2,%xmm1
    6a1c:	f3 0f 10 05 4c 39 00 	movss  0x394c(%rip),%xmm0        # a370 <_ZL22PARSEC_PROCESS_PRIVATE+0x330>
    6a23:	00 
    6a24:	f3 0f 5c c1          	subss  %xmm1,%xmm0
    6a28:	f3 0f 11 45 c4       	movss  %xmm0,-0x3c(%rbp)
    6a2d:	f3 0f 10 45 c4       	movss  -0x3c(%rbp),%xmm0
    6a32:	0f 2f 05 3b 39 00 00 	comiss 0x393b(%rip),%xmm0        # a374 <_ZL22PARSEC_PROCESS_PRIVATE+0x334>
    6a39:	0f 86 91 00 00 00    	jbe    6ad0 <_Z19ProcessCollisionsMTi+0x366>
    6a3f:	48 8b 4d d8          	mov    -0x28(%rbp),%rcx
    6a43:	8b 45 bc             	mov    -0x44(%rbp),%eax
    6a46:	48 63 d0             	movslq %eax,%rdx
    6a49:	48 89 d0             	mov    %rdx,%rax
    6a4c:	48 01 c0             	add    %rax,%rax
    6a4f:	48 01 d0             	add    %rdx,%rax
    6a52:	48 c1 e0 02          	shl    $0x2,%rax
    6a56:	48 01 c8             	add    %rcx,%rax
    6a59:	48 05 40 02 00 00    	add    $0x240,%rax
    6a5f:	f3 0f 10 00          	movss  (%rax),%xmm0
    6a63:	f3 0f 10 55 c4       	movss  -0x3c(%rbp),%xmm2
    6a68:	f3 0f 10 0d 08 39 00 	movss  0x3908(%rip),%xmm1        # a378 <_ZL22PARSEC_PROCESS_PRIVATE+0x338>
    6a6f:	00 
    6a70:	f3 0f 59 d1          	mulss  %xmm1,%xmm2
    6a74:	48 8b 4d d8          	mov    -0x28(%rbp),%rcx
    6a78:	8b 45 bc             	mov    -0x44(%rbp),%eax
    6a7b:	48 63 d0             	movslq %eax,%rdx
    6a7e:	48 89 d0             	mov    %rdx,%rax
    6a81:	48 01 c0             	add    %rax,%rax
    6a84:	48 01 d0             	add    %rdx,%rax
    6a87:	48 c1 e0 02          	shl    $0x2,%rax
    6a8b:	48 01 c8             	add    %rcx,%rax
    6a8e:	48 05 80 01 00 00    	add    $0x180,%rax
    6a94:	f3 0f 10 18          	movss  (%rax),%xmm3
    6a98:	f3 0f 10 0d dc 38 00 	movss  0x38dc(%rip),%xmm1        # a37c <_ZL22PARSEC_PROCESS_PRIVATE+0x33c>
    6a9f:	00 
    6aa0:	f3 0f 59 cb          	mulss  %xmm3,%xmm1
    6aa4:	f3 0f 58 ca          	addss  %xmm2,%xmm1
    6aa8:	f3 0f 5c c1          	subss  %xmm1,%xmm0
    6aac:	48 8b 4d d8          	mov    -0x28(%rbp),%rcx
    6ab0:	8b 45 bc             	mov    -0x44(%rbp),%eax
    6ab3:	48 63 d0             	movslq %eax,%rdx
    6ab6:	48 89 d0             	mov    %rdx,%rax
    6ab9:	48 01 c0             	add    %rax,%rax
    6abc:	48 01 d0             	add    %rdx,%rax
    6abf:	48 c1 e0 02          	shl    $0x2,%rax
    6ac3:	48 01 c8             	add    %rcx,%rax
    6ac6:	48 05 40 02 00 00    	add    $0x240,%rax
    6acc:	f3 0f 11 00          	movss  %xmm0,(%rax)
    6ad0:	83 7d a8 00          	cmpl   $0x0,-0x58(%rbp)
    6ad4:	0f 85 c8 00 00 00    	jne    6ba2 <_Z19ProcessCollisionsMTi+0x438>
    6ada:	f3 0f 10 45 e4       	movss  -0x1c(%rbp),%xmm0
    6adf:	f3 0f 10 15 1d 69 00 	movss  0x691d(%rip),%xmm2        # d404 <_ZL9domainMin+0x4>
    6ae6:	00 
    6ae7:	0f 28 c8             	movaps %xmm0,%xmm1
    6aea:	f3 0f 5c ca          	subss  %xmm2,%xmm1
    6aee:	f3 0f 10 05 7a 38 00 	movss  0x387a(%rip),%xmm0        # a370 <_ZL22PARSEC_PROCESS_PRIVATE+0x330>
    6af5:	00 
    6af6:	f3 0f 5c c1          	subss  %xmm1,%xmm0
    6afa:	f3 0f 11 45 c8       	movss  %xmm0,-0x38(%rbp)
    6aff:	f3 0f 10 45 c8       	movss  -0x38(%rbp),%xmm0
    6b04:	0f 2f 05 69 38 00 00 	comiss 0x3869(%rip),%xmm0        # a374 <_ZL22PARSEC_PROCESS_PRIVATE+0x334>
    6b0b:	0f 86 91 00 00 00    	jbe    6ba2 <_Z19ProcessCollisionsMTi+0x438>
    6b11:	48 8b 4d d8          	mov    -0x28(%rbp),%rcx
    6b15:	8b 45 bc             	mov    -0x44(%rbp),%eax
    6b18:	48 63 d0             	movslq %eax,%rdx
    6b1b:	48 89 d0             	mov    %rdx,%rax
    6b1e:	48 01 c0             	add    %rax,%rax
    6b21:	48 01 d0             	add    %rdx,%rax
    6b24:	48 c1 e0 02          	shl    $0x2,%rax
    6b28:	48 01 c8             	add    %rcx,%rax
    6b2b:	48 05 44 02 00 00    	add    $0x244,%rax
    6b31:	f3 0f 10 08          	movss  (%rax),%xmm1
    6b35:	f3 0f 10 55 c8       	movss  -0x38(%rbp),%xmm2
    6b3a:	f3 0f 10 05 36 38 00 	movss  0x3836(%rip),%xmm0        # a378 <_ZL22PARSEC_PROCESS_PRIVATE+0x338>
    6b41:	00 
    6b42:	f3 0f 59 c2          	mulss  %xmm2,%xmm0
    6b46:	48 8b 4d d8          	mov    -0x28(%rbp),%rcx
    6b4a:	8b 45 bc             	mov    -0x44(%rbp),%eax
    6b4d:	48 63 d0             	movslq %eax,%rdx
    6b50:	48 89 d0             	mov    %rdx,%rax
    6b53:	48 01 c0             	add    %rax,%rax
    6b56:	48 01 d0             	add    %rdx,%rax
    6b59:	48 c1 e0 02          	shl    $0x2,%rax
    6b5d:	48 01 c8             	add    %rcx,%rax
    6b60:	48 05 84 01 00 00    	add    $0x184,%rax
    6b66:	f3 0f 10 18          	movss  (%rax),%xmm3
    6b6a:	f3 0f 10 15 0a 38 00 	movss  0x380a(%rip),%xmm2        # a37c <_ZL22PARSEC_PROCESS_PRIVATE+0x33c>
    6b71:	00 
    6b72:	f3 0f 59 d3          	mulss  %xmm3,%xmm2
    6b76:	f3 0f 5c c2          	subss  %xmm2,%xmm0
    6b7a:	f3 0f 58 c1          	addss  %xmm1,%xmm0
    6b7e:	48 8b 4d d8          	mov    -0x28(%rbp),%rcx
    6b82:	8b 45 bc             	mov    -0x44(%rbp),%eax
    6b85:	48 63 d0             	movslq %eax,%rdx
    6b88:	48 89 d0             	mov    %rdx,%rax
    6b8b:	48 01 c0             	add    %rax,%rax
    6b8e:	48 01 d0             	add    %rdx,%rax
    6b91:	48 c1 e0 02          	shl    $0x2,%rax
    6b95:	48 01 c8             	add    %rcx,%rax
    6b98:	48 05 44 02 00 00    	add    $0x244,%rax
    6b9e:	f3 0f 11 00          	movss  %xmm0,(%rax)
    6ba2:	8b 05 1c 67 00 00    	mov    0x671c(%rip),%eax        # d2c4 <ny>
    6ba8:	83 e8 01             	sub    $0x1,%eax
    6bab:	39 45 a8             	cmp    %eax,-0x58(%rbp)
    6bae:	0f 85 c8 00 00 00    	jne    6c7c <_Z19ProcessCollisionsMTi+0x512>
    6bb4:	f3 0f 10 05 58 68 00 	movss  0x6858(%rip),%xmm0        # d414 <_ZL9domainMax+0x4>
    6bbb:	00 
    6bbc:	f3 0f 10 55 e4       	movss  -0x1c(%rbp),%xmm2
    6bc1:	0f 28 c8             	movaps %xmm0,%xmm1
    6bc4:	f3 0f 5c ca          	subss  %xmm2,%xmm1
    6bc8:	f3 0f 10 05 a0 37 00 	movss  0x37a0(%rip),%xmm0        # a370 <_ZL22PARSEC_PROCESS_PRIVATE+0x330>
    6bcf:	00 
    6bd0:	f3 0f 5c c1          	subss  %xmm1,%xmm0
    6bd4:	f3 0f 11 45 cc       	movss  %xmm0,-0x34(%rbp)
    6bd9:	f3 0f 10 45 cc       	movss  -0x34(%rbp),%xmm0
    6bde:	0f 2f 05 8f 37 00 00 	comiss 0x378f(%rip),%xmm0        # a374 <_ZL22PARSEC_PROCESS_PRIVATE+0x334>
    6be5:	0f 86 91 00 00 00    	jbe    6c7c <_Z19ProcessCollisionsMTi+0x512>
    6beb:	48 8b 4d d8          	mov    -0x28(%rbp),%rcx
    6bef:	8b 45 bc             	mov    -0x44(%rbp),%eax
    6bf2:	48 63 d0             	movslq %eax,%rdx
    6bf5:	48 89 d0             	mov    %rdx,%rax
    6bf8:	48 01 c0             	add    %rax,%rax
    6bfb:	48 01 d0             	add    %rdx,%rax
    6bfe:	48 c1 e0 02          	shl    $0x2,%rax
    6c02:	48 01 c8             	add    %rcx,%rax
    6c05:	48 05 44 02 00 00    	add    $0x244,%rax
    6c0b:	f3 0f 10 00          	movss  (%rax),%xmm0
    6c0f:	f3 0f 10 55 cc       	movss  -0x34(%rbp),%xmm2
    6c14:	f3 0f 10 0d 5c 37 00 	movss  0x375c(%rip),%xmm1        # a378 <_ZL22PARSEC_PROCESS_PRIVATE+0x338>
    6c1b:	00 
    6c1c:	f3 0f 59 d1          	mulss  %xmm1,%xmm2
    6c20:	48 8b 4d d8          	mov    -0x28(%rbp),%rcx
    6c24:	8b 45 bc             	mov    -0x44(%rbp),%eax
    6c27:	48 63 d0             	movslq %eax,%rdx
    6c2a:	48 89 d0             	mov    %rdx,%rax
    6c2d:	48 01 c0             	add    %rax,%rax
    6c30:	48 01 d0             	add    %rdx,%rax
    6c33:	48 c1 e0 02          	shl    $0x2,%rax
    6c37:	48 01 c8             	add    %rcx,%rax
    6c3a:	48 05 84 01 00 00    	add    $0x184,%rax
    6c40:	f3 0f 10 18          	movss  (%rax),%xmm3
    6c44:	f3 0f 10 0d 30 37 00 	movss  0x3730(%rip),%xmm1        # a37c <_ZL22PARSEC_PROCESS_PRIVATE+0x33c>
    6c4b:	00 
    6c4c:	f3 0f 59 cb          	mulss  %xmm3,%xmm1
    6c50:	f3 0f 58 ca          	addss  %xmm2,%xmm1
    6c54:	f3 0f 5c c1          	subss  %xmm1,%xmm0
    6c58:	48 8b 4d d8          	mov    -0x28(%rbp),%rcx
    6c5c:	8b 45 bc             	mov    -0x44(%rbp),%eax
    6c5f:	48 63 d0             	movslq %eax,%rdx
    6c62:	48 89 d0             	mov    %rdx,%rax
    6c65:	48 01 c0             	add    %rax,%rax
    6c68:	48 01 d0             	add    %rdx,%rax
    6c6b:	48 c1 e0 02          	shl    $0x2,%rax
    6c6f:	48 01 c8             	add    %rcx,%rax
    6c72:	48 05 44 02 00 00    	add    $0x244,%rax
    6c78:	f3 0f 11 00          	movss  %xmm0,(%rax)
    6c7c:	83 7d a4 00          	cmpl   $0x0,-0x5c(%rbp)
    6c80:	0f 85 c8 00 00 00    	jne    6d4e <_Z19ProcessCollisionsMTi+0x5e4>
    6c86:	f3 0f 10 45 e8       	movss  -0x18(%rbp),%xmm0
    6c8b:	f3 0f 10 15 75 67 00 	movss  0x6775(%rip),%xmm2        # d408 <_ZL9domainMin+0x8>
    6c92:	00 
    6c93:	0f 28 c8             	movaps %xmm0,%xmm1
    6c96:	f3 0f 5c ca          	subss  %xmm2,%xmm1
    6c9a:	f3 0f 10 05 ce 36 00 	movss  0x36ce(%rip),%xmm0        # a370 <_ZL22PARSEC_PROCESS_PRIVATE+0x330>
    6ca1:	00 
    6ca2:	f3 0f 5c c1          	subss  %xmm1,%xmm0
    6ca6:	f3 0f 11 45 d0       	movss  %xmm0,-0x30(%rbp)
    6cab:	f3 0f 10 45 d0       	movss  -0x30(%rbp),%xmm0
    6cb0:	0f 2f 05 bd 36 00 00 	comiss 0x36bd(%rip),%xmm0        # a374 <_ZL22PARSEC_PROCESS_PRIVATE+0x334>
    6cb7:	0f 86 91 00 00 00    	jbe    6d4e <_Z19ProcessCollisionsMTi+0x5e4>
    6cbd:	48 8b 4d d8          	mov    -0x28(%rbp),%rcx
    6cc1:	8b 45 bc             	mov    -0x44(%rbp),%eax
    6cc4:	48 63 d0             	movslq %eax,%rdx
    6cc7:	48 89 d0             	mov    %rdx,%rax
    6cca:	48 01 c0             	add    %rax,%rax
    6ccd:	48 01 d0             	add    %rdx,%rax
    6cd0:	48 c1 e0 02          	shl    $0x2,%rax
    6cd4:	48 01 c8             	add    %rcx,%rax
    6cd7:	48 05 48 02 00 00    	add    $0x248,%rax
    6cdd:	f3 0f 10 08          	movss  (%rax),%xmm1
    6ce1:	f3 0f 10 55 d0       	movss  -0x30(%rbp),%xmm2
    6ce6:	f3 0f 10 05 8a 36 00 	movss  0x368a(%rip),%xmm0        # a378 <_ZL22PARSEC_PROCESS_PRIVATE+0x338>
    6ced:	00 
    6cee:	f3 0f 59 c2          	mulss  %xmm2,%xmm0
    6cf2:	48 8b 4d d8          	mov    -0x28(%rbp),%rcx
    6cf6:	8b 45 bc             	mov    -0x44(%rbp),%eax
    6cf9:	48 63 d0             	movslq %eax,%rdx
    6cfc:	48 89 d0             	mov    %rdx,%rax
    6cff:	48 01 c0             	add    %rax,%rax
    6d02:	48 01 d0             	add    %rdx,%rax
    6d05:	48 c1 e0 02          	shl    $0x2,%rax
    6d09:	48 01 c8             	add    %rcx,%rax
    6d0c:	48 05 88 01 00 00    	add    $0x188,%rax
    6d12:	f3 0f 10 18          	movss  (%rax),%xmm3
    6d16:	f3 0f 10 15 5e 36 00 	movss  0x365e(%rip),%xmm2        # a37c <_ZL22PARSEC_PROCESS_PRIVATE+0x33c>
    6d1d:	00 
    6d1e:	f3 0f 59 d3          	mulss  %xmm3,%xmm2
    6d22:	f3 0f 5c c2          	subss  %xmm2,%xmm0
    6d26:	f3 0f 58 c1          	addss  %xmm1,%xmm0
    6d2a:	48 8b 4d d8          	mov    -0x28(%rbp),%rcx
    6d2e:	8b 45 bc             	mov    -0x44(%rbp),%eax
    6d31:	48 63 d0             	movslq %eax,%rdx
    6d34:	48 89 d0             	mov    %rdx,%rax
    6d37:	48 01 c0             	add    %rax,%rax
    6d3a:	48 01 d0             	add    %rdx,%rax
    6d3d:	48 c1 e0 02          	shl    $0x2,%rax
    6d41:	48 01 c8             	add    %rcx,%rax
    6d44:	48 05 48 02 00 00    	add    $0x248,%rax
    6d4a:	f3 0f 11 00          	movss  %xmm0,(%rax)
    6d4e:	8b 05 74 65 00 00    	mov    0x6574(%rip),%eax        # d2c8 <nz>
    6d54:	83 e8 01             	sub    $0x1,%eax
    6d57:	39 45 a4             	cmp    %eax,-0x5c(%rbp)
    6d5a:	0f 85 c8 00 00 00    	jne    6e28 <_Z19ProcessCollisionsMTi+0x6be>
    6d60:	f3 0f 10 05 b0 66 00 	movss  0x66b0(%rip),%xmm0        # d418 <_ZL9domainMax+0x8>
    6d67:	00 
    6d68:	f3 0f 10 55 e8       	movss  -0x18(%rbp),%xmm2
    6d6d:	0f 28 c8             	movaps %xmm0,%xmm1
    6d70:	f3 0f 5c ca          	subss  %xmm2,%xmm1
    6d74:	f3 0f 10 05 f4 35 00 	movss  0x35f4(%rip),%xmm0        # a370 <_ZL22PARSEC_PROCESS_PRIVATE+0x330>
    6d7b:	00 
    6d7c:	f3 0f 5c c1          	subss  %xmm1,%xmm0
    6d80:	f3 0f 11 45 d4       	movss  %xmm0,-0x2c(%rbp)
    6d85:	f3 0f 10 45 d4       	movss  -0x2c(%rbp),%xmm0
    6d8a:	0f 2f 05 e3 35 00 00 	comiss 0x35e3(%rip),%xmm0        # a374 <_ZL22PARSEC_PROCESS_PRIVATE+0x334>
    6d91:	0f 86 91 00 00 00    	jbe    6e28 <_Z19ProcessCollisionsMTi+0x6be>
    6d97:	48 8b 4d d8          	mov    -0x28(%rbp),%rcx
    6d9b:	8b 45 bc             	mov    -0x44(%rbp),%eax
    6d9e:	48 63 d0             	movslq %eax,%rdx
    6da1:	48 89 d0             	mov    %rdx,%rax
    6da4:	48 01 c0             	add    %rax,%rax
    6da7:	48 01 d0             	add    %rdx,%rax
    6daa:	48 c1 e0 02          	shl    $0x2,%rax
    6dae:	48 01 c8             	add    %rcx,%rax
    6db1:	48 05 48 02 00 00    	add    $0x248,%rax
    6db7:	f3 0f 10 00          	movss  (%rax),%xmm0
    6dbb:	f3 0f 10 55 d4       	movss  -0x2c(%rbp),%xmm2
    6dc0:	f3 0f 10 0d b0 35 00 	movss  0x35b0(%rip),%xmm1        # a378 <_ZL22PARSEC_PROCESS_PRIVATE+0x338>
    6dc7:	00 
    6dc8:	f3 0f 59 d1          	mulss  %xmm1,%xmm2
    6dcc:	48 8b 4d d8          	mov    -0x28(%rbp),%rcx
    6dd0:	8b 45 bc             	mov    -0x44(%rbp),%eax
    6dd3:	48 63 d0             	movslq %eax,%rdx
    6dd6:	48 89 d0             	mov    %rdx,%rax
    6dd9:	48 01 c0             	add    %rax,%rax
    6ddc:	48 01 d0             	add    %rdx,%rax
    6ddf:	48 c1 e0 02          	shl    $0x2,%rax
    6de3:	48 01 c8             	add    %rcx,%rax
    6de6:	48 05 88 01 00 00    	add    $0x188,%rax
    6dec:	f3 0f 10 18          	movss  (%rax),%xmm3
    6df0:	f3 0f 10 0d 84 35 00 	movss  0x3584(%rip),%xmm1        # a37c <_ZL22PARSEC_PROCESS_PRIVATE+0x33c>
    6df7:	00 
    6df8:	f3 0f 59 cb          	mulss  %xmm3,%xmm1
    6dfc:	f3 0f 58 ca          	addss  %xmm2,%xmm1
    6e00:	f3 0f 5c c1          	subss  %xmm1,%xmm0
    6e04:	48 8b 4d d8          	mov    -0x28(%rbp),%rcx
    6e08:	8b 45 bc             	mov    -0x44(%rbp),%eax
    6e0b:	48 63 d0             	movslq %eax,%rdx
    6e0e:	48 89 d0             	mov    %rdx,%rax
    6e11:	48 01 c0             	add    %rax,%rax
    6e14:	48 01 d0             	add    %rdx,%rax
    6e17:	48 c1 e0 02          	shl    $0x2,%rax
    6e1b:	48 01 c8             	add    %rcx,%rax
    6e1e:	48 05 48 02 00 00    	add    $0x248,%rax
    6e24:	f3 0f 11 00          	movss  %xmm0,(%rax)
    6e28:	83 7d bc 0f          	cmpl   $0xf,-0x44(%rbp)
    6e2c:	75 0f                	jne    6e3d <_Z19ProcessCollisionsMTi+0x6d3>
    6e2e:	48 8b 45 d8          	mov    -0x28(%rbp),%rax
    6e32:	48 8b 80 40 03 00 00 	mov    0x340(%rax),%rax
    6e39:	48 89 45 d8          	mov    %rax,-0x28(%rbp)
    6e3d:	83 45 b0 01          	addl   $0x1,-0x50(%rbp)
    6e41:	8b 45 b0             	mov    -0x50(%rbp),%eax
    6e44:	3b 45 b8             	cmp    -0x48(%rbp),%eax
    6e47:	0f 8c 48 fa ff ff    	jl     6895 <_Z19ProcessCollisionsMTi+0x12b>
    6e4d:	eb 01                	jmp    6e50 <_Z19ProcessCollisionsMTi+0x6e6>
    6e4f:	90                   	nop
    6e50:	83 45 ac 01          	addl   $0x1,-0x54(%rbp)
    6e54:	48 8b 15 b5 64 00 00 	mov    0x64b5(%rip),%rdx        # d310 <grids>
    6e5b:	8b 45 9c             	mov    -0x64(%rbp),%eax
    6e5e:	48 98                	cltq   
    6e60:	48 c1 e0 07          	shl    $0x7,%rax
    6e64:	48 01 d0             	add    %rdx,%rax
    6e67:	8b 40 0c             	mov    0xc(%rax),%eax
    6e6a:	39 45 ac             	cmp    %eax,-0x54(%rbp)
    6e6d:	0f 8c 6e f9 ff ff    	jl     67e1 <_Z19ProcessCollisionsMTi+0x77>
    6e73:	83 45 a8 01          	addl   $0x1,-0x58(%rbp)
    6e77:	48 8b 15 92 64 00 00 	mov    0x6492(%rip),%rdx        # d310 <grids>
    6e7e:	8b 45 9c             	mov    -0x64(%rbp),%eax
    6e81:	48 98                	cltq   
    6e83:	48 c1 e0 07          	shl    $0x7,%rax
    6e87:	48 01 d0             	add    %rdx,%rax
    6e8a:	8b 40 10             	mov    0x10(%rax),%eax
    6e8d:	39 45 a8             	cmp    %eax,-0x58(%rbp)
    6e90:	0f 8c 2e f9 ff ff    	jl     67c4 <_Z19ProcessCollisionsMTi+0x5a>
    6e96:	83 45 a4 01          	addl   $0x1,-0x5c(%rbp)
    6e9a:	48 8b 15 6f 64 00 00 	mov    0x646f(%rip),%rdx        # d310 <grids>
    6ea1:	8b 45 9c             	mov    -0x64(%rbp),%eax
    6ea4:	48 98                	cltq   
    6ea6:	48 c1 e0 07          	shl    $0x7,%rax
    6eaa:	48 01 d0             	add    %rdx,%rax
    6ead:	8b 40 14             	mov    0x14(%rax),%eax
    6eb0:	39 45 a4             	cmp    %eax,-0x5c(%rbp)
    6eb3:	0f 8c ed f8 ff ff    	jl     67a6 <_Z19ProcessCollisionsMTi+0x3c>
    6eb9:	90                   	nop
    6eba:	48 8b 45 f8          	mov    -0x8(%rbp),%rax
    6ebe:	64 48 2b 04 25 28 00 	sub    %fs:0x28,%rax
    6ec5:	00 00 
    6ec7:	74 05                	je     6ece <_Z19ProcessCollisionsMTi+0x764>
    6ec9:	e8 e2 b4 ff ff       	call   23b0 <__stack_chk_fail@plt>
    6ece:	c9                   	leave  
    6ecf:	c3                   	ret    

0000000000006ed0 <_Z20ProcessCollisions2MTi>:
    6ed0:	f3 0f 1e fa          	endbr64 
    6ed4:	55                   	push   %rbp
    6ed5:	48 89 e5             	mov    %rsp,%rbp
    6ed8:	89 7d ac             	mov    %edi,-0x54(%rbp)
    6edb:	48 8b 15 2e 64 00 00 	mov    0x642e(%rip),%rdx        # d310 <grids>
    6ee2:	8b 45 ac             	mov    -0x54(%rbp),%eax
    6ee5:	48 98                	cltq   
    6ee7:	48 c1 e0 07          	shl    $0x7,%rax
    6eeb:	48 01 d0             	add    %rdx,%rax
    6eee:	8b 40 08             	mov    0x8(%rax),%eax
    6ef1:	89 45 b4             	mov    %eax,-0x4c(%rbp)
    6ef4:	e9 6c 07 00 00       	jmp    7665 <_Z20ProcessCollisions2MTi+0x795>
    6ef9:	48 8b 15 10 64 00 00 	mov    0x6410(%rip),%rdx        # d310 <grids>
    6f00:	8b 45 ac             	mov    -0x54(%rbp),%eax
    6f03:	48 98                	cltq   
    6f05:	48 c1 e0 07          	shl    $0x7,%rax
    6f09:	48 01 d0             	add    %rdx,%rax
    6f0c:	8b 40 04             	mov    0x4(%rax),%eax
    6f0f:	89 45 b8             	mov    %eax,-0x48(%rbp)
    6f12:	e9 2b 07 00 00       	jmp    7642 <_Z20ProcessCollisions2MTi+0x772>
    6f17:	48 8b 15 f2 63 00 00 	mov    0x63f2(%rip),%rdx        # d310 <grids>
    6f1e:	8b 45 ac             	mov    -0x54(%rbp),%eax
    6f21:	48 98                	cltq   
    6f23:	48 c1 e0 07          	shl    $0x7,%rax
    6f27:	48 01 d0             	add    %rdx,%rax
    6f2a:	8b 00                	mov    (%rax),%eax
    6f2c:	89 45 bc             	mov    %eax,-0x44(%rbp)
    6f2f:	e9 eb 06 00 00       	jmp    761f <_Z20ProcessCollisions2MTi+0x74f>
    6f34:	8b 05 8a 63 00 00    	mov    0x638a(%rip),%eax        # d2c4 <ny>
    6f3a:	0f af 45 b4          	imul   -0x4c(%rbp),%eax
    6f3e:	89 c2                	mov    %eax,%edx
    6f40:	8b 45 b8             	mov    -0x48(%rbp),%eax
    6f43:	01 c2                	add    %eax,%edx
    6f45:	8b 05 75 63 00 00    	mov    0x6375(%rip),%eax        # d2c0 <nx>
    6f4b:	0f af d0             	imul   %eax,%edx
    6f4e:	8b 45 bc             	mov    -0x44(%rbp),%eax
    6f51:	01 d0                	add    %edx,%eax
    6f53:	89 45 c4             	mov    %eax,-0x3c(%rbp)
    6f56:	48 8b 0d 8b 63 00 00 	mov    0x638b(%rip),%rcx        # d2e8 <cells>
    6f5d:	8b 45 c4             	mov    -0x3c(%rbp),%eax
    6f60:	48 63 d0             	movslq %eax,%rdx
    6f63:	48 89 d0             	mov    %rdx,%rax
    6f66:	48 c1 e0 03          	shl    $0x3,%rax
    6f6a:	48 29 d0             	sub    %rdx,%rax
    6f6d:	48 c1 e0 07          	shl    $0x7,%rax
    6f71:	48 01 c8             	add    %rcx,%rax
    6f74:	48 89 45 e8          	mov    %rax,-0x18(%rbp)
    6f78:	48 8b 15 79 63 00 00 	mov    0x6379(%rip),%rdx        # d2f8 <cnumPars>
    6f7f:	8b 45 c4             	mov    -0x3c(%rbp),%eax
    6f82:	48 98                	cltq   
    6f84:	48 c1 e0 02          	shl    $0x2,%rax
    6f88:	48 01 d0             	add    %rdx,%rax
    6f8b:	8b 00                	mov    (%rax),%eax
    6f8d:	89 45 c8             	mov    %eax,-0x38(%rbp)
    6f90:	c7 45 c0 00 00 00 00 	movl   $0x0,-0x40(%rbp)
    6f97:	e9 73 06 00 00       	jmp    760f <_Z20ProcessCollisions2MTi+0x73f>
    6f9c:	8b 45 c0             	mov    -0x40(%rbp),%eax
    6f9f:	99                   	cltd   
    6fa0:	c1 ea 1c             	shr    $0x1c,%edx
    6fa3:	01 d0                	add    %edx,%eax
    6fa5:	83 e0 0f             	and    $0xf,%eax
    6fa8:	29 d0                	sub    %edx,%eax
    6faa:	89 45 cc             	mov    %eax,-0x34(%rbp)
    6fad:	48 8b 4d e8          	mov    -0x18(%rbp),%rcx
    6fb1:	8b 45 cc             	mov    -0x34(%rbp),%eax
    6fb4:	48 63 d0             	movslq %eax,%rdx
    6fb7:	48 89 d0             	mov    %rdx,%rax
    6fba:	48 01 c0             	add    %rax,%rax
    6fbd:	48 01 d0             	add    %rdx,%rax
    6fc0:	48 c1 e0 02          	shl    $0x2,%rax
    6fc4:	48 01 c8             	add    %rcx,%rax
    6fc7:	48 8b 10             	mov    (%rax),%rdx
    6fca:	48 89 55 f4          	mov    %rdx,-0xc(%rbp)
    6fce:	8b 40 08             	mov    0x8(%rax),%eax
    6fd1:	89 45 fc             	mov    %eax,-0x4(%rbp)
    6fd4:	83 7d bc 00          	cmpl   $0x0,-0x44(%rbp)
    6fd8:	0f 85 f5 00 00 00    	jne    70d3 <_Z20ProcessCollisions2MTi+0x203>
    6fde:	f3 0f 10 45 f4       	movss  -0xc(%rbp),%xmm0
    6fe3:	f3 0f 10 0d 15 64 00 	movss  0x6415(%rip),%xmm1        # d400 <_ZL9domainMin>
    6fea:	00 
    6feb:	f3 0f 5c c1          	subss  %xmm1,%xmm0
    6fef:	f3 0f 11 45 d0       	movss  %xmm0,-0x30(%rbp)
    6ff4:	66 0f ef c0          	pxor   %xmm0,%xmm0
    6ff8:	0f 2f 45 d0          	comiss -0x30(%rbp),%xmm0
    6ffc:	0f 86 d1 00 00 00    	jbe    70d3 <_Z20ProcessCollisions2MTi+0x203>
    7002:	f3 0f 10 05 f6 63 00 	movss  0x63f6(%rip),%xmm0        # d400 <_ZL9domainMin>
    7009:	00 
    700a:	f3 0f 5c 45 d0       	subss  -0x30(%rbp),%xmm0
    700f:	48 8b 4d e8          	mov    -0x18(%rbp),%rcx
    7013:	8b 45 cc             	mov    -0x34(%rbp),%eax
    7016:	48 63 d0             	movslq %eax,%rdx
    7019:	48 89 d0             	mov    %rdx,%rax
    701c:	48 01 c0             	add    %rax,%rax
    701f:	48 01 d0             	add    %rdx,%rax
    7022:	48 c1 e0 02          	shl    $0x2,%rax
    7026:	48 01 c8             	add    %rcx,%rax
    7029:	f3 0f 11 00          	movss  %xmm0,(%rax)
    702d:	48 8b 4d e8          	mov    -0x18(%rbp),%rcx
    7031:	8b 45 cc             	mov    -0x34(%rbp),%eax
    7034:	48 63 d0             	movslq %eax,%rdx
    7037:	48 89 d0             	mov    %rdx,%rax
    703a:	48 01 c0             	add    %rax,%rax
    703d:	48 01 d0             	add    %rdx,%rax
    7040:	48 c1 e0 02          	shl    $0x2,%rax
    7044:	48 01 c8             	add    %rcx,%rax
    7047:	48 05 80 01 00 00    	add    $0x180,%rax
    704d:	f3 0f 10 00          	movss  (%rax),%xmm0
    7051:	f3 0f 10 0d 27 33 00 	movss  0x3327(%rip),%xmm1        # a380 <_ZL22PARSEC_PROCESS_PRIVATE+0x340>
    7058:	00 
    7059:	0f 57 c1             	xorps  %xmm1,%xmm0
    705c:	48 8b 4d e8          	mov    -0x18(%rbp),%rcx
    7060:	8b 45 cc             	mov    -0x34(%rbp),%eax
    7063:	48 63 d0             	movslq %eax,%rdx
    7066:	48 89 d0             	mov    %rdx,%rax
    7069:	48 01 c0             	add    %rax,%rax
    706c:	48 01 d0             	add    %rdx,%rax
    706f:	48 c1 e0 02          	shl    $0x2,%rax
    7073:	48 01 c8             	add    %rcx,%rax
    7076:	48 05 80 01 00 00    	add    $0x180,%rax
    707c:	f3 0f 11 00          	movss  %xmm0,(%rax)
    7080:	48 8b 4d e8          	mov    -0x18(%rbp),%rcx
    7084:	8b 45 cc             	mov    -0x34(%rbp),%eax
    7087:	48 63 d0             	movslq %eax,%rdx
    708a:	48 89 d0             	mov    %rdx,%rax
    708d:	48 01 c0             	add    %rax,%rax
    7090:	48 01 d0             	add    %rdx,%rax
    7093:	48 c1 e0 02          	shl    $0x2,%rax
    7097:	48 01 c8             	add    %rcx,%rax
    709a:	48 05 c0 00 00 00    	add    $0xc0,%rax
    70a0:	f3 0f 10 00          	movss  (%rax),%xmm0
    70a4:	f3 0f 10 0d d4 32 00 	movss  0x32d4(%rip),%xmm1        # a380 <_ZL22PARSEC_PROCESS_PRIVATE+0x340>
    70ab:	00 
    70ac:	0f 57 c1             	xorps  %xmm1,%xmm0
    70af:	48 8b 4d e8          	mov    -0x18(%rbp),%rcx
    70b3:	8b 45 cc             	mov    -0x34(%rbp),%eax
    70b6:	48 63 d0             	movslq %eax,%rdx
    70b9:	48 89 d0             	mov    %rdx,%rax
    70bc:	48 01 c0             	add    %rax,%rax
    70bf:	48 01 d0             	add    %rdx,%rax
    70c2:	48 c1 e0 02          	shl    $0x2,%rax
    70c6:	48 01 c8             	add    %rcx,%rax
    70c9:	48 05 c0 00 00 00    	add    $0xc0,%rax
    70cf:	f3 0f 11 00          	movss  %xmm0,(%rax)
    70d3:	8b 05 e7 61 00 00    	mov    0x61e7(%rip),%eax        # d2c0 <nx>
    70d9:	83 e8 01             	sub    $0x1,%eax
    70dc:	39 45 bc             	cmp    %eax,-0x44(%rbp)
    70df:	0f 85 f5 00 00 00    	jne    71da <_Z20ProcessCollisions2MTi+0x30a>
    70e5:	f3 0f 10 05 23 63 00 	movss  0x6323(%rip),%xmm0        # d410 <_ZL9domainMax>
    70ec:	00 
    70ed:	f3 0f 10 4d f4       	movss  -0xc(%rbp),%xmm1
    70f2:	f3 0f 5c c1          	subss  %xmm1,%xmm0
    70f6:	f3 0f 11 45 d4       	movss  %xmm0,-0x2c(%rbp)
    70fb:	66 0f ef c0          	pxor   %xmm0,%xmm0
    70ff:	0f 2f 45 d4          	comiss -0x2c(%rbp),%xmm0
    7103:	0f 86 d1 00 00 00    	jbe    71da <_Z20ProcessCollisions2MTi+0x30a>
    7109:	f3 0f 10 05 ff 62 00 	movss  0x62ff(%rip),%xmm0        # d410 <_ZL9domainMax>
    7110:	00 
    7111:	f3 0f 58 45 d4       	addss  -0x2c(%rbp),%xmm0
    7116:	48 8b 4d e8          	mov    -0x18(%rbp),%rcx
    711a:	8b 45 cc             	mov    -0x34(%rbp),%eax
    711d:	48 63 d0             	movslq %eax,%rdx
    7120:	48 89 d0             	mov    %rdx,%rax
    7123:	48 01 c0             	add    %rax,%rax
    7126:	48 01 d0             	add    %rdx,%rax
    7129:	48 c1 e0 02          	shl    $0x2,%rax
    712d:	48 01 c8             	add    %rcx,%rax
    7130:	f3 0f 11 00          	movss  %xmm0,(%rax)
    7134:	48 8b 4d e8          	mov    -0x18(%rbp),%rcx
    7138:	8b 45 cc             	mov    -0x34(%rbp),%eax
    713b:	48 63 d0             	movslq %eax,%rdx
    713e:	48 89 d0             	mov    %rdx,%rax
    7141:	48 01 c0             	add    %rax,%rax
    7144:	48 01 d0             	add    %rdx,%rax
    7147:	48 c1 e0 02          	shl    $0x2,%rax
    714b:	48 01 c8             	add    %rcx,%rax
    714e:	48 05 80 01 00 00    	add    $0x180,%rax
    7154:	f3 0f 10 00          	movss  (%rax),%xmm0
    7158:	f3 0f 10 0d 20 32 00 	movss  0x3220(%rip),%xmm1        # a380 <_ZL22PARSEC_PROCESS_PRIVATE+0x340>
    715f:	00 
    7160:	0f 57 c1             	xorps  %xmm1,%xmm0
    7163:	48 8b 4d e8          	mov    -0x18(%rbp),%rcx
    7167:	8b 45 cc             	mov    -0x34(%rbp),%eax
    716a:	48 63 d0             	movslq %eax,%rdx
    716d:	48 89 d0             	mov    %rdx,%rax
    7170:	48 01 c0             	add    %rax,%rax
    7173:	48 01 d0             	add    %rdx,%rax
    7176:	48 c1 e0 02          	shl    $0x2,%rax
    717a:	48 01 c8             	add    %rcx,%rax
    717d:	48 05 80 01 00 00    	add    $0x180,%rax
    7183:	f3 0f 11 00          	movss  %xmm0,(%rax)
    7187:	48 8b 4d e8          	mov    -0x18(%rbp),%rcx
    718b:	8b 45 cc             	mov    -0x34(%rbp),%eax
    718e:	48 63 d0             	movslq %eax,%rdx
    7191:	48 89 d0             	mov    %rdx,%rax
    7194:	48 01 c0             	add    %rax,%rax
    7197:	48 01 d0             	add    %rdx,%rax
    719a:	48 c1 e0 02          	shl    $0x2,%rax
    719e:	48 01 c8             	add    %rcx,%rax
    71a1:	48 05 c0 00 00 00    	add    $0xc0,%rax
    71a7:	f3 0f 10 00          	movss  (%rax),%xmm0
    71ab:	f3 0f 10 0d cd 31 00 	movss  0x31cd(%rip),%xmm1        # a380 <_ZL22PARSEC_PROCESS_PRIVATE+0x340>
    71b2:	00 
    71b3:	0f 57 c1             	xorps  %xmm1,%xmm0
    71b6:	48 8b 4d e8          	mov    -0x18(%rbp),%rcx
    71ba:	8b 45 cc             	mov    -0x34(%rbp),%eax
    71bd:	48 63 d0             	movslq %eax,%rdx
    71c0:	48 89 d0             	mov    %rdx,%rax
    71c3:	48 01 c0             	add    %rax,%rax
    71c6:	48 01 d0             	add    %rdx,%rax
    71c9:	48 c1 e0 02          	shl    $0x2,%rax
    71cd:	48 01 c8             	add    %rcx,%rax
    71d0:	48 05 c0 00 00 00    	add    $0xc0,%rax
    71d6:	f3 0f 11 00          	movss  %xmm0,(%rax)
    71da:	83 7d b8 00          	cmpl   $0x0,-0x48(%rbp)
    71de:	0f 85 f9 00 00 00    	jne    72dd <_Z20ProcessCollisions2MTi+0x40d>
    71e4:	f3 0f 10 45 f8       	movss  -0x8(%rbp),%xmm0
    71e9:	f3 0f 10 0d 13 62 00 	movss  0x6213(%rip),%xmm1        # d404 <_ZL9domainMin+0x4>
    71f0:	00 
    71f1:	f3 0f 5c c1          	subss  %xmm1,%xmm0
    71f5:	f3 0f 11 45 d8       	movss  %xmm0,-0x28(%rbp)
    71fa:	66 0f ef c0          	pxor   %xmm0,%xmm0
    71fe:	0f 2f 45 d8          	comiss -0x28(%rbp),%xmm0
    7202:	0f 86 d5 00 00 00    	jbe    72dd <_Z20ProcessCollisions2MTi+0x40d>
    7208:	f3 0f 10 05 f4 61 00 	movss  0x61f4(%rip),%xmm0        # d404 <_ZL9domainMin+0x4>
    720f:	00 
    7210:	f3 0f 5c 45 d8       	subss  -0x28(%rbp),%xmm0
    7215:	48 8b 4d e8          	mov    -0x18(%rbp),%rcx
    7219:	8b 45 cc             	mov    -0x34(%rbp),%eax
    721c:	48 63 d0             	movslq %eax,%rdx
    721f:	48 89 d0             	mov    %rdx,%rax
    7222:	48 01 c0             	add    %rax,%rax
    7225:	48 01 d0             	add    %rdx,%rax
    7228:	48 c1 e0 02          	shl    $0x2,%rax
    722c:	48 01 c8             	add    %rcx,%rax
    722f:	48 83 c0 04          	add    $0x4,%rax
    7233:	f3 0f 11 00          	movss  %xmm0,(%rax)
    7237:	48 8b 4d e8          	mov    -0x18(%rbp),%rcx
    723b:	8b 45 cc             	mov    -0x34(%rbp),%eax
    723e:	48 63 d0             	movslq %eax,%rdx
    7241:	48 89 d0             	mov    %rdx,%rax
    7244:	48 01 c0             	add    %rax,%rax
    7247:	48 01 d0             	add    %rdx,%rax
    724a:	48 c1 e0 02          	shl    $0x2,%rax
    724e:	48 01 c8             	add    %rcx,%rax
    7251:	48 05 84 01 00 00    	add    $0x184,%rax
    7257:	f3 0f 10 00          	movss  (%rax),%xmm0
    725b:	f3 0f 10 0d 1d 31 00 	movss  0x311d(%rip),%xmm1        # a380 <_ZL22PARSEC_PROCESS_PRIVATE+0x340>
    7262:	00 
    7263:	0f 57 c1             	xorps  %xmm1,%xmm0
    7266:	48 8b 4d e8          	mov    -0x18(%rbp),%rcx
    726a:	8b 45 cc             	mov    -0x34(%rbp),%eax
    726d:	48 63 d0             	movslq %eax,%rdx
    7270:	48 89 d0             	mov    %rdx,%rax
    7273:	48 01 c0             	add    %rax,%rax
    7276:	48 01 d0             	add    %rdx,%rax
    7279:	48 c1 e0 02          	shl    $0x2,%rax
    727d:	48 01 c8             	add    %rcx,%rax
    7280:	48 05 84 01 00 00    	add    $0x184,%rax
    7286:	f3 0f 11 00          	movss  %xmm0,(%rax)
    728a:	48 8b 4d e8          	mov    -0x18(%rbp),%rcx
    728e:	8b 45 cc             	mov    -0x34(%rbp),%eax
    7291:	48 63 d0             	movslq %eax,%rdx
    7294:	48 89 d0             	mov    %rdx,%rax
    7297:	48 01 c0             	add    %rax,%rax
    729a:	48 01 d0             	add    %rdx,%rax
    729d:	48 c1 e0 02          	shl    $0x2,%rax
    72a1:	48 01 c8             	add    %rcx,%rax
    72a4:	48 05 c4 00 00 00    	add    $0xc4,%rax
    72aa:	f3 0f 10 00          	movss  (%rax),%xmm0
    72ae:	f3 0f 10 0d ca 30 00 	movss  0x30ca(%rip),%xmm1        # a380 <_ZL22PARSEC_PROCESS_PRIVATE+0x340>
    72b5:	00 
    72b6:	0f 57 c1             	xorps  %xmm1,%xmm0
    72b9:	48 8b 4d e8          	mov    -0x18(%rbp),%rcx
    72bd:	8b 45 cc             	mov    -0x34(%rbp),%eax
    72c0:	48 63 d0             	movslq %eax,%rdx
    72c3:	48 89 d0             	mov    %rdx,%rax
    72c6:	48 01 c0             	add    %rax,%rax
    72c9:	48 01 d0             	add    %rdx,%rax
    72cc:	48 c1 e0 02          	shl    $0x2,%rax
    72d0:	48 01 c8             	add    %rcx,%rax
    72d3:	48 05 c4 00 00 00    	add    $0xc4,%rax
    72d9:	f3 0f 11 00          	movss  %xmm0,(%rax)
    72dd:	8b 05 e1 5f 00 00    	mov    0x5fe1(%rip),%eax        # d2c4 <ny>
    72e3:	83 e8 01             	sub    $0x1,%eax
    72e6:	39 45 b8             	cmp    %eax,-0x48(%rbp)
    72e9:	0f 85 f9 00 00 00    	jne    73e8 <_Z20ProcessCollisions2MTi+0x518>
    72ef:	f3 0f 10 05 1d 61 00 	movss  0x611d(%rip),%xmm0        # d414 <_ZL9domainMax+0x4>
    72f6:	00 
    72f7:	f3 0f 10 4d f8       	movss  -0x8(%rbp),%xmm1
    72fc:	f3 0f 5c c1          	subss  %xmm1,%xmm0
    7300:	f3 0f 11 45 dc       	movss  %xmm0,-0x24(%rbp)
    7305:	66 0f ef c0          	pxor   %xmm0,%xmm0
    7309:	0f 2f 45 dc          	comiss -0x24(%rbp),%xmm0
    730d:	0f 86 d5 00 00 00    	jbe    73e8 <_Z20ProcessCollisions2MTi+0x518>
    7313:	f3 0f 10 05 f9 60 00 	movss  0x60f9(%rip),%xmm0        # d414 <_ZL9domainMax+0x4>
    731a:	00 
    731b:	f3 0f 58 45 dc       	addss  -0x24(%rbp),%xmm0
    7320:	48 8b 4d e8          	mov    -0x18(%rbp),%rcx
    7324:	8b 45 cc             	mov    -0x34(%rbp),%eax
    7327:	48 63 d0             	movslq %eax,%rdx
    732a:	48 89 d0             	mov    %rdx,%rax
    732d:	48 01 c0             	add    %rax,%rax
    7330:	48 01 d0             	add    %rdx,%rax
    7333:	48 c1 e0 02          	shl    $0x2,%rax
    7337:	48 01 c8             	add    %rcx,%rax
    733a:	48 83 c0 04          	add    $0x4,%rax
    733e:	f3 0f 11 00          	movss  %xmm0,(%rax)
    7342:	48 8b 4d e8          	mov    -0x18(%rbp),%rcx
    7346:	8b 45 cc             	mov    -0x34(%rbp),%eax
    7349:	48 63 d0             	movslq %eax,%rdx
    734c:	48 89 d0             	mov    %rdx,%rax
    734f:	48 01 c0             	add    %rax,%rax
    7352:	48 01 d0             	add    %rdx,%rax
    7355:	48 c1 e0 02          	shl    $0x2,%rax
    7359:	48 01 c8             	add    %rcx,%rax
    735c:	48 05 84 01 00 00    	add    $0x184,%rax
    7362:	f3 0f 10 00          	movss  (%rax),%xmm0
    7366:	f3 0f 10 0d 12 30 00 	movss  0x3012(%rip),%xmm1        # a380 <_ZL22PARSEC_PROCESS_PRIVATE+0x340>
    736d:	00 
    736e:	0f 57 c1             	xorps  %xmm1,%xmm0
    7371:	48 8b 4d e8          	mov    -0x18(%rbp),%rcx
    7375:	8b 45 cc             	mov    -0x34(%rbp),%eax
    7378:	48 63 d0             	movslq %eax,%rdx
    737b:	48 89 d0             	mov    %rdx,%rax
    737e:	48 01 c0             	add    %rax,%rax
    7381:	48 01 d0             	add    %rdx,%rax
    7384:	48 c1 e0 02          	shl    $0x2,%rax
    7388:	48 01 c8             	add    %rcx,%rax
    738b:	48 05 84 01 00 00    	add    $0x184,%rax
    7391:	f3 0f 11 00          	movss  %xmm0,(%rax)
    7395:	48 8b 4d e8          	mov    -0x18(%rbp),%rcx
    7399:	8b 45 cc             	mov    -0x34(%rbp),%eax
    739c:	48 63 d0             	movslq %eax,%rdx
    739f:	48 89 d0             	mov    %rdx,%rax
    73a2:	48 01 c0             	add    %rax,%rax
    73a5:	48 01 d0             	add    %rdx,%rax
    73a8:	48 c1 e0 02          	shl    $0x2,%rax
    73ac:	48 01 c8             	add    %rcx,%rax
    73af:	48 05 c4 00 00 00    	add    $0xc4,%rax
    73b5:	f3 0f 10 00          	movss  (%rax),%xmm0
    73b9:	f3 0f 10 0d bf 2f 00 	movss  0x2fbf(%rip),%xmm1        # a380 <_ZL22PARSEC_PROCESS_PRIVATE+0x340>
    73c0:	00 
    73c1:	0f 57 c1             	xorps  %xmm1,%xmm0
    73c4:	48 8b 4d e8          	mov    -0x18(%rbp),%rcx
    73c8:	8b 45 cc             	mov    -0x34(%rbp),%eax
    73cb:	48 63 d0             	movslq %eax,%rdx
    73ce:	48 89 d0             	mov    %rdx,%rax
    73d1:	48 01 c0             	add    %rax,%rax
    73d4:	48 01 d0             	add    %rdx,%rax
    73d7:	48 c1 e0 02          	shl    $0x2,%rax
    73db:	48 01 c8             	add    %rcx,%rax
    73de:	48 05 c4 00 00 00    	add    $0xc4,%rax
    73e4:	f3 0f 11 00          	movss  %xmm0,(%rax)
    73e8:	83 7d b4 00          	cmpl   $0x0,-0x4c(%rbp)
    73ec:	0f 85 f9 00 00 00    	jne    74eb <_Z20ProcessCollisions2MTi+0x61b>
    73f2:	f3 0f 10 45 fc       	movss  -0x4(%rbp),%xmm0
    73f7:	f3 0f 10 0d 09 60 00 	movss  0x6009(%rip),%xmm1        # d408 <_ZL9domainMin+0x8>
    73fe:	00 
    73ff:	f3 0f 5c c1          	subss  %xmm1,%xmm0
    7403:	f3 0f 11 45 e0       	movss  %xmm0,-0x20(%rbp)
    7408:	66 0f ef c0          	pxor   %xmm0,%xmm0
    740c:	0f 2f 45 e0          	comiss -0x20(%rbp),%xmm0
    7410:	0f 86 d5 00 00 00    	jbe    74eb <_Z20ProcessCollisions2MTi+0x61b>
    7416:	f3 0f 10 05 ea 5f 00 	movss  0x5fea(%rip),%xmm0        # d408 <_ZL9domainMin+0x8>
    741d:	00 
    741e:	f3 0f 5c 45 e0       	subss  -0x20(%rbp),%xmm0
    7423:	48 8b 4d e8          	mov    -0x18(%rbp),%rcx
    7427:	8b 45 cc             	mov    -0x34(%rbp),%eax
    742a:	48 63 d0             	movslq %eax,%rdx
    742d:	48 89 d0             	mov    %rdx,%rax
    7430:	48 01 c0             	add    %rax,%rax
    7433:	48 01 d0             	add    %rdx,%rax
    7436:	48 c1 e0 02          	shl    $0x2,%rax
    743a:	48 01 c8             	add    %rcx,%rax
    743d:	48 83 c0 08          	add    $0x8,%rax
    7441:	f3 0f 11 00          	movss  %xmm0,(%rax)
    7445:	48 8b 4d e8          	mov    -0x18(%rbp),%rcx
    7449:	8b 45 cc             	mov    -0x34(%rbp),%eax
    744c:	48 63 d0             	movslq %eax,%rdx
    744f:	48 89 d0             	mov    %rdx,%rax
    7452:	48 01 c0             	add    %rax,%rax
    7455:	48 01 d0             	add    %rdx,%rax
    7458:	48 c1 e0 02          	shl    $0x2,%rax
    745c:	48 01 c8             	add    %rcx,%rax
    745f:	48 05 88 01 00 00    	add    $0x188,%rax
    7465:	f3 0f 10 00          	movss  (%rax),%xmm0
    7469:	f3 0f 10 0d 0f 2f 00 	movss  0x2f0f(%rip),%xmm1        # a380 <_ZL22PARSEC_PROCESS_PRIVATE+0x340>
    7470:	00 
    7471:	0f 57 c1             	xorps  %xmm1,%xmm0
    7474:	48 8b 4d e8          	mov    -0x18(%rbp),%rcx
    7478:	8b 45 cc             	mov    -0x34(%rbp),%eax
    747b:	48 63 d0             	movslq %eax,%rdx
    747e:	48 89 d0             	mov    %rdx,%rax
    7481:	48 01 c0             	add    %rax,%rax
    7484:	48 01 d0             	add    %rdx,%rax
    7487:	48 c1 e0 02          	shl    $0x2,%rax
    748b:	48 01 c8             	add    %rcx,%rax
    748e:	48 05 88 01 00 00    	add    $0x188,%rax
    7494:	f3 0f 11 00          	movss  %xmm0,(%rax)
    7498:	48 8b 4d e8          	mov    -0x18(%rbp),%rcx
    749c:	8b 45 cc             	mov    -0x34(%rbp),%eax
    749f:	48 63 d0             	movslq %eax,%rdx
    74a2:	48 89 d0             	mov    %rdx,%rax
    74a5:	48 01 c0             	add    %rax,%rax
    74a8:	48 01 d0             	add    %rdx,%rax
    74ab:	48 c1 e0 02          	shl    $0x2,%rax
    74af:	48 01 c8             	add    %rcx,%rax
    74b2:	48 05 c8 00 00 00    	add    $0xc8,%rax
    74b8:	f3 0f 10 00          	movss  (%rax),%xmm0
    74bc:	f3 0f 10 0d bc 2e 00 	movss  0x2ebc(%rip),%xmm1        # a380 <_ZL22PARSEC_PROCESS_PRIVATE+0x340>
    74c3:	00 
    74c4:	0f 57 c1             	xorps  %xmm1,%xmm0
    74c7:	48 8b 4d e8          	mov    -0x18(%rbp),%rcx
    74cb:	8b 45 cc             	mov    -0x34(%rbp),%eax
    74ce:	48 63 d0             	movslq %eax,%rdx
    74d1:	48 89 d0             	mov    %rdx,%rax
    74d4:	48 01 c0             	add    %rax,%rax
    74d7:	48 01 d0             	add    %rdx,%rax
    74da:	48 c1 e0 02          	shl    $0x2,%rax
    74de:	48 01 c8             	add    %rcx,%rax
    74e1:	48 05 c8 00 00 00    	add    $0xc8,%rax
    74e7:	f3 0f 11 00          	movss  %xmm0,(%rax)
    74eb:	8b 05 d7 5d 00 00    	mov    0x5dd7(%rip),%eax        # d2c8 <nz>
    74f1:	83 e8 01             	sub    $0x1,%eax
    74f4:	39 45 b4             	cmp    %eax,-0x4c(%rbp)
    74f7:	0f 85 f9 00 00 00    	jne    75f6 <_Z20ProcessCollisions2MTi+0x726>
    74fd:	f3 0f 10 05 13 5f 00 	movss  0x5f13(%rip),%xmm0        # d418 <_ZL9domainMax+0x8>
    7504:	00 
    7505:	f3 0f 10 4d fc       	movss  -0x4(%rbp),%xmm1
    750a:	f3 0f 5c c1          	subss  %xmm1,%xmm0
    750e:	f3 0f 11 45 e4       	movss  %xmm0,-0x1c(%rbp)
    7513:	66 0f ef c0          	pxor   %xmm0,%xmm0
    7517:	0f 2f 45 e4          	comiss -0x1c(%rbp),%xmm0
    751b:	0f 86 d5 00 00 00    	jbe    75f6 <_Z20ProcessCollisions2MTi+0x726>
    7521:	f3 0f 10 05 ef 5e 00 	movss  0x5eef(%rip),%xmm0        # d418 <_ZL9domainMax+0x8>
    7528:	00 
    7529:	f3 0f 58 45 e4       	addss  -0x1c(%rbp),%xmm0
    752e:	48 8b 4d e8          	mov    -0x18(%rbp),%rcx
    7532:	8b 45 cc             	mov    -0x34(%rbp),%eax
    7535:	48 63 d0             	movslq %eax,%rdx
    7538:	48 89 d0             	mov    %rdx,%rax
    753b:	48 01 c0             	add    %rax,%rax
    753e:	48 01 d0             	add    %rdx,%rax
    7541:	48 c1 e0 02          	shl    $0x2,%rax
    7545:	48 01 c8             	add    %rcx,%rax
    7548:	48 83 c0 08          	add    $0x8,%rax
    754c:	f3 0f 11 00          	movss  %xmm0,(%rax)
    7550:	48 8b 4d e8          	mov    -0x18(%rbp),%rcx
    7554:	8b 45 cc             	mov    -0x34(%rbp),%eax
    7557:	48 63 d0             	movslq %eax,%rdx
    755a:	48 89 d0             	mov    %rdx,%rax
    755d:	48 01 c0             	add    %rax,%rax
    7560:	48 01 d0             	add    %rdx,%rax
    7563:	48 c1 e0 02          	shl    $0x2,%rax
    7567:	48 01 c8             	add    %rcx,%rax
    756a:	48 05 88 01 00 00    	add    $0x188,%rax
    7570:	f3 0f 10 00          	movss  (%rax),%xmm0
    7574:	f3 0f 10 0d 04 2e 00 	movss  0x2e04(%rip),%xmm1        # a380 <_ZL22PARSEC_PROCESS_PRIVATE+0x340>
    757b:	00 
    757c:	0f 57 c1             	xorps  %xmm1,%xmm0
    757f:	48 8b 4d e8          	mov    -0x18(%rbp),%rcx
    7583:	8b 45 cc             	mov    -0x34(%rbp),%eax
    7586:	48 63 d0             	movslq %eax,%rdx
    7589:	48 89 d0             	mov    %rdx,%rax
    758c:	48 01 c0             	add    %rax,%rax
    758f:	48 01 d0             	add    %rdx,%rax
    7592:	48 c1 e0 02          	shl    $0x2,%rax
    7596:	48 01 c8             	add    %rcx,%rax
    7599:	48 05 88 01 00 00    	add    $0x188,%rax
    759f:	f3 0f 11 00          	movss  %xmm0,(%rax)
    75a3:	48 8b 4d e8          	mov    -0x18(%rbp),%rcx
    75a7:	8b 45 cc             	mov    -0x34(%rbp),%eax
    75aa:	48 63 d0             	movslq %eax,%rdx
    75ad:	48 89 d0             	mov    %rdx,%rax
    75b0:	48 01 c0             	add    %rax,%rax
    75b3:	48 01 d0             	add    %rdx,%rax
    75b6:	48 c1 e0 02          	shl    $0x2,%rax
    75ba:	48 01 c8             	add    %rcx,%rax
    75bd:	48 05 c8 00 00 00    	add    $0xc8,%rax
    75c3:	f3 0f 10 00          	movss  (%rax),%xmm0
    75c7:	f3 0f 10 0d b1 2d 00 	movss  0x2db1(%rip),%xmm1        # a380 <_ZL22PARSEC_PROCESS_PRIVATE+0x340>
    75ce:	00 
    75cf:	0f 57 c1             	xorps  %xmm1,%xmm0
    75d2:	48 8b 4d e8          	mov    -0x18(%rbp),%rcx
    75d6:	8b 45 cc             	mov    -0x34(%rbp),%eax
    75d9:	48 63 d0             	movslq %eax,%rdx
    75dc:	48 89 d0             	mov    %rdx,%rax
    75df:	48 01 c0             	add    %rax,%rax
    75e2:	48 01 d0             	add    %rdx,%rax
    75e5:	48 c1 e0 02          	shl    $0x2,%rax
    75e9:	48 01 c8             	add    %rcx,%rax
    75ec:	48 05 c8 00 00 00    	add    $0xc8,%rax
    75f2:	f3 0f 11 00          	movss  %xmm0,(%rax)
    75f6:	83 7d cc 0f          	cmpl   $0xf,-0x34(%rbp)
    75fa:	75 0f                	jne    760b <_Z20ProcessCollisions2MTi+0x73b>
    75fc:	48 8b 45 e8          	mov    -0x18(%rbp),%rax
    7600:	48 8b 80 40 03 00 00 	mov    0x340(%rax),%rax
    7607:	48 89 45 e8          	mov    %rax,-0x18(%rbp)
    760b:	83 45 c0 01          	addl   $0x1,-0x40(%rbp)
    760f:	8b 45 c0             	mov    -0x40(%rbp),%eax
    7612:	3b 45 c8             	cmp    -0x38(%rbp),%eax
    7615:	0f 8c 81 f9 ff ff    	jl     6f9c <_Z20ProcessCollisions2MTi+0xcc>
    761b:	83 45 bc 01          	addl   $0x1,-0x44(%rbp)
    761f:	48 8b 15 ea 5c 00 00 	mov    0x5cea(%rip),%rdx        # d310 <grids>
    7626:	8b 45 ac             	mov    -0x54(%rbp),%eax
    7629:	48 98                	cltq   
    762b:	48 c1 e0 07          	shl    $0x7,%rax
    762f:	48 01 d0             	add    %rdx,%rax
    7632:	8b 40 0c             	mov    0xc(%rax),%eax
    7635:	39 45 bc             	cmp    %eax,-0x44(%rbp)
    7638:	0f 8c f6 f8 ff ff    	jl     6f34 <_Z20ProcessCollisions2MTi+0x64>
    763e:	83 45 b8 01          	addl   $0x1,-0x48(%rbp)
    7642:	48 8b 15 c7 5c 00 00 	mov    0x5cc7(%rip),%rdx        # d310 <grids>
    7649:	8b 45 ac             	mov    -0x54(%rbp),%eax
    764c:	48 98                	cltq   
    764e:	48 c1 e0 07          	shl    $0x7,%rax
    7652:	48 01 d0             	add    %rdx,%rax
    7655:	8b 40 10             	mov    0x10(%rax),%eax
    7658:	39 45 b8             	cmp    %eax,-0x48(%rbp)
    765b:	0f 8c b6 f8 ff ff    	jl     6f17 <_Z20ProcessCollisions2MTi+0x47>
    7661:	83 45 b4 01          	addl   $0x1,-0x4c(%rbp)
    7665:	48 8b 15 a4 5c 00 00 	mov    0x5ca4(%rip),%rdx        # d310 <grids>
    766c:	8b 45 ac             	mov    -0x54(%rbp),%eax
    766f:	48 98                	cltq   
    7671:	48 c1 e0 07          	shl    $0x7,%rax
    7675:	48 01 d0             	add    %rdx,%rax
    7678:	8b 40 14             	mov    0x14(%rax),%eax
    767b:	39 45 b4             	cmp    %eax,-0x4c(%rbp)
    767e:	0f 8c 75 f8 ff ff    	jl     6ef9 <_Z20ProcessCollisions2MTi+0x29>
    7684:	90                   	nop
    7685:	90                   	nop
    7686:	5d                   	pop    %rbp
    7687:	c3                   	ret    

0000000000007688 <_Z18AdvanceParticlesMTi>:
    7688:	f3 0f 1e fa          	endbr64 
    768c:	55                   	push   %rbp
    768d:	48 89 e5             	mov    %rsp,%rbp
    7690:	53                   	push   %rbx
    7691:	48 83 ec 58          	sub    $0x58,%rsp
    7695:	89 7d ac             	mov    %edi,-0x54(%rbp)
    7698:	64 48 8b 04 25 28 00 	mov    %fs:0x28,%rax
    769f:	00 00 
    76a1:	48 89 45 e8          	mov    %rax,-0x18(%rbp)
    76a5:	31 c0                	xor    %eax,%eax
    76a7:	48 8b 15 62 5c 00 00 	mov    0x5c62(%rip),%rdx        # d310 <grids>
    76ae:	8b 45 ac             	mov    -0x54(%rbp),%eax
    76b1:	48 98                	cltq   
    76b3:	48 c1 e0 07          	shl    $0x7,%rax
    76b7:	48 01 d0             	add    %rdx,%rax
    76ba:	8b 40 08             	mov    0x8(%rax),%eax
    76bd:	89 45 b0             	mov    %eax,-0x50(%rbp)
    76c0:	e9 0a 03 00 00       	jmp    79cf <_Z18AdvanceParticlesMTi+0x347>
    76c5:	48 8b 15 44 5c 00 00 	mov    0x5c44(%rip),%rdx        # d310 <grids>
    76cc:	8b 45 ac             	mov    -0x54(%rbp),%eax
    76cf:	48 98                	cltq   
    76d1:	48 c1 e0 07          	shl    $0x7,%rax
    76d5:	48 01 d0             	add    %rdx,%rax
    76d8:	8b 40 04             	mov    0x4(%rax),%eax
    76db:	89 45 b4             	mov    %eax,-0x4c(%rbp)
    76de:	e9 c9 02 00 00       	jmp    79ac <_Z18AdvanceParticlesMTi+0x324>
    76e3:	48 8b 15 26 5c 00 00 	mov    0x5c26(%rip),%rdx        # d310 <grids>
    76ea:	8b 45 ac             	mov    -0x54(%rbp),%eax
    76ed:	48 98                	cltq   
    76ef:	48 c1 e0 07          	shl    $0x7,%rax
    76f3:	48 01 d0             	add    %rdx,%rax
    76f6:	8b 00                	mov    (%rax),%eax
    76f8:	89 45 b8             	mov    %eax,-0x48(%rbp)
    76fb:	e9 89 02 00 00       	jmp    7989 <_Z18AdvanceParticlesMTi+0x301>
    7700:	8b 05 be 5b 00 00    	mov    0x5bbe(%rip),%eax        # d2c4 <ny>
    7706:	0f af 45 b0          	imul   -0x50(%rbp),%eax
    770a:	89 c2                	mov    %eax,%edx
    770c:	8b 45 b4             	mov    -0x4c(%rbp),%eax
    770f:	01 c2                	add    %eax,%edx
    7711:	8b 05 a9 5b 00 00    	mov    0x5ba9(%rip),%eax        # d2c0 <nx>
    7717:	0f af d0             	imul   %eax,%edx
    771a:	8b 45 b8             	mov    -0x48(%rbp),%eax
    771d:	01 d0                	add    %edx,%eax
    771f:	89 45 c0             	mov    %eax,-0x40(%rbp)
    7722:	48 8b 0d bf 5b 00 00 	mov    0x5bbf(%rip),%rcx        # d2e8 <cells>
    7729:	8b 45 c0             	mov    -0x40(%rbp),%eax
    772c:	48 63 d0             	movslq %eax,%rdx
    772f:	48 89 d0             	mov    %rdx,%rax
    7732:	48 c1 e0 03          	shl    $0x3,%rax
    7736:	48 29 d0             	sub    %rdx,%rax
    7739:	48 c1 e0 07          	shl    $0x7,%rax
    773d:	48 01 c8             	add    %rcx,%rax
    7740:	48 89 45 c8          	mov    %rax,-0x38(%rbp)
    7744:	48 8b 15 ad 5b 00 00 	mov    0x5bad(%rip),%rdx        # d2f8 <cnumPars>
    774b:	8b 45 c0             	mov    -0x40(%rbp),%eax
    774e:	48 98                	cltq   
    7750:	48 c1 e0 02          	shl    $0x2,%rax
    7754:	48 01 d0             	add    %rdx,%rax
    7757:	8b 00                	mov    (%rax),%eax
    7759:	89 45 c4             	mov    %eax,-0x3c(%rbp)
    775c:	c7 45 bc 00 00 00 00 	movl   $0x0,-0x44(%rbp)
    7763:	e9 11 02 00 00       	jmp    7979 <_Z18AdvanceParticlesMTi+0x2f1>
    7768:	8b 15 a2 58 00 00    	mov    0x58a2(%rip),%edx        # d010 <_ZL8timeStep>
    776e:	8b 45 bc             	mov    -0x44(%rbp),%eax
    7771:	89 c1                	mov    %eax,%ecx
    7773:	c1 f9 1f             	sar    $0x1f,%ecx
    7776:	c1 e9 1c             	shr    $0x1c,%ecx
    7779:	01 c8                	add    %ecx,%eax
    777b:	83 e0 0f             	and    $0xf,%eax
    777e:	29 c8                	sub    %ecx,%eax
    7780:	48 63 c8             	movslq %eax,%rcx
    7783:	48 89 c8             	mov    %rcx,%rax
    7786:	48 01 c0             	add    %rax,%rax
    7789:	48 01 c8             	add    %rcx,%rax
    778c:	48 c1 e0 02          	shl    $0x2,%rax
    7790:	48 8d 88 40 02 00 00 	lea    0x240(%rax),%rcx
    7797:	48 8b 45 c8          	mov    -0x38(%rbp),%rax
    779b:	48 01 c8             	add    %rcx,%rax
    779e:	66 0f 6e c2          	movd   %edx,%xmm0
    77a2:	48 89 c7             	mov    %rax,%rdi
    77a5:	e8 f0 0b 00 00       	call   839a <_ZNK4Vec3mlEf>
    77aa:	66 48 0f 7e c0       	movq   %xmm0,%rax
    77af:	0f 28 c1             	movaps %xmm1,%xmm0
    77b2:	48 89 45 dc          	mov    %rax,-0x24(%rbp)
    77b6:	f3 0f 11 45 e4       	movss  %xmm0,-0x1c(%rbp)
    77bb:	8b 45 bc             	mov    -0x44(%rbp),%eax
    77be:	99                   	cltd   
    77bf:	c1 ea 1c             	shr    $0x1c,%edx
    77c2:	01 d0                	add    %edx,%eax
    77c4:	83 e0 0f             	and    $0xf,%eax
    77c7:	29 d0                	sub    %edx,%eax
    77c9:	48 63 d0             	movslq %eax,%rdx
    77cc:	48 89 d0             	mov    %rdx,%rax
    77cf:	48 01 c0             	add    %rax,%rax
    77d2:	48 01 d0             	add    %rdx,%rax
    77d5:	48 c1 e0 02          	shl    $0x2,%rax
    77d9:	48 8d 90 c0 00 00 00 	lea    0xc0(%rax),%rdx
    77e0:	48 8b 45 c8          	mov    -0x38(%rbp),%rax
    77e4:	48 01 c2             	add    %rax,%rdx
    77e7:	48 8d 45 dc          	lea    -0x24(%rbp),%rax
    77eb:	48 89 c6             	mov    %rax,%rsi
    77ee:	48 89 d7             	mov    %rdx,%rdi
    77f1:	e8 34 0a 00 00       	call   822a <_ZNK4Vec3plERKS_>
    77f6:	66 48 0f 7e c0       	movq   %xmm0,%rax
    77fb:	0f 28 c1             	movaps %xmm1,%xmm0
    77fe:	48 89 45 d0          	mov    %rax,-0x30(%rbp)
    7802:	f3 0f 11 45 d8       	movss  %xmm0,-0x28(%rbp)
    7807:	8b 15 03 58 00 00    	mov    0x5803(%rip),%edx        # d010 <_ZL8timeStep>
    780d:	48 8d 45 d0          	lea    -0x30(%rbp),%rax
    7811:	66 0f 6e c2          	movd   %edx,%xmm0
    7815:	48 89 c7             	mov    %rax,%rdi
    7818:	e8 7d 0b 00 00       	call   839a <_ZNK4Vec3mlEf>
    781d:	66 48 0f 7e c0       	movq   %xmm0,%rax
    7822:	0f 28 c1             	movaps %xmm1,%xmm0
    7825:	48 89 45 dc          	mov    %rax,-0x24(%rbp)
    7829:	f3 0f 11 45 e4       	movss  %xmm0,-0x1c(%rbp)
    782e:	8b 45 bc             	mov    -0x44(%rbp),%eax
    7831:	99                   	cltd   
    7832:	c1 ea 1c             	shr    $0x1c,%edx
    7835:	01 d0                	add    %edx,%eax
    7837:	83 e0 0f             	and    $0xf,%eax
    783a:	29 d0                	sub    %edx,%eax
    783c:	48 63 d0             	movslq %eax,%rdx
    783f:	48 89 d0             	mov    %rdx,%rax
    7842:	48 01 c0             	add    %rax,%rax
    7845:	48 01 d0             	add    %rdx,%rax
    7848:	48 c1 e0 02          	shl    $0x2,%rax
    784c:	48 8b 55 c8          	mov    -0x38(%rbp),%rdx
    7850:	48 01 c2             	add    %rax,%rdx
    7853:	48 8d 45 dc          	lea    -0x24(%rbp),%rax
    7857:	48 89 c6             	mov    %rax,%rsi
    785a:	48 89 d7             	mov    %rdx,%rdi
    785d:	e8 22 08 00 00       	call   8084 <_ZN4Vec3pLERKS_>
    7862:	8b 45 bc             	mov    -0x44(%rbp),%eax
    7865:	99                   	cltd   
    7866:	c1 ea 1c             	shr    $0x1c,%edx
    7869:	01 d0                	add    %edx,%eax
    786b:	83 e0 0f             	and    $0xf,%eax
    786e:	29 d0                	sub    %edx,%eax
    7870:	48 63 d0             	movslq %eax,%rdx
    7873:	48 89 d0             	mov    %rdx,%rax
    7876:	48 01 c0             	add    %rax,%rax
    7879:	48 01 d0             	add    %rdx,%rax
    787c:	48 c1 e0 02          	shl    $0x2,%rax
    7880:	48 8d 90 c0 00 00 00 	lea    0xc0(%rax),%rdx
    7887:	48 8b 45 c8          	mov    -0x38(%rbp),%rax
    788b:	48 01 c2             	add    %rax,%rdx
    788e:	8b 45 bc             	mov    -0x44(%rbp),%eax
    7891:	89 c1                	mov    %eax,%ecx
    7893:	c1 f9 1f             	sar    $0x1f,%ecx
    7896:	c1 e9 1c             	shr    $0x1c,%ecx
    7899:	01 c8                	add    %ecx,%eax
    789b:	83 e0 0f             	and    $0xf,%eax
    789e:	29 c8                	sub    %ecx,%eax
    78a0:	48 8b 75 c8          	mov    -0x38(%rbp),%rsi
    78a4:	48 63 c8             	movslq %eax,%rcx
    78a7:	48 89 c8             	mov    %rcx,%rax
    78aa:	48 01 c0             	add    %rax,%rax
    78ad:	48 01 c8             	add    %rcx,%rax
    78b0:	48 c1 e0 02          	shl    $0x2,%rax
    78b4:	48 01 f0             	add    %rsi,%rax
    78b7:	48 8d 98 80 01 00 00 	lea    0x180(%rax),%rbx
    78be:	48 8d 45 d0          	lea    -0x30(%rbp),%rax
    78c2:	48 89 c6             	mov    %rax,%rsi
    78c5:	48 89 d7             	mov    %rdx,%rdi
    78c8:	e8 5d 09 00 00       	call   822a <_ZNK4Vec3plERKS_>
    78cd:	66 48 0f 7e c0       	movq   %xmm0,%rax
    78d2:	0f 28 c1             	movaps %xmm1,%xmm0
    78d5:	48 89 03             	mov    %rax,(%rbx)
    78d8:	f3 0f 11 43 08       	movss  %xmm0,0x8(%rbx)
    78dd:	8b 45 bc             	mov    -0x44(%rbp),%eax
    78e0:	99                   	cltd   
    78e1:	c1 ea 1c             	shr    $0x1c,%edx
    78e4:	01 d0                	add    %edx,%eax
    78e6:	83 e0 0f             	and    $0xf,%eax
    78e9:	29 d0                	sub    %edx,%eax
    78eb:	48 63 d0             	movslq %eax,%rdx
    78ee:	48 89 d0             	mov    %rdx,%rax
    78f1:	48 01 c0             	add    %rax,%rax
    78f4:	48 01 d0             	add    %rdx,%rax
    78f7:	48 c1 e0 02          	shl    $0x2,%rax
    78fb:	48 8d 90 80 01 00 00 	lea    0x180(%rax),%rdx
    7902:	48 8b 45 c8          	mov    -0x38(%rbp),%rax
    7906:	48 01 c2             	add    %rax,%rdx
    7909:	8b 05 81 2a 00 00    	mov    0x2a81(%rip),%eax        # a390 <_ZL22PARSEC_PROCESS_PRIVATE+0x350>
    790f:	66 0f 6e c0          	movd   %eax,%xmm0
    7913:	48 89 d7             	mov    %rdx,%rdi
    7916:	e8 49 08 00 00       	call   8164 <_ZN4Vec3mLEf>
    791b:	8b 45 bc             	mov    -0x44(%rbp),%eax
    791e:	99                   	cltd   
    791f:	c1 ea 1c             	shr    $0x1c,%edx
    7922:	01 d0                	add    %edx,%eax
    7924:	83 e0 0f             	and    $0xf,%eax
    7927:	29 d0                	sub    %edx,%eax
    7929:	48 8b 4d c8          	mov    -0x38(%rbp),%rcx
    792d:	48 63 d0             	movslq %eax,%rdx
    7930:	48 89 d0             	mov    %rdx,%rax
    7933:	48 01 c0             	add    %rax,%rax
    7936:	48 01 d0             	add    %rdx,%rax
    7939:	48 c1 e0 02          	shl    $0x2,%rax
    793d:	48 01 c8             	add    %rcx,%rax
    7940:	48 05 c0 00 00 00    	add    $0xc0,%rax
    7946:	48 8b 55 d0          	mov    -0x30(%rbp),%rdx
    794a:	48 89 10             	mov    %rdx,(%rax)
    794d:	8b 55 d8             	mov    -0x28(%rbp),%edx
    7950:	89 50 08             	mov    %edx,0x8(%rax)
    7953:	8b 45 bc             	mov    -0x44(%rbp),%eax
    7956:	99                   	cltd   
    7957:	c1 ea 1c             	shr    $0x1c,%edx
    795a:	01 d0                	add    %edx,%eax
    795c:	83 e0 0f             	and    $0xf,%eax
    795f:	29 d0                	sub    %edx,%eax
    7961:	83 f8 0f             	cmp    $0xf,%eax
    7964:	75 0f                	jne    7975 <_Z18AdvanceParticlesMTi+0x2ed>
    7966:	48 8b 45 c8          	mov    -0x38(%rbp),%rax
    796a:	48 8b 80 40 03 00 00 	mov    0x340(%rax),%rax
    7971:	48 89 45 c8          	mov    %rax,-0x38(%rbp)
    7975:	83 45 bc 01          	addl   $0x1,-0x44(%rbp)
    7979:	8b 45 bc             	mov    -0x44(%rbp),%eax
    797c:	3b 45 c4             	cmp    -0x3c(%rbp),%eax
    797f:	0f 8c e3 fd ff ff    	jl     7768 <_Z18AdvanceParticlesMTi+0xe0>
    7985:	83 45 b8 01          	addl   $0x1,-0x48(%rbp)
    7989:	48 8b 15 80 59 00 00 	mov    0x5980(%rip),%rdx        # d310 <grids>
    7990:	8b 45 ac             	mov    -0x54(%rbp),%eax
    7993:	48 98                	cltq   
    7995:	48 c1 e0 07          	shl    $0x7,%rax
    7999:	48 01 d0             	add    %rdx,%rax
    799c:	8b 40 0c             	mov    0xc(%rax),%eax
    799f:	39 45 b8             	cmp    %eax,-0x48(%rbp)
    79a2:	0f 8c 58 fd ff ff    	jl     7700 <_Z18AdvanceParticlesMTi+0x78>
    79a8:	83 45 b4 01          	addl   $0x1,-0x4c(%rbp)
    79ac:	48 8b 15 5d 59 00 00 	mov    0x595d(%rip),%rdx        # d310 <grids>
    79b3:	8b 45 ac             	mov    -0x54(%rbp),%eax
    79b6:	48 98                	cltq   
    79b8:	48 c1 e0 07          	shl    $0x7,%rax
    79bc:	48 01 d0             	add    %rdx,%rax
    79bf:	8b 40 10             	mov    0x10(%rax),%eax
    79c2:	39 45 b4             	cmp    %eax,-0x4c(%rbp)
    79c5:	0f 8c 18 fd ff ff    	jl     76e3 <_Z18AdvanceParticlesMTi+0x5b>
    79cb:	83 45 b0 01          	addl   $0x1,-0x50(%rbp)
    79cf:	48 8b 15 3a 59 00 00 	mov    0x593a(%rip),%rdx        # d310 <grids>
    79d6:	8b 45 ac             	mov    -0x54(%rbp),%eax
    79d9:	48 98                	cltq   
    79db:	48 c1 e0 07          	shl    $0x7,%rax
    79df:	48 01 d0             	add    %rdx,%rax
    79e2:	8b 40 14             	mov    0x14(%rax),%eax
    79e5:	39 45 b0             	cmp    %eax,-0x50(%rbp)
    79e8:	0f 8c d7 fc ff ff    	jl     76c5 <_Z18AdvanceParticlesMTi+0x3d>
    79ee:	90                   	nop
    79ef:	48 8b 45 e8          	mov    -0x18(%rbp),%rax
    79f3:	64 48 2b 04 25 28 00 	sub    %fs:0x28,%rax
    79fa:	00 00 
    79fc:	74 05                	je     7a03 <_Z18AdvanceParticlesMTi+0x37b>
    79fe:	e8 ad a9 ff ff       	call   23b0 <__stack_chk_fail@plt>
    7a03:	48 8b 5d f8          	mov    -0x8(%rbp),%rbx
    7a07:	c9                   	leave  
    7a08:	c3                   	ret    

0000000000007a09 <_Z14AdvanceFrameMTi>:
    7a09:	f3 0f 1e fa          	endbr64 
    7a0d:	55                   	push   %rbp
    7a0e:	48 89 e5             	mov    %rsp,%rbp
    7a11:	48 83 ec 10          	sub    $0x10,%rsp
    7a15:	89 7d fc             	mov    %edi,-0x4(%rbp)
    7a18:	83 7d fc 00          	cmpl   $0x0,-0x4(%rbp)
    7a1c:	75 32                	jne    7a50 <_Z14AdvanceFrameMTi+0x47>
    7a1e:	48 8d 05 cb 58 00 00 	lea    0x58cb(%rip),%rax        # d2f0 <cells2>
    7a25:	48 89 c6             	mov    %rax,%rsi
    7a28:	48 8d 05 b9 58 00 00 	lea    0x58b9(%rip),%rax        # d2e8 <cells>
    7a2f:	48 89 c7             	mov    %rax,%rdi
    7a32:	e8 10 0b 00 00       	call   8547 <_ZSt4swapIP4CellENSt9enable_ifIXsrSt6__and_IJSt6__not_ISt15__is_tuple_likeIT_EESt21is_move_constructibleIS6_ESt18is_move_assignableIS6_EEE5valueEvE4typeERS6_SG_>
    7a37:	48 8d 05 c2 58 00 00 	lea    0x58c2(%rip),%rax        # d300 <cnumPars2>
    7a3e:	48 89 c6             	mov    %rax,%rsi
    7a41:	48 8d 05 b0 58 00 00 	lea    0x58b0(%rip),%rax        # d2f8 <cnumPars>
    7a48:	48 89 c7             	mov    %rax,%rdi
    7a4b:	e8 82 0b 00 00       	call   85d2 <_ZSt4swapIPiENSt9enable_ifIXsrSt6__and_IJSt6__not_ISt15__is_tuple_likeIT_EESt21is_move_constructibleIS5_ESt18is_move_assignableIS5_EEE5valueEvE4typeERS5_SF_>
    7a50:	48 8d 05 29 59 00 00 	lea    0x5929(%rip),%rax        # d380 <barrier>
    7a57:	48 89 c7             	mov    %rax,%rdi
    7a5a:	e8 86 13 00 00       	call   8de5 <_Z19parsec_barrier_waitP16parsec_barrier_t>
    7a5f:	8b 45 fc             	mov    -0x4(%rbp),%eax
    7a62:	89 c7                	mov    %eax,%edi
    7a64:	e8 73 d0 ff ff       	call   4adc <_Z16ClearParticlesMTi>
    7a69:	48 8d 05 10 59 00 00 	lea    0x5910(%rip),%rax        # d380 <barrier>
    7a70:	48 89 c7             	mov    %rax,%rdi
    7a73:	e8 6d 13 00 00       	call   8de5 <_Z19parsec_barrier_waitP16parsec_barrier_t>
    7a78:	8b 45 fc             	mov    -0x4(%rbp),%eax
    7a7b:	89 c7                	mov    %eax,%edi
    7a7d:	e8 c7 d1 ff ff       	call   4c49 <_Z13RebuildGridMTi>
    7a82:	48 8d 05 f7 58 00 00 	lea    0x58f7(%rip),%rax        # d380 <barrier>
    7a89:	48 89 c7             	mov    %rax,%rdi
    7a8c:	e8 54 13 00 00       	call   8de5 <_Z19parsec_barrier_waitP16parsec_barrier_t>
    7a91:	8b 45 fc             	mov    -0x4(%rbp),%eax
    7a94:	89 c7                	mov    %eax,%edi
    7a96:	e8 ff d8 ff ff       	call   539a <_Z24InitDensitiesAndForcesMTi>
    7a9b:	48 8d 05 de 58 00 00 	lea    0x58de(%rip),%rax        # d380 <barrier>
    7aa2:	48 89 c7             	mov    %rax,%rdi
    7aa5:	e8 3b 13 00 00       	call   8de5 <_Z19parsec_barrier_waitP16parsec_barrier_t>
    7aaa:	8b 45 fc             	mov    -0x4(%rbp),%eax
    7aad:	89 c7                	mov    %eax,%edi
    7aaf:	e8 b6 da ff ff       	call   556a <_Z18ComputeDensitiesMTi>
    7ab4:	48 8d 05 c5 58 00 00 	lea    0x58c5(%rip),%rax        # d380 <barrier>
    7abb:	48 89 c7             	mov    %rax,%rdi
    7abe:	e8 22 13 00 00       	call   8de5 <_Z19parsec_barrier_waitP16parsec_barrier_t>
    7ac3:	8b 45 fc             	mov    -0x4(%rbp),%eax
    7ac6:	89 c7                	mov    %eax,%edi
    7ac8:	e8 48 e1 ff ff       	call   5c15 <_Z19ComputeDensities2MTi>
    7acd:	48 8d 05 ac 58 00 00 	lea    0x58ac(%rip),%rax        # d380 <barrier>
    7ad4:	48 89 c7             	mov    %rax,%rdi
    7ad7:	e8 09 13 00 00       	call   8de5 <_Z19parsec_barrier_waitP16parsec_barrier_t>
    7adc:	8b 45 fc             	mov    -0x4(%rbp),%eax
    7adf:	89 c7                	mov    %eax,%edi
    7ae1:	e8 3c e3 ff ff       	call   5e22 <_Z15ComputeForcesMTi>
    7ae6:	48 8d 05 93 58 00 00 	lea    0x5893(%rip),%rax        # d380 <barrier>
    7aed:	48 89 c7             	mov    %rax,%rdi
    7af0:	e8 f0 12 00 00       	call   8de5 <_Z19parsec_barrier_waitP16parsec_barrier_t>
    7af5:	8b 45 fc             	mov    -0x4(%rbp),%eax
    7af8:	89 c7                	mov    %eax,%edi
    7afa:	e8 6b ec ff ff       	call   676a <_Z19ProcessCollisionsMTi>
    7aff:	48 8d 05 7a 58 00 00 	lea    0x587a(%rip),%rax        # d380 <barrier>
    7b06:	48 89 c7             	mov    %rax,%rdi
    7b09:	e8 d7 12 00 00       	call   8de5 <_Z19parsec_barrier_waitP16parsec_barrier_t>
    7b0e:	8b 45 fc             	mov    -0x4(%rbp),%eax
    7b11:	89 c7                	mov    %eax,%edi
    7b13:	e8 70 fb ff ff       	call   7688 <_Z18AdvanceParticlesMTi>
    7b18:	48 8d 05 61 58 00 00 	lea    0x5861(%rip),%rax        # d380 <barrier>
    7b1f:	48 89 c7             	mov    %rax,%rdi
    7b22:	e8 be 12 00 00       	call   8de5 <_Z19parsec_barrier_waitP16parsec_barrier_t>
    7b27:	8b 45 fc             	mov    -0x4(%rbp),%eax
    7b2a:	89 c7                	mov    %eax,%edi
    7b2c:	e8 9f f3 ff ff       	call   6ed0 <_Z20ProcessCollisions2MTi>
    7b31:	48 8d 05 48 58 00 00 	lea    0x5848(%rip),%rax        # d380 <barrier>
    7b38:	48 89 c7             	mov    %rax,%rdi
    7b3b:	e8 a5 12 00 00       	call   8de5 <_Z19parsec_barrier_waitP16parsec_barrier_t>
    7b40:	90                   	nop
    7b41:	c9                   	leave  
    7b42:	c3                   	ret    

0000000000007b43 <_Z15AdvanceFramesMTPv>:
    7b43:	f3 0f 1e fa          	endbr64 
    7b47:	55                   	push   %rbp
    7b48:	48 89 e5             	mov    %rsp,%rbp
    7b4b:	48 83 ec 20          	sub    $0x20,%rsp
    7b4f:	48 89 7d e8          	mov    %rdi,-0x18(%rbp)
    7b53:	48 8b 45 e8          	mov    -0x18(%rbp),%rax
    7b57:	48 89 45 f8          	mov    %rax,-0x8(%rbp)
    7b5b:	c7 45 f4 00 00 00 00 	movl   $0x0,-0xc(%rbp)
    7b62:	eb 11                	jmp    7b75 <_Z15AdvanceFramesMTPv+0x32>
    7b64:	48 8b 45 f8          	mov    -0x8(%rbp),%rax
    7b68:	8b 00                	mov    (%rax),%eax
    7b6a:	89 c7                	mov    %eax,%edi
    7b6c:	e8 98 fe ff ff       	call   7a09 <_Z14AdvanceFrameMTi>
    7b71:	83 45 f4 01          	addl   $0x1,-0xc(%rbp)
    7b75:	48 8b 45 f8          	mov    -0x8(%rbp),%rax
    7b79:	8b 40 04             	mov    0x4(%rax),%eax
    7b7c:	39 45 f4             	cmp    %eax,-0xc(%rbp)
    7b7f:	7c e3                	jl     7b64 <_Z15AdvanceFramesMTPv+0x21>
    7b81:	b8 00 00 00 00       	mov    $0x0,%eax
    7b86:	c9                   	leave  
    7b87:	c3                   	ret    

0000000000007b88 <main>:
    7b88:	f3 0f 1e fa          	endbr64 
    7b8c:	55                   	push   %rbp
    7b8d:	48 89 e5             	mov    %rsp,%rbp
    7b90:	41 57                	push   %r15
    7b92:	41 56                	push   %r14
    7b94:	41 55                	push   %r13
    7b96:	41 54                	push   %r12
    7b98:	53                   	push   %rbx
    7b99:	48 83 ec 48          	sub    $0x48,%rsp
    7b9d:	89 7d 9c             	mov    %edi,-0x64(%rbp)
    7ba0:	48 89 75 90          	mov    %rsi,-0x70(%rbp)
    7ba4:	64 48 8b 04 25 28 00 	mov    %fs:0x28,%rax
    7bab:	00 00 
    7bad:	48 89 45 c8          	mov    %rax,-0x38(%rbp)
    7bb1:	31 c0                	xor    %eax,%eax
    7bb3:	48 89 e0             	mov    %rsp,%rax
    7bb6:	48 89 c3             	mov    %rax,%rbx
    7bb9:	48 8d 05 88 26 00 00 	lea    0x2688(%rip),%rax        # a248 <_ZL22PARSEC_PROCESS_PRIVATE+0x208>
    7bc0:	48 89 c6             	mov    %rax,%rsi
    7bc3:	48 8d 05 76 54 00 00 	lea    0x5476(%rip),%rax        # d040 <_ZSt4cout@GLIBCXX_3.4>
    7bca:	48 89 c7             	mov    %rax,%rdi
    7bcd:	e8 ae a7 ff ff       	call   2380 <_ZStlsISt11char_traitsIcEERSt13basic_ostreamIcT_ES5_PKc@plt>
    7bd2:	48 8b 15 ef 53 00 00 	mov    0x53ef(%rip),%rdx        # cfc8 <_ZSt4endlIcSt11char_traitsIcEERSt13basic_ostreamIT_T0_ES6_@GLIBCXX_3.4>
    7bd9:	48 89 d6             	mov    %rdx,%rsi
    7bdc:	48 89 c7             	mov    %rax,%rdi
    7bdf:	e8 ac a7 ff ff       	call   2390 <_ZNSolsEPFRSoS_E@plt>
    7be4:	48 8b 15 ed 53 00 00 	mov    0x53ed(%rip),%rdx        # cfd8 <_ZSt5flushIcSt11char_traitsIcEERSt13basic_ostreamIT_T0_ES6_@GLIBCXX_3.4>
    7beb:	48 89 d6             	mov    %rdx,%rsi
    7bee:	48 89 c7             	mov    %rax,%rdi
    7bf1:	e8 9a a7 ff ff       	call   2390 <_ZNSolsEPFRSoS_E@plt>
    7bf6:	83 7d 9c 03          	cmpl   $0x3,-0x64(%rbp)
    7bfa:	7e 06                	jle    7c02 <main+0x7a>
    7bfc:	83 7d 9c 05          	cmpl   $0x5,-0x64(%rbp)
    7c00:	7e 5f                	jle    7c61 <main+0xd9>
    7c02:	48 8d 05 70 26 00 00 	lea    0x2670(%rip),%rax        # a279 <_ZL22PARSEC_PROCESS_PRIVATE+0x239>
    7c09:	48 89 c6             	mov    %rax,%rsi
    7c0c:	48 8d 05 2d 54 00 00 	lea    0x542d(%rip),%rax        # d040 <_ZSt4cout@GLIBCXX_3.4>
    7c13:	48 89 c7             	mov    %rax,%rdi
    7c16:	e8 65 a7 ff ff       	call   2380 <_ZStlsISt11char_traitsIcEERSt13basic_ostreamIcT_ES5_PKc@plt>
    7c1b:	48 89 c2             	mov    %rax,%rdx
    7c1e:	48 8b 45 90          	mov    -0x70(%rbp),%rax
    7c22:	48 8b 00             	mov    (%rax),%rax
    7c25:	48 89 c6             	mov    %rax,%rsi
    7c28:	48 89 d7             	mov    %rdx,%rdi
    7c2b:	e8 50 a7 ff ff       	call   2380 <_ZStlsISt11char_traitsIcEERSt13basic_ostreamIcT_ES5_PKc@plt>
    7c30:	48 89 c2             	mov    %rax,%rdx
    7c33:	48 8d 05 4e 26 00 00 	lea    0x264e(%rip),%rax        # a288 <_ZL22PARSEC_PROCESS_PRIVATE+0x248>
    7c3a:	48 89 c6             	mov    %rax,%rsi
    7c3d:	48 89 d7             	mov    %rdx,%rdi
    7c40:	e8 3b a7 ff ff       	call   2380 <_ZStlsISt11char_traitsIcEERSt13basic_ostreamIcT_ES5_PKc@plt>
    7c45:	48 8b 15 7c 53 00 00 	mov    0x537c(%rip),%rdx        # cfc8 <_ZSt4endlIcSt11char_traitsIcEERSt13basic_ostreamIT_T0_ES6_@GLIBCXX_3.4>
    7c4c:	48 89 d6             	mov    %rdx,%rsi
    7c4f:	48 89 c7             	mov    %rax,%rdi
    7c52:	e8 39 a7 ff ff       	call   2390 <_ZNSolsEPFRSoS_E@plt>
    7c57:	b8 ff ff ff ff       	mov    $0xffffffff,%eax
    7c5c:	e9 3c 02 00 00       	jmp    7e9d <main+0x315>
    7c61:	48 8b 45 90          	mov    -0x70(%rbp),%rax
    7c65:	48 83 c0 08          	add    $0x8,%rax
    7c69:	48 8b 00             	mov    (%rax),%rax
    7c6c:	48 89 c7             	mov    %rax,%rdi
    7c6f:	e8 4c a8 ff ff       	call   24c0 <atoi@plt>
    7c74:	89 45 b0             	mov    %eax,-0x50(%rbp)
    7c77:	48 8b 45 90          	mov    -0x70(%rbp),%rax
    7c7b:	48 83 c0 10          	add    $0x10,%rax
    7c7f:	48 8b 00             	mov    (%rax),%rax
    7c82:	48 89 c7             	mov    %rax,%rdi
    7c85:	e8 36 a8 ff ff       	call   24c0 <atoi@plt>
    7c8a:	89 45 b4             	mov    %eax,-0x4c(%rbp)
    7c8d:	83 7d b0 00          	cmpl   $0x0,-0x50(%rbp)
    7c91:	7f 35                	jg     7cc8 <main+0x140>
    7c93:	48 8d 05 36 26 00 00 	lea    0x2636(%rip),%rax        # a2d0 <_ZL22PARSEC_PROCESS_PRIVATE+0x290>
    7c9a:	48 89 c6             	mov    %rax,%rsi
    7c9d:	48 8d 05 dc 54 00 00 	lea    0x54dc(%rip),%rax        # d180 <_ZSt4cerr@GLIBCXX_3.4>
    7ca4:	48 89 c7             	mov    %rax,%rdi
    7ca7:	e8 d4 a6 ff ff       	call   2380 <_ZStlsISt11char_traitsIcEERSt13basic_ostreamIcT_ES5_PKc@plt>
    7cac:	48 8b 15 15 53 00 00 	mov    0x5315(%rip),%rdx        # cfc8 <_ZSt4endlIcSt11char_traitsIcEERSt13basic_ostreamIT_T0_ES6_@GLIBCXX_3.4>
    7cb3:	48 89 d6             	mov    %rdx,%rsi
    7cb6:	48 89 c7             	mov    %rax,%rdi
    7cb9:	e8 d2 a6 ff ff       	call   2390 <_ZNSolsEPFRSoS_E@plt>
    7cbe:	b8 ff ff ff ff       	mov    $0xffffffff,%eax
    7cc3:	e9 d5 01 00 00       	jmp    7e9d <main+0x315>
    7cc8:	83 7d b4 00          	cmpl   $0x0,-0x4c(%rbp)
    7ccc:	7f 35                	jg     7d03 <main+0x17b>
    7cce:	48 8d 05 1a 26 00 00 	lea    0x261a(%rip),%rax        # a2ef <_ZL22PARSEC_PROCESS_PRIVATE+0x2af>
    7cd5:	48 89 c6             	mov    %rax,%rsi
    7cd8:	48 8d 05 a1 54 00 00 	lea    0x54a1(%rip),%rax        # d180 <_ZSt4cerr@GLIBCXX_3.4>
    7cdf:	48 89 c7             	mov    %rax,%rdi
    7ce2:	e8 99 a6 ff ff       	call   2380 <_ZStlsISt11char_traitsIcEERSt13basic_ostreamIcT_ES5_PKc@plt>
    7ce7:	48 8b 15 da 52 00 00 	mov    0x52da(%rip),%rdx        # cfc8 <_ZSt4endlIcSt11char_traitsIcEERSt13basic_ostreamIT_T0_ES6_@GLIBCXX_3.4>
    7cee:	48 89 d6             	mov    %rdx,%rsi
    7cf1:	48 89 c7             	mov    %rax,%rdi
    7cf4:	e8 97 a6 ff ff       	call   2390 <_ZNSolsEPFRSoS_E@plt>
    7cf9:	b8 ff ff ff ff       	mov    $0xffffffff,%eax
    7cfe:	e9 9a 01 00 00       	jmp    7e9d <main+0x315>
    7d03:	8b 55 b0             	mov    -0x50(%rbp),%edx
    7d06:	48 8b 45 90          	mov    -0x70(%rbp),%rax
    7d0a:	48 83 c0 18          	add    $0x18,%rax
    7d0e:	48 8b 00             	mov    (%rax),%rax
    7d11:	89 d6                	mov    %edx,%esi
    7d13:	48 89 c7             	mov    %rax,%rdi
    7d16:	e8 0e aa ff ff       	call   2729 <_Z7InitSimPKcj>
    7d1b:	8b 45 b0             	mov    -0x50(%rbp),%eax
    7d1e:	48 63 d0             	movslq %eax,%rdx
    7d21:	48 83 ea 01          	sub    $0x1,%rdx
    7d25:	48 89 55 b8          	mov    %rdx,-0x48(%rbp)
    7d29:	48 63 d0             	movslq %eax,%rdx
    7d2c:	49 89 d6             	mov    %rdx,%r14
    7d2f:	41 bf 00 00 00 00    	mov    $0x0,%r15d
    7d35:	48 63 d0             	movslq %eax,%rdx
    7d38:	49 89 d4             	mov    %rdx,%r12
    7d3b:	41 bd 00 00 00 00    	mov    $0x0,%r13d
    7d41:	48 98                	cltq   
    7d43:	48 8d 14 c5 00 00 00 	lea    0x0(,%rax,8),%rdx
    7d4a:	00 
    7d4b:	b8 10 00 00 00       	mov    $0x10,%eax
    7d50:	48 83 e8 01          	sub    $0x1,%rax
    7d54:	48 01 d0             	add    %rdx,%rax
    7d57:	b9 10 00 00 00       	mov    $0x10,%ecx
    7d5c:	ba 00 00 00 00       	mov    $0x0,%edx
    7d61:	48 f7 f1             	div    %rcx
    7d64:	48 6b c0 10          	imul   $0x10,%rax,%rax
    7d68:	48 89 c1             	mov    %rax,%rcx
    7d6b:	48 81 e1 00 f0 ff ff 	and    $0xfffffffffffff000,%rcx
    7d72:	48 89 e2             	mov    %rsp,%rdx
    7d75:	48 29 ca             	sub    %rcx,%rdx
    7d78:	48 39 d4             	cmp    %rdx,%rsp
    7d7b:	74 12                	je     7d8f <main+0x207>
    7d7d:	48 81 ec 00 10 00 00 	sub    $0x1000,%rsp
    7d84:	48 83 8c 24 f8 0f 00 	orq    $0x0,0xff8(%rsp)
    7d8b:	00 00 
    7d8d:	eb e9                	jmp    7d78 <main+0x1f0>
    7d8f:	48 89 c2             	mov    %rax,%rdx
    7d92:	81 e2 ff 0f 00 00    	and    $0xfff,%edx
    7d98:	48 29 d4             	sub    %rdx,%rsp
    7d9b:	48 89 c2             	mov    %rax,%rdx
    7d9e:	81 e2 ff 0f 00 00    	and    $0xfff,%edx
    7da4:	48 85 d2             	test   %rdx,%rdx
    7da7:	74 10                	je     7db9 <main+0x231>
    7da9:	25 ff 0f 00 00       	and    $0xfff,%eax
    7dae:	48 83 e8 08          	sub    $0x8,%rax
    7db2:	48 01 e0             	add    %rsp,%rax
    7db5:	48 83 08 00          	orq    $0x0,(%rax)
    7db9:	48 89 e0             	mov    %rsp,%rax
    7dbc:	48 83 c0 03          	add    $0x3,%rax
    7dc0:	48 c1 e8 02          	shr    $0x2,%rax
    7dc4:	48 c1 e0 02          	shl    $0x2,%rax
    7dc8:	48 89 45 c0          	mov    %rax,-0x40(%rbp)
    7dcc:	c7 45 a8 00 00 00 00 	movl   $0x0,-0x58(%rbp)
    7dd3:	eb 65                	jmp    7e3a <main+0x2b2>
    7dd5:	48 8b 45 c0          	mov    -0x40(%rbp),%rax
    7dd9:	8b 55 a8             	mov    -0x58(%rbp),%edx
    7ddc:	48 63 d2             	movslq %edx,%rdx
    7ddf:	8b 4d a8             	mov    -0x58(%rbp),%ecx
    7de2:	89 0c d0             	mov    %ecx,(%rax,%rdx,8)
    7de5:	48 8b 45 c0          	mov    -0x40(%rbp),%rax
    7de9:	8b 55 a8             	mov    -0x58(%rbp),%edx
    7dec:	48 63 d2             	movslq %edx,%rdx
    7def:	8b 4d b4             	mov    -0x4c(%rbp),%ecx
    7df2:	89 4c d0 04          	mov    %ecx,0x4(%rax,%rdx,8)
    7df6:	8b 45 a8             	mov    -0x58(%rbp),%eax
    7df9:	48 98                	cltq   
    7dfb:	48 8d 14 c5 00 00 00 	lea    0x0(,%rax,8),%rdx
    7e02:	00 
    7e03:	48 8b 45 c0          	mov    -0x40(%rbp),%rax
    7e07:	48 01 c2             	add    %rax,%rdx
    7e0a:	48 8b 0d 47 55 00 00 	mov    0x5547(%rip),%rcx        # d358 <thread>
    7e11:	8b 45 a8             	mov    -0x58(%rbp),%eax
    7e14:	48 98                	cltq   
    7e16:	48 c1 e0 03          	shl    $0x3,%rax
    7e1a:	48 01 c8             	add    %rcx,%rax
    7e1d:	48 89 d1             	mov    %rdx,%rcx
    7e20:	48 8d 15 1c fd ff ff 	lea    -0x2e4(%rip),%rdx        # 7b43 <_Z15AdvanceFramesMTPv>
    7e27:	48 8d 35 f2 54 00 00 	lea    0x54f2(%rip),%rsi        # d320 <attr>
    7e2e:	48 89 c7             	mov    %rax,%rdi
    7e31:	e8 da a6 ff ff       	call   2510 <pthread_create@plt>
    7e36:	83 45 a8 01          	addl   $0x1,-0x58(%rbp)
    7e3a:	8b 45 a8             	mov    -0x58(%rbp),%eax
    7e3d:	3b 45 b0             	cmp    -0x50(%rbp),%eax
    7e40:	7c 93                	jl     7dd5 <main+0x24d>
    7e42:	c7 45 ac 00 00 00 00 	movl   $0x0,-0x54(%rbp)
    7e49:	eb 27                	jmp    7e72 <main+0x2ea>
    7e4b:	48 8b 15 06 55 00 00 	mov    0x5506(%rip),%rdx        # d358 <thread>
    7e52:	8b 45 ac             	mov    -0x54(%rbp),%eax
    7e55:	48 98                	cltq   
    7e57:	48 c1 e0 03          	shl    $0x3,%rax
    7e5b:	48 01 d0             	add    %rdx,%rax
    7e5e:	48 8b 00             	mov    (%rax),%rax
    7e61:	be 00 00 00 00       	mov    $0x0,%esi
    7e66:	48 89 c7             	mov    %rax,%rdi
    7e69:	e8 02 a5 ff ff       	call   2370 <pthread_join@plt>
    7e6e:	83 45 ac 01          	addl   $0x1,-0x54(%rbp)
    7e72:	8b 45 ac             	mov    -0x54(%rbp),%eax
    7e75:	3b 45 b0             	cmp    -0x50(%rbp),%eax
    7e78:	7c d1                	jl     7e4b <main+0x2c3>
    7e7a:	83 7d 9c 04          	cmpl   $0x4,-0x64(%rbp)
    7e7e:	7e 13                	jle    7e93 <main+0x30b>
    7e80:	48 8b 45 90          	mov    -0x70(%rbp),%rax
    7e84:	48 83 c0 20          	add    $0x20,%rax
    7e88:	48 8b 00             	mov    (%rax),%rax
    7e8b:	48 89 c7             	mov    %rax,%rdi
    7e8e:	e8 6b c1 ff ff       	call   3ffe <_Z8SaveFilePKc>
    7e93:	e8 cc c9 ff ff       	call   4864 <_Z10CleanUpSimv>
    7e98:	b8 00 00 00 00       	mov    $0x0,%eax
    7e9d:	48 89 dc             	mov    %rbx,%rsp
    7ea0:	48 8b 55 c8          	mov    -0x38(%rbp),%rdx
    7ea4:	64 48 2b 14 25 28 00 	sub    %fs:0x28,%rdx
    7eab:	00 00 
    7ead:	74 05                	je     7eb4 <main+0x32c>
    7eaf:	e8 fc a4 ff ff       	call   23b0 <__stack_chk_fail@plt>
    7eb4:	48 8d 65 d8          	lea    -0x28(%rbp),%rsp
    7eb8:	5b                   	pop    %rbx
    7eb9:	41 5c                	pop    %r12
    7ebb:	41 5d                	pop    %r13
    7ebd:	41 5e                	pop    %r14
    7ebf:	41 5f                	pop    %r15
    7ec1:	5d                   	pop    %rbp
    7ec2:	c3                   	ret    

0000000000007ec3 <_Z41__static_initialization_and_destruction_0ii>:
    7ec3:	f3 0f 1e fa          	endbr64 
    7ec7:	55                   	push   %rbp
    7ec8:	48 89 e5             	mov    %rsp,%rbp
    7ecb:	48 83 ec 10          	sub    $0x10,%rsp
    7ecf:	89 7d fc             	mov    %edi,-0x4(%rbp)
    7ed2:	89 75 f8             	mov    %esi,-0x8(%rbp)
    7ed5:	83 7d fc 01          	cmpl   $0x1,-0x4(%rbp)
    7ed9:	0f 85 c5 00 00 00    	jne    7fa4 <_Z41__static_initialization_and_destruction_0ii+0xe1>
    7edf:	81 7d f8 ff ff 00 00 	cmpl   $0xffff,-0x8(%rbp)
    7ee6:	0f 85 b8 00 00 00    	jne    7fa4 <_Z41__static_initialization_and_destruction_0ii+0xe1>
    7eec:	48 8d 05 f5 54 00 00 	lea    0x54f5(%rip),%rax        # d3e8 <_ZStL8__ioinit>
    7ef3:	48 89 c7             	mov    %rax,%rdi
    7ef6:	e8 b5 a5 ff ff       	call   24b0 <_ZNSt8ios_base4InitC1Ev@plt>
    7efb:	48 8d 05 06 51 00 00 	lea    0x5106(%rip),%rax        # d008 <__dso_handle>
    7f02:	48 89 c2             	mov    %rax,%rdx
    7f05:	48 8d 05 dc 54 00 00 	lea    0x54dc(%rip),%rax        # d3e8 <_ZStL8__ioinit>
    7f0c:	48 89 c6             	mov    %rax,%rsi
    7f0f:	48 8b 05 e2 50 00 00 	mov    0x50e2(%rip),%rax        # cff8 <_ZNSt8ios_base4InitD1Ev@GLIBCXX_3.4>
    7f16:	48 89 c7             	mov    %rax,%rdi
    7f19:	e8 42 a4 ff ff       	call   2360 <__cxa_atexit@plt>
    7f1e:	66 0f ef d2          	pxor   %xmm2,%xmm2
    7f22:	f3 0f 10 0d 6a 24 00 	movss  0x246a(%rip),%xmm1        # a394 <_ZL22PARSEC_PROCESS_PRIVATE+0x354>
    7f29:	00 
    7f2a:	8b 05 34 24 00 00    	mov    0x2434(%rip),%eax        # a364 <_ZL22PARSEC_PROCESS_PRIVATE+0x324>
    7f30:	66 0f 6e c0          	movd   %eax,%xmm0
    7f34:	48 8d 05 b5 54 00 00 	lea    0x54b5(%rip),%rax        # d3f0 <_ZL20externalAcceleration>
    7f3b:	48 89 c7             	mov    %rax,%rdi
    7f3e:	e8 a3 00 00 00       	call   7fe6 <_ZN4Vec3C1Efff>
    7f43:	f3 0f 10 15 4d 24 00 	movss  0x244d(%rip),%xmm2        # a398 <_ZL22PARSEC_PROCESS_PRIVATE+0x358>
    7f4a:	00 
    7f4b:	f3 0f 10 0d 49 24 00 	movss  0x2449(%rip),%xmm1        # a39c <_ZL22PARSEC_PROCESS_PRIVATE+0x35c>
    7f52:	00 
    7f53:	8b 05 3f 24 00 00    	mov    0x243f(%rip),%eax        # a398 <_ZL22PARSEC_PROCESS_PRIVATE+0x358>
    7f59:	66 0f 6e c0          	movd   %eax,%xmm0
    7f5d:	48 8d 05 9c 54 00 00 	lea    0x549c(%rip),%rax        # d400 <_ZL9domainMin>
    7f64:	48 89 c7             	mov    %rax,%rdi
    7f67:	e8 7a 00 00 00       	call   7fe6 <_ZN4Vec3C1Efff>
    7f6c:	f3 0f 10 15 2c 24 00 	movss  0x242c(%rip),%xmm2        # a3a0 <_ZL22PARSEC_PROCESS_PRIVATE+0x360>
    7f73:	00 
    7f74:	f3 0f 10 0d 28 24 00 	movss  0x2428(%rip),%xmm1        # a3a4 <_ZL22PARSEC_PROCESS_PRIVATE+0x364>
    7f7b:	00 
    7f7c:	8b 05 1e 24 00 00    	mov    0x241e(%rip),%eax        # a3a0 <_ZL22PARSEC_PROCESS_PRIVATE+0x360>
    7f82:	66 0f 6e c0          	movd   %eax,%xmm0
    7f86:	48 8d 05 83 54 00 00 	lea    0x5483(%rip),%rax        # d410 <_ZL9domainMax>
    7f8d:	48 89 c7             	mov    %rax,%rdi
    7f90:	e8 51 00 00 00       	call   7fe6 <_ZN4Vec3C1Efff>
    7f95:	48 8d 05 34 53 00 00 	lea    0x5334(%rip),%rax        # d2d0 <delta>
    7f9c:	48 89 c7             	mov    %rax,%rdi
    7f9f:	e8 32 00 00 00       	call   7fd6 <_ZN4Vec3C1Ev>
    7fa4:	90                   	nop
    7fa5:	c9                   	leave  
    7fa6:	c3                   	ret    

0000000000007fa7 <_GLOBAL__sub_I_pools>:
    7fa7:	f3 0f 1e fa          	endbr64 
    7fab:	55                   	push   %rbp
    7fac:	48 89 e5             	mov    %rsp,%rbp
    7faf:	be ff ff 00 00       	mov    $0xffff,%esi
    7fb4:	bf 01 00 00 00       	mov    $0x1,%edi
    7fb9:	e8 05 ff ff ff       	call   7ec3 <_Z41__static_initialization_and_destruction_0ii>
    7fbe:	5d                   	pop    %rbp
    7fbf:	c3                   	ret    

0000000000007fc0 <_ZnwmPv>:
    7fc0:	f3 0f 1e fa          	endbr64 
    7fc4:	55                   	push   %rbp
    7fc5:	48 89 e5             	mov    %rsp,%rbp
    7fc8:	48 89 7d f8          	mov    %rdi,-0x8(%rbp)
    7fcc:	48 89 75 f0          	mov    %rsi,-0x10(%rbp)
    7fd0:	48 8b 45 f0          	mov    -0x10(%rbp),%rax
    7fd4:	5d                   	pop    %rbp
    7fd5:	c3                   	ret    

0000000000007fd6 <_ZN4Vec3C1Ev>:
    7fd6:	f3 0f 1e fa          	endbr64 
    7fda:	55                   	push   %rbp
    7fdb:	48 89 e5             	mov    %rsp,%rbp
    7fde:	48 89 7d f8          	mov    %rdi,-0x8(%rbp)
    7fe2:	90                   	nop
    7fe3:	5d                   	pop    %rbp
    7fe4:	c3                   	ret    
    7fe5:	90                   	nop

0000000000007fe6 <_ZN4Vec3C1Efff>:
    7fe6:	f3 0f 1e fa          	endbr64 
    7fea:	55                   	push   %rbp
    7feb:	48 89 e5             	mov    %rsp,%rbp
    7fee:	48 89 7d f8          	mov    %rdi,-0x8(%rbp)
    7ff2:	f3 0f 11 45 f4       	movss  %xmm0,-0xc(%rbp)
    7ff7:	f3 0f 11 4d f0       	movss  %xmm1,-0x10(%rbp)
    7ffc:	f3 0f 11 55 ec       	movss  %xmm2,-0x14(%rbp)
    8001:	48 8b 45 f8          	mov    -0x8(%rbp),%rax
    8005:	f3 0f 10 45 f4       	movss  -0xc(%rbp),%xmm0
    800a:	f3 0f 11 00          	movss  %xmm0,(%rax)
    800e:	48 8b 45 f8          	mov    -0x8(%rbp),%rax
    8012:	f3 0f 10 45 f0       	movss  -0x10(%rbp),%xmm0
    8017:	f3 0f 11 40 04       	movss  %xmm0,0x4(%rax)
    801c:	48 8b 45 f8          	mov    -0x8(%rbp),%rax
    8020:	f3 0f 10 45 ec       	movss  -0x14(%rbp),%xmm0
    8025:	f3 0f 11 40 08       	movss  %xmm0,0x8(%rax)
    802a:	90                   	nop
    802b:	5d                   	pop    %rbp
    802c:	c3                   	ret    
    802d:	90                   	nop

000000000000802e <_ZNK4Vec311GetLengthSqEv>:
    802e:	f3 0f 1e fa          	endbr64 
    8032:	55                   	push   %rbp
    8033:	48 89 e5             	mov    %rsp,%rbp
    8036:	48 89 7d f8          	mov    %rdi,-0x8(%rbp)
    803a:	48 8b 45 f8          	mov    -0x8(%rbp),%rax
    803e:	f3 0f 10 08          	movss  (%rax),%xmm1
    8042:	48 8b 45 f8          	mov    -0x8(%rbp),%rax
    8046:	f3 0f 10 00          	movss  (%rax),%xmm0
    804a:	f3 0f 59 c8          	mulss  %xmm0,%xmm1
    804e:	48 8b 45 f8          	mov    -0x8(%rbp),%rax
    8052:	f3 0f 10 50 04       	movss  0x4(%rax),%xmm2
    8057:	48 8b 45 f8          	mov    -0x8(%rbp),%rax
    805b:	f3 0f 10 40 04       	movss  0x4(%rax),%xmm0
    8060:	f3 0f 59 c2          	mulss  %xmm2,%xmm0
    8064:	f3 0f 58 c8          	addss  %xmm0,%xmm1
    8068:	48 8b 45 f8          	mov    -0x8(%rbp),%rax
    806c:	f3 0f 10 50 08       	movss  0x8(%rax),%xmm2
    8071:	48 8b 45 f8          	mov    -0x8(%rbp),%rax
    8075:	f3 0f 10 40 08       	movss  0x8(%rax),%xmm0
    807a:	f3 0f 59 c2          	mulss  %xmm2,%xmm0
    807e:	f3 0f 58 c1          	addss  %xmm1,%xmm0
    8082:	5d                   	pop    %rbp
    8083:	c3                   	ret    

0000000000008084 <_ZN4Vec3pLERKS_>:
    8084:	f3 0f 1e fa          	endbr64 
    8088:	55                   	push   %rbp
    8089:	48 89 e5             	mov    %rsp,%rbp
    808c:	48 89 7d f8          	mov    %rdi,-0x8(%rbp)
    8090:	48 89 75 f0          	mov    %rsi,-0x10(%rbp)
    8094:	48 8b 45 f8          	mov    -0x8(%rbp),%rax
    8098:	f3 0f 10 08          	movss  (%rax),%xmm1
    809c:	48 8b 45 f0          	mov    -0x10(%rbp),%rax
    80a0:	f3 0f 10 00          	movss  (%rax),%xmm0
    80a4:	f3 0f 58 c1          	addss  %xmm1,%xmm0
    80a8:	48 8b 45 f8          	mov    -0x8(%rbp),%rax
    80ac:	f3 0f 11 00          	movss  %xmm0,(%rax)
    80b0:	48 8b 45 f8          	mov    -0x8(%rbp),%rax
    80b4:	f3 0f 10 48 04       	movss  0x4(%rax),%xmm1
    80b9:	48 8b 45 f0          	mov    -0x10(%rbp),%rax
    80bd:	f3 0f 10 40 04       	movss  0x4(%rax),%xmm0
    80c2:	f3 0f 58 c1          	addss  %xmm1,%xmm0
    80c6:	48 8b 45 f8          	mov    -0x8(%rbp),%rax
    80ca:	f3 0f 11 40 04       	movss  %xmm0,0x4(%rax)
    80cf:	48 8b 45 f8          	mov    -0x8(%rbp),%rax
    80d3:	f3 0f 10 48 08       	movss  0x8(%rax),%xmm1
    80d8:	48 8b 45 f0          	mov    -0x10(%rbp),%rax
    80dc:	f3 0f 10 40 08       	movss  0x8(%rax),%xmm0
    80e1:	f3 0f 58 c1          	addss  %xmm1,%xmm0
    80e5:	48 8b 45 f8          	mov    -0x8(%rbp),%rax
    80e9:	f3 0f 11 40 08       	movss  %xmm0,0x8(%rax)
    80ee:	48 8b 45 f8          	mov    -0x8(%rbp),%rax
    80f2:	5d                   	pop    %rbp
    80f3:	c3                   	ret    

00000000000080f4 <_ZN4Vec3mIERKS_>:
    80f4:	f3 0f 1e fa          	endbr64 
    80f8:	55                   	push   %rbp
    80f9:	48 89 e5             	mov    %rsp,%rbp
    80fc:	48 89 7d f8          	mov    %rdi,-0x8(%rbp)
    8100:	48 89 75 f0          	mov    %rsi,-0x10(%rbp)
    8104:	48 8b 45 f8          	mov    -0x8(%rbp),%rax
    8108:	f3 0f 10 00          	movss  (%rax),%xmm0
    810c:	48 8b 45 f0          	mov    -0x10(%rbp),%rax
    8110:	f3 0f 10 08          	movss  (%rax),%xmm1
    8114:	f3 0f 5c c1          	subss  %xmm1,%xmm0
    8118:	48 8b 45 f8          	mov    -0x8(%rbp),%rax
    811c:	f3 0f 11 00          	movss  %xmm0,(%rax)
    8120:	48 8b 45 f8          	mov    -0x8(%rbp),%rax
    8124:	f3 0f 10 40 04       	movss  0x4(%rax),%xmm0
    8129:	48 8b 45 f0          	mov    -0x10(%rbp),%rax
    812d:	f3 0f 10 48 04       	movss  0x4(%rax),%xmm1
    8132:	f3 0f 5c c1          	subss  %xmm1,%xmm0
    8136:	48 8b 45 f8          	mov    -0x8(%rbp),%rax
    813a:	f3 0f 11 40 04       	movss  %xmm0,0x4(%rax)
    813f:	48 8b 45 f8          	mov    -0x8(%rbp),%rax
    8143:	f3 0f 10 40 08       	movss  0x8(%rax),%xmm0
    8148:	48 8b 45 f0          	mov    -0x10(%rbp),%rax
    814c:	f3 0f 10 48 08       	movss  0x8(%rax),%xmm1
    8151:	f3 0f 5c c1          	subss  %xmm1,%xmm0
    8155:	48 8b 45 f8          	mov    -0x8(%rbp),%rax
    8159:	f3 0f 11 40 08       	movss  %xmm0,0x8(%rax)
    815e:	48 8b 45 f8          	mov    -0x8(%rbp),%rax
    8162:	5d                   	pop    %rbp
    8163:	c3                   	ret    

0000000000008164 <_ZN4Vec3mLEf>:
    8164:	f3 0f 1e fa          	endbr64 
    8168:	55                   	push   %rbp
    8169:	48 89 e5             	mov    %rsp,%rbp
    816c:	48 89 7d f8          	mov    %rdi,-0x8(%rbp)
    8170:	f3 0f 11 45 f4       	movss  %xmm0,-0xc(%rbp)
    8175:	48 8b 45 f8          	mov    -0x8(%rbp),%rax
    8179:	f3 0f 10 00          	movss  (%rax),%xmm0
    817d:	f3 0f 59 45 f4       	mulss  -0xc(%rbp),%xmm0
    8182:	48 8b 45 f8          	mov    -0x8(%rbp),%rax
    8186:	f3 0f 11 00          	movss  %xmm0,(%rax)
    818a:	48 8b 45 f8          	mov    -0x8(%rbp),%rax
    818e:	f3 0f 10 40 04       	movss  0x4(%rax),%xmm0
    8193:	f3 0f 59 45 f4       	mulss  -0xc(%rbp),%xmm0
    8198:	48 8b 45 f8          	mov    -0x8(%rbp),%rax
    819c:	f3 0f 11 40 04       	movss  %xmm0,0x4(%rax)
    81a1:	48 8b 45 f8          	mov    -0x8(%rbp),%rax
    81a5:	f3 0f 10 40 08       	movss  0x8(%rax),%xmm0
    81aa:	f3 0f 59 45 f4       	mulss  -0xc(%rbp),%xmm0
    81af:	48 8b 45 f8          	mov    -0x8(%rbp),%rax
    81b3:	f3 0f 11 40 08       	movss  %xmm0,0x8(%rax)
    81b8:	48 8b 45 f8          	mov    -0x8(%rbp),%rax
    81bc:	5d                   	pop    %rbp
    81bd:	c3                   	ret    

00000000000081be <_ZN4Vec3dVEf>:
    81be:	f3 0f 1e fa          	endbr64 
    81c2:	55                   	push   %rbp
    81c3:	48 89 e5             	mov    %rsp,%rbp
    81c6:	48 89 7d e8          	mov    %rdi,-0x18(%rbp)
    81ca:	f3 0f 11 45 e4       	movss  %xmm0,-0x1c(%rbp)
    81cf:	f3 0f 10 05 39 21 00 	movss  0x2139(%rip),%xmm0        # a310 <_ZL22PARSEC_PROCESS_PRIVATE+0x2d0>
    81d6:	00 
    81d7:	f3 0f 5e 45 e4       	divss  -0x1c(%rbp),%xmm0
    81dc:	f3 0f 11 45 fc       	movss  %xmm0,-0x4(%rbp)
    81e1:	48 8b 45 e8          	mov    -0x18(%rbp),%rax
    81e5:	f3 0f 10 00          	movss  (%rax),%xmm0
    81e9:	f3 0f 59 45 fc       	mulss  -0x4(%rbp),%xmm0
    81ee:	48 8b 45 e8          	mov    -0x18(%rbp),%rax
    81f2:	f3 0f 11 00          	movss  %xmm0,(%rax)
    81f6:	48 8b 45 e8          	mov    -0x18(%rbp),%rax
    81fa:	f3 0f 10 40 04       	movss  0x4(%rax),%xmm0
    81ff:	f3 0f 59 45 fc       	mulss  -0x4(%rbp),%xmm0
    8204:	48 8b 45 e8          	mov    -0x18(%rbp),%rax
    8208:	f3 0f 11 40 04       	movss  %xmm0,0x4(%rax)
    820d:	48 8b 45 e8          	mov    -0x18(%rbp),%rax
    8211:	f3 0f 10 40 08       	movss  0x8(%rax),%xmm0
    8216:	f3 0f 59 45 fc       	mulss  -0x4(%rbp),%xmm0
    821b:	48 8b 45 e8          	mov    -0x18(%rbp),%rax
    821f:	f3 0f 11 40 08       	movss  %xmm0,0x8(%rax)
    8224:	48 8b 45 e8          	mov    -0x18(%rbp),%rax
    8228:	5d                   	pop    %rbp
    8229:	c3                   	ret    

000000000000822a <_ZNK4Vec3plERKS_>:
    822a:	f3 0f 1e fa          	endbr64 
    822e:	55                   	push   %rbp
    822f:	48 89 e5             	mov    %rsp,%rbp
    8232:	48 83 ec 40          	sub    $0x40,%rsp
    8236:	48 89 7d d8          	mov    %rdi,-0x28(%rbp)
    823a:	48 89 75 d0          	mov    %rsi,-0x30(%rbp)
    823e:	64 48 8b 04 25 28 00 	mov    %fs:0x28,%rax
    8245:	00 00 
    8247:	48 89 45 f8          	mov    %rax,-0x8(%rbp)
    824b:	31 c0                	xor    %eax,%eax
    824d:	48 8b 45 d8          	mov    -0x28(%rbp),%rax
    8251:	f3 0f 10 48 08       	movss  0x8(%rax),%xmm1
    8256:	48 8b 45 d0          	mov    -0x30(%rbp),%rax
    825a:	f3 0f 10 40 08       	movss  0x8(%rax),%xmm0
    825f:	0f 28 d1             	movaps %xmm1,%xmm2
    8262:	f3 0f 58 d0          	addss  %xmm0,%xmm2
    8266:	48 8b 45 d8          	mov    -0x28(%rbp),%rax
    826a:	f3 0f 10 48 04       	movss  0x4(%rax),%xmm1
    826f:	48 8b 45 d0          	mov    -0x30(%rbp),%rax
    8273:	f3 0f 10 40 04       	movss  0x4(%rax),%xmm0
    8278:	0f 28 d9             	movaps %xmm1,%xmm3
    827b:	f3 0f 58 d8          	addss  %xmm0,%xmm3
    827f:	48 8b 45 d8          	mov    -0x28(%rbp),%rax
    8283:	f3 0f 10 08          	movss  (%rax),%xmm1
    8287:	48 8b 45 d0          	mov    -0x30(%rbp),%rax
    828b:	f3 0f 10 00          	movss  (%rax),%xmm0
    828f:	f3 0f 58 c8          	addss  %xmm0,%xmm1
    8293:	66 0f 7e ca          	movd   %xmm1,%edx
    8297:	48 8d 45 e0          	lea    -0x20(%rbp),%rax
    829b:	0f 28 cb             	movaps %xmm3,%xmm1
    829e:	66 0f 6e c2          	movd   %edx,%xmm0
    82a2:	48 89 c7             	mov    %rax,%rdi
    82a5:	e8 3c fd ff ff       	call   7fe6 <_ZN4Vec3C1Efff>
    82aa:	48 8b 45 e0          	mov    -0x20(%rbp),%rax
    82ae:	48 89 45 ec          	mov    %rax,-0x14(%rbp)
    82b2:	8b 45 e8             	mov    -0x18(%rbp),%eax
    82b5:	89 45 f4             	mov    %eax,-0xc(%rbp)
    82b8:	48 8b 45 ec          	mov    -0x14(%rbp),%rax
    82bc:	f3 0f 10 45 f4       	movss  -0xc(%rbp),%xmm0
    82c1:	48 89 c2             	mov    %rax,%rdx
    82c4:	0f 28 c8             	movaps %xmm0,%xmm1
    82c7:	48 8b 45 f8          	mov    -0x8(%rbp),%rax
    82cb:	64 48 2b 04 25 28 00 	sub    %fs:0x28,%rax
    82d2:	00 00 
    82d4:	74 05                	je     82db <_ZNK4Vec3plERKS_+0xb1>
    82d6:	e8 d5 a0 ff ff       	call   23b0 <__stack_chk_fail@plt>
    82db:	66 48 0f 6e c2       	movq   %rdx,%xmm0
    82e0:	c9                   	leave  
    82e1:	c3                   	ret    

00000000000082e2 <_ZNK4Vec3miERKS_>:
    82e2:	f3 0f 1e fa          	endbr64 
    82e6:	55                   	push   %rbp
    82e7:	48 89 e5             	mov    %rsp,%rbp
    82ea:	48 83 ec 40          	sub    $0x40,%rsp
    82ee:	48 89 7d d8          	mov    %rdi,-0x28(%rbp)
    82f2:	48 89 75 d0          	mov    %rsi,-0x30(%rbp)
    82f6:	64 48 8b 04 25 28 00 	mov    %fs:0x28,%rax
    82fd:	00 00 
    82ff:	48 89 45 f8          	mov    %rax,-0x8(%rbp)
    8303:	31 c0                	xor    %eax,%eax
    8305:	48 8b 45 d8          	mov    -0x28(%rbp),%rax
    8309:	f3 0f 10 40 08       	movss  0x8(%rax),%xmm0
    830e:	48 8b 45 d0          	mov    -0x30(%rbp),%rax
    8312:	f3 0f 10 48 08       	movss  0x8(%rax),%xmm1
    8317:	0f 28 d0             	movaps %xmm0,%xmm2
    831a:	f3 0f 5c d1          	subss  %xmm1,%xmm2
    831e:	48 8b 45 d8          	mov    -0x28(%rbp),%rax
    8322:	f3 0f 10 40 04       	movss  0x4(%rax),%xmm0
    8327:	48 8b 45 d0          	mov    -0x30(%rbp),%rax
    832b:	f3 0f 10 48 04       	movss  0x4(%rax),%xmm1
    8330:	0f 28 d8             	movaps %xmm0,%xmm3
    8333:	f3 0f 5c d9          	subss  %xmm1,%xmm3
    8337:	48 8b 45 d8          	mov    -0x28(%rbp),%rax
    833b:	f3 0f 10 00          	movss  (%rax),%xmm0
    833f:	48 8b 45 d0          	mov    -0x30(%rbp),%rax
    8343:	f3 0f 10 08          	movss  (%rax),%xmm1
    8347:	f3 0f 5c c1          	subss  %xmm1,%xmm0
    834b:	66 0f 7e c2          	movd   %xmm0,%edx
    834f:	48 8d 45 e0          	lea    -0x20(%rbp),%rax
    8353:	0f 28 cb             	movaps %xmm3,%xmm1
    8356:	66 0f 6e c2          	movd   %edx,%xmm0
    835a:	48 89 c7             	mov    %rax,%rdi
    835d:	e8 84 fc ff ff       	call   7fe6 <_ZN4Vec3C1Efff>
    8362:	48 8b 45 e0          	mov    -0x20(%rbp),%rax
    8366:	48 89 45 ec          	mov    %rax,-0x14(%rbp)
    836a:	8b 45 e8             	mov    -0x18(%rbp),%eax
    836d:	89 45 f4             	mov    %eax,-0xc(%rbp)
    8370:	48 8b 45 ec          	mov    -0x14(%rbp),%rax
    8374:	f3 0f 10 45 f4       	movss  -0xc(%rbp),%xmm0
    8379:	48 89 c2             	mov    %rax,%rdx
    837c:	0f 28 c8             	movaps %xmm0,%xmm1
    837f:	48 8b 45 f8          	mov    -0x8(%rbp),%rax
    8383:	64 48 2b 04 25 28 00 	sub    %fs:0x28,%rax
    838a:	00 00 
    838c:	74 05                	je     8393 <_ZNK4Vec3miERKS_+0xb1>
    838e:	e8 1d a0 ff ff       	call   23b0 <__stack_chk_fail@plt>
    8393:	66 48 0f 6e c2       	movq   %rdx,%xmm0
    8398:	c9                   	leave  
    8399:	c3                   	ret    

000000000000839a <_ZNK4Vec3mlEf>:
    839a:	f3 0f 1e fa          	endbr64 
    839e:	55                   	push   %rbp
    839f:	48 89 e5             	mov    %rsp,%rbp
    83a2:	48 83 ec 40          	sub    $0x40,%rsp
    83a6:	48 89 7d d8          	mov    %rdi,-0x28(%rbp)
    83aa:	f3 0f 11 45 d4       	movss  %xmm0,-0x2c(%rbp)
    83af:	64 48 8b 04 25 28 00 	mov    %fs:0x28,%rax
    83b6:	00 00 
    83b8:	48 89 45 f8          	mov    %rax,-0x8(%rbp)
    83bc:	31 c0                	xor    %eax,%eax
    83be:	48 8b 45 d8          	mov    -0x28(%rbp),%rax
    83c2:	f3 0f 10 40 08       	movss  0x8(%rax),%xmm0
    83c7:	0f 28 d0             	movaps %xmm0,%xmm2
    83ca:	f3 0f 59 55 d4       	mulss  -0x2c(%rbp),%xmm2
    83cf:	48 8b 45 d8          	mov    -0x28(%rbp),%rax
    83d3:	f3 0f 10 40 04       	movss  0x4(%rax),%xmm0
    83d8:	0f 28 c8             	movaps %xmm0,%xmm1
    83db:	f3 0f 59 4d d4       	mulss  -0x2c(%rbp),%xmm1
    83e0:	48 8b 45 d8          	mov    -0x28(%rbp),%rax
    83e4:	f3 0f 10 00          	movss  (%rax),%xmm0
    83e8:	f3 0f 59 45 d4       	mulss  -0x2c(%rbp),%xmm0
    83ed:	66 0f 7e c2          	movd   %xmm0,%edx
    83f1:	48 8d 45 e0          	lea    -0x20(%rbp),%rax
    83f5:	66 0f 6e c2          	movd   %edx,%xmm0
    83f9:	48 89 c7             	mov    %rax,%rdi
    83fc:	e8 e5 fb ff ff       	call   7fe6 <_ZN4Vec3C1Efff>
    8401:	48 8b 45 e0          	mov    -0x20(%rbp),%rax
    8405:	48 89 45 ec          	mov    %rax,-0x14(%rbp)
    8409:	8b 45 e8             	mov    -0x18(%rbp),%eax
    840c:	89 45 f4             	mov    %eax,-0xc(%rbp)
    840f:	48 8b 45 ec          	mov    -0x14(%rbp),%rax
    8413:	f3 0f 10 45 f4       	movss  -0xc(%rbp),%xmm0
    8418:	48 89 c2             	mov    %rax,%rdx
    841b:	0f 28 c8             	movaps %xmm0,%xmm1
    841e:	48 8b 45 f8          	mov    -0x8(%rbp),%rax
    8422:	64 48 2b 04 25 28 00 	sub    %fs:0x28,%rax
    8429:	00 00 
    842b:	74 05                	je     8432 <_ZNK4Vec3mlEf+0x98>
    842d:	e8 7e 9f ff ff       	call   23b0 <__stack_chk_fail@plt>
    8432:	66 48 0f 6e c2       	movq   %rdx,%xmm0
    8437:	c9                   	leave  
    8438:	c3                   	ret    
    8439:	90                   	nop

000000000000843a <_ZN4CellC1Ev>:
    843a:	f3 0f 1e fa          	endbr64 
    843e:	55                   	push   %rbp
    843f:	48 89 e5             	mov    %rsp,%rbp
    8442:	41 54                	push   %r12
    8444:	53                   	push   %rbx
    8445:	48 83 ec 10          	sub    $0x10,%rsp
    8449:	48 89 7d e8          	mov    %rdi,-0x18(%rbp)
    844d:	48 8b 45 e8          	mov    -0x18(%rbp),%rax
    8451:	bb 0f 00 00 00       	mov    $0xf,%ebx
    8456:	49 89 c4             	mov    %rax,%r12
    8459:	eb 10                	jmp    846b <_ZN4CellC1Ev+0x31>
    845b:	4c 89 e7             	mov    %r12,%rdi
    845e:	e8 73 fb ff ff       	call   7fd6 <_ZN4Vec3C1Ev>
    8463:	49 83 c4 0c          	add    $0xc,%r12
    8467:	48 83 eb 01          	sub    $0x1,%rbx
    846b:	48 85 db             	test   %rbx,%rbx
    846e:	79 eb                	jns    845b <_ZN4CellC1Ev+0x21>
    8470:	48 8b 45 e8          	mov    -0x18(%rbp),%rax
    8474:	48 05 c0 00 00 00    	add    $0xc0,%rax
    847a:	bb 0f 00 00 00       	mov    $0xf,%ebx
    847f:	49 89 c4             	mov    %rax,%r12
    8482:	eb 10                	jmp    8494 <_ZN4CellC1Ev+0x5a>
    8484:	4c 89 e7             	mov    %r12,%rdi
    8487:	e8 4a fb ff ff       	call   7fd6 <_ZN4Vec3C1Ev>
    848c:	49 83 c4 0c          	add    $0xc,%r12
    8490:	48 83 eb 01          	sub    $0x1,%rbx
    8494:	48 85 db             	test   %rbx,%rbx
    8497:	79 eb                	jns    8484 <_ZN4CellC1Ev+0x4a>
    8499:	48 8b 45 e8          	mov    -0x18(%rbp),%rax
    849d:	48 05 80 01 00 00    	add    $0x180,%rax
    84a3:	bb 0f 00 00 00       	mov    $0xf,%ebx
    84a8:	49 89 c4             	mov    %rax,%r12
    84ab:	eb 10                	jmp    84bd <_ZN4CellC1Ev+0x83>
    84ad:	4c 89 e7             	mov    %r12,%rdi
    84b0:	e8 21 fb ff ff       	call   7fd6 <_ZN4Vec3C1Ev>
    84b5:	49 83 c4 0c          	add    $0xc,%r12
    84b9:	48 83 eb 01          	sub    $0x1,%rbx
    84bd:	48 85 db             	test   %rbx,%rbx
    84c0:	79 eb                	jns    84ad <_ZN4CellC1Ev+0x73>
    84c2:	48 8b 45 e8          	mov    -0x18(%rbp),%rax
    84c6:	48 05 40 02 00 00    	add    $0x240,%rax
    84cc:	bb 0f 00 00 00       	mov    $0xf,%ebx
    84d1:	49 89 c4             	mov    %rax,%r12
    84d4:	eb 10                	jmp    84e6 <_ZN4CellC1Ev+0xac>
    84d6:	4c 89 e7             	mov    %r12,%rdi
    84d9:	e8 f8 fa ff ff       	call   7fd6 <_ZN4Vec3C1Ev>
    84de:	49 83 c4 0c          	add    $0xc,%r12
    84e2:	48 83 eb 01          	sub    $0x1,%rbx
    84e6:	48 85 db             	test   %rbx,%rbx
    84e9:	79 eb                	jns    84d6 <_ZN4CellC1Ev+0x9c>
    84eb:	48 8b 45 e8          	mov    -0x18(%rbp),%rax
    84ef:	48 c7 80 40 03 00 00 	movq   $0x0,0x340(%rax)
    84f6:	00 00 00 00 
    84fa:	90                   	nop
    84fb:	48 83 c4 10          	add    $0x10,%rsp
    84ff:	5b                   	pop    %rbx
    8500:	41 5c                	pop    %r12
    8502:	5d                   	pop    %rbp
    8503:	c3                   	ret    

0000000000008504 <_ZSt3maxIfERKT_S2_S2_>:
    8504:	f3 0f 1e fa          	endbr64 
    8508:	55                   	push   %rbp
    8509:	48 89 e5             	mov    %rsp,%rbp
    850c:	48 89 7d f8          	mov    %rdi,-0x8(%rbp)
    8510:	48 89 75 f0          	mov    %rsi,-0x10(%rbp)
    8514:	48 8b 45 f8          	mov    -0x8(%rbp),%rax
    8518:	f3 0f 10 08          	movss  (%rax),%xmm1
    851c:	48 8b 45 f0          	mov    -0x10(%rbp),%rax
    8520:	f3 0f 10 00          	movss  (%rax),%xmm0
    8524:	0f 2f c1             	comiss %xmm1,%xmm0
    8527:	76 06                	jbe    852f <_ZSt3maxIfERKT_S2_S2_+0x2b>
    8529:	48 8b 45 f0          	mov    -0x10(%rbp),%rax
    852d:	eb 04                	jmp    8533 <_ZSt3maxIfERKT_S2_S2_+0x2f>
    852f:	48 8b 45 f8          	mov    -0x8(%rbp),%rax
    8533:	5d                   	pop    %rbp
    8534:	c3                   	ret    

0000000000008535 <_ZSt4moveIRP4CellEONSt16remove_referenceIT_E4typeEOS4_>:
    8535:	f3 0f 1e fa          	endbr64 
    8539:	55                   	push   %rbp
    853a:	48 89 e5             	mov    %rsp,%rbp
    853d:	48 89 7d f8          	mov    %rdi,-0x8(%rbp)
    8541:	48 8b 45 f8          	mov    -0x8(%rbp),%rax
    8545:	5d                   	pop    %rbp
    8546:	c3                   	ret    

0000000000008547 <_ZSt4swapIP4CellENSt9enable_ifIXsrSt6__and_IJSt6__not_ISt15__is_tuple_likeIT_EESt21is_move_constructibleIS6_ESt18is_move_assignableIS6_EEE5valueEvE4typeERS6_SG_>:
    8547:	f3 0f 1e fa          	endbr64 
    854b:	55                   	push   %rbp
    854c:	48 89 e5             	mov    %rsp,%rbp
    854f:	48 83 ec 20          	sub    $0x20,%rsp
    8553:	48 89 7d e8          	mov    %rdi,-0x18(%rbp)
    8557:	48 89 75 e0          	mov    %rsi,-0x20(%rbp)
    855b:	64 48 8b 04 25 28 00 	mov    %fs:0x28,%rax
    8562:	00 00 
    8564:	48 89 45 f8          	mov    %rax,-0x8(%rbp)
    8568:	31 c0                	xor    %eax,%eax
    856a:	48 8b 45 e8          	mov    -0x18(%rbp),%rax
    856e:	48 89 c7             	mov    %rax,%rdi
    8571:	e8 bf ff ff ff       	call   8535 <_ZSt4moveIRP4CellEONSt16remove_referenceIT_E4typeEOS4_>
    8576:	48 8b 00             	mov    (%rax),%rax
    8579:	48 89 45 f0          	mov    %rax,-0x10(%rbp)
    857d:	48 8b 45 e0          	mov    -0x20(%rbp),%rax
    8581:	48 89 c7             	mov    %rax,%rdi
    8584:	e8 ac ff ff ff       	call   8535 <_ZSt4moveIRP4CellEONSt16remove_referenceIT_E4typeEOS4_>
    8589:	48 8b 10             	mov    (%rax),%rdx
    858c:	48 8b 45 e8          	mov    -0x18(%rbp),%rax
    8590:	48 89 10             	mov    %rdx,(%rax)
    8593:	48 8d 45 f0          	lea    -0x10(%rbp),%rax
    8597:	48 89 c7             	mov    %rax,%rdi
    859a:	e8 96 ff ff ff       	call   8535 <_ZSt4moveIRP4CellEONSt16remove_referenceIT_E4typeEOS4_>
    859f:	48 8b 10             	mov    (%rax),%rdx
    85a2:	48 8b 45 e0          	mov    -0x20(%rbp),%rax
    85a6:	48 89 10             	mov    %rdx,(%rax)
    85a9:	90                   	nop
    85aa:	48 8b 45 f8          	mov    -0x8(%rbp),%rax
    85ae:	64 48 2b 04 25 28 00 	sub    %fs:0x28,%rax
    85b5:	00 00 
    85b7:	74 05                	je     85be <_ZSt4swapIP4CellENSt9enable_ifIXsrSt6__and_IJSt6__not_ISt15__is_tuple_likeIT_EESt21is_move_constructibleIS6_ESt18is_move_assignableIS6_EEE5valueEvE4typeERS6_SG_+0x77>
    85b9:	e8 f2 9d ff ff       	call   23b0 <__stack_chk_fail@plt>
    85be:	c9                   	leave  
    85bf:	c3                   	ret    

00000000000085c0 <_ZSt4moveIRPiEONSt16remove_referenceIT_E4typeEOS3_>:
    85c0:	f3 0f 1e fa          	endbr64 
    85c4:	55                   	push   %rbp
    85c5:	48 89 e5             	mov    %rsp,%rbp
    85c8:	48 89 7d f8          	mov    %rdi,-0x8(%rbp)
    85cc:	48 8b 45 f8          	mov    -0x8(%rbp),%rax
    85d0:	5d                   	pop    %rbp
    85d1:	c3                   	ret    

00000000000085d2 <_ZSt4swapIPiENSt9enable_ifIXsrSt6__and_IJSt6__not_ISt15__is_tuple_likeIT_EESt21is_move_constructibleIS5_ESt18is_move_assignableIS5_EEE5valueEvE4typeERS5_SF_>:
    85d2:	f3 0f 1e fa          	endbr64 
    85d6:	55                   	push   %rbp
    85d7:	48 89 e5             	mov    %rsp,%rbp
    85da:	48 83 ec 20          	sub    $0x20,%rsp
    85de:	48 89 7d e8          	mov    %rdi,-0x18(%rbp)
    85e2:	48 89 75 e0          	mov    %rsi,-0x20(%rbp)
    85e6:	64 48 8b 04 25 28 00 	mov    %fs:0x28,%rax
    85ed:	00 00 
    85ef:	48 89 45 f8          	mov    %rax,-0x8(%rbp)
    85f3:	31 c0                	xor    %eax,%eax
    85f5:	48 8b 45 e8          	mov    -0x18(%rbp),%rax
    85f9:	48 89 c7             	mov    %rax,%rdi
    85fc:	e8 bf ff ff ff       	call   85c0 <_ZSt4moveIRPiEONSt16remove_referenceIT_E4typeEOS3_>
    8601:	48 8b 00             	mov    (%rax),%rax
    8604:	48 89 45 f0          	mov    %rax,-0x10(%rbp)
    8608:	48 8b 45 e0          	mov    -0x20(%rbp),%rax
    860c:	48 89 c7             	mov    %rax,%rdi
    860f:	e8 ac ff ff ff       	call   85c0 <_ZSt4moveIRPiEONSt16remove_referenceIT_E4typeEOS3_>
    8614:	48 8b 10             	mov    (%rax),%rdx
    8617:	48 8b 45 e8          	mov    -0x18(%rbp),%rax
    861b:	48 89 10             	mov    %rdx,(%rax)
    861e:	48 8d 45 f0          	lea    -0x10(%rbp),%rax
    8622:	48 89 c7             	mov    %rax,%rdi
    8625:	e8 96 ff ff ff       	call   85c0 <_ZSt4moveIRPiEONSt16remove_referenceIT_E4typeEOS3_>
    862a:	48 8b 10             	mov    (%rax),%rdx
    862d:	48 8b 45 e0          	mov    -0x20(%rbp),%rax
    8631:	48 89 10             	mov    %rdx,(%rax)
    8634:	90                   	nop
    8635:	48 8b 45 f8          	mov    -0x8(%rbp),%rax
    8639:	64 48 2b 04 25 28 00 	sub    %fs:0x28,%rax
    8640:	00 00 
    8642:	74 05                	je     8649 <_ZSt4swapIPiENSt9enable_ifIXsrSt6__and_IJSt6__not_ISt15__is_tuple_likeIT_EESt21is_move_constructibleIS5_ESt18is_move_assignableIS5_EEE5valueEvE4typeERS5_SF_+0x77>
    8644:	e8 67 9d ff ff       	call   23b0 <__stack_chk_fail@plt>
    8649:	c9                   	leave  
    864a:	c3                   	ret    

000000000000864b <_ZL19cellpool_allocblocki>:
    864b:	f3 0f 1e fa          	endbr64 
    864f:	55                   	push   %rbp
    8650:	48 89 e5             	mov    %rsp,%rbp
    8653:	48 83 ec 40          	sub    $0x40,%rsp
    8657:	89 7d cc             	mov    %edi,-0x34(%rbp)
    865a:	64 48 8b 04 25 28 00 	mov    %fs:0x28,%rax
    8661:	00 00 
    8663:	48 89 45 f8          	mov    %rax,-0x8(%rbp)
    8667:	31 c0                	xor    %eax,%eax
    8669:	48 c7 45 e0 00 00 00 	movq   $0x0,-0x20(%rbp)
    8670:	00 
    8671:	83 7d cc 00          	cmpl   $0x0,-0x34(%rbp)
    8675:	7f 28                	jg     869f <_ZL19cellpool_allocblocki+0x54>
    8677:	48 8d 05 52 1d 00 00 	lea    0x1d52(%rip),%rax        # a3d0 <_ZL4Zero+0x4>
    867e:	48 89 c1             	mov    %rax,%rcx
    8681:	ba 2e 00 00 00       	mov    $0x2e,%edx
    8686:	48 8d 05 6a 1d 00 00 	lea    0x1d6a(%rip),%rax        # a3f7 <_ZL4Zero+0x2b>
    868d:	48 89 c6             	mov    %rax,%rsi
    8690:	48 8d 05 6d 1d 00 00 	lea    0x1d6d(%rip),%rax        # a404 <_ZL4Zero+0x38>
    8697:	48 89 c7             	mov    %rax,%rdi
    869a:	e8 91 9c ff ff       	call   2330 <__assert_fail@plt>
    869f:	8b 45 cc             	mov    -0x34(%rbp),%eax
    86a2:	48 63 d0             	movslq %eax,%rdx
    86a5:	48 89 d0             	mov    %rdx,%rax
    86a8:	48 c1 e0 03          	shl    $0x3,%rax
    86ac:	48 29 d0             	sub    %rdx,%rax
    86af:	48 c1 e0 07          	shl    $0x7,%rax
    86b3:	48 8d 90 80 00 00 00 	lea    0x80(%rax),%rdx
    86ba:	48 8d 45 e0          	lea    -0x20(%rbp),%rax
    86be:	be 80 00 00 00       	mov    $0x80,%esi
    86c3:	48 89 c7             	mov    %rax,%rdi
    86c6:	e8 45 9c ff ff       	call   2310 <posix_memalign@plt>
    86cb:	89 45 dc             	mov    %eax,-0x24(%rbp)
    86ce:	83 7d dc 00          	cmpl   $0x0,-0x24(%rbp)
    86d2:	74 28                	je     86fc <_ZL19cellpool_allocblocki+0xb1>
    86d4:	48 8d 05 f5 1c 00 00 	lea    0x1cf5(%rip),%rax        # a3d0 <_ZL4Zero+0x4>
    86db:	48 89 c1             	mov    %rax,%rcx
    86de:	ba 36 00 00 00       	mov    $0x36,%edx
    86e3:	48 8d 05 0d 1d 00 00 	lea    0x1d0d(%rip),%rax        # a3f7 <_ZL4Zero+0x2b>
    86ea:	48 89 c6             	mov    %rax,%rsi
    86ed:	48 8d 05 1a 1d 00 00 	lea    0x1d1a(%rip),%rax        # a40e <_ZL4Zero+0x42>
    86f4:	48 89 c7             	mov    %rax,%rdi
    86f7:	e8 34 9c ff ff       	call   2330 <__assert_fail@plt>
    86fc:	48 8b 45 e0          	mov    -0x20(%rbp),%rax
    8700:	48 c7 00 00 00 00 00 	movq   $0x0,(%rax)
    8707:	48 8b 45 e0          	mov    -0x20(%rbp),%rax
    870b:	48 83 e8 80          	sub    $0xffffffffffffff80,%rax
    870f:	48 89 45 e8          	mov    %rax,-0x18(%rbp)
    8713:	c7 45 d8 00 00 00 00 	movl   $0x0,-0x28(%rbp)
    871a:	eb 79                	jmp    8795 <_ZL19cellpool_allocblocki+0x14a>
    871c:	48 8b 45 e8          	mov    -0x18(%rbp),%rax
    8720:	83 e0 07             	and    $0x7,%eax
    8723:	48 85 c0             	test   %rax,%rax
    8726:	74 28                	je     8750 <_ZL19cellpool_allocblocki+0x105>
    8728:	48 8d 05 a1 1c 00 00 	lea    0x1ca1(%rip),%rax        # a3d0 <_ZL4Zero+0x4>
    872f:	48 89 c1             	mov    %rax,%rcx
    8732:	ba 3f 00 00 00       	mov    $0x3f,%edx
    8737:	48 8d 05 b9 1c 00 00 	lea    0x1cb9(%rip),%rax        # a3f7 <_ZL4Zero+0x2b>
    873e:	48 89 c6             	mov    %rax,%rsi
    8741:	48 8d 05 d0 1c 00 00 	lea    0x1cd0(%rip),%rax        # a418 <_ZL4Zero+0x4c>
    8748:	48 89 c7             	mov    %rax,%rdi
    874b:	e8 e0 9b ff ff       	call   2330 <__assert_fail@plt>
    8750:	8b 45 cc             	mov    -0x34(%rbp),%eax
    8753:	83 e8 01             	sub    $0x1,%eax
    8756:	39 45 d8             	cmp    %eax,-0x28(%rbp)
    8759:	74 27                	je     8782 <_ZL19cellpool_allocblocki+0x137>
    875b:	48 8b 45 e8          	mov    -0x18(%rbp),%rax
    875f:	48 05 80 03 00 00    	add    $0x380,%rax
    8765:	48 89 45 f0          	mov    %rax,-0x10(%rbp)
    8769:	48 8b 45 e8          	mov    -0x18(%rbp),%rax
    876d:	48 8b 55 f0          	mov    -0x10(%rbp),%rdx
    8771:	48 89 90 40 03 00 00 	mov    %rdx,0x340(%rax)
    8778:	48 8b 45 f0          	mov    -0x10(%rbp),%rax
    877c:	48 89 45 e8          	mov    %rax,-0x18(%rbp)
    8780:	eb 0f                	jmp    8791 <_ZL19cellpool_allocblocki+0x146>
    8782:	48 8b 45 e8          	mov    -0x18(%rbp),%rax
    8786:	48 c7 80 40 03 00 00 	movq   $0x0,0x340(%rax)
    878d:	00 00 00 00 
    8791:	83 45 d8 01          	addl   $0x1,-0x28(%rbp)
    8795:	8b 45 d8             	mov    -0x28(%rbp),%eax
    8798:	3b 45 cc             	cmp    -0x34(%rbp),%eax
    879b:	0f 8c 7b ff ff ff    	jl     871c <_ZL19cellpool_allocblocki+0xd1>
    87a1:	48 8b 45 e0          	mov    -0x20(%rbp),%rax
    87a5:	48 8b 55 f8          	mov    -0x8(%rbp),%rdx
    87a9:	64 48 2b 14 25 28 00 	sub    %fs:0x28,%rdx
    87b0:	00 00 
    87b2:	74 05                	je     87b9 <_ZL19cellpool_allocblocki+0x16e>
    87b4:	e8 f7 9b ff ff       	call   23b0 <__stack_chk_fail@plt>
    87b9:	c9                   	leave  
    87ba:	c3                   	ret    

00000000000087bb <_Z13cellpool_initP8cellpooli>:
    87bb:	f3 0f 1e fa          	endbr64 
    87bf:	55                   	push   %rbp
    87c0:	48 89 e5             	mov    %rsp,%rbp
    87c3:	48 83 ec 20          	sub    $0x20,%rsp
    87c7:	48 89 7d e8          	mov    %rdi,-0x18(%rbp)
    87cb:	89 75 e4             	mov    %esi,-0x1c(%rbp)
    87ce:	c7 45 fc 00 04 00 00 	movl   $0x400,-0x4(%rbp)
    87d5:	48 83 7d e8 00       	cmpq   $0x0,-0x18(%rbp)
    87da:	75 28                	jne    8804 <_Z13cellpool_initP8cellpooli+0x49>
    87dc:	48 8d 05 5d 1c 00 00 	lea    0x1c5d(%rip),%rax        # a440 <_ZL4Zero+0x74>
    87e3:	48 89 c1             	mov    %rax,%rcx
    87e6:	ba 53 00 00 00       	mov    $0x53,%edx
    87eb:	48 8d 05 05 1c 00 00 	lea    0x1c05(%rip),%rax        # a3f7 <_ZL4Zero+0x2b>
    87f2:	48 89 c6             	mov    %rax,%rsi
    87f5:	48 8d 05 67 1c 00 00 	lea    0x1c67(%rip),%rax        # a463 <_ZL4Zero+0x97>
    87fc:	48 89 c7             	mov    %rax,%rdi
    87ff:	e8 2c 9b ff ff       	call   2330 <__assert_fail@plt>
    8804:	83 7d e4 00          	cmpl   $0x0,-0x1c(%rbp)
    8808:	7f 28                	jg     8832 <_Z13cellpool_initP8cellpooli+0x77>
    880a:	48 8d 05 2f 1c 00 00 	lea    0x1c2f(%rip),%rax        # a440 <_ZL4Zero+0x74>
    8811:	48 89 c1             	mov    %rax,%rcx
    8814:	ba 54 00 00 00       	mov    $0x54,%edx
    8819:	48 8d 05 d7 1b 00 00 	lea    0x1bd7(%rip),%rax        # a3f7 <_ZL4Zero+0x2b>
    8820:	48 89 c6             	mov    %rax,%rsi
    8823:	48 8d 05 46 1c 00 00 	lea    0x1c46(%rip),%rax        # a470 <_ZL4Zero+0xa4>
    882a:	48 89 c7             	mov    %rax,%rdi
    882d:	e8 fe 9a ff ff       	call   2330 <__assert_fail@plt>
    8832:	8b 45 e4             	mov    -0x1c(%rbp),%eax
    8835:	8d 50 0f             	lea    0xf(%rax),%edx
    8838:	85 c0                	test   %eax,%eax
    883a:	0f 48 c2             	cmovs  %edx,%eax
    883d:	c1 f8 04             	sar    $0x4,%eax
    8840:	8d 14 85 00 00 00 00 	lea    0x0(,%rax,4),%edx
    8847:	48 8b 45 e8          	mov    -0x18(%rbp),%rax
    884b:	89 50 08             	mov    %edx,0x8(%rax)
    884e:	48 8b 45 e8          	mov    -0x18(%rbp),%rax
    8852:	8b 40 08             	mov    0x8(%rax),%eax
    8855:	39 45 fc             	cmp    %eax,-0x4(%rbp)
    8858:	7f 09                	jg     8863 <_Z13cellpool_initP8cellpooli+0xa8>
    885a:	48 8b 45 e8          	mov    -0x18(%rbp),%rax
    885e:	8b 40 08             	mov    0x8(%rax),%eax
    8861:	eb 03                	jmp    8866 <_Z13cellpool_initP8cellpooli+0xab>
    8863:	8b 45 fc             	mov    -0x4(%rbp),%eax
    8866:	48 8b 55 e8          	mov    -0x18(%rbp),%rdx
    886a:	89 42 08             	mov    %eax,0x8(%rdx)
    886d:	48 8b 45 e8          	mov    -0x18(%rbp),%rax
    8871:	8b 40 08             	mov    0x8(%rax),%eax
    8874:	89 c7                	mov    %eax,%edi
    8876:	e8 d0 fd ff ff       	call   864b <_ZL19cellpool_allocblocki>
    887b:	48 8b 55 e8          	mov    -0x18(%rbp),%rdx
    887f:	48 89 42 10          	mov    %rax,0x10(%rdx)
    8883:	48 8b 45 e8          	mov    -0x18(%rbp),%rax
    8887:	48 8b 40 10          	mov    0x10(%rax),%rax
    888b:	48 8d 90 80 00 00 00 	lea    0x80(%rax),%rdx
    8892:	48 8b 45 e8          	mov    -0x18(%rbp),%rax
    8896:	48 89 10             	mov    %rdx,(%rax)
    8899:	90                   	nop
    889a:	c9                   	leave  
    889b:	c3                   	ret    

000000000000889c <_Z16cellpool_getcellP8cellpool>:
    889c:	f3 0f 1e fa          	endbr64 
    88a0:	55                   	push   %rbp
    88a1:	48 89 e5             	mov    %rsp,%rbp
    88a4:	48 83 ec 20          	sub    $0x20,%rsp
    88a8:	48 89 7d e8          	mov    %rdi,-0x18(%rbp)
    88ac:	48 83 7d e8 00       	cmpq   $0x0,-0x18(%rbp)
    88b1:	75 28                	jne    88db <_Z16cellpool_getcellP8cellpool+0x3f>
    88b3:	48 8d 05 c6 1b 00 00 	lea    0x1bc6(%rip),%rax        # a480 <_ZL4Zero+0xb4>
    88ba:	48 89 c1             	mov    %rax,%rcx
    88bd:	ba 62 00 00 00       	mov    $0x62,%edx
    88c2:	48 8d 05 2e 1b 00 00 	lea    0x1b2e(%rip),%rax        # a3f7 <_ZL4Zero+0x2b>
    88c9:	48 89 c6             	mov    %rax,%rsi
    88cc:	48 8d 05 90 1b 00 00 	lea    0x1b90(%rip),%rax        # a463 <_ZL4Zero+0x97>
    88d3:	48 89 c7             	mov    %rax,%rdi
    88d6:	e8 55 9a ff ff       	call   2330 <__assert_fail@plt>
    88db:	48 8b 45 e8          	mov    -0x18(%rbp),%rax
    88df:	48 8b 00             	mov    (%rax),%rax
    88e2:	48 85 c0             	test   %rax,%rax
    88e5:	75 54                	jne    893b <_Z16cellpool_getcellP8cellpool+0x9f>
    88e7:	48 8b 45 e8          	mov    -0x18(%rbp),%rax
    88eb:	8b 40 08             	mov    0x8(%rax),%eax
    88ee:	89 c7                	mov    %eax,%edi
    88f0:	e8 56 fd ff ff       	call   864b <_ZL19cellpool_allocblocki>
    88f5:	48 89 45 f0          	mov    %rax,-0x10(%rbp)
    88f9:	48 8b 45 e8          	mov    -0x18(%rbp),%rax
    88fd:	8b 40 08             	mov    0x8(%rax),%eax
    8900:	8d 14 00             	lea    (%rax,%rax,1),%edx
    8903:	48 8b 45 e8          	mov    -0x18(%rbp),%rax
    8907:	89 50 08             	mov    %edx,0x8(%rax)
    890a:	48 8b 45 e8          	mov    -0x18(%rbp),%rax
    890e:	48 8b 50 10          	mov    0x10(%rax),%rdx
    8912:	48 8b 45 f0          	mov    -0x10(%rbp),%rax
    8916:	48 89 10             	mov    %rdx,(%rax)
    8919:	48 8b 45 e8          	mov    -0x18(%rbp),%rax
    891d:	48 8b 55 f0          	mov    -0x10(%rbp),%rdx
    8921:	48 89 50 10          	mov    %rdx,0x10(%rax)
    8925:	48 8b 45 e8          	mov    -0x18(%rbp),%rax
    8929:	48 8b 40 10          	mov    0x10(%rax),%rax
    892d:	48 8d 90 80 00 00 00 	lea    0x80(%rax),%rdx
    8934:	48 8b 45 e8          	mov    -0x18(%rbp),%rax
    8938:	48 89 10             	mov    %rdx,(%rax)
    893b:	48 8b 45 e8          	mov    -0x18(%rbp),%rax
    893f:	48 8b 00             	mov    (%rax),%rax
    8942:	48 89 45 f8          	mov    %rax,-0x8(%rbp)
    8946:	48 8b 45 f8          	mov    -0x8(%rbp),%rax
    894a:	48 8b 90 40 03 00 00 	mov    0x340(%rax),%rdx
    8951:	48 8b 45 e8          	mov    -0x18(%rbp),%rax
    8955:	48 89 10             	mov    %rdx,(%rax)
    8958:	48 8b 45 f8          	mov    -0x8(%rbp),%rax
    895c:	48 c7 80 40 03 00 00 	movq   $0x0,0x340(%rax)
    8963:	00 00 00 00 
    8967:	48 8b 45 f8          	mov    -0x8(%rbp),%rax
    896b:	c9                   	leave  
    896c:	c3                   	ret    

000000000000896d <_Z19cellpool_returncellP8cellpoolP4Cell>:
    896d:	f3 0f 1e fa          	endbr64 
    8971:	55                   	push   %rbp
    8972:	48 89 e5             	mov    %rsp,%rbp
    8975:	48 83 ec 10          	sub    $0x10,%rsp
    8979:	48 89 7d f8          	mov    %rdi,-0x8(%rbp)
    897d:	48 89 75 f0          	mov    %rsi,-0x10(%rbp)
    8981:	48 83 7d f8 00       	cmpq   $0x0,-0x8(%rbp)
    8986:	75 28                	jne    89b0 <_Z19cellpool_returncellP8cellpoolP4Cell+0x43>
    8988:	48 8d 05 19 1b 00 00 	lea    0x1b19(%rip),%rax        # a4a8 <_ZL4Zero+0xdc>
    898f:	48 89 c1             	mov    %rax,%rcx
    8992:	ba 77 00 00 00       	mov    $0x77,%edx
    8997:	48 8d 05 59 1a 00 00 	lea    0x1a59(%rip),%rax        # a3f7 <_ZL4Zero+0x2b>
    899e:	48 89 c6             	mov    %rax,%rsi
    89a1:	48 8d 05 bb 1a 00 00 	lea    0x1abb(%rip),%rax        # a463 <_ZL4Zero+0x97>
    89a8:	48 89 c7             	mov    %rax,%rdi
    89ab:	e8 80 99 ff ff       	call   2330 <__assert_fail@plt>
    89b0:	48 83 7d f0 00       	cmpq   $0x0,-0x10(%rbp)
    89b5:	75 28                	jne    89df <_Z19cellpool_returncellP8cellpoolP4Cell+0x72>
    89b7:	48 8d 05 ea 1a 00 00 	lea    0x1aea(%rip),%rax        # a4a8 <_ZL4Zero+0xdc>
    89be:	48 89 c1             	mov    %rax,%rcx
    89c1:	ba 78 00 00 00       	mov    $0x78,%edx
    89c6:	48 8d 05 2a 1a 00 00 	lea    0x1a2a(%rip),%rax        # a3f7 <_ZL4Zero+0x2b>
    89cd:	48 89 c6             	mov    %rax,%rsi
    89d0:	48 8d 05 fc 1a 00 00 	lea    0x1afc(%rip),%rax        # a4d3 <_ZL4Zero+0x107>
    89d7:	48 89 c7             	mov    %rax,%rdi
    89da:	e8 51 99 ff ff       	call   2330 <__assert_fail@plt>
    89df:	48 8b 45 f8          	mov    -0x8(%rbp),%rax
    89e3:	48 8b 10             	mov    (%rax),%rdx
    89e6:	48 8b 45 f0          	mov    -0x10(%rbp),%rax
    89ea:	48 89 90 40 03 00 00 	mov    %rdx,0x340(%rax)
    89f1:	48 8b 45 f8          	mov    -0x8(%rbp),%rax
    89f5:	48 8b 55 f0          	mov    -0x10(%rbp),%rdx
    89f9:	48 89 10             	mov    %rdx,(%rax)
    89fc:	90                   	nop
    89fd:	c9                   	leave  
    89fe:	c3                   	ret    

00000000000089ff <_Z16cellpool_destroyP8cellpool>:
    89ff:	f3 0f 1e fa          	endbr64 
    8a03:	55                   	push   %rbp
    8a04:	48 89 e5             	mov    %rsp,%rbp
    8a07:	48 83 ec 20          	sub    $0x20,%rsp
    8a0b:	48 89 7d e8          	mov    %rdi,-0x18(%rbp)
    8a0f:	48 83 7d e8 00       	cmpq   $0x0,-0x18(%rbp)
    8a14:	75 28                	jne    8a3e <_Z16cellpool_destroyP8cellpool+0x3f>
    8a16:	48 8d 05 c3 1a 00 00 	lea    0x1ac3(%rip),%rax        # a4e0 <_ZL4Zero+0x114>
    8a1d:	48 89 c1             	mov    %rax,%rcx
    8a20:	ba 7f 00 00 00       	mov    $0x7f,%edx
    8a25:	48 8d 05 cb 19 00 00 	lea    0x19cb(%rip),%rax        # a3f7 <_ZL4Zero+0x2b>
    8a2c:	48 89 c6             	mov    %rax,%rsi
    8a2f:	48 8d 05 2d 1a 00 00 	lea    0x1a2d(%rip),%rax        # a463 <_ZL4Zero+0x97>
    8a36:	48 89 c7             	mov    %rax,%rdi
    8a39:	e8 f2 98 ff ff       	call   2330 <__assert_fail@plt>
    8a3e:	48 8b 45 e8          	mov    -0x18(%rbp),%rax
    8a42:	48 8b 40 10          	mov    0x10(%rax),%rax
    8a46:	48 89 45 f0          	mov    %rax,-0x10(%rbp)
    8a4a:	eb 1f                	jmp    8a6b <_Z16cellpool_destroyP8cellpool+0x6c>
    8a4c:	48 8b 45 f0          	mov    -0x10(%rbp),%rax
    8a50:	48 89 45 f8          	mov    %rax,-0x8(%rbp)
    8a54:	48 8b 45 f0          	mov    -0x10(%rbp),%rax
    8a58:	48 8b 00             	mov    (%rax),%rax
    8a5b:	48 89 45 f0          	mov    %rax,-0x10(%rbp)
    8a5f:	48 8b 45 f8          	mov    -0x8(%rbp),%rax
    8a63:	48 89 c7             	mov    %rax,%rdi
    8a66:	e8 65 99 ff ff       	call   23d0 <free@plt>
    8a6b:	48 83 7d f0 00       	cmpq   $0x0,-0x10(%rbp)
    8a70:	75 da                	jne    8a4c <_Z16cellpool_destroyP8cellpool+0x4d>
    8a72:	90                   	nop
    8a73:	90                   	nop
    8a74:	c9                   	leave  
    8a75:	c3                   	ret    

0000000000008a76 <_Z41__static_initialization_and_destruction_0ii>:
    8a76:	f3 0f 1e fa          	endbr64 
    8a7a:	55                   	push   %rbp
    8a7b:	48 89 e5             	mov    %rsp,%rbp
    8a7e:	48 83 ec 10          	sub    $0x10,%rsp
    8a82:	89 7d fc             	mov    %edi,-0x4(%rbp)
    8a85:	89 75 f8             	mov    %esi,-0x8(%rbp)
    8a88:	83 7d fc 01          	cmpl   $0x1,-0x4(%rbp)
    8a8c:	0f 85 b6 00 00 00    	jne    8b48 <_Z41__static_initialization_and_destruction_0ii+0xd2>
    8a92:	81 7d f8 ff ff 00 00 	cmpl   $0xffff,-0x8(%rbp)
    8a99:	0f 85 a9 00 00 00    	jne    8b48 <_Z41__static_initialization_and_destruction_0ii+0xd2>
    8a9f:	48 8d 05 7a 49 00 00 	lea    0x497a(%rip),%rax        # d420 <_ZStL8__ioinit>
    8aa6:	48 89 c7             	mov    %rax,%rdi
    8aa9:	e8 02 9a ff ff       	call   24b0 <_ZNSt8ios_base4InitC1Ev@plt>
    8aae:	48 8d 05 53 45 00 00 	lea    0x4553(%rip),%rax        # d008 <__dso_handle>
    8ab5:	48 89 c2             	mov    %rax,%rdx
    8ab8:	48 8d 05 61 49 00 00 	lea    0x4961(%rip),%rax        # d420 <_ZStL8__ioinit>
    8abf:	48 89 c6             	mov    %rax,%rsi
    8ac2:	48 8b 05 2f 45 00 00 	mov    0x452f(%rip),%rax        # cff8 <_ZNSt8ios_base4InitD1Ev@GLIBCXX_3.4>
    8ac9:	48 89 c7             	mov    %rax,%rdi
    8acc:	e8 8f 98 ff ff       	call   2360 <__cxa_atexit@plt>
    8ad1:	66 0f ef d2          	pxor   %xmm2,%xmm2
    8ad5:	f3 0f 10 0d 2b 1a 00 	movss  0x1a2b(%rip),%xmm1        # a508 <_ZL4Zero+0x13c>
    8adc:	00 
    8add:	8b 05 21 1a 00 00    	mov    0x1a21(%rip),%eax        # a504 <_ZL4Zero+0x138>
    8ae3:	66 0f 6e c0          	movd   %eax,%xmm0
    8ae7:	48 8d 05 3a 49 00 00 	lea    0x493a(%rip),%rax        # d428 <_ZL20externalAcceleration>
    8aee:	48 89 c7             	mov    %rax,%rdi
    8af1:	e8 f0 f4 ff ff       	call   7fe6 <_ZN4Vec3C1Efff>
    8af6:	f3 0f 10 15 0e 1a 00 	movss  0x1a0e(%rip),%xmm2        # a50c <_ZL4Zero+0x140>
    8afd:	00 
    8afe:	f3 0f 10 0d 0a 1a 00 	movss  0x1a0a(%rip),%xmm1        # a510 <_ZL4Zero+0x144>
    8b05:	00 
    8b06:	8b 05 00 1a 00 00    	mov    0x1a00(%rip),%eax        # a50c <_ZL4Zero+0x140>
    8b0c:	66 0f 6e c0          	movd   %eax,%xmm0
    8b10:	48 8d 05 21 49 00 00 	lea    0x4921(%rip),%rax        # d438 <_ZL9domainMin>
    8b17:	48 89 c7             	mov    %rax,%rdi
    8b1a:	e8 c7 f4 ff ff       	call   7fe6 <_ZN4Vec3C1Efff>
    8b1f:	f3 0f 10 15 ed 19 00 	movss  0x19ed(%rip),%xmm2        # a514 <_ZL4Zero+0x148>
    8b26:	00 
    8b27:	f3 0f 10 0d e9 19 00 	movss  0x19e9(%rip),%xmm1        # a518 <_ZL4Zero+0x14c>
    8b2e:	00 
    8b2f:	8b 05 df 19 00 00    	mov    0x19df(%rip),%eax        # a514 <_ZL4Zero+0x148>
    8b35:	66 0f 6e c0          	movd   %eax,%xmm0
    8b39:	48 8d 05 08 49 00 00 	lea    0x4908(%rip),%rax        # d448 <_ZL9domainMax>
    8b40:	48 89 c7             	mov    %rax,%rdi
    8b43:	e8 9e f4 ff ff       	call   7fe6 <_ZN4Vec3C1Efff>
    8b48:	90                   	nop
    8b49:	c9                   	leave  
    8b4a:	c3                   	ret    

0000000000008b4b <_GLOBAL__sub_I__Z13cellpool_initP8cellpooli>:
    8b4b:	f3 0f 1e fa          	endbr64 
    8b4f:	55                   	push   %rbp
    8b50:	48 89 e5             	mov    %rsp,%rbp
    8b53:	be ff ff 00 00       	mov    $0xffff,%esi
    8b58:	bf 01 00 00 00       	mov    $0x1,%edi
    8b5d:	e8 14 ff ff ff       	call   8a76 <_Z41__static_initialization_and_destruction_0ii>
    8b62:	5d                   	pop    %rbp
    8b63:	c3                   	ret    

0000000000008b64 <_ZL15Not_ImplementedPKcS0_j>:
    8b64:	55                   	push   %rbp
    8b65:	48 89 e5             	mov    %rsp,%rbp
    8b68:	48 83 ec 20          	sub    $0x20,%rsp
    8b6c:	48 89 7d f8          	mov    %rdi,-0x8(%rbp)
    8b70:	48 89 75 f0          	mov    %rsi,-0x10(%rbp)
    8b74:	89 55 ec             	mov    %edx,-0x14(%rbp)
    8b77:	48 8b 05 e2 45 00 00 	mov    0x45e2(%rip),%rax        # d160 <stderr@GLIBC_2.2.5>
    8b7e:	8b 75 ec             	mov    -0x14(%rbp),%esi
    8b81:	48 8b 4d f0          	mov    -0x10(%rbp),%rcx
    8b85:	48 8b 55 f8          	mov    -0x8(%rbp),%rdx
    8b89:	41 89 f0             	mov    %esi,%r8d
    8b8c:	48 8d 35 9d 19 00 00 	lea    0x199d(%rip),%rsi        # a530 <_ZL22PARSEC_PROCESS_PRIVATE+0x8>
    8b93:	48 89 c7             	mov    %rax,%rdi
    8b96:	b8 00 00 00 00       	mov    $0x0,%eax
    8b9b:	e8 c0 98 ff ff       	call   2460 <fprintf@plt>
    8ba0:	bf 01 00 00 00       	mov    $0x1,%edi
    8ba5:	e8 46 98 ff ff       	call   23f0 <exit@plt>

0000000000008baa <_Z19parsec_barrier_initP16parsec_barrier_tPKij>:
    8baa:	f3 0f 1e fa          	endbr64 
    8bae:	55                   	push   %rbp
    8baf:	48 89 e5             	mov    %rsp,%rbp
    8bb2:	48 83 ec 30          	sub    $0x30,%rsp
    8bb6:	48 89 7d e8          	mov    %rdi,-0x18(%rbp)
    8bba:	48 89 75 e0          	mov    %rsi,-0x20(%rbp)
    8bbe:	89 55 dc             	mov    %edx,-0x24(%rbp)
    8bc1:	48 83 7d e8 00       	cmpq   $0x0,-0x18(%rbp)
    8bc6:	75 0a                	jne    8bd2 <_Z19parsec_barrier_initP16parsec_barrier_tPKij+0x28>
    8bc8:	b8 16 00 00 00       	mov    $0x16,%eax
    8bcd:	e9 9a 00 00 00       	jmp    8c6c <_Z19parsec_barrier_initP16parsec_barrier_tPKij+0xc2>
    8bd2:	83 7d dc 00          	cmpl   $0x0,-0x24(%rbp)
    8bd6:	75 0a                	jne    8be2 <_Z19parsec_barrier_initP16parsec_barrier_tPKij+0x38>
    8bd8:	b8 16 00 00 00       	mov    $0x16,%eax
    8bdd:	e9 8a 00 00 00       	jmp    8c6c <_Z19parsec_barrier_initP16parsec_barrier_tPKij+0xc2>
    8be2:	48 83 7d e0 00       	cmpq   $0x0,-0x20(%rbp)
    8be7:	74 29                	je     8c12 <_Z19parsec_barrier_initP16parsec_barrier_tPKij+0x68>
    8be9:	48 8b 45 e0          	mov    -0x20(%rbp),%rax
    8bed:	8b 00                	mov    (%rax),%eax
    8bef:	83 f8 01             	cmp    $0x1,%eax
    8bf2:	75 1e                	jne    8c12 <_Z19parsec_barrier_initP16parsec_barrier_tPKij+0x68>
    8bf4:	ba 45 00 00 00       	mov    $0x45,%edx
    8bf9:	48 8d 05 88 19 00 00 	lea    0x1988(%rip),%rax        # a588 <_ZL16SPIN_COUNTER_MAX+0x8>
    8c00:	48 89 c6             	mov    %rax,%rsi
    8c03:	48 8d 05 91 19 00 00 	lea    0x1991(%rip),%rax        # a59b <_ZL16SPIN_COUNTER_MAX+0x1b>
    8c0a:	48 89 c7             	mov    %rax,%rdi
    8c0d:	e8 52 ff ff ff       	call   8b64 <_ZL15Not_ImplementedPKcS0_j>
    8c12:	48 8b 45 e8          	mov    -0x18(%rbp),%rax
    8c16:	8b 55 dc             	mov    -0x24(%rbp),%edx
    8c19:	89 50 58             	mov    %edx,0x58(%rax)
    8c1c:	48 8b 45 e8          	mov    -0x18(%rbp),%rax
    8c20:	c7 40 5c 00 00 00 00 	movl   $0x0,0x5c(%rax)
    8c27:	48 8b 45 e8          	mov    -0x18(%rbp),%rax
    8c2b:	c7 40 60 01 00 00 00 	movl   $0x1,0x60(%rax)
    8c32:	48 8b 45 e8          	mov    -0x18(%rbp),%rax
    8c36:	be 00 00 00 00       	mov    $0x0,%esi
    8c3b:	48 89 c7             	mov    %rax,%rdi
    8c3e:	e8 4d 98 ff ff       	call   2490 <pthread_mutex_init@plt>
    8c43:	89 45 fc             	mov    %eax,-0x4(%rbp)
    8c46:	83 7d fc 00          	cmpl   $0x0,-0x4(%rbp)
    8c4a:	74 05                	je     8c51 <_Z19parsec_barrier_initP16parsec_barrier_tPKij+0xa7>
    8c4c:	8b 45 fc             	mov    -0x4(%rbp),%eax
    8c4f:	eb 1b                	jmp    8c6c <_Z19parsec_barrier_initP16parsec_barrier_tPKij+0xc2>
    8c51:	48 8b 45 e8          	mov    -0x18(%rbp),%rax
    8c55:	48 83 c0 28          	add    $0x28,%rax
    8c59:	be 00 00 00 00       	mov    $0x0,%esi
    8c5e:	48 89 c7             	mov    %rax,%rdi
    8c61:	e8 7a 97 ff ff       	call   23e0 <pthread_cond_init@plt>
    8c66:	89 45 fc             	mov    %eax,-0x4(%rbp)
    8c69:	8b 45 fc             	mov    -0x4(%rbp),%eax
    8c6c:	c9                   	leave  
    8c6d:	c3                   	ret    

0000000000008c6e <_Z22parsec_barrier_destroyP16parsec_barrier_t>:
    8c6e:	f3 0f 1e fa          	endbr64 
    8c72:	55                   	push   %rbp
    8c73:	48 89 e5             	mov    %rsp,%rbp
    8c76:	48 83 ec 20          	sub    $0x20,%rsp
    8c7a:	48 89 7d e8          	mov    %rdi,-0x18(%rbp)
    8c7e:	48 83 7d e8 00       	cmpq   $0x0,-0x18(%rbp)
    8c83:	75 28                	jne    8cad <_Z22parsec_barrier_destroyP16parsec_barrier_t+0x3f>
    8c85:	48 8d 05 24 19 00 00 	lea    0x1924(%rip),%rax        # a5b0 <_ZL16SPIN_COUNTER_MAX+0x30>
    8c8c:	48 89 c1             	mov    %rax,%rcx
    8c8f:	ba 54 00 00 00       	mov    $0x54,%edx
    8c94:	48 8d 05 ed 18 00 00 	lea    0x18ed(%rip),%rax        # a588 <_ZL16SPIN_COUNTER_MAX+0x8>
    8c9b:	48 89 c6             	mov    %rax,%rsi
    8c9e:	48 8d 05 39 19 00 00 	lea    0x1939(%rip),%rax        # a5de <_ZL16SPIN_COUNTER_MAX+0x5e>
    8ca5:	48 89 c7             	mov    %rax,%rdi
    8ca8:	e8 83 96 ff ff       	call   2330 <__assert_fail@plt>
    8cad:	48 8b 45 e8          	mov    -0x18(%rbp),%rax
    8cb1:	48 89 c7             	mov    %rax,%rdi
    8cb4:	e8 07 97 ff ff       	call   23c0 <pthread_mutex_destroy@plt>
    8cb9:	89 45 fc             	mov    %eax,-0x4(%rbp)
    8cbc:	83 7d fc 00          	cmpl   $0x0,-0x4(%rbp)
    8cc0:	74 05                	je     8cc7 <_Z22parsec_barrier_destroyP16parsec_barrier_t+0x59>
    8cc2:	8b 45 fc             	mov    -0x4(%rbp),%eax
    8cc5:	eb 3a                	jmp    8d01 <_Z22parsec_barrier_destroyP16parsec_barrier_t+0x93>
    8cc7:	48 8b 45 e8          	mov    -0x18(%rbp),%rax
    8ccb:	48 83 c0 28          	add    $0x28,%rax
    8ccf:	48 89 c7             	mov    %rax,%rdi
    8cd2:	e8 59 98 ff ff       	call   2530 <pthread_cond_destroy@plt>
    8cd7:	89 45 fc             	mov    %eax,-0x4(%rbp)
    8cda:	83 7d fc 00          	cmpl   $0x0,-0x4(%rbp)
    8cde:	74 05                	je     8ce5 <_Z22parsec_barrier_destroyP16parsec_barrier_t+0x77>
    8ce0:	8b 45 fc             	mov    -0x4(%rbp),%eax
    8ce3:	eb 1c                	jmp    8d01 <_Z22parsec_barrier_destroyP16parsec_barrier_t+0x93>
    8ce5:	48 8b 45 e8          	mov    -0x18(%rbp),%rax
    8ce9:	8b 40 5c             	mov    0x5c(%rax),%eax
    8cec:	85 c0                	test   %eax,%eax
    8cee:	0f 95 c0             	setne  %al
    8cf1:	84 c0                	test   %al,%al
    8cf3:	74 07                	je     8cfc <_Z22parsec_barrier_destroyP16parsec_barrier_t+0x8e>
    8cf5:	b8 10 00 00 00       	mov    $0x10,%eax
    8cfa:	eb 05                	jmp    8d01 <_Z22parsec_barrier_destroyP16parsec_barrier_t+0x93>
    8cfc:	b8 00 00 00 00       	mov    $0x0,%eax
    8d01:	c9                   	leave  
    8d02:	c3                   	ret    

0000000000008d03 <_Z26parsec_barrierattr_destroyPi>:
    8d03:	f3 0f 1e fa          	endbr64 
    8d07:	55                   	push   %rbp
    8d08:	48 89 e5             	mov    %rsp,%rbp
    8d0b:	48 89 7d f8          	mov    %rdi,-0x8(%rbp)
    8d0f:	48 83 7d f8 00       	cmpq   $0x0,-0x8(%rbp)
    8d14:	75 07                	jne    8d1d <_Z26parsec_barrierattr_destroyPi+0x1a>
    8d16:	b8 16 00 00 00       	mov    $0x16,%eax
    8d1b:	eb 05                	jmp    8d22 <_Z26parsec_barrierattr_destroyPi+0x1f>
    8d1d:	b8 00 00 00 00       	mov    $0x0,%eax
    8d22:	5d                   	pop    %rbp
    8d23:	c3                   	ret    

0000000000008d24 <_Z23parsec_barrierattr_initPi>:
    8d24:	f3 0f 1e fa          	endbr64 
    8d28:	55                   	push   %rbp
    8d29:	48 89 e5             	mov    %rsp,%rbp
    8d2c:	48 89 7d f8          	mov    %rdi,-0x8(%rbp)
    8d30:	48 83 7d f8 00       	cmpq   $0x0,-0x8(%rbp)
    8d35:	75 07                	jne    8d3e <_Z23parsec_barrierattr_initPi+0x1a>
    8d37:	b8 16 00 00 00       	mov    $0x16,%eax
    8d3c:	eb 05                	jmp    8d43 <_Z23parsec_barrierattr_initPi+0x1f>
    8d3e:	b8 00 00 00 00       	mov    $0x0,%eax
    8d43:	5d                   	pop    %rbp
    8d44:	c3                   	ret    

0000000000008d45 <_Z29parsec_barrierattr_getpsharedPKiPi>:
    8d45:	f3 0f 1e fa          	endbr64 
    8d49:	55                   	push   %rbp
    8d4a:	48 89 e5             	mov    %rsp,%rbp
    8d4d:	48 89 7d f8          	mov    %rdi,-0x8(%rbp)
    8d51:	48 89 75 f0          	mov    %rsi,-0x10(%rbp)
    8d55:	48 83 7d f8 00       	cmpq   $0x0,-0x8(%rbp)
    8d5a:	74 07                	je     8d63 <_Z29parsec_barrierattr_getpsharedPKiPi+0x1e>
    8d5c:	48 83 7d f0 00       	cmpq   $0x0,-0x10(%rbp)
    8d61:	75 07                	jne    8d6a <_Z29parsec_barrierattr_getpsharedPKiPi+0x25>
    8d63:	b8 16 00 00 00       	mov    $0x16,%eax
    8d68:	eb 11                	jmp    8d7b <_Z29parsec_barrierattr_getpsharedPKiPi+0x36>
    8d6a:	48 8b 45 f8          	mov    -0x8(%rbp),%rax
    8d6e:	8b 10                	mov    (%rax),%edx
    8d70:	48 8b 45 f0          	mov    -0x10(%rbp),%rax
    8d74:	89 10                	mov    %edx,(%rax)
    8d76:	b8 00 00 00 00       	mov    $0x0,%eax
    8d7b:	5d                   	pop    %rbp
    8d7c:	c3                   	ret    

0000000000008d7d <_Z29parsec_barrierattr_setpsharedPii>:
    8d7d:	f3 0f 1e fa          	endbr64 
    8d81:	55                   	push   %rbp
    8d82:	48 89 e5             	mov    %rsp,%rbp
    8d85:	48 83 ec 10          	sub    $0x10,%rsp
    8d89:	48 89 7d f8          	mov    %rdi,-0x8(%rbp)
    8d8d:	89 75 f4             	mov    %esi,-0xc(%rbp)
    8d90:	48 83 7d f8 00       	cmpq   $0x0,-0x8(%rbp)
    8d95:	75 07                	jne    8d9e <_Z29parsec_barrierattr_setpsharedPii+0x21>
    8d97:	b8 16 00 00 00       	mov    $0x16,%eax
    8d9c:	eb 45                	jmp    8de3 <_Z29parsec_barrierattr_setpsharedPii+0x66>
    8d9e:	83 7d f4 00          	cmpl   $0x0,-0xc(%rbp)
    8da2:	74 0d                	je     8db1 <_Z29parsec_barrierattr_setpsharedPii+0x34>
    8da4:	83 7d f4 01          	cmpl   $0x1,-0xc(%rbp)
    8da8:	74 07                	je     8db1 <_Z29parsec_barrierattr_setpsharedPii+0x34>
    8daa:	b8 16 00 00 00       	mov    $0x16,%eax
    8daf:	eb 32                	jmp    8de3 <_Z29parsec_barrierattr_setpsharedPii+0x66>
    8db1:	83 7d f4 01          	cmpl   $0x1,-0xc(%rbp)
    8db5:	74 1e                	je     8dd5 <_Z29parsec_barrierattr_setpsharedPii+0x58>
    8db7:	ba 79 00 00 00       	mov    $0x79,%edx
    8dbc:	48 8d 05 c5 17 00 00 	lea    0x17c5(%rip),%rax        # a588 <_ZL16SPIN_COUNTER_MAX+0x8>
    8dc3:	48 89 c6             	mov    %rax,%rsi
    8dc6:	48 8d 05 1f 18 00 00 	lea    0x181f(%rip),%rax        # a5ec <_ZL16SPIN_COUNTER_MAX+0x6c>
    8dcd:	48 89 c7             	mov    %rax,%rdi
    8dd0:	e8 8f fd ff ff       	call   8b64 <_ZL15Not_ImplementedPKcS0_j>
    8dd5:	48 8b 45 f8          	mov    -0x8(%rbp),%rax
    8dd9:	8b 55 f4             	mov    -0xc(%rbp),%edx
    8ddc:	89 10                	mov    %edx,(%rax)
    8dde:	b8 00 00 00 00       	mov    $0x0,%eax
    8de3:	c9                   	leave  
    8de4:	c3                   	ret    

0000000000008de5 <_Z19parsec_barrier_waitP16parsec_barrier_t>:
    8de5:	f3 0f 1e fa          	endbr64 
    8de9:	55                   	push   %rbp
    8dea:	48 89 e5             	mov    %rsp,%rbp
    8ded:	48 83 ec 30          	sub    $0x30,%rsp
    8df1:	48 89 7d d8          	mov    %rdi,-0x28(%rbp)
    8df5:	48 83 7d d8 00       	cmpq   $0x0,-0x28(%rbp)
    8dfa:	75 0a                	jne    8e06 <_Z19parsec_barrier_waitP16parsec_barrier_t+0x21>
    8dfc:	b8 16 00 00 00       	mov    $0x16,%eax
    8e01:	e9 63 02 00 00       	jmp    9069 <_Z19parsec_barrier_waitP16parsec_barrier_t+0x284>
    8e06:	48 8b 45 d8          	mov    -0x28(%rbp),%rax
    8e0a:	48 89 c7             	mov    %rax,%rdi
    8e0d:	e8 5e 96 ff ff       	call   2470 <pthread_mutex_lock@plt>
    8e12:	89 45 e8             	mov    %eax,-0x18(%rbp)
    8e15:	83 7d e8 00          	cmpl   $0x0,-0x18(%rbp)
    8e19:	74 08                	je     8e23 <_Z19parsec_barrier_waitP16parsec_barrier_t+0x3e>
    8e1b:	8b 45 e8             	mov    -0x18(%rbp),%eax
    8e1e:	e9 46 02 00 00       	jmp    9069 <_Z19parsec_barrier_waitP16parsec_barrier_t+0x284>
    8e23:	48 8b 45 d8          	mov    -0x28(%rbp),%rax
    8e27:	8b 40 60             	mov    0x60(%rax),%eax
    8e2a:	85 c0                	test   %eax,%eax
    8e2c:	0f 94 c0             	sete   %al
    8e2f:	84 c0                	test   %al,%al
    8e31:	0f 84 b6 00 00 00    	je     8eed <_Z19parsec_barrier_waitP16parsec_barrier_t+0x108>
    8e37:	48 8b 45 d8          	mov    -0x28(%rbp),%rax
    8e3b:	48 89 c7             	mov    %rax,%rdi
    8e3e:	e8 0d 95 ff ff       	call   2350 <pthread_mutex_unlock@plt>
    8e43:	48 c7 45 f0 00 00 00 	movq   $0x0,-0x10(%rbp)
    8e4a:	00 
    8e4b:	eb 0c                	jmp    8e59 <_Z19parsec_barrier_waitP16parsec_barrier_t+0x74>
    8e4d:	48 8b 45 f0          	mov    -0x10(%rbp),%rax
    8e51:	48 83 c0 01          	add    $0x1,%rax
    8e55:	48 89 45 f0          	mov    %rax,-0x10(%rbp)
    8e59:	48 8b 45 d8          	mov    -0x28(%rbp),%rax
    8e5d:	8b 40 60             	mov    0x60(%rax),%eax
    8e60:	85 c0                	test   %eax,%eax
    8e62:	75 13                	jne    8e77 <_Z19parsec_barrier_waitP16parsec_barrier_t+0x92>
    8e64:	48 8b 45 f0          	mov    -0x10(%rbp),%rax
    8e68:	48 3d b7 88 00 00    	cmp    $0x88b7,%rax
    8e6e:	77 07                	ja     8e77 <_Z19parsec_barrier_waitP16parsec_barrier_t+0x92>
    8e70:	b8 01 00 00 00       	mov    $0x1,%eax
    8e75:	eb 05                	jmp    8e7c <_Z19parsec_barrier_waitP16parsec_barrier_t+0x97>
    8e77:	b8 00 00 00 00       	mov    $0x0,%eax
    8e7c:	84 c0                	test   %al,%al
    8e7e:	75 cd                	jne    8e4d <_Z19parsec_barrier_waitP16parsec_barrier_t+0x68>
    8e80:	90                   	nop
    8e81:	48 8b 45 d8          	mov    -0x28(%rbp),%rax
    8e85:	48 89 c7             	mov    %rax,%rdi
    8e88:	e8 43 94 ff ff       	call   22d0 <pthread_mutex_trylock@plt>
    8e8d:	89 45 e8             	mov    %eax,-0x18(%rbp)
    8e90:	83 7d e8 10          	cmpl   $0x10,-0x18(%rbp)
    8e94:	0f 94 c0             	sete   %al
    8e97:	84 c0                	test   %al,%al
    8e99:	75 e6                	jne    8e81 <_Z19parsec_barrier_waitP16parsec_barrier_t+0x9c>
    8e9b:	83 7d e8 00          	cmpl   $0x0,-0x18(%rbp)
    8e9f:	74 3c                	je     8edd <_Z19parsec_barrier_waitP16parsec_barrier_t+0xf8>
    8ea1:	8b 45 e8             	mov    -0x18(%rbp),%eax
    8ea4:	e9 c0 01 00 00       	jmp    9069 <_Z19parsec_barrier_waitP16parsec_barrier_t+0x284>
    8ea9:	48 8b 45 d8          	mov    -0x28(%rbp),%rax
    8ead:	48 8b 55 d8          	mov    -0x28(%rbp),%rdx
    8eb1:	48 83 c2 28          	add    $0x28,%rdx
    8eb5:	48 89 c6             	mov    %rax,%rsi
    8eb8:	48 89 d7             	mov    %rdx,%rdi
    8ebb:	e8 e0 95 ff ff       	call   24a0 <pthread_cond_wait@plt>
    8ec0:	89 45 e8             	mov    %eax,-0x18(%rbp)
    8ec3:	83 7d e8 00          	cmpl   $0x0,-0x18(%rbp)
    8ec7:	74 14                	je     8edd <_Z19parsec_barrier_waitP16parsec_barrier_t+0xf8>
    8ec9:	48 8b 45 d8          	mov    -0x28(%rbp),%rax
    8ecd:	48 89 c7             	mov    %rax,%rdi
    8ed0:	e8 7b 94 ff ff       	call   2350 <pthread_mutex_unlock@plt>
    8ed5:	8b 45 e8             	mov    -0x18(%rbp),%eax
    8ed8:	e9 8c 01 00 00       	jmp    9069 <_Z19parsec_barrier_waitP16parsec_barrier_t+0x284>
    8edd:	48 8b 45 d8          	mov    -0x28(%rbp),%rax
    8ee1:	8b 40 60             	mov    0x60(%rax),%eax
    8ee4:	85 c0                	test   %eax,%eax
    8ee6:	0f 94 c0             	sete   %al
    8ee9:	84 c0                	test   %al,%al
    8eeb:	75 bc                	jne    8ea9 <_Z19parsec_barrier_waitP16parsec_barrier_t+0xc4>
    8eed:	48 8b 45 d8          	mov    -0x28(%rbp),%rax
    8ef1:	8b 40 5c             	mov    0x5c(%rax),%eax
    8ef4:	85 c0                	test   %eax,%eax
    8ef6:	0f 94 c0             	sete   %al
    8ef9:	0f b6 c0             	movzbl %al,%eax
    8efc:	89 45 ec             	mov    %eax,-0x14(%rbp)
    8eff:	48 8b 45 d8          	mov    -0x28(%rbp),%rax
    8f03:	8b 40 5c             	mov    0x5c(%rax),%eax
    8f06:	8d 50 01             	lea    0x1(%rax),%edx
    8f09:	48 8b 45 d8          	mov    -0x28(%rbp),%rax
    8f0d:	89 50 5c             	mov    %edx,0x5c(%rax)
    8f10:	48 8b 45 d8          	mov    -0x28(%rbp),%rax
    8f14:	8b 50 5c             	mov    0x5c(%rax),%edx
    8f17:	48 8b 45 d8          	mov    -0x28(%rbp),%rax
    8f1b:	8b 40 58             	mov    0x58(%rax),%eax
    8f1e:	39 c2                	cmp    %eax,%edx
    8f20:	0f 93 c0             	setae  %al
    8f23:	84 c0                	test   %al,%al
    8f25:	74 20                	je     8f47 <_Z19parsec_barrier_waitP16parsec_barrier_t+0x162>
    8f27:	48 8b 45 d8          	mov    -0x28(%rbp),%rax
    8f2b:	c7 40 60 00 00 00 00 	movl   $0x0,0x60(%rax)
    8f32:	48 8b 45 d8          	mov    -0x28(%rbp),%rax
    8f36:	48 83 c0 28          	add    $0x28,%rax
    8f3a:	48 89 c7             	mov    %rax,%rdi
    8f3d:	e8 ae 93 ff ff       	call   22f0 <pthread_cond_broadcast@plt>
    8f42:	e9 c7 00 00 00       	jmp    900e <_Z19parsec_barrier_waitP16parsec_barrier_t+0x229>
    8f47:	48 8b 45 d8          	mov    -0x28(%rbp),%rax
    8f4b:	8b 40 60             	mov    0x60(%rax),%eax
    8f4e:	85 c0                	test   %eax,%eax
    8f50:	0f 95 c0             	setne  %al
    8f53:	84 c0                	test   %al,%al
    8f55:	0f 84 b3 00 00 00    	je     900e <_Z19parsec_barrier_waitP16parsec_barrier_t+0x229>
    8f5b:	48 8b 45 d8          	mov    -0x28(%rbp),%rax
    8f5f:	48 89 c7             	mov    %rax,%rdi
    8f62:	e8 e9 93 ff ff       	call   2350 <pthread_mutex_unlock@plt>
    8f67:	48 c7 45 f8 00 00 00 	movq   $0x0,-0x8(%rbp)
    8f6e:	00 
    8f6f:	eb 0c                	jmp    8f7d <_Z19parsec_barrier_waitP16parsec_barrier_t+0x198>
    8f71:	48 8b 45 f8          	mov    -0x8(%rbp),%rax
    8f75:	48 83 c0 01          	add    $0x1,%rax
    8f79:	48 89 45 f8          	mov    %rax,-0x8(%rbp)
    8f7d:	48 8b 45 d8          	mov    -0x28(%rbp),%rax
    8f81:	8b 40 60             	mov    0x60(%rax),%eax
    8f84:	85 c0                	test   %eax,%eax
    8f86:	74 13                	je     8f9b <_Z19parsec_barrier_waitP16parsec_barrier_t+0x1b6>
    8f88:	48 8b 45 f8          	mov    -0x8(%rbp),%rax
    8f8c:	48 3d b7 88 00 00    	cmp    $0x88b7,%rax
    8f92:	77 07                	ja     8f9b <_Z19parsec_barrier_waitP16parsec_barrier_t+0x1b6>
    8f94:	b8 01 00 00 00       	mov    $0x1,%eax
    8f99:	eb 05                	jmp    8fa0 <_Z19parsec_barrier_waitP16parsec_barrier_t+0x1bb>
    8f9b:	b8 00 00 00 00       	mov    $0x0,%eax
    8fa0:	84 c0                	test   %al,%al
    8fa2:	75 cd                	jne    8f71 <_Z19parsec_barrier_waitP16parsec_barrier_t+0x18c>
    8fa4:	90                   	nop
    8fa5:	48 8b 45 d8          	mov    -0x28(%rbp),%rax
    8fa9:	48 89 c7             	mov    %rax,%rdi
    8fac:	e8 1f 93 ff ff       	call   22d0 <pthread_mutex_trylock@plt>
    8fb1:	89 45 e8             	mov    %eax,-0x18(%rbp)
    8fb4:	83 7d e8 10          	cmpl   $0x10,-0x18(%rbp)
    8fb8:	0f 94 c0             	sete   %al
    8fbb:	84 c0                	test   %al,%al
    8fbd:	75 e6                	jne    8fa5 <_Z19parsec_barrier_waitP16parsec_barrier_t+0x1c0>
    8fbf:	83 7d e8 00          	cmpl   $0x0,-0x18(%rbp)
    8fc3:	74 39                	je     8ffe <_Z19parsec_barrier_waitP16parsec_barrier_t+0x219>
    8fc5:	8b 45 e8             	mov    -0x18(%rbp),%eax
    8fc8:	e9 9c 00 00 00       	jmp    9069 <_Z19parsec_barrier_waitP16parsec_barrier_t+0x284>
    8fcd:	48 8b 45 d8          	mov    -0x28(%rbp),%rax
    8fd1:	48 8b 55 d8          	mov    -0x28(%rbp),%rdx
    8fd5:	48 83 c2 28          	add    $0x28,%rdx
    8fd9:	48 89 c6             	mov    %rax,%rsi
    8fdc:	48 89 d7             	mov    %rdx,%rdi
    8fdf:	e8 bc 94 ff ff       	call   24a0 <pthread_cond_wait@plt>
    8fe4:	89 45 e8             	mov    %eax,-0x18(%rbp)
    8fe7:	83 7d e8 00          	cmpl   $0x0,-0x18(%rbp)
    8feb:	74 11                	je     8ffe <_Z19parsec_barrier_waitP16parsec_barrier_t+0x219>
    8fed:	48 8b 45 d8          	mov    -0x28(%rbp),%rax
    8ff1:	48 89 c7             	mov    %rax,%rdi
    8ff4:	e8 57 93 ff ff       	call   2350 <pthread_mutex_unlock@plt>
    8ff9:	8b 45 e8             	mov    -0x18(%rbp),%eax
    8ffc:	eb 6b                	jmp    9069 <_Z19parsec_barrier_waitP16parsec_barrier_t+0x284>
    8ffe:	48 8b 45 d8          	mov    -0x28(%rbp),%rax
    9002:	8b 40 60             	mov    0x60(%rax),%eax
    9005:	85 c0                	test   %eax,%eax
    9007:	0f 95 c0             	setne  %al
    900a:	84 c0                	test   %al,%al
    900c:	75 bf                	jne    8fcd <_Z19parsec_barrier_waitP16parsec_barrier_t+0x1e8>
    900e:	48 8b 45 d8          	mov    -0x28(%rbp),%rax
    9012:	8b 40 5c             	mov    0x5c(%rax),%eax
    9015:	8d 50 ff             	lea    -0x1(%rax),%edx
    9018:	48 8b 45 d8          	mov    -0x28(%rbp),%rax
    901c:	89 50 5c             	mov    %edx,0x5c(%rax)
    901f:	48 8b 45 d8          	mov    -0x28(%rbp),%rax
    9023:	8b 40 5c             	mov    0x5c(%rax),%eax
    9026:	85 c0                	test   %eax,%eax
    9028:	0f 94 c0             	sete   %al
    902b:	84 c0                	test   %al,%al
    902d:	74 1b                	je     904a <_Z19parsec_barrier_waitP16parsec_barrier_t+0x265>
    902f:	48 8b 45 d8          	mov    -0x28(%rbp),%rax
    9033:	c7 40 60 01 00 00 00 	movl   $0x1,0x60(%rax)
    903a:	48 8b 45 d8          	mov    -0x28(%rbp),%rax
    903e:	48 83 c0 28          	add    $0x28,%rax
    9042:	48 89 c7             	mov    %rax,%rdi
    9045:	e8 a6 92 ff ff       	call   22f0 <pthread_cond_broadcast@plt>
    904a:	48 8b 45 d8          	mov    -0x28(%rbp),%rax
    904e:	48 89 c7             	mov    %rax,%rdi
    9051:	e8 fa 92 ff ff       	call   2350 <pthread_mutex_unlock@plt>
    9056:	83 7d ec 00          	cmpl   $0x0,-0x14(%rbp)
    905a:	74 07                	je     9063 <_Z19parsec_barrier_waitP16parsec_barrier_t+0x27e>
    905c:	b8 04 00 00 00       	mov    $0x4,%eax
    9061:	eb 05                	jmp    9068 <_Z19parsec_barrier_waitP16parsec_barrier_t+0x283>
    9063:	b8 00 00 00 00       	mov    $0x0,%eax
    9068:	90                   	nop
    9069:	c9                   	leave  
    906a:	c3                   	ret    

Disassembly of section .fini:

000000000000906c <_fini>:
    906c:	f3 0f 1e fa          	endbr64 
    9070:	48 83 ec 08          	sub    $0x8,%rsp
    9074:	48 83 c4 08          	add    $0x8,%rsp
    9078:	c3                   	ret    
