
/home/vigarov/temp/parsec-benchmark/pkgs/kernels/streamcluster/inst/amd64-linux.gcc/bin/streamcluster:     file format elf64-x86-64


Disassembly of section .init:

0000000000002000 <_init>:
    2000:	f3 0f 1e fa          	endbr64 
    2004:	48 83 ec 08          	sub    $0x8,%rsp
    2008:	48 8b 05 d9 7f 00 00 	mov    0x7fd9(%rip),%rax        # 9fe8 <__gmon_start__@Base>
    200f:	48 85 c0             	test   %rax,%rax
    2012:	74 02                	je     2016 <_init+0x16>
    2014:	ff d0                	call   *%rax
    2016:	48 83 c4 08          	add    $0x8,%rsp
    201a:	c3                   	ret    

Disassembly of section .plt:

0000000000002020 <.plt>:
    2020:	ff 35 62 7e 00 00    	push   0x7e62(%rip)        # 9e88 <_GLOBAL_OFFSET_TABLE_+0x8>
    2026:	f2 ff 25 63 7e 00 00 	bnd jmp *0x7e63(%rip)        # 9e90 <_GLOBAL_OFFSET_TABLE_+0x10>
    202d:	0f 1f 00             	nopl   (%rax)
    2030:	f3 0f 1e fa          	endbr64 
    2034:	68 00 00 00 00       	push   $0x0
    2039:	f2 e9 e1 ff ff ff    	bnd jmp 2020 <_init+0x20>
    203f:	90                   	nop
    2040:	f3 0f 1e fa          	endbr64 
    2044:	68 01 00 00 00       	push   $0x1
    2049:	f2 e9 d1 ff ff ff    	bnd jmp 2020 <_init+0x20>
    204f:	90                   	nop
    2050:	f3 0f 1e fa          	endbr64 
    2054:	68 02 00 00 00       	push   $0x2
    2059:	f2 e9 c1 ff ff ff    	bnd jmp 2020 <_init+0x20>
    205f:	90                   	nop
    2060:	f3 0f 1e fa          	endbr64 
    2064:	68 03 00 00 00       	push   $0x3
    2069:	f2 e9 b1 ff ff ff    	bnd jmp 2020 <_init+0x20>
    206f:	90                   	nop
    2070:	f3 0f 1e fa          	endbr64 
    2074:	68 04 00 00 00       	push   $0x4
    2079:	f2 e9 a1 ff ff ff    	bnd jmp 2020 <_init+0x20>
    207f:	90                   	nop
    2080:	f3 0f 1e fa          	endbr64 
    2084:	68 05 00 00 00       	push   $0x5
    2089:	f2 e9 91 ff ff ff    	bnd jmp 2020 <_init+0x20>
    208f:	90                   	nop
    2090:	f3 0f 1e fa          	endbr64 
    2094:	68 06 00 00 00       	push   $0x6
    2099:	f2 e9 81 ff ff ff    	bnd jmp 2020 <_init+0x20>
    209f:	90                   	nop
    20a0:	f3 0f 1e fa          	endbr64 
    20a4:	68 07 00 00 00       	push   $0x7
    20a9:	f2 e9 71 ff ff ff    	bnd jmp 2020 <_init+0x20>
    20af:	90                   	nop
    20b0:	f3 0f 1e fa          	endbr64 
    20b4:	68 08 00 00 00       	push   $0x8
    20b9:	f2 e9 61 ff ff ff    	bnd jmp 2020 <_init+0x20>
    20bf:	90                   	nop
    20c0:	f3 0f 1e fa          	endbr64 
    20c4:	68 09 00 00 00       	push   $0x9
    20c9:	f2 e9 51 ff ff ff    	bnd jmp 2020 <_init+0x20>
    20cf:	90                   	nop
    20d0:	f3 0f 1e fa          	endbr64 
    20d4:	68 0a 00 00 00       	push   $0xa
    20d9:	f2 e9 41 ff ff ff    	bnd jmp 2020 <_init+0x20>
    20df:	90                   	nop
    20e0:	f3 0f 1e fa          	endbr64 
    20e4:	68 0b 00 00 00       	push   $0xb
    20e9:	f2 e9 31 ff ff ff    	bnd jmp 2020 <_init+0x20>
    20ef:	90                   	nop
    20f0:	f3 0f 1e fa          	endbr64 
    20f4:	68 0c 00 00 00       	push   $0xc
    20f9:	f2 e9 21 ff ff ff    	bnd jmp 2020 <_init+0x20>
    20ff:	90                   	nop
    2100:	f3 0f 1e fa          	endbr64 
    2104:	68 0d 00 00 00       	push   $0xd
    2109:	f2 e9 11 ff ff ff    	bnd jmp 2020 <_init+0x20>
    210f:	90                   	nop
    2110:	f3 0f 1e fa          	endbr64 
    2114:	68 0e 00 00 00       	push   $0xe
    2119:	f2 e9 01 ff ff ff    	bnd jmp 2020 <_init+0x20>
    211f:	90                   	nop
    2120:	f3 0f 1e fa          	endbr64 
    2124:	68 0f 00 00 00       	push   $0xf
    2129:	f2 e9 f1 fe ff ff    	bnd jmp 2020 <_init+0x20>
    212f:	90                   	nop
    2130:	f3 0f 1e fa          	endbr64 
    2134:	68 10 00 00 00       	push   $0x10
    2139:	f2 e9 e1 fe ff ff    	bnd jmp 2020 <_init+0x20>
    213f:	90                   	nop
    2140:	f3 0f 1e fa          	endbr64 
    2144:	68 11 00 00 00       	push   $0x11
    2149:	f2 e9 d1 fe ff ff    	bnd jmp 2020 <_init+0x20>
    214f:	90                   	nop
    2150:	f3 0f 1e fa          	endbr64 
    2154:	68 12 00 00 00       	push   $0x12
    2159:	f2 e9 c1 fe ff ff    	bnd jmp 2020 <_init+0x20>
    215f:	90                   	nop
    2160:	f3 0f 1e fa          	endbr64 
    2164:	68 13 00 00 00       	push   $0x13
    2169:	f2 e9 b1 fe ff ff    	bnd jmp 2020 <_init+0x20>
    216f:	90                   	nop
    2170:	f3 0f 1e fa          	endbr64 
    2174:	68 14 00 00 00       	push   $0x14
    2179:	f2 e9 a1 fe ff ff    	bnd jmp 2020 <_init+0x20>
    217f:	90                   	nop
    2180:	f3 0f 1e fa          	endbr64 
    2184:	68 15 00 00 00       	push   $0x15
    2189:	f2 e9 91 fe ff ff    	bnd jmp 2020 <_init+0x20>
    218f:	90                   	nop
    2190:	f3 0f 1e fa          	endbr64 
    2194:	68 16 00 00 00       	push   $0x16
    2199:	f2 e9 81 fe ff ff    	bnd jmp 2020 <_init+0x20>
    219f:	90                   	nop
    21a0:	f3 0f 1e fa          	endbr64 
    21a4:	68 17 00 00 00       	push   $0x17
    21a9:	f2 e9 71 fe ff ff    	bnd jmp 2020 <_init+0x20>
    21af:	90                   	nop
    21b0:	f3 0f 1e fa          	endbr64 
    21b4:	68 18 00 00 00       	push   $0x18
    21b9:	f2 e9 61 fe ff ff    	bnd jmp 2020 <_init+0x20>
    21bf:	90                   	nop
    21c0:	f3 0f 1e fa          	endbr64 
    21c4:	68 19 00 00 00       	push   $0x19
    21c9:	f2 e9 51 fe ff ff    	bnd jmp 2020 <_init+0x20>
    21cf:	90                   	nop
    21d0:	f3 0f 1e fa          	endbr64 
    21d4:	68 1a 00 00 00       	push   $0x1a
    21d9:	f2 e9 41 fe ff ff    	bnd jmp 2020 <_init+0x20>
    21df:	90                   	nop
    21e0:	f3 0f 1e fa          	endbr64 
    21e4:	68 1b 00 00 00       	push   $0x1b
    21e9:	f2 e9 31 fe ff ff    	bnd jmp 2020 <_init+0x20>
    21ef:	90                   	nop
    21f0:	f3 0f 1e fa          	endbr64 
    21f4:	68 1c 00 00 00       	push   $0x1c
    21f9:	f2 e9 21 fe ff ff    	bnd jmp 2020 <_init+0x20>
    21ff:	90                   	nop
    2200:	f3 0f 1e fa          	endbr64 
    2204:	68 1d 00 00 00       	push   $0x1d
    2209:	f2 e9 11 fe ff ff    	bnd jmp 2020 <_init+0x20>
    220f:	90                   	nop
    2210:	f3 0f 1e fa          	endbr64 
    2214:	68 1e 00 00 00       	push   $0x1e
    2219:	f2 e9 01 fe ff ff    	bnd jmp 2020 <_init+0x20>
    221f:	90                   	nop
    2220:	f3 0f 1e fa          	endbr64 
    2224:	68 1f 00 00 00       	push   $0x1f
    2229:	f2 e9 f1 fd ff ff    	bnd jmp 2020 <_init+0x20>
    222f:	90                   	nop
    2230:	f3 0f 1e fa          	endbr64 
    2234:	68 20 00 00 00       	push   $0x20
    2239:	f2 e9 e1 fd ff ff    	bnd jmp 2020 <_init+0x20>
    223f:	90                   	nop
    2240:	f3 0f 1e fa          	endbr64 
    2244:	68 21 00 00 00       	push   $0x21
    2249:	f2 e9 d1 fd ff ff    	bnd jmp 2020 <_init+0x20>
    224f:	90                   	nop
    2250:	f3 0f 1e fa          	endbr64 
    2254:	68 22 00 00 00       	push   $0x22
    2259:	f2 e9 c1 fd ff ff    	bnd jmp 2020 <_init+0x20>
    225f:	90                   	nop
    2260:	f3 0f 1e fa          	endbr64 
    2264:	68 23 00 00 00       	push   $0x23
    2269:	f2 e9 b1 fd ff ff    	bnd jmp 2020 <_init+0x20>
    226f:	90                   	nop
    2270:	f3 0f 1e fa          	endbr64 
    2274:	68 24 00 00 00       	push   $0x24
    2279:	f2 e9 a1 fd ff ff    	bnd jmp 2020 <_init+0x20>
    227f:	90                   	nop
    2280:	f3 0f 1e fa          	endbr64 
    2284:	68 25 00 00 00       	push   $0x25
    2289:	f2 e9 91 fd ff ff    	bnd jmp 2020 <_init+0x20>
    228f:	90                   	nop
    2290:	f3 0f 1e fa          	endbr64 
    2294:	68 26 00 00 00       	push   $0x26
    2299:	f2 e9 81 fd ff ff    	bnd jmp 2020 <_init+0x20>
    229f:	90                   	nop

Disassembly of section .plt.got:

00000000000022a0 <__cxa_finalize@plt>:
    22a0:	f3 0f 1e fa          	endbr64 
    22a4:	f2 ff 25 25 7d 00 00 	bnd jmp *0x7d25(%rip)        # 9fd0 <__cxa_finalize@GLIBC_2.2.5>
    22ab:	0f 1f 44 00 00       	nopl   0x0(%rax,%rax,1)

Disassembly of section .plt.sec:

00000000000022b0 <_Znam@plt>:
    22b0:	f3 0f 1e fa          	endbr64 
    22b4:	f2 ff 25 dd 7b 00 00 	bnd jmp *0x7bdd(%rip)        # 9e98 <_Znam@GLIBCXX_3.4>
    22bb:	0f 1f 44 00 00       	nopl   0x0(%rax,%rax,1)

00000000000022c0 <pthread_mutex_trylock@plt>:
    22c0:	f3 0f 1e fa          	endbr64 
    22c4:	f2 ff 25 d5 7b 00 00 	bnd jmp *0x7bd5(%rip)        # 9ea0 <pthread_mutex_trylock@GLIBC_2.34>
    22cb:	0f 1f 44 00 00       	nopl   0x0(%rax,%rax,1)

00000000000022d0 <pthread_cond_broadcast@plt>:
    22d0:	f3 0f 1e fa          	endbr64 
    22d4:	f2 ff 25 cd 7b 00 00 	bnd jmp *0x7bcd(%rip)        # 9ea8 <pthread_cond_broadcast@GLIBC_2.3.2>
    22db:	0f 1f 44 00 00       	nopl   0x0(%rax,%rax,1)

00000000000022e0 <memset@plt>:
    22e0:	f3 0f 1e fa          	endbr64 
    22e4:	f2 ff 25 c5 7b 00 00 	bnd jmp *0x7bc5(%rip)        # 9eb0 <memset@GLIBC_2.2.5>
    22eb:	0f 1f 44 00 00       	nopl   0x0(%rax,%rax,1)

00000000000022f0 <__assert_fail@plt>:
    22f0:	f3 0f 1e fa          	endbr64 
    22f4:	f2 ff 25 bd 7b 00 00 	bnd jmp *0x7bbd(%rip)        # 9eb8 <__assert_fail@GLIBC_2.2.5>
    22fb:	0f 1f 44 00 00       	nopl   0x0(%rax,%rax,1)

0000000000002300 <calloc@plt>:
    2300:	f3 0f 1e fa          	endbr64 
    2304:	f2 ff 25 b5 7b 00 00 	bnd jmp *0x7bb5(%rip)        # 9ec0 <calloc@GLIBC_2.2.5>
    230b:	0f 1f 44 00 00       	nopl   0x0(%rax,%rax,1)

0000000000002310 <pthread_mutex_unlock@plt>:
    2310:	f3 0f 1e fa          	endbr64 
    2314:	f2 ff 25 ad 7b 00 00 	bnd jmp *0x7bad(%rip)        # 9ec8 <pthread_mutex_unlock@GLIBC_2.2.5>
    231b:	0f 1f 44 00 00       	nopl   0x0(%rax,%rax,1)

0000000000002320 <lrand48@plt>:
    2320:	f3 0f 1e fa          	endbr64 
    2324:	f2 ff 25 a5 7b 00 00 	bnd jmp *0x7ba5(%rip)        # 9ed0 <lrand48@GLIBC_2.2.5>
    232b:	0f 1f 44 00 00       	nopl   0x0(%rax,%rax,1)

0000000000002330 <log@plt>:
    2330:	f3 0f 1e fa          	endbr64 
    2334:	f2 ff 25 9d 7b 00 00 	bnd jmp *0x7b9d(%rip)        # 9ed8 <log@GLIBC_2.29>
    233b:	0f 1f 44 00 00       	nopl   0x0(%rax,%rax,1)

0000000000002340 <memcpy@plt>:
    2340:	f3 0f 1e fa          	endbr64 
    2344:	f2 ff 25 95 7b 00 00 	bnd jmp *0x7b95(%rip)        # 9ee0 <memcpy@GLIBC_2.14>
    234b:	0f 1f 44 00 00       	nopl   0x0(%rax,%rax,1)

0000000000002350 <__cxa_atexit@plt>:
    2350:	f3 0f 1e fa          	endbr64 
    2354:	f2 ff 25 8d 7b 00 00 	bnd jmp *0x7b8d(%rip)        # 9ee8 <__cxa_atexit@GLIBC_2.2.5>
    235b:	0f 1f 44 00 00       	nopl   0x0(%rax,%rax,1)

0000000000002360 <pthread_join@plt>:
    2360:	f3 0f 1e fa          	endbr64 
    2364:	f2 ff 25 85 7b 00 00 	bnd jmp *0x7b85(%rip)        # 9ef0 <pthread_join@GLIBC_2.34>
    236b:	0f 1f 44 00 00       	nopl   0x0(%rax,%rax,1)

0000000000002370 <strcpy@plt>:
    2370:	f3 0f 1e fa          	endbr64 
    2374:	f2 ff 25 7d 7b 00 00 	bnd jmp *0x7b7d(%rip)        # 9ef8 <strcpy@GLIBC_2.2.5>
    237b:	0f 1f 44 00 00       	nopl   0x0(%rax,%rax,1)

0000000000002380 <fclose@plt>:
    2380:	f3 0f 1e fa          	endbr64 
    2384:	f2 ff 25 75 7b 00 00 	bnd jmp *0x7b75(%rip)        # 9f00 <fclose@GLIBC_2.2.5>
    238b:	0f 1f 44 00 00       	nopl   0x0(%rax,%rax,1)

0000000000002390 <_Znwm@plt>:
    2390:	f3 0f 1e fa          	endbr64 
    2394:	f2 ff 25 6d 7b 00 00 	bnd jmp *0x7b6d(%rip)        # 9f08 <_Znwm@GLIBCXX_3.4>
    239b:	0f 1f 44 00 00       	nopl   0x0(%rax,%rax,1)

00000000000023a0 <_ZdlPvm@plt>:
    23a0:	f3 0f 1e fa          	endbr64 
    23a4:	f2 ff 25 65 7b 00 00 	bnd jmp *0x7b65(%rip)        # 9f10 <_ZdlPvm@CXXABI_1.3.9>
    23ab:	0f 1f 44 00 00       	nopl   0x0(%rax,%rax,1)

00000000000023b0 <__stack_chk_fail@plt>:
    23b0:	f3 0f 1e fa          	endbr64 
    23b4:	f2 ff 25 5d 7b 00 00 	bnd jmp *0x7b5d(%rip)        # 9f18 <__stack_chk_fail@GLIBC_2.4>
    23bb:	0f 1f 44 00 00       	nopl   0x0(%rax,%rax,1)

00000000000023c0 <pthread_mutex_destroy@plt>:
    23c0:	f3 0f 1e fa          	endbr64 
    23c4:	f2 ff 25 55 7b 00 00 	bnd jmp *0x7b55(%rip)        # 9f20 <pthread_mutex_destroy@GLIBC_2.2.5>
    23cb:	0f 1f 44 00 00       	nopl   0x0(%rax,%rax,1)

00000000000023d0 <fflush@plt>:
    23d0:	f3 0f 1e fa          	endbr64 
    23d4:	f2 ff 25 4d 7b 00 00 	bnd jmp *0x7b4d(%rip)        # 9f28 <fflush@GLIBC_2.2.5>
    23db:	0f 1f 44 00 00       	nopl   0x0(%rax,%rax,1)

00000000000023e0 <fopen@plt>:
    23e0:	f3 0f 1e fa          	endbr64 
    23e4:	f2 ff 25 45 7b 00 00 	bnd jmp *0x7b45(%rip)        # 9f30 <fopen@GLIBC_2.2.5>
    23eb:	0f 1f 44 00 00       	nopl   0x0(%rax,%rax,1)

00000000000023f0 <free@plt>:
    23f0:	f3 0f 1e fa          	endbr64 
    23f4:	f2 ff 25 3d 7b 00 00 	bnd jmp *0x7b3d(%rip)        # 9f38 <free@GLIBC_2.2.5>
    23fb:	0f 1f 44 00 00       	nopl   0x0(%rax,%rax,1)

0000000000002400 <pthread_cond_init@plt>:
    2400:	f3 0f 1e fa          	endbr64 
    2404:	f2 ff 25 35 7b 00 00 	bnd jmp *0x7b35(%rip)        # 9f40 <pthread_cond_init@GLIBC_2.3.2>
    240b:	0f 1f 44 00 00       	nopl   0x0(%rax,%rax,1)

0000000000002410 <exit@plt>:
    2410:	f3 0f 1e fa          	endbr64 
    2414:	f2 ff 25 2d 7b 00 00 	bnd jmp *0x7b2d(%rip)        # 9f48 <exit@GLIBC_2.2.5>
    241b:	0f 1f 44 00 00       	nopl   0x0(%rax,%rax,1)

0000000000002420 <fputc@plt>:
    2420:	f3 0f 1e fa          	endbr64 
    2424:	f2 ff 25 25 7b 00 00 	bnd jmp *0x7b25(%rip)        # 9f50 <fputc@GLIBC_2.2.5>
    242b:	0f 1f 44 00 00       	nopl   0x0(%rax,%rax,1)

0000000000002430 <_ZdaPv@plt>:
    2430:	f3 0f 1e fa          	endbr64 
    2434:	f2 ff 25 1d 7b 00 00 	bnd jmp *0x7b1d(%rip)        # 9f58 <_ZdaPv@GLIBCXX_3.4>
    243b:	0f 1f 44 00 00       	nopl   0x0(%rax,%rax,1)

0000000000002440 <malloc@plt>:
    2440:	f3 0f 1e fa          	endbr64 
    2444:	f2 ff 25 15 7b 00 00 	bnd jmp *0x7b15(%rip)        # 9f60 <malloc@GLIBC_2.2.5>
    244b:	0f 1f 44 00 00       	nopl   0x0(%rax,%rax,1)

0000000000002450 <fprintf@plt>:
    2450:	f3 0f 1e fa          	endbr64 
    2454:	f2 ff 25 0d 7b 00 00 	bnd jmp *0x7b0d(%rip)        # 9f68 <fprintf@GLIBC_2.2.5>
    245b:	0f 1f 44 00 00       	nopl   0x0(%rax,%rax,1)

0000000000002460 <pthread_mutex_lock@plt>:
    2460:	f3 0f 1e fa          	endbr64 
    2464:	f2 ff 25 05 7b 00 00 	bnd jmp *0x7b05(%rip)        # 9f70 <pthread_mutex_lock@GLIBC_2.2.5>
    246b:	0f 1f 44 00 00       	nopl   0x0(%rax,%rax,1)

0000000000002470 <pthread_mutex_init@plt>:
    2470:	f3 0f 1e fa          	endbr64 
    2474:	f2 ff 25 fd 7a 00 00 	bnd jmp *0x7afd(%rip)        # 9f78 <pthread_mutex_init@GLIBC_2.2.5>
    247b:	0f 1f 44 00 00       	nopl   0x0(%rax,%rax,1)

0000000000002480 <fread@plt>:
    2480:	f3 0f 1e fa          	endbr64 
    2484:	f2 ff 25 f5 7a 00 00 	bnd jmp *0x7af5(%rip)        # 9f80 <fread@GLIBC_2.2.5>
    248b:	0f 1f 44 00 00       	nopl   0x0(%rax,%rax,1)

0000000000002490 <pthread_cond_wait@plt>:
    2490:	f3 0f 1e fa          	endbr64 
    2494:	f2 ff 25 ed 7a 00 00 	bnd jmp *0x7aed(%rip)        # 9f88 <pthread_cond_wait@GLIBC_2.3.2>
    249b:	0f 1f 44 00 00       	nopl   0x0(%rax,%rax,1)

00000000000024a0 <_ZNSt8ios_base4InitC1Ev@plt>:
    24a0:	f3 0f 1e fa          	endbr64 
    24a4:	f2 ff 25 e5 7a 00 00 	bnd jmp *0x7ae5(%rip)        # 9f90 <_ZNSt8ios_base4InitC1Ev@GLIBCXX_3.4>
    24ab:	0f 1f 44 00 00       	nopl   0x0(%rax,%rax,1)

00000000000024b0 <feof@plt>:
    24b0:	f3 0f 1e fa          	endbr64 
    24b4:	f2 ff 25 dd 7a 00 00 	bnd jmp *0x7add(%rip)        # 9f98 <feof@GLIBC_2.2.5>
    24bb:	0f 1f 44 00 00       	nopl   0x0(%rax,%rax,1)

00000000000024c0 <atoi@plt>:
    24c0:	f3 0f 1e fa          	endbr64 
    24c4:	f2 ff 25 d5 7a 00 00 	bnd jmp *0x7ad5(%rip)        # 9fa0 <atoi@GLIBC_2.2.5>
    24cb:	0f 1f 44 00 00       	nopl   0x0(%rax,%rax,1)

00000000000024d0 <srand48@plt>:
    24d0:	f3 0f 1e fa          	endbr64 
    24d4:	f2 ff 25 cd 7a 00 00 	bnd jmp *0x7acd(%rip)        # 9fa8 <srand48@GLIBC_2.2.5>
    24db:	0f 1f 44 00 00       	nopl   0x0(%rax,%rax,1)

00000000000024e0 <pthread_create@plt>:
    24e0:	f3 0f 1e fa          	endbr64 
    24e4:	f2 ff 25 c5 7a 00 00 	bnd jmp *0x7ac5(%rip)        # 9fb0 <pthread_create@GLIBC_2.34>
    24eb:	0f 1f 44 00 00       	nopl   0x0(%rax,%rax,1)

00000000000024f0 <ferror@plt>:
    24f0:	f3 0f 1e fa          	endbr64 
    24f4:	f2 ff 25 bd 7a 00 00 	bnd jmp *0x7abd(%rip)        # 9fb8 <ferror@GLIBC_2.2.5>
    24fb:	0f 1f 44 00 00       	nopl   0x0(%rax,%rax,1)

0000000000002500 <pthread_cond_destroy@plt>:
    2500:	f3 0f 1e fa          	endbr64 
    2504:	f2 ff 25 b5 7a 00 00 	bnd jmp *0x7ab5(%rip)        # 9fc0 <pthread_cond_destroy@GLIBC_2.3.2>
    250b:	0f 1f 44 00 00       	nopl   0x0(%rax,%rax,1)

0000000000002510 <fwrite@plt>:
    2510:	f3 0f 1e fa          	endbr64 
    2514:	f2 ff 25 ad 7a 00 00 	bnd jmp *0x7aad(%rip)        # 9fc8 <fwrite@GLIBC_2.2.5>
    251b:	0f 1f 44 00 00       	nopl   0x0(%rax,%rax,1)

Disassembly of section .text:

0000000000002520 <_start>:
    2520:	f3 0f 1e fa          	endbr64 
    2524:	31 ed                	xor    %ebp,%ebp
    2526:	49 89 d1             	mov    %rdx,%r9
    2529:	5e                   	pop    %rsi
    252a:	48 89 e2             	mov    %rsp,%rdx
    252d:	48 83 e4 f0          	and    $0xfffffffffffffff0,%rsp
    2531:	50                   	push   %rax
    2532:	54                   	push   %rsp
    2533:	45 31 c0             	xor    %r8d,%r8d
    2536:	31 c9                	xor    %ecx,%ecx
    2538:	48 8d 3d dd 2e 00 00 	lea    0x2edd(%rip),%rdi        # 541c <main>
    253f:	ff 15 93 7a 00 00    	call   *0x7a93(%rip)        # 9fd8 <__libc_start_main@GLIBC_2.34>
    2545:	f4                   	hlt    
    2546:	66 2e 0f 1f 84 00 00 	cs nopw 0x0(%rax,%rax,1)
    254d:	00 00 00 

0000000000002550 <deregister_tm_clones>:
    2550:	48 8d 3d b9 7a 00 00 	lea    0x7ab9(%rip),%rdi        # a010 <__TMC_END__>
    2557:	48 8d 05 b2 7a 00 00 	lea    0x7ab2(%rip),%rax        # a010 <__TMC_END__>
    255e:	48 39 f8             	cmp    %rdi,%rax
    2561:	74 15                	je     2578 <deregister_tm_clones+0x28>
    2563:	48 8b 05 76 7a 00 00 	mov    0x7a76(%rip),%rax        # 9fe0 <_ITM_deregisterTMCloneTable@Base>
    256a:	48 85 c0             	test   %rax,%rax
    256d:	74 09                	je     2578 <deregister_tm_clones+0x28>
    256f:	ff e0                	jmp    *%rax
    2571:	0f 1f 80 00 00 00 00 	nopl   0x0(%rax)
    2578:	c3                   	ret    
    2579:	0f 1f 80 00 00 00 00 	nopl   0x0(%rax)

0000000000002580 <register_tm_clones>:
    2580:	48 8d 3d 89 7a 00 00 	lea    0x7a89(%rip),%rdi        # a010 <__TMC_END__>
    2587:	48 8d 35 82 7a 00 00 	lea    0x7a82(%rip),%rsi        # a010 <__TMC_END__>
    258e:	48 29 fe             	sub    %rdi,%rsi
    2591:	48 89 f0             	mov    %rsi,%rax
    2594:	48 c1 ee 3f          	shr    $0x3f,%rsi
    2598:	48 c1 f8 03          	sar    $0x3,%rax
    259c:	48 01 c6             	add    %rax,%rsi
    259f:	48 d1 fe             	sar    %rsi
    25a2:	74 14                	je     25b8 <register_tm_clones+0x38>
    25a4:	48 8b 05 45 7a 00 00 	mov    0x7a45(%rip),%rax        # 9ff0 <_ITM_registerTMCloneTable@Base>
    25ab:	48 85 c0             	test   %rax,%rax
    25ae:	74 08                	je     25b8 <register_tm_clones+0x38>
    25b0:	ff e0                	jmp    *%rax
    25b2:	66 0f 1f 44 00 00    	nopw   0x0(%rax,%rax,1)
    25b8:	c3                   	ret    
    25b9:	0f 1f 80 00 00 00 00 	nopl   0x0(%rax)

00000000000025c0 <__do_global_dtors_aux>:
    25c0:	f3 0f 1e fa          	endbr64 
    25c4:	80 3d 5d 7a 00 00 00 	cmpb   $0x0,0x7a5d(%rip)        # a028 <completed.0>
    25cb:	75 2b                	jne    25f8 <__do_global_dtors_aux+0x38>
    25cd:	55                   	push   %rbp
    25ce:	48 83 3d fa 79 00 00 	cmpq   $0x0,0x79fa(%rip)        # 9fd0 <__cxa_finalize@GLIBC_2.2.5>
    25d5:	00 
    25d6:	48 89 e5             	mov    %rsp,%rbp
    25d9:	74 0c                	je     25e7 <__do_global_dtors_aux+0x27>
    25db:	48 8b 3d 26 7a 00 00 	mov    0x7a26(%rip),%rdi        # a008 <__dso_handle>
    25e2:	e8 b9 fc ff ff       	call   22a0 <__cxa_finalize@plt>
    25e7:	e8 64 ff ff ff       	call   2550 <deregister_tm_clones>
    25ec:	c6 05 35 7a 00 00 01 	movb   $0x1,0x7a35(%rip)        # a028 <completed.0>
    25f3:	5d                   	pop    %rbp
    25f4:	c3                   	ret    
    25f5:	0f 1f 00             	nopl   (%rax)
    25f8:	c3                   	ret    
    25f9:	0f 1f 80 00 00 00 00 	nopl   0x0(%rax)

0000000000002600 <frame_dummy>:
    2600:	f3 0f 1e fa          	endbr64 
    2604:	e9 77 ff ff ff       	jmp    2580 <register_tm_clones>

0000000000002609 <_Z11isIdenticalPfS_i>:
    2609:	f3 0f 1e fa          	endbr64 
    260d:	55                   	push   %rbp
    260e:	48 89 e5             	mov    %rsp,%rbp
    2611:	48 89 7d e8          	mov    %rdi,-0x18(%rbp)
    2615:	48 89 75 e0          	mov    %rsi,-0x20(%rbp)
    2619:	89 55 dc             	mov    %edx,-0x24(%rbp)
    261c:	c7 45 f8 00 00 00 00 	movl   $0x0,-0x8(%rbp)
    2623:	c7 45 fc 01 00 00 00 	movl   $0x1,-0x4(%rbp)
    262a:	eb 47                	jmp    2673 <_Z11isIdenticalPfS_i+0x6a>
    262c:	8b 45 f8             	mov    -0x8(%rbp),%eax
    262f:	48 98                	cltq   
    2631:	48 8d 14 85 00 00 00 	lea    0x0(,%rax,4),%rdx
    2638:	00 
    2639:	48 8b 45 e8          	mov    -0x18(%rbp),%rax
    263d:	48 01 d0             	add    %rdx,%rax
    2640:	f3 0f 10 00          	movss  (%rax),%xmm0
    2644:	8b 45 f8             	mov    -0x8(%rbp),%eax
    2647:	48 98                	cltq   
    2649:	48 8d 14 85 00 00 00 	lea    0x0(,%rax,4),%rdx
    2650:	00 
    2651:	48 8b 45 e0          	mov    -0x20(%rbp),%rax
    2655:	48 01 d0             	add    %rdx,%rax
    2658:	f3 0f 10 08          	movss  (%rax),%xmm1
    265c:	0f 2e c1             	ucomiss %xmm1,%xmm0
    265f:	7a 05                	jp     2666 <_Z11isIdenticalPfS_i+0x5d>
    2661:	0f 2e c1             	ucomiss %xmm1,%xmm0
    2664:	74 09                	je     266f <_Z11isIdenticalPfS_i+0x66>
    2666:	c7 45 fc 00 00 00 00 	movl   $0x0,-0x4(%rbp)
    266d:	eb 04                	jmp    2673 <_Z11isIdenticalPfS_i+0x6a>
    266f:	83 45 f8 01          	addl   $0x1,-0x8(%rbp)
    2673:	83 7d fc 00          	cmpl   $0x0,-0x4(%rbp)
    2677:	74 08                	je     2681 <_Z11isIdenticalPfS_i+0x78>
    2679:	8b 45 f8             	mov    -0x8(%rbp),%eax
    267c:	3b 45 dc             	cmp    -0x24(%rbp),%eax
    267f:	7c ab                	jl     262c <_Z11isIdenticalPfS_i+0x23>
    2681:	83 7d fc 00          	cmpl   $0x0,-0x4(%rbp)
    2685:	74 07                	je     268e <_Z11isIdenticalPfS_i+0x85>
    2687:	b8 01 00 00 00       	mov    $0x1,%eax
    268c:	eb 05                	jmp    2693 <_Z11isIdenticalPfS_i+0x8a>
    268e:	b8 00 00 00 00       	mov    $0x0,%eax
    2693:	5d                   	pop    %rbp
    2694:	c3                   	ret    

0000000000002695 <_ZL9floatcompPKvS0_>:
    2695:	f3 0f 1e fa          	endbr64 
    2699:	55                   	push   %rbp
    269a:	48 89 e5             	mov    %rsp,%rbp
    269d:	48 89 7d e8          	mov    %rdi,-0x18(%rbp)
    26a1:	48 89 75 e0          	mov    %rsi,-0x20(%rbp)
    26a5:	48 8b 45 e8          	mov    -0x18(%rbp),%rax
    26a9:	f3 0f 10 00          	movss  (%rax),%xmm0
    26ad:	f3 0f 11 45 f8       	movss  %xmm0,-0x8(%rbp)
    26b2:	48 8b 45 e0          	mov    -0x20(%rbp),%rax
    26b6:	f3 0f 10 00          	movss  (%rax),%xmm0
    26ba:	f3 0f 11 45 fc       	movss  %xmm0,-0x4(%rbp)
    26bf:	f3 0f 10 45 f8       	movss  -0x8(%rbp),%xmm0
    26c4:	0f 2f 45 fc          	comiss -0x4(%rbp),%xmm0
    26c8:	76 07                	jbe    26d1 <_ZL9floatcompPKvS0_+0x3c>
    26ca:	b8 01 00 00 00       	mov    $0x1,%eax
    26cf:	eb 17                	jmp    26e8 <_ZL9floatcompPKvS0_+0x53>
    26d1:	f3 0f 10 45 fc       	movss  -0x4(%rbp),%xmm0
    26d6:	0f 2f 45 f8          	comiss -0x8(%rbp),%xmm0
    26da:	76 07                	jbe    26e3 <_ZL9floatcompPKvS0_+0x4e>
    26dc:	b8 ff ff ff ff       	mov    $0xffffffff,%eax
    26e1:	eb 05                	jmp    26e8 <_ZL9floatcompPKvS0_+0x53>
    26e3:	b8 00 00 00 00       	mov    $0x0,%eax
    26e8:	5d                   	pop    %rbp
    26e9:	c3                   	ret    

00000000000026ea <_Z7shuffleP6Points>:
    26ea:	f3 0f 1e fa          	endbr64 
    26ee:	55                   	push   %rbp
    26ef:	48 89 e5             	mov    %rsp,%rbp
    26f2:	48 83 ec 50          	sub    $0x50,%rsp
    26f6:	48 89 7d b8          	mov    %rdi,-0x48(%rbp)
    26fa:	64 48 8b 04 25 28 00 	mov    %fs:0x28,%rax
    2701:	00 00 
    2703:	48 89 45 f8          	mov    %rax,-0x8(%rbp)
    2707:	31 c0                	xor    %eax,%eax
    2709:	48 c7 45 c0 00 00 00 	movq   $0x0,-0x40(%rbp)
    2710:	00 
    2711:	e9 d4 00 00 00       	jmp    27ea <_Z7shuffleP6Points+0x100>
    2716:	e8 05 fc ff ff       	call   2320 <lrand48@plt>
    271b:	48 8b 55 b8          	mov    -0x48(%rbp),%rdx
    271f:	48 8b 12             	mov    (%rdx),%rdx
    2722:	48 89 d1             	mov    %rdx,%rcx
    2725:	48 2b 4d c0          	sub    -0x40(%rbp),%rcx
    2729:	48 99                	cqto   
    272b:	48 f7 f9             	idiv   %rcx
    272e:	48 8b 45 c0          	mov    -0x40(%rbp),%rax
    2732:	48 01 d0             	add    %rdx,%rax
    2735:	48 89 45 c8          	mov    %rax,-0x38(%rbp)
    2739:	48 8b 45 b8          	mov    -0x48(%rbp),%rax
    273d:	48 8b 50 10          	mov    0x10(%rax),%rdx
    2741:	48 8b 45 c0          	mov    -0x40(%rbp),%rax
    2745:	48 c1 e0 05          	shl    $0x5,%rax
    2749:	48 8d 0c 02          	lea    (%rdx,%rax,1),%rcx
    274d:	48 8b 01             	mov    (%rcx),%rax
    2750:	48 8b 51 08          	mov    0x8(%rcx),%rdx
    2754:	48 89 45 d0          	mov    %rax,-0x30(%rbp)
    2758:	48 89 55 d8          	mov    %rdx,-0x28(%rbp)
    275c:	48 8b 41 10          	mov    0x10(%rcx),%rax
    2760:	48 8b 51 18          	mov    0x18(%rcx),%rdx
    2764:	48 89 45 e0          	mov    %rax,-0x20(%rbp)
    2768:	48 89 55 e8          	mov    %rdx,-0x18(%rbp)
    276c:	48 8b 45 b8          	mov    -0x48(%rbp),%rax
    2770:	48 8b 50 10          	mov    0x10(%rax),%rdx
    2774:	48 8b 45 c8          	mov    -0x38(%rbp),%rax
    2778:	48 c1 e0 05          	shl    $0x5,%rax
    277c:	48 8d 34 02          	lea    (%rdx,%rax,1),%rsi
    2780:	48 8b 45 b8          	mov    -0x48(%rbp),%rax
    2784:	48 8b 50 10          	mov    0x10(%rax),%rdx
    2788:	48 8b 45 c0          	mov    -0x40(%rbp),%rax
    278c:	48 c1 e0 05          	shl    $0x5,%rax
    2790:	48 8d 0c 02          	lea    (%rdx,%rax,1),%rcx
    2794:	48 8b 06             	mov    (%rsi),%rax
    2797:	48 8b 56 08          	mov    0x8(%rsi),%rdx
    279b:	48 89 01             	mov    %rax,(%rcx)
    279e:	48 89 51 08          	mov    %rdx,0x8(%rcx)
    27a2:	48 8b 46 10          	mov    0x10(%rsi),%rax
    27a6:	48 8b 56 18          	mov    0x18(%rsi),%rdx
    27aa:	48 89 41 10          	mov    %rax,0x10(%rcx)
    27ae:	48 89 51 18          	mov    %rdx,0x18(%rcx)
    27b2:	48 8b 45 b8          	mov    -0x48(%rbp),%rax
    27b6:	48 8b 50 10          	mov    0x10(%rax),%rdx
    27ba:	48 8b 45 c8          	mov    -0x38(%rbp),%rax
    27be:	48 c1 e0 05          	shl    $0x5,%rax
    27c2:	48 8d 0c 02          	lea    (%rdx,%rax,1),%rcx
    27c6:	48 8b 45 d0          	mov    -0x30(%rbp),%rax
    27ca:	48 8b 55 d8          	mov    -0x28(%rbp),%rdx
    27ce:	48 89 01             	mov    %rax,(%rcx)
    27d1:	48 89 51 08          	mov    %rdx,0x8(%rcx)
    27d5:	48 8b 45 e0          	mov    -0x20(%rbp),%rax
    27d9:	48 8b 55 e8          	mov    -0x18(%rbp),%rdx
    27dd:	48 89 41 10          	mov    %rax,0x10(%rcx)
    27e1:	48 89 51 18          	mov    %rdx,0x18(%rcx)
    27e5:	48 83 45 c0 01       	addq   $0x1,-0x40(%rbp)
    27ea:	48 8b 45 b8          	mov    -0x48(%rbp),%rax
    27ee:	48 8b 00             	mov    (%rax),%rax
    27f1:	48 83 e8 01          	sub    $0x1,%rax
    27f5:	48 39 45 c0          	cmp    %rax,-0x40(%rbp)
    27f9:	0f 8c 17 ff ff ff    	jl     2716 <_Z7shuffleP6Points+0x2c>
    27ff:	90                   	nop
    2800:	48 8b 45 f8          	mov    -0x8(%rbp),%rax
    2804:	64 48 2b 04 25 28 00 	sub    %fs:0x28,%rax
    280b:	00 00 
    280d:	74 05                	je     2814 <_Z7shuffleP6Points+0x12a>
    280f:	e8 9c fb ff ff       	call   23b0 <__stack_chk_fail@plt>
    2814:	c9                   	leave  
    2815:	c3                   	ret    

0000000000002816 <_Z10intshufflePii>:
    2816:	f3 0f 1e fa          	endbr64 
    281a:	55                   	push   %rbp
    281b:	48 89 e5             	mov    %rsp,%rbp
    281e:	48 83 ec 30          	sub    $0x30,%rsp
    2822:	48 89 7d d8          	mov    %rdi,-0x28(%rbp)
    2826:	89 75 d4             	mov    %esi,-0x2c(%rbp)
    2829:	48 c7 45 f0 00 00 00 	movq   $0x0,-0x10(%rbp)
    2830:	00 
    2831:	e9 81 00 00 00       	jmp    28b7 <_Z10intshufflePii+0xa1>
    2836:	e8 e5 fa ff ff       	call   2320 <lrand48@plt>
    283b:	8b 55 d4             	mov    -0x2c(%rbp),%edx
    283e:	48 63 d2             	movslq %edx,%rdx
    2841:	48 89 d1             	mov    %rdx,%rcx
    2844:	48 2b 4d f0          	sub    -0x10(%rbp),%rcx
    2848:	48 99                	cqto   
    284a:	48 f7 f9             	idiv   %rcx
    284d:	48 8b 45 f0          	mov    -0x10(%rbp),%rax
    2851:	48 01 d0             	add    %rdx,%rax
    2854:	48 89 45 f8          	mov    %rax,-0x8(%rbp)
    2858:	48 8b 45 f0          	mov    -0x10(%rbp),%rax
    285c:	48 8d 14 85 00 00 00 	lea    0x0(,%rax,4),%rdx
    2863:	00 
    2864:	48 8b 45 d8          	mov    -0x28(%rbp),%rax
    2868:	48 01 d0             	add    %rdx,%rax
    286b:	8b 00                	mov    (%rax),%eax
    286d:	89 45 ec             	mov    %eax,-0x14(%rbp)
    2870:	48 8b 45 f8          	mov    -0x8(%rbp),%rax
    2874:	48 8d 14 85 00 00 00 	lea    0x0(,%rax,4),%rdx
    287b:	00 
    287c:	48 8b 45 d8          	mov    -0x28(%rbp),%rax
    2880:	48 01 d0             	add    %rdx,%rax
    2883:	48 8b 55 f0          	mov    -0x10(%rbp),%rdx
    2887:	48 8d 0c 95 00 00 00 	lea    0x0(,%rdx,4),%rcx
    288e:	00 
    288f:	48 8b 55 d8          	mov    -0x28(%rbp),%rdx
    2893:	48 01 ca             	add    %rcx,%rdx
    2896:	8b 00                	mov    (%rax),%eax
    2898:	89 02                	mov    %eax,(%rdx)
    289a:	48 8b 45 f8          	mov    -0x8(%rbp),%rax
    289e:	48 8d 14 85 00 00 00 	lea    0x0(,%rax,4),%rdx
    28a5:	00 
    28a6:	48 8b 45 d8          	mov    -0x28(%rbp),%rax
    28aa:	48 01 c2             	add    %rax,%rdx
    28ad:	8b 45 ec             	mov    -0x14(%rbp),%eax
    28b0:	89 02                	mov    %eax,(%rdx)
    28b2:	48 83 45 f0 01       	addq   $0x1,-0x10(%rbp)
    28b7:	8b 45 d4             	mov    -0x2c(%rbp),%eax
    28ba:	48 98                	cltq   
    28bc:	48 39 45 f0          	cmp    %rax,-0x10(%rbp)
    28c0:	0f 8c 70 ff ff ff    	jl     2836 <_Z10intshufflePii+0x20>
    28c6:	90                   	nop
    28c7:	90                   	nop
    28c8:	c9                   	leave  
    28c9:	c3                   	ret    

00000000000028ca <_Z4dist5PointS_i>:
    28ca:	f3 0f 1e fa          	endbr64 
    28ce:	55                   	push   %rbp
    28cf:	48 89 e5             	mov    %rsp,%rbp
    28d2:	89 7d ec             	mov    %edi,-0x14(%rbp)
    28d5:	66 0f ef c0          	pxor   %xmm0,%xmm0
    28d9:	f3 0f 11 45 fc       	movss  %xmm0,-0x4(%rbp)
    28de:	c7 45 f8 00 00 00 00 	movl   $0x0,-0x8(%rbp)
    28e5:	eb 71                	jmp    2958 <_Z4dist5PointS_i+0x8e>
    28e7:	48 8b 55 18          	mov    0x18(%rbp),%rdx
    28eb:	8b 45 f8             	mov    -0x8(%rbp),%eax
    28ee:	48 98                	cltq   
    28f0:	48 c1 e0 02          	shl    $0x2,%rax
    28f4:	48 01 d0             	add    %rdx,%rax
    28f7:	f3 0f 10 00          	movss  (%rax),%xmm0
    28fb:	48 8b 55 38          	mov    0x38(%rbp),%rdx
    28ff:	8b 45 f8             	mov    -0x8(%rbp),%eax
    2902:	48 98                	cltq   
    2904:	48 c1 e0 02          	shl    $0x2,%rax
    2908:	48 01 d0             	add    %rdx,%rax
    290b:	f3 0f 10 10          	movss  (%rax),%xmm2
    290f:	0f 28 c8             	movaps %xmm0,%xmm1
    2912:	f3 0f 5c ca          	subss  %xmm2,%xmm1
    2916:	48 8b 55 18          	mov    0x18(%rbp),%rdx
    291a:	8b 45 f8             	mov    -0x8(%rbp),%eax
    291d:	48 98                	cltq   
    291f:	48 c1 e0 02          	shl    $0x2,%rax
    2923:	48 01 d0             	add    %rdx,%rax
    2926:	f3 0f 10 00          	movss  (%rax),%xmm0
    292a:	48 8b 55 38          	mov    0x38(%rbp),%rdx
    292e:	8b 45 f8             	mov    -0x8(%rbp),%eax
    2931:	48 98                	cltq   
    2933:	48 c1 e0 02          	shl    $0x2,%rax
    2937:	48 01 d0             	add    %rdx,%rax
    293a:	f3 0f 10 10          	movss  (%rax),%xmm2
    293e:	f3 0f 5c c2          	subss  %xmm2,%xmm0
    2942:	f3 0f 59 c1          	mulss  %xmm1,%xmm0
    2946:	f3 0f 10 4d fc       	movss  -0x4(%rbp),%xmm1
    294b:	f3 0f 58 c1          	addss  %xmm1,%xmm0
    294f:	f3 0f 11 45 fc       	movss  %xmm0,-0x4(%rbp)
    2954:	83 45 f8 01          	addl   $0x1,-0x8(%rbp)
    2958:	8b 45 f8             	mov    -0x8(%rbp),%eax
    295b:	3b 45 ec             	cmp    -0x14(%rbp),%eax
    295e:	7c 87                	jl     28e7 <_Z4dist5PointS_i+0x1d>
    2960:	f3 0f 10 45 fc       	movss  -0x4(%rbp),%xmm0
    2965:	5d                   	pop    %rbp
    2966:	c3                   	ret    

0000000000002967 <_Z7pspeedyP6PointsfPliP16parsec_barrier_t>:
    2967:	f3 0f 1e fa          	endbr64 
    296b:	55                   	push   %rbp
    296c:	48 89 e5             	mov    %rsp,%rbp
    296f:	48 83 ec 70          	sub    $0x70,%rsp
    2973:	48 89 7d a8          	mov    %rdi,-0x58(%rbp)
    2977:	f3 0f 11 45 a4       	movss  %xmm0,-0x5c(%rbp)
    297c:	48 89 75 98          	mov    %rsi,-0x68(%rbp)
    2980:	89 55 a0             	mov    %edx,-0x60(%rbp)
    2983:	48 89 4d 90          	mov    %rcx,-0x70(%rbp)
    2987:	48 8b 45 90          	mov    -0x70(%rbp),%rax
    298b:	48 89 c7             	mov    %rax,%rdi
    298e:	e8 a1 34 00 00       	call   5e34 <_Z19parsec_barrier_waitP16parsec_barrier_t>
    2993:	48 8b 45 a8          	mov    -0x58(%rbp),%rax
    2997:	48 8b 00             	mov    (%rax),%rax
    299a:	8b 15 c0 76 00 00    	mov    0x76c0(%rip),%edx        # a060 <_ZL5nproc>
    29a0:	48 63 f2             	movslq %edx,%rsi
    29a3:	48 99                	cqto   
    29a5:	48 f7 fe             	idiv   %rsi
    29a8:	48 89 45 f0          	mov    %rax,-0x10(%rbp)
    29ac:	8b 45 a0             	mov    -0x60(%rbp),%eax
    29af:	48 98                	cltq   
    29b1:	48 8b 55 f0          	mov    -0x10(%rbp),%rdx
    29b5:	48 0f af c2          	imul   %rdx,%rax
    29b9:	48 89 45 f8          	mov    %rax,-0x8(%rbp)
    29bd:	48 8b 55 f8          	mov    -0x8(%rbp),%rdx
    29c1:	48 8b 45 f0          	mov    -0x10(%rbp),%rax
    29c5:	48 01 d0             	add    %rdx,%rax
    29c8:	48 89 45 e0          	mov    %rax,-0x20(%rbp)
    29cc:	8b 05 8e 76 00 00    	mov    0x768e(%rip),%eax        # a060 <_ZL5nproc>
    29d2:	83 e8 01             	sub    $0x1,%eax
    29d5:	39 45 a0             	cmp    %eax,-0x60(%rbp)
    29d8:	75 0b                	jne    29e5 <_Z7pspeedyP6PointsfPliP16parsec_barrier_t+0x7e>
    29da:	48 8b 45 a8          	mov    -0x58(%rbp),%rax
    29de:	48 8b 00             	mov    (%rax),%rax
    29e1:	48 89 45 e0          	mov    %rax,-0x20(%rbp)
    29e5:	48 8b 45 f8          	mov    -0x8(%rbp),%rax
    29e9:	89 45 c0             	mov    %eax,-0x40(%rbp)
    29ec:	e9 a2 00 00 00       	jmp    2a93 <_Z7pspeedyP6PointsfPliP16parsec_barrier_t+0x12c>
    29f1:	48 8b 45 a8          	mov    -0x58(%rbp),%rax
    29f5:	8b 48 08             	mov    0x8(%rax),%ecx
    29f8:	48 8b 45 a8          	mov    -0x58(%rbp),%rax
    29fc:	48 8b 40 10          	mov    0x10(%rax),%rax
    2a00:	48 8b 55 a8          	mov    -0x58(%rbp),%rdx
    2a04:	48 8b 72 10          	mov    0x10(%rdx),%rsi
    2a08:	8b 55 c0             	mov    -0x40(%rbp),%edx
    2a0b:	48 63 d2             	movslq %edx,%rdx
    2a0e:	48 c1 e2 05          	shl    $0x5,%rdx
    2a12:	48 01 f2             	add    %rsi,%rdx
    2a15:	ff 70 18             	push   0x18(%rax)
    2a18:	ff 70 10             	push   0x10(%rax)
    2a1b:	ff 70 08             	push   0x8(%rax)
    2a1e:	ff 30                	push   (%rax)
    2a20:	ff 72 18             	push   0x18(%rdx)
    2a23:	ff 72 10             	push   0x10(%rdx)
    2a26:	ff 72 08             	push   0x8(%rdx)
    2a29:	ff 32                	push   (%rdx)
    2a2b:	89 cf                	mov    %ecx,%edi
    2a2d:	e8 98 fe ff ff       	call   28ca <_Z4dist5PointS_i>
    2a32:	48 83 c4 40          	add    $0x40,%rsp
    2a36:	66 0f 7e c0          	movd   %xmm0,%eax
    2a3a:	89 45 dc             	mov    %eax,-0x24(%rbp)
    2a3d:	48 8b 45 a8          	mov    -0x58(%rbp),%rax
    2a41:	48 8b 50 10          	mov    0x10(%rax),%rdx
    2a45:	8b 45 c0             	mov    -0x40(%rbp),%eax
    2a48:	48 98                	cltq   
    2a4a:	48 c1 e0 05          	shl    $0x5,%rax
    2a4e:	48 01 d0             	add    %rdx,%rax
    2a51:	f3 0f 10 00          	movss  (%rax),%xmm0
    2a55:	48 8b 45 a8          	mov    -0x58(%rbp),%rax
    2a59:	48 8b 50 10          	mov    0x10(%rax),%rdx
    2a5d:	8b 45 c0             	mov    -0x40(%rbp),%eax
    2a60:	48 98                	cltq   
    2a62:	48 c1 e0 05          	shl    $0x5,%rax
    2a66:	48 01 d0             	add    %rdx,%rax
    2a69:	f3 0f 59 45 dc       	mulss  -0x24(%rbp),%xmm0
    2a6e:	f3 0f 11 40 18       	movss  %xmm0,0x18(%rax)
    2a73:	48 8b 45 a8          	mov    -0x58(%rbp),%rax
    2a77:	48 8b 50 10          	mov    0x10(%rax),%rdx
    2a7b:	8b 45 c0             	mov    -0x40(%rbp),%eax
    2a7e:	48 98                	cltq   
    2a80:	48 c1 e0 05          	shl    $0x5,%rax
    2a84:	48 01 d0             	add    %rdx,%rax
    2a87:	48 c7 40 10 00 00 00 	movq   $0x0,0x10(%rax)
    2a8e:	00 
    2a8f:	83 45 c0 01          	addl   $0x1,-0x40(%rbp)
    2a93:	8b 45 c0             	mov    -0x40(%rbp),%eax
    2a96:	48 98                	cltq   
    2a98:	48 39 45 e0          	cmp    %rax,-0x20(%rbp)
    2a9c:	0f 8f 4f ff ff ff    	jg     29f1 <_Z7pspeedyP6PointsfPliP16parsec_barrier_t+0x8a>
    2aa2:	83 7d a0 00          	cmpl   $0x0,-0x60(%rbp)
    2aa6:	75 26                	jne    2ace <_Z7pspeedyP6PointsfPliP16parsec_barrier_t+0x167>
    2aa8:	48 8b 45 98          	mov    -0x68(%rbp),%rax
    2aac:	48 c7 00 01 00 00 00 	movq   $0x1,(%rax)
    2ab3:	8b 05 a7 75 00 00    	mov    0x75a7(%rip),%eax        # a060 <_ZL5nproc>
    2ab9:	48 98                	cltq   
    2abb:	48 c1 e0 03          	shl    $0x3,%rax
    2abf:	48 89 c7             	mov    %rax,%rdi
    2ac2:	e8 79 f9 ff ff       	call   2440 <malloc@plt>
    2ac7:	48 89 05 aa 75 00 00 	mov    %rax,0x75aa(%rip)        # a078 <_ZZ7pspeedyP6PointsfPliP16parsec_barrier_tE5costs>
    2ace:	48 8b 45 90          	mov    -0x70(%rbp),%rax
    2ad2:	48 89 c7             	mov    %rax,%rdi
    2ad5:	e8 5a 33 00 00       	call   5e34 <_Z19parsec_barrier_waitP16parsec_barrier_t>
    2ada:	83 7d a0 00          	cmpl   $0x0,-0x60(%rbp)
    2ade:	0f 84 8b 01 00 00    	je     2c6f <_Z7pspeedyP6PointsfPliP16parsec_barrier_t+0x308>
    2ae4:	48 8d 05 b5 75 00 00 	lea    0x75b5(%rip),%rax        # a0a0 <_ZZ7pspeedyP6PointsfPliP16parsec_barrier_tE5mutex>
    2aeb:	48 89 c7             	mov    %rax,%rdi
    2aee:	e8 6d f9 ff ff       	call   2460 <pthread_mutex_lock@plt>
    2af3:	eb 19                	jmp    2b0e <_Z7pspeedyP6PointsfPliP16parsec_barrier_t+0x1a7>
    2af5:	48 8d 05 a4 75 00 00 	lea    0x75a4(%rip),%rax        # a0a0 <_ZZ7pspeedyP6PointsfPliP16parsec_barrier_tE5mutex>
    2afc:	48 89 c6             	mov    %rax,%rsi
    2aff:	48 8d 05 da 75 00 00 	lea    0x75da(%rip),%rax        # a0e0 <_ZZ7pspeedyP6PointsfPliP16parsec_barrier_tE4cond>
    2b06:	48 89 c7             	mov    %rax,%rdi
    2b09:	e8 82 f9 ff ff       	call   2490 <pthread_cond_wait@plt>
    2b0e:	0f b6 05 5b 75 00 00 	movzbl 0x755b(%rip),%eax        # a070 <_ZZ7pspeedyP6PointsfPliP16parsec_barrier_tE4open>
    2b15:	83 f0 01             	xor    $0x1,%eax
    2b18:	84 c0                	test   %al,%al
    2b1a:	75 d9                	jne    2af5 <_Z7pspeedyP6PointsfPliP16parsec_barrier_t+0x18e>
    2b1c:	48 8d 05 7d 75 00 00 	lea    0x757d(%rip),%rax        # a0a0 <_ZZ7pspeedyP6PointsfPliP16parsec_barrier_tE5mutex>
    2b23:	48 89 c7             	mov    %rax,%rdi
    2b26:	e8 e5 f7 ff ff       	call   2310 <pthread_mutex_unlock@plt>
    2b2b:	8b 05 4f 75 00 00    	mov    0x754f(%rip),%eax        # a080 <_ZZ7pspeedyP6PointsfPliP16parsec_barrier_tE1i>
    2b31:	48 63 d0             	movslq %eax,%rdx
    2b34:	48 8b 45 a8          	mov    -0x58(%rbp),%rax
    2b38:	48 8b 00             	mov    (%rax),%rax
    2b3b:	48 39 c2             	cmp    %rax,%rdx
    2b3e:	0f 8d 5c 03 00 00    	jge    2ea0 <_Z7pspeedyP6PointsfPliP16parsec_barrier_t+0x539>
    2b44:	48 8b 45 f8          	mov    -0x8(%rbp),%rax
    2b48:	89 45 c4             	mov    %eax,-0x3c(%rbp)
    2b4b:	e9 f3 00 00 00       	jmp    2c43 <_Z7pspeedyP6PointsfPliP16parsec_barrier_t+0x2dc>
    2b50:	48 8b 45 a8          	mov    -0x58(%rbp),%rax
    2b54:	8b 48 08             	mov    0x8(%rax),%ecx
    2b57:	48 8b 45 a8          	mov    -0x58(%rbp),%rax
    2b5b:	48 8b 50 10          	mov    0x10(%rax),%rdx
    2b5f:	8b 45 c4             	mov    -0x3c(%rbp),%eax
    2b62:	48 98                	cltq   
    2b64:	48 c1 e0 05          	shl    $0x5,%rax
    2b68:	48 01 c2             	add    %rax,%rdx
    2b6b:	48 8b 45 a8          	mov    -0x58(%rbp),%rax
    2b6f:	48 8b 70 10          	mov    0x10(%rax),%rsi
    2b73:	8b 05 07 75 00 00    	mov    0x7507(%rip),%eax        # a080 <_ZZ7pspeedyP6PointsfPliP16parsec_barrier_tE1i>
    2b79:	48 98                	cltq   
    2b7b:	48 c1 e0 05          	shl    $0x5,%rax
    2b7f:	48 01 f0             	add    %rsi,%rax
    2b82:	ff 72 18             	push   0x18(%rdx)
    2b85:	ff 72 10             	push   0x10(%rdx)
    2b88:	ff 72 08             	push   0x8(%rdx)
    2b8b:	ff 32                	push   (%rdx)
    2b8d:	ff 70 18             	push   0x18(%rax)
    2b90:	ff 70 10             	push   0x10(%rax)
    2b93:	ff 70 08             	push   0x8(%rax)
    2b96:	ff 30                	push   (%rax)
    2b98:	89 cf                	mov    %ecx,%edi
    2b9a:	e8 2b fd ff ff       	call   28ca <_Z4dist5PointS_i>
    2b9f:	48 83 c4 40          	add    $0x40,%rsp
    2ba3:	66 0f 7e c0          	movd   %xmm0,%eax
    2ba7:	89 45 d8             	mov    %eax,-0x28(%rbp)
    2baa:	48 8b 45 a8          	mov    -0x58(%rbp),%rax
    2bae:	48 8b 50 10          	mov    0x10(%rax),%rdx
    2bb2:	8b 45 c4             	mov    -0x3c(%rbp),%eax
    2bb5:	48 98                	cltq   
    2bb7:	48 c1 e0 05          	shl    $0x5,%rax
    2bbb:	48 01 d0             	add    %rdx,%rax
    2bbe:	f3 0f 10 00          	movss  (%rax),%xmm0
    2bc2:	0f 28 c8             	movaps %xmm0,%xmm1
    2bc5:	f3 0f 59 4d d8       	mulss  -0x28(%rbp),%xmm1
    2bca:	48 8b 45 a8          	mov    -0x58(%rbp),%rax
    2bce:	48 8b 50 10          	mov    0x10(%rax),%rdx
    2bd2:	8b 45 c4             	mov    -0x3c(%rbp),%eax
    2bd5:	48 98                	cltq   
    2bd7:	48 c1 e0 05          	shl    $0x5,%rax
    2bdb:	48 01 d0             	add    %rdx,%rax
    2bde:	f3 0f 10 40 18       	movss  0x18(%rax),%xmm0
    2be3:	0f 2f c1             	comiss %xmm1,%xmm0
    2be6:	76 57                	jbe    2c3f <_Z7pspeedyP6PointsfPliP16parsec_barrier_t+0x2d8>
    2be8:	48 8b 45 a8          	mov    -0x58(%rbp),%rax
    2bec:	48 8b 50 10          	mov    0x10(%rax),%rdx
    2bf0:	8b 45 c4             	mov    -0x3c(%rbp),%eax
    2bf3:	48 98                	cltq   
    2bf5:	48 c1 e0 05          	shl    $0x5,%rax
    2bf9:	48 01 d0             	add    %rdx,%rax
    2bfc:	f3 0f 10 00          	movss  (%rax),%xmm0
    2c00:	48 8b 45 a8          	mov    -0x58(%rbp),%rax
    2c04:	48 8b 50 10          	mov    0x10(%rax),%rdx
    2c08:	8b 45 c4             	mov    -0x3c(%rbp),%eax
    2c0b:	48 98                	cltq   
    2c0d:	48 c1 e0 05          	shl    $0x5,%rax
    2c11:	48 01 d0             	add    %rdx,%rax
    2c14:	f3 0f 59 45 d8       	mulss  -0x28(%rbp),%xmm0
    2c19:	f3 0f 11 40 18       	movss  %xmm0,0x18(%rax)
    2c1e:	8b 0d 5c 74 00 00    	mov    0x745c(%rip),%ecx        # a080 <_ZZ7pspeedyP6PointsfPliP16parsec_barrier_tE1i>
    2c24:	48 8b 45 a8          	mov    -0x58(%rbp),%rax
    2c28:	48 8b 50 10          	mov    0x10(%rax),%rdx
    2c2c:	8b 45 c4             	mov    -0x3c(%rbp),%eax
    2c2f:	48 98                	cltq   
    2c31:	48 c1 e0 05          	shl    $0x5,%rax
    2c35:	48 01 c2             	add    %rax,%rdx
    2c38:	48 63 c1             	movslq %ecx,%rax
    2c3b:	48 89 42 10          	mov    %rax,0x10(%rdx)
    2c3f:	83 45 c4 01          	addl   $0x1,-0x3c(%rbp)
    2c43:	8b 45 c4             	mov    -0x3c(%rbp),%eax
    2c46:	48 98                	cltq   
    2c48:	48 39 45 e0          	cmp    %rax,-0x20(%rbp)
    2c4c:	0f 8f fe fe ff ff    	jg     2b50 <_Z7pspeedyP6PointsfPliP16parsec_barrier_t+0x1e9>
    2c52:	48 8b 45 90          	mov    -0x70(%rbp),%rax
    2c56:	48 89 c7             	mov    %rax,%rdi
    2c59:	e8 d6 31 00 00       	call   5e34 <_Z19parsec_barrier_waitP16parsec_barrier_t>
    2c5e:	48 8b 45 90          	mov    -0x70(%rbp),%rax
    2c62:	48 89 c7             	mov    %rax,%rdi
    2c65:	e8 ca 31 00 00       	call   5e34 <_Z19parsec_barrier_waitP16parsec_barrier_t>
    2c6a:	e9 75 fe ff ff       	jmp    2ae4 <_Z7pspeedyP6PointsfPliP16parsec_barrier_t+0x17d>
    2c6f:	c7 05 07 74 00 00 01 	movl   $0x1,0x7407(%rip)        # a080 <_ZZ7pspeedyP6PointsfPliP16parsec_barrier_tE1i>
    2c76:	00 00 00 
    2c79:	e9 d3 01 00 00       	jmp    2e51 <_Z7pspeedyP6PointsfPliP16parsec_barrier_t+0x4ea>
    2c7e:	e8 9d f6 ff ff       	call   2320 <lrand48@plt>
    2c83:	66 0f ef c0          	pxor   %xmm0,%xmm0
    2c87:	f3 48 0f 2a c0       	cvtsi2ss %rax,%xmm0
    2c8c:	f3 0f 10 15 c4 46 00 	movss  0x46c4(%rip),%xmm2        # 7358 <_ZL22PARSEC_PROCESS_PRIVATE+0x340>
    2c93:	00 
    2c94:	0f 28 c8             	movaps %xmm0,%xmm1
    2c97:	f3 0f 5e ca          	divss  %xmm2,%xmm1
    2c9b:	48 8b 45 a8          	mov    -0x58(%rbp),%rax
    2c9f:	48 8b 50 10          	mov    0x10(%rax),%rdx
    2ca3:	8b 05 d7 73 00 00    	mov    0x73d7(%rip),%eax        # a080 <_ZZ7pspeedyP6PointsfPliP16parsec_barrier_tE1i>
    2ca9:	48 98                	cltq   
    2cab:	48 c1 e0 05          	shl    $0x5,%rax
    2caf:	48 01 d0             	add    %rdx,%rax
    2cb2:	f3 0f 10 40 18       	movss  0x18(%rax),%xmm0
    2cb7:	f3 0f 5e 45 a4       	divss  -0x5c(%rbp),%xmm0
    2cbc:	0f 2f c1             	comiss %xmm1,%xmm0
    2cbf:	0f 97 c0             	seta   %al
    2cc2:	88 45 bf             	mov    %al,-0x41(%rbp)
    2cc5:	80 7d bf 00          	cmpb   $0x0,-0x41(%rbp)
    2cc9:	0f 84 73 01 00 00    	je     2e42 <_Z7pspeedyP6PointsfPliP16parsec_barrier_t+0x4db>
    2ccf:	48 8b 45 98          	mov    -0x68(%rbp),%rax
    2cd3:	48 8b 00             	mov    (%rax),%rax
    2cd6:	48 8d 50 01          	lea    0x1(%rax),%rdx
    2cda:	48 8b 45 98          	mov    -0x68(%rbp),%rax
    2cde:	48 89 10             	mov    %rdx,(%rax)
    2ce1:	48 8d 05 b8 73 00 00 	lea    0x73b8(%rip),%rax        # a0a0 <_ZZ7pspeedyP6PointsfPliP16parsec_barrier_tE5mutex>
    2ce8:	48 89 c7             	mov    %rax,%rdi
    2ceb:	e8 70 f7 ff ff       	call   2460 <pthread_mutex_lock@plt>
    2cf0:	c6 05 79 73 00 00 01 	movb   $0x1,0x7379(%rip)        # a070 <_ZZ7pspeedyP6PointsfPliP16parsec_barrier_tE4open>
    2cf7:	48 8d 05 a2 73 00 00 	lea    0x73a2(%rip),%rax        # a0a0 <_ZZ7pspeedyP6PointsfPliP16parsec_barrier_tE5mutex>
    2cfe:	48 89 c7             	mov    %rax,%rdi
    2d01:	e8 0a f6 ff ff       	call   2310 <pthread_mutex_unlock@plt>
    2d06:	48 8d 05 d3 73 00 00 	lea    0x73d3(%rip),%rax        # a0e0 <_ZZ7pspeedyP6PointsfPliP16parsec_barrier_tE4cond>
    2d0d:	48 89 c7             	mov    %rax,%rdi
    2d10:	e8 bb f5 ff ff       	call   22d0 <pthread_cond_broadcast@plt>
    2d15:	48 8b 45 f8          	mov    -0x8(%rbp),%rax
    2d19:	89 45 c8             	mov    %eax,-0x38(%rbp)
    2d1c:	e9 f3 00 00 00       	jmp    2e14 <_Z7pspeedyP6PointsfPliP16parsec_barrier_t+0x4ad>
    2d21:	48 8b 45 a8          	mov    -0x58(%rbp),%rax
    2d25:	8b 48 08             	mov    0x8(%rax),%ecx
    2d28:	48 8b 45 a8          	mov    -0x58(%rbp),%rax
    2d2c:	48 8b 50 10          	mov    0x10(%rax),%rdx
    2d30:	8b 45 c8             	mov    -0x38(%rbp),%eax
    2d33:	48 98                	cltq   
    2d35:	48 c1 e0 05          	shl    $0x5,%rax
    2d39:	48 01 c2             	add    %rax,%rdx
    2d3c:	48 8b 45 a8          	mov    -0x58(%rbp),%rax
    2d40:	48 8b 70 10          	mov    0x10(%rax),%rsi
    2d44:	8b 05 36 73 00 00    	mov    0x7336(%rip),%eax        # a080 <_ZZ7pspeedyP6PointsfPliP16parsec_barrier_tE1i>
    2d4a:	48 98                	cltq   
    2d4c:	48 c1 e0 05          	shl    $0x5,%rax
    2d50:	48 01 f0             	add    %rsi,%rax
    2d53:	ff 72 18             	push   0x18(%rdx)
    2d56:	ff 72 10             	push   0x10(%rdx)
    2d59:	ff 72 08             	push   0x8(%rdx)
    2d5c:	ff 32                	push   (%rdx)
    2d5e:	ff 70 18             	push   0x18(%rax)
    2d61:	ff 70 10             	push   0x10(%rax)
    2d64:	ff 70 08             	push   0x8(%rax)
    2d67:	ff 30                	push   (%rax)
    2d69:	89 cf                	mov    %ecx,%edi
    2d6b:	e8 5a fb ff ff       	call   28ca <_Z4dist5PointS_i>
    2d70:	48 83 c4 40          	add    $0x40,%rsp
    2d74:	66 0f 7e c0          	movd   %xmm0,%eax
    2d78:	89 45 d4             	mov    %eax,-0x2c(%rbp)
    2d7b:	48 8b 45 a8          	mov    -0x58(%rbp),%rax
    2d7f:	48 8b 50 10          	mov    0x10(%rax),%rdx
    2d83:	8b 45 c8             	mov    -0x38(%rbp),%eax
    2d86:	48 98                	cltq   
    2d88:	48 c1 e0 05          	shl    $0x5,%rax
    2d8c:	48 01 d0             	add    %rdx,%rax
    2d8f:	f3 0f 10 00          	movss  (%rax),%xmm0
    2d93:	0f 28 c8             	movaps %xmm0,%xmm1
    2d96:	f3 0f 59 4d d4       	mulss  -0x2c(%rbp),%xmm1
    2d9b:	48 8b 45 a8          	mov    -0x58(%rbp),%rax
    2d9f:	48 8b 50 10          	mov    0x10(%rax),%rdx
    2da3:	8b 45 c8             	mov    -0x38(%rbp),%eax
    2da6:	48 98                	cltq   
    2da8:	48 c1 e0 05          	shl    $0x5,%rax
    2dac:	48 01 d0             	add    %rdx,%rax
    2daf:	f3 0f 10 40 18       	movss  0x18(%rax),%xmm0
    2db4:	0f 2f c1             	comiss %xmm1,%xmm0
    2db7:	76 57                	jbe    2e10 <_Z7pspeedyP6PointsfPliP16parsec_barrier_t+0x4a9>
    2db9:	48 8b 45 a8          	mov    -0x58(%rbp),%rax
    2dbd:	48 8b 50 10          	mov    0x10(%rax),%rdx
    2dc1:	8b 45 c8             	mov    -0x38(%rbp),%eax
    2dc4:	48 98                	cltq   
    2dc6:	48 c1 e0 05          	shl    $0x5,%rax
    2dca:	48 01 d0             	add    %rdx,%rax
    2dcd:	f3 0f 10 00          	movss  (%rax),%xmm0
    2dd1:	48 8b 45 a8          	mov    -0x58(%rbp),%rax
    2dd5:	48 8b 50 10          	mov    0x10(%rax),%rdx
    2dd9:	8b 45 c8             	mov    -0x38(%rbp),%eax
    2ddc:	48 98                	cltq   
    2dde:	48 c1 e0 05          	shl    $0x5,%rax
    2de2:	48 01 d0             	add    %rdx,%rax
    2de5:	f3 0f 59 45 d4       	mulss  -0x2c(%rbp),%xmm0
    2dea:	f3 0f 11 40 18       	movss  %xmm0,0x18(%rax)
    2def:	8b 0d 8b 72 00 00    	mov    0x728b(%rip),%ecx        # a080 <_ZZ7pspeedyP6PointsfPliP16parsec_barrier_tE1i>
    2df5:	48 8b 45 a8          	mov    -0x58(%rbp),%rax
    2df9:	48 8b 50 10          	mov    0x10(%rax),%rdx
    2dfd:	8b 45 c8             	mov    -0x38(%rbp),%eax
    2e00:	48 98                	cltq   
    2e02:	48 c1 e0 05          	shl    $0x5,%rax
    2e06:	48 01 c2             	add    %rax,%rdx
    2e09:	48 63 c1             	movslq %ecx,%rax
    2e0c:	48 89 42 10          	mov    %rax,0x10(%rdx)
    2e10:	83 45 c8 01          	addl   $0x1,-0x38(%rbp)
    2e14:	8b 45 c8             	mov    -0x38(%rbp),%eax
    2e17:	48 98                	cltq   
    2e19:	48 39 45 e0          	cmp    %rax,-0x20(%rbp)
    2e1d:	0f 8f fe fe ff ff    	jg     2d21 <_Z7pspeedyP6PointsfPliP16parsec_barrier_t+0x3ba>
    2e23:	48 8b 45 90          	mov    -0x70(%rbp),%rax
    2e27:	48 89 c7             	mov    %rax,%rdi
    2e2a:	e8 05 30 00 00       	call   5e34 <_Z19parsec_barrier_waitP16parsec_barrier_t>
    2e2f:	c6 05 3a 72 00 00 00 	movb   $0x0,0x723a(%rip)        # a070 <_ZZ7pspeedyP6PointsfPliP16parsec_barrier_tE4open>
    2e36:	48 8b 45 90          	mov    -0x70(%rbp),%rax
    2e3a:	48 89 c7             	mov    %rax,%rdi
    2e3d:	e8 f2 2f 00 00       	call   5e34 <_Z19parsec_barrier_waitP16parsec_barrier_t>
    2e42:	8b 05 38 72 00 00    	mov    0x7238(%rip),%eax        # a080 <_ZZ7pspeedyP6PointsfPliP16parsec_barrier_tE1i>
    2e48:	83 c0 01             	add    $0x1,%eax
    2e4b:	89 05 2f 72 00 00    	mov    %eax,0x722f(%rip)        # a080 <_ZZ7pspeedyP6PointsfPliP16parsec_barrier_tE1i>
    2e51:	8b 05 29 72 00 00    	mov    0x7229(%rip),%eax        # a080 <_ZZ7pspeedyP6PointsfPliP16parsec_barrier_tE1i>
    2e57:	48 63 d0             	movslq %eax,%rdx
    2e5a:	48 8b 45 a8          	mov    -0x58(%rbp),%rax
    2e5e:	48 8b 00             	mov    (%rax),%rax
    2e61:	48 39 c2             	cmp    %rax,%rdx
    2e64:	0f 8c 14 fe ff ff    	jl     2c7e <_Z7pspeedyP6PointsfPliP16parsec_barrier_t+0x317>
    2e6a:	48 8d 05 2f 72 00 00 	lea    0x722f(%rip),%rax        # a0a0 <_ZZ7pspeedyP6PointsfPliP16parsec_barrier_tE5mutex>
    2e71:	48 89 c7             	mov    %rax,%rdi
    2e74:	e8 e7 f5 ff ff       	call   2460 <pthread_mutex_lock@plt>
    2e79:	c6 05 f0 71 00 00 01 	movb   $0x1,0x71f0(%rip)        # a070 <_ZZ7pspeedyP6PointsfPliP16parsec_barrier_tE4open>
    2e80:	48 8d 05 19 72 00 00 	lea    0x7219(%rip),%rax        # a0a0 <_ZZ7pspeedyP6PointsfPliP16parsec_barrier_tE5mutex>
    2e87:	48 89 c7             	mov    %rax,%rdi
    2e8a:	e8 81 f4 ff ff       	call   2310 <pthread_mutex_unlock@plt>
    2e8f:	48 8d 05 4a 72 00 00 	lea    0x724a(%rip),%rax        # a0e0 <_ZZ7pspeedyP6PointsfPliP16parsec_barrier_tE4cond>
    2e96:	48 89 c7             	mov    %rax,%rdi
    2e99:	e8 32 f4 ff ff       	call   22d0 <pthread_cond_broadcast@plt>
    2e9e:	eb 01                	jmp    2ea1 <_Z7pspeedyP6PointsfPliP16parsec_barrier_t+0x53a>
    2ea0:	90                   	nop
    2ea1:	48 8b 45 90          	mov    -0x70(%rbp),%rax
    2ea5:	48 89 c7             	mov    %rax,%rdi
    2ea8:	e8 87 2f 00 00       	call   5e34 <_Z19parsec_barrier_waitP16parsec_barrier_t>
    2ead:	c6 05 bc 71 00 00 00 	movb   $0x0,0x71bc(%rip)        # a070 <_ZZ7pspeedyP6PointsfPliP16parsec_barrier_tE4open>
    2eb4:	66 0f ef c0          	pxor   %xmm0,%xmm0
    2eb8:	f2 0f 11 45 e8       	movsd  %xmm0,-0x18(%rbp)
    2ebd:	48 8b 45 f8          	mov    -0x8(%rbp),%rax
    2ec1:	89 45 cc             	mov    %eax,-0x34(%rbp)
    2ec4:	eb 2f                	jmp    2ef5 <_Z7pspeedyP6PointsfPliP16parsec_barrier_t+0x58e>
    2ec6:	48 8b 45 a8          	mov    -0x58(%rbp),%rax
    2eca:	48 8b 50 10          	mov    0x10(%rax),%rdx
    2ece:	8b 45 cc             	mov    -0x34(%rbp),%eax
    2ed1:	48 98                	cltq   
    2ed3:	48 c1 e0 05          	shl    $0x5,%rax
    2ed7:	48 01 d0             	add    %rdx,%rax
    2eda:	f3 0f 10 40 18       	movss  0x18(%rax),%xmm0
    2edf:	f3 0f 5a c0          	cvtss2sd %xmm0,%xmm0
    2ee3:	f2 0f 10 4d e8       	movsd  -0x18(%rbp),%xmm1
    2ee8:	f2 0f 58 c1          	addsd  %xmm1,%xmm0
    2eec:	f2 0f 11 45 e8       	movsd  %xmm0,-0x18(%rbp)
    2ef1:	83 45 cc 01          	addl   $0x1,-0x34(%rbp)
    2ef5:	8b 45 cc             	mov    -0x34(%rbp),%eax
    2ef8:	48 98                	cltq   
    2efa:	48 39 45 e0          	cmp    %rax,-0x20(%rbp)
    2efe:	7f c6                	jg     2ec6 <_Z7pspeedyP6PointsfPliP16parsec_barrier_t+0x55f>
    2f00:	48 8b 15 71 71 00 00 	mov    0x7171(%rip),%rdx        # a078 <_ZZ7pspeedyP6PointsfPliP16parsec_barrier_tE5costs>
    2f07:	8b 45 a0             	mov    -0x60(%rbp),%eax
    2f0a:	48 98                	cltq   
    2f0c:	48 c1 e0 03          	shl    $0x3,%rax
    2f10:	48 01 d0             	add    %rdx,%rax
    2f13:	f2 0f 10 45 e8       	movsd  -0x18(%rbp),%xmm0
    2f18:	f2 0f 11 00          	movsd  %xmm0,(%rax)
    2f1c:	48 8b 45 90          	mov    -0x70(%rbp),%rax
    2f20:	48 89 c7             	mov    %rax,%rdi
    2f23:	e8 0c 2f 00 00       	call   5e34 <_Z19parsec_barrier_waitP16parsec_barrier_t>
    2f28:	83 7d a0 00          	cmpl   $0x0,-0x60(%rbp)
    2f2c:	75 73                	jne    2fa1 <_Z7pspeedyP6PointsfPliP16parsec_barrier_t+0x63a>
    2f2e:	48 8b 45 98          	mov    -0x68(%rbp),%rax
    2f32:	48 8b 00             	mov    (%rax),%rax
    2f35:	66 0f ef c0          	pxor   %xmm0,%xmm0
    2f39:	f3 48 0f 2a c0       	cvtsi2ss %rax,%xmm0
    2f3e:	f3 0f 59 45 a4       	mulss  -0x5c(%rbp),%xmm0
    2f43:	f3 0f 5a c0          	cvtss2sd %xmm0,%xmm0
    2f47:	f2 0f 11 05 19 71 00 	movsd  %xmm0,0x7119(%rip)        # a068 <_ZZ7pspeedyP6PointsfPliP16parsec_barrier_tE9totalcost>
    2f4e:	00 
    2f4f:	c7 45 d0 00 00 00 00 	movl   $0x0,-0x30(%rbp)
    2f56:	eb 2f                	jmp    2f87 <_Z7pspeedyP6PointsfPliP16parsec_barrier_t+0x620>
    2f58:	48 8b 15 19 71 00 00 	mov    0x7119(%rip),%rdx        # a078 <_ZZ7pspeedyP6PointsfPliP16parsec_barrier_tE5costs>
    2f5f:	8b 45 d0             	mov    -0x30(%rbp),%eax
    2f62:	48 98                	cltq   
    2f64:	48 c1 e0 03          	shl    $0x3,%rax
    2f68:	48 01 d0             	add    %rdx,%rax
    2f6b:	f2 0f 10 08          	movsd  (%rax),%xmm1
    2f6f:	f2 0f 10 05 f1 70 00 	movsd  0x70f1(%rip),%xmm0        # a068 <_ZZ7pspeedyP6PointsfPliP16parsec_barrier_tE9totalcost>
    2f76:	00 
    2f77:	f2 0f 58 c1          	addsd  %xmm1,%xmm0
    2f7b:	f2 0f 11 05 e5 70 00 	movsd  %xmm0,0x70e5(%rip)        # a068 <_ZZ7pspeedyP6PointsfPliP16parsec_barrier_tE9totalcost>
    2f82:	00 
    2f83:	83 45 d0 01          	addl   $0x1,-0x30(%rbp)
    2f87:	8b 05 d3 70 00 00    	mov    0x70d3(%rip),%eax        # a060 <_ZL5nproc>
    2f8d:	39 45 d0             	cmp    %eax,-0x30(%rbp)
    2f90:	7c c6                	jl     2f58 <_Z7pspeedyP6PointsfPliP16parsec_barrier_t+0x5f1>
    2f92:	48 8b 05 df 70 00 00 	mov    0x70df(%rip),%rax        # a078 <_ZZ7pspeedyP6PointsfPliP16parsec_barrier_tE5costs>
    2f99:	48 89 c7             	mov    %rax,%rdi
    2f9c:	e8 4f f4 ff ff       	call   23f0 <free@plt>
    2fa1:	48 8b 45 90          	mov    -0x70(%rbp),%rax
    2fa5:	48 89 c7             	mov    %rax,%rdi
    2fa8:	e8 87 2e 00 00       	call   5e34 <_Z19parsec_barrier_waitP16parsec_barrier_t>
    2fad:	f2 0f 10 05 b3 70 00 	movsd  0x70b3(%rip),%xmm0        # a068 <_ZZ7pspeedyP6PointsfPliP16parsec_barrier_tE9totalcost>
    2fb4:	00 
    2fb5:	f2 0f 5a c0          	cvtsd2ss %xmm0,%xmm0
    2fb9:	c9                   	leave  
    2fba:	c3                   	ret    

0000000000002fbb <_Z5pgainlP6PointsdPliP16parsec_barrier_t>:
    2fbb:	f3 0f 1e fa          	endbr64 
    2fbf:	55                   	push   %rbp
    2fc0:	48 89 e5             	mov    %rsp,%rbp
    2fc3:	48 81 ec c0 00 00 00 	sub    $0xc0,%rsp
    2fca:	48 89 bd 68 ff ff ff 	mov    %rdi,-0x98(%rbp)
    2fd1:	48 89 b5 60 ff ff ff 	mov    %rsi,-0xa0(%rbp)
    2fd8:	f2 0f 11 85 58 ff ff 	movsd  %xmm0,-0xa8(%rbp)
    2fdf:	ff 
    2fe0:	48 89 95 50 ff ff ff 	mov    %rdx,-0xb0(%rbp)
    2fe7:	89 8d 4c ff ff ff    	mov    %ecx,-0xb4(%rbp)
    2fed:	4c 89 85 40 ff ff ff 	mov    %r8,-0xc0(%rbp)
    2ff4:	48 8b 85 40 ff ff ff 	mov    -0xc0(%rbp),%rax
    2ffb:	48 89 c7             	mov    %rax,%rdi
    2ffe:	e8 31 2e 00 00       	call   5e34 <_Z19parsec_barrier_waitP16parsec_barrier_t>
    3003:	48 8b 85 60 ff ff ff 	mov    -0xa0(%rbp),%rax
    300a:	48 8b 00             	mov    (%rax),%rax
    300d:	8b 15 4d 70 00 00    	mov    0x704d(%rip),%edx        # a060 <_ZL5nproc>
    3013:	48 63 f2             	movslq %edx,%rsi
    3016:	48 99                	cqto   
    3018:	48 f7 fe             	idiv   %rsi
    301b:	48 89 45 e0          	mov    %rax,-0x20(%rbp)
    301f:	8b 85 4c ff ff ff    	mov    -0xb4(%rbp),%eax
    3025:	48 98                	cltq   
    3027:	48 8b 55 e0          	mov    -0x20(%rbp),%rdx
    302b:	48 0f af c2          	imul   %rdx,%rax
    302f:	48 89 45 e8          	mov    %rax,-0x18(%rbp)
    3033:	48 8b 55 e8          	mov    -0x18(%rbp),%rdx
    3037:	48 8b 45 e0          	mov    -0x20(%rbp),%rax
    303b:	48 01 d0             	add    %rdx,%rax
    303e:	48 89 45 c8          	mov    %rax,-0x38(%rbp)
    3042:	8b 05 18 70 00 00    	mov    0x7018(%rip),%eax        # a060 <_ZL5nproc>
    3048:	83 e8 01             	sub    $0x1,%eax
    304b:	39 85 4c ff ff ff    	cmp    %eax,-0xb4(%rbp)
    3051:	75 0e                	jne    3061 <_Z5pgainlP6PointsdPliP16parsec_barrier_t+0xa6>
    3053:	48 8b 85 60 ff ff ff 	mov    -0xa0(%rbp),%rax
    305a:	48 8b 00             	mov    (%rax),%rax
    305d:	48 89 45 c8          	mov    %rax,-0x38(%rbp)
    3061:	c7 45 80 00 00 00 00 	movl   $0x0,-0x80(%rbp)
    3068:	48 8b 85 50 ff ff ff 	mov    -0xb0(%rbp),%rax
    306f:	48 8b 00             	mov    (%rax),%rax
    3072:	83 c0 02             	add    $0x2,%eax
    3075:	89 45 84             	mov    %eax,-0x7c(%rbp)
    3078:	c7 45 b0 04 00 00 00 	movl   $0x4,-0x50(%rbp)
    307f:	8b 45 84             	mov    -0x7c(%rbp),%eax
    3082:	99                   	cltd   
    3083:	f7 7d b0             	idivl  -0x50(%rbp)
    3086:	89 d0                	mov    %edx,%eax
    3088:	85 c0                	test   %eax,%eax
    308a:	74 13                	je     309f <_Z5pgainlP6PointsdPliP16parsec_barrier_t+0xe4>
    308c:	8b 45 84             	mov    -0x7c(%rbp),%eax
    308f:	99                   	cltd   
    3090:	f7 7d b0             	idivl  -0x50(%rbp)
    3093:	8d 50 01             	lea    0x1(%rax),%edx
    3096:	8b 45 b0             	mov    -0x50(%rbp),%eax
    3099:	0f af c2             	imul   %edx,%eax
    309c:	89 45 84             	mov    %eax,-0x7c(%rbp)
    309f:	8b 45 84             	mov    -0x7c(%rbp),%eax
    30a2:	83 e8 02             	sub    $0x2,%eax
    30a5:	89 45 b4             	mov    %eax,-0x4c(%rbp)
    30a8:	66 0f ef c0          	pxor   %xmm0,%xmm0
    30ac:	f2 0f 11 45 d0       	movsd  %xmm0,-0x30(%rbp)
    30b1:	83 bd 4c ff ff ff 00 	cmpl   $0x0,-0xb4(%rbp)
    30b8:	75 38                	jne    30f2 <_Z5pgainlP6PointsdPliP16parsec_barrier_t+0x137>
    30ba:	8b 05 a0 6f 00 00    	mov    0x6fa0(%rip),%eax        # a060 <_ZL5nproc>
    30c0:	83 c0 01             	add    $0x1,%eax
    30c3:	0f af 45 84          	imul   -0x7c(%rbp),%eax
    30c7:	48 98                	cltq   
    30c9:	48 c1 e0 03          	shl    $0x3,%rax
    30cd:	48 89 c7             	mov    %rax,%rdi
    30d0:	e8 6b f3 ff ff       	call   2440 <malloc@plt>
    30d5:	48 89 05 34 70 00 00 	mov    %rax,0x7034(%rip)        # a110 <_ZZ5pgainlP6PointsdPliP16parsec_barrier_tE8work_mem>
    30dc:	66 0f ef c0          	pxor   %xmm0,%xmm0
    30e0:	f2 0f 11 05 30 70 00 	movsd  %xmm0,0x7030(%rip)        # a118 <_ZZ5pgainlP6PointsdPliP16parsec_barrier_tE20gl_cost_of_opening_x>
    30e7:	00 
    30e8:	c7 05 2e 70 00 00 00 	movl   $0x0,0x702e(%rip)        # a120 <_ZZ5pgainlP6PointsdPliP16parsec_barrier_tE29gl_number_of_centers_to_close>
    30ef:	00 00 00 
    30f2:	48 8b 85 40 ff ff ff 	mov    -0xc0(%rbp),%rax
    30f9:	48 89 c7             	mov    %rax,%rdi
    30fc:	e8 33 2d 00 00       	call   5e34 <_Z19parsec_barrier_waitP16parsec_barrier_t>
    3101:	c7 45 88 00 00 00 00 	movl   $0x0,-0x78(%rbp)
    3108:	48 8b 45 e8          	mov    -0x18(%rbp),%rax
    310c:	89 45 8c             	mov    %eax,-0x74(%rbp)
    310f:	eb 39                	jmp    314a <_Z5pgainlP6PointsdPliP16parsec_barrier_t+0x18f>
    3111:	48 8b 15 38 6f 00 00 	mov    0x6f38(%rip),%rdx        # a050 <_ZL9is_center>
    3118:	8b 45 8c             	mov    -0x74(%rbp),%eax
    311b:	48 98                	cltq   
    311d:	48 01 d0             	add    %rdx,%rax
    3120:	0f b6 00             	movzbl (%rax),%eax
    3123:	84 c0                	test   %al,%al
    3125:	74 1f                	je     3146 <_Z5pgainlP6PointsdPliP16parsec_barrier_t+0x18b>
    3127:	8b 45 88             	mov    -0x78(%rbp),%eax
    312a:	8d 50 01             	lea    0x1(%rax),%edx
    312d:	89 55 88             	mov    %edx,-0x78(%rbp)
    3130:	48 8b 0d 21 6f 00 00 	mov    0x6f21(%rip),%rcx        # a058 <_ZL12center_table>
    3137:	8b 55 8c             	mov    -0x74(%rbp),%edx
    313a:	48 63 d2             	movslq %edx,%rdx
    313d:	48 c1 e2 02          	shl    $0x2,%rdx
    3141:	48 01 ca             	add    %rcx,%rdx
    3144:	89 02                	mov    %eax,(%rdx)
    3146:	83 45 8c 01          	addl   $0x1,-0x74(%rbp)
    314a:	8b 45 8c             	mov    -0x74(%rbp),%eax
    314d:	48 98                	cltq   
    314f:	48 39 45 c8          	cmp    %rax,-0x38(%rbp)
    3153:	7f bc                	jg     3111 <_Z5pgainlP6PointsdPliP16parsec_barrier_t+0x156>
    3155:	48 8b 15 b4 6f 00 00 	mov    0x6fb4(%rip),%rdx        # a110 <_ZZ5pgainlP6PointsdPliP16parsec_barrier_tE8work_mem>
    315c:	8b 85 4c ff ff ff    	mov    -0xb4(%rbp),%eax
    3162:	0f af 45 84          	imul   -0x7c(%rbp),%eax
    3166:	48 98                	cltq   
    3168:	48 c1 e0 03          	shl    $0x3,%rax
    316c:	48 01 d0             	add    %rdx,%rax
    316f:	66 0f ef c0          	pxor   %xmm0,%xmm0
    3173:	f2 0f 2a 45 88       	cvtsi2sdl -0x78(%rbp),%xmm0
    3178:	f2 0f 11 00          	movsd  %xmm0,(%rax)
    317c:	48 8b 85 40 ff ff ff 	mov    -0xc0(%rbp),%rax
    3183:	48 89 c7             	mov    %rax,%rdi
    3186:	e8 a9 2c 00 00       	call   5e34 <_Z19parsec_barrier_waitP16parsec_barrier_t>
    318b:	83 bd 4c ff ff ff 00 	cmpl   $0x0,-0xb4(%rbp)
    3192:	75 6b                	jne    31ff <_Z5pgainlP6PointsdPliP16parsec_barrier_t+0x244>
    3194:	c7 45 90 00 00 00 00 	movl   $0x0,-0x70(%rbp)
    319b:	c7 45 94 00 00 00 00 	movl   $0x0,-0x6c(%rbp)
    31a2:	eb 50                	jmp    31f4 <_Z5pgainlP6PointsdPliP16parsec_barrier_t+0x239>
    31a4:	48 8b 15 65 6f 00 00 	mov    0x6f65(%rip),%rdx        # a110 <_ZZ5pgainlP6PointsdPliP16parsec_barrier_tE8work_mem>
    31ab:	8b 45 94             	mov    -0x6c(%rbp),%eax
    31ae:	0f af 45 84          	imul   -0x7c(%rbp),%eax
    31b2:	48 98                	cltq   
    31b4:	48 c1 e0 03          	shl    $0x3,%rax
    31b8:	48 01 d0             	add    %rdx,%rax
    31bb:	f2 0f 10 00          	movsd  (%rax),%xmm0
    31bf:	f2 0f 2c c0          	cvttsd2si %xmm0,%eax
    31c3:	89 45 b8             	mov    %eax,-0x48(%rbp)
    31c6:	48 8b 15 43 6f 00 00 	mov    0x6f43(%rip),%rdx        # a110 <_ZZ5pgainlP6PointsdPliP16parsec_barrier_tE8work_mem>
    31cd:	8b 45 94             	mov    -0x6c(%rbp),%eax
    31d0:	0f af 45 84          	imul   -0x7c(%rbp),%eax
    31d4:	48 98                	cltq   
    31d6:	48 c1 e0 03          	shl    $0x3,%rax
    31da:	48 01 d0             	add    %rdx,%rax
    31dd:	66 0f ef c0          	pxor   %xmm0,%xmm0
    31e1:	f2 0f 2a 45 90       	cvtsi2sdl -0x70(%rbp),%xmm0
    31e6:	f2 0f 11 00          	movsd  %xmm0,(%rax)
    31ea:	8b 45 b8             	mov    -0x48(%rbp),%eax
    31ed:	01 45 90             	add    %eax,-0x70(%rbp)
    31f0:	83 45 94 01          	addl   $0x1,-0x6c(%rbp)
    31f4:	8b 05 66 6e 00 00    	mov    0x6e66(%rip),%eax        # a060 <_ZL5nproc>
    31fa:	39 45 94             	cmp    %eax,-0x6c(%rbp)
    31fd:	7c a5                	jl     31a4 <_Z5pgainlP6PointsdPliP16parsec_barrier_t+0x1e9>
    31ff:	48 8b 85 40 ff ff ff 	mov    -0xc0(%rbp),%rax
    3206:	48 89 c7             	mov    %rax,%rdi
    3209:	e8 26 2c 00 00       	call   5e34 <_Z19parsec_barrier_waitP16parsec_barrier_t>
    320e:	48 8b 45 e8          	mov    -0x18(%rbp),%rax
    3212:	89 45 98             	mov    %eax,-0x68(%rbp)
    3215:	eb 68                	jmp    327f <_Z5pgainlP6PointsdPliP16parsec_barrier_t+0x2c4>
    3217:	48 8b 15 32 6e 00 00 	mov    0x6e32(%rip),%rdx        # a050 <_ZL9is_center>
    321e:	8b 45 98             	mov    -0x68(%rbp),%eax
    3221:	48 98                	cltq   
    3223:	48 01 d0             	add    %rdx,%rax
    3226:	0f b6 00             	movzbl (%rax),%eax
    3229:	84 c0                	test   %al,%al
    322b:	74 4e                	je     327b <_Z5pgainlP6PointsdPliP16parsec_barrier_t+0x2c0>
    322d:	48 8b 15 24 6e 00 00 	mov    0x6e24(%rip),%rdx        # a058 <_ZL12center_table>
    3234:	8b 45 98             	mov    -0x68(%rbp),%eax
    3237:	48 98                	cltq   
    3239:	48 c1 e0 02          	shl    $0x2,%rax
    323d:	48 01 d0             	add    %rdx,%rax
    3240:	8b 08                	mov    (%rax),%ecx
    3242:	48 8b 15 c7 6e 00 00 	mov    0x6ec7(%rip),%rdx        # a110 <_ZZ5pgainlP6PointsdPliP16parsec_barrier_tE8work_mem>
    3249:	8b 85 4c ff ff ff    	mov    -0xb4(%rbp),%eax
    324f:	0f af 45 84          	imul   -0x7c(%rbp),%eax
    3253:	48 98                	cltq   
    3255:	48 c1 e0 03          	shl    $0x3,%rax
    3259:	48 01 d0             	add    %rdx,%rax
    325c:	f2 0f 10 00          	movsd  (%rax),%xmm0
    3260:	f2 0f 2c d0          	cvttsd2si %xmm0,%edx
    3264:	48 8b 35 ed 6d 00 00 	mov    0x6ded(%rip),%rsi        # a058 <_ZL12center_table>
    326b:	8b 45 98             	mov    -0x68(%rbp),%eax
    326e:	48 98                	cltq   
    3270:	48 c1 e0 02          	shl    $0x2,%rax
    3274:	48 01 f0             	add    %rsi,%rax
    3277:	01 ca                	add    %ecx,%edx
    3279:	89 10                	mov    %edx,(%rax)
    327b:	83 45 98 01          	addl   $0x1,-0x68(%rbp)
    327f:	8b 45 98             	mov    -0x68(%rbp),%eax
    3282:	48 98                	cltq   
    3284:	48 39 45 c8          	cmp    %rax,-0x38(%rbp)
    3288:	7f 8d                	jg     3217 <_Z5pgainlP6PointsdPliP16parsec_barrier_t+0x25c>
    328a:	48 8b 45 c8          	mov    -0x38(%rbp),%rax
    328e:	48 2b 45 e8          	sub    -0x18(%rbp),%rax
    3292:	48 89 c2             	mov    %rax,%rdx
    3295:	48 8b 0d ac 6d 00 00 	mov    0x6dac(%rip),%rcx        # a048 <_ZL17switch_membership>
    329c:	48 8b 45 e8          	mov    -0x18(%rbp),%rax
    32a0:	48 01 c8             	add    %rcx,%rax
    32a3:	be 00 00 00 00       	mov    $0x0,%esi
    32a8:	48 89 c7             	mov    %rax,%rdi
    32ab:	e8 30 f0 ff ff       	call   22e0 <memset@plt>
    32b0:	8b 45 84             	mov    -0x7c(%rbp),%eax
    32b3:	48 98                	cltq   
    32b5:	48 8d 14 c5 00 00 00 	lea    0x0(,%rax,8),%rdx
    32bc:	00 
    32bd:	48 8b 0d 4c 6e 00 00 	mov    0x6e4c(%rip),%rcx        # a110 <_ZZ5pgainlP6PointsdPliP16parsec_barrier_tE8work_mem>
    32c4:	8b 85 4c ff ff ff    	mov    -0xb4(%rbp),%eax
    32ca:	0f af 45 84          	imul   -0x7c(%rbp),%eax
    32ce:	48 98                	cltq   
    32d0:	48 c1 e0 03          	shl    $0x3,%rax
    32d4:	48 01 c8             	add    %rcx,%rax
    32d7:	be 00 00 00 00       	mov    $0x0,%esi
    32dc:	48 89 c7             	mov    %rax,%rdi
    32df:	e8 fc ef ff ff       	call   22e0 <memset@plt>
    32e4:	83 bd 4c ff ff ff 00 	cmpl   $0x0,-0xb4(%rbp)
    32eb:	75 34                	jne    3321 <_Z5pgainlP6PointsdPliP16parsec_barrier_t+0x366>
    32ed:	8b 45 84             	mov    -0x7c(%rbp),%eax
    32f0:	48 98                	cltq   
    32f2:	48 8d 14 c5 00 00 00 	lea    0x0(,%rax,8),%rdx
    32f9:	00 
    32fa:	48 8b 0d 0f 6e 00 00 	mov    0x6e0f(%rip),%rcx        # a110 <_ZZ5pgainlP6PointsdPliP16parsec_barrier_tE8work_mem>
    3301:	8b 05 59 6d 00 00    	mov    0x6d59(%rip),%eax        # a060 <_ZL5nproc>
    3307:	0f af 45 84          	imul   -0x7c(%rbp),%eax
    330b:	48 98                	cltq   
    330d:	48 c1 e0 03          	shl    $0x3,%rax
    3311:	48 01 c8             	add    %rcx,%rax
    3314:	be 00 00 00 00       	mov    $0x0,%esi
    3319:	48 89 c7             	mov    %rax,%rdi
    331c:	e8 bf ef ff ff       	call   22e0 <memset@plt>
    3321:	48 8b 85 40 ff ff ff 	mov    -0xc0(%rbp),%rax
    3328:	48 89 c7             	mov    %rax,%rdi
    332b:	e8 04 2b 00 00       	call   5e34 <_Z19parsec_barrier_waitP16parsec_barrier_t>
    3330:	48 8b 15 d9 6d 00 00 	mov    0x6dd9(%rip),%rdx        # a110 <_ZZ5pgainlP6PointsdPliP16parsec_barrier_tE8work_mem>
    3337:	8b 85 4c ff ff ff    	mov    -0xb4(%rbp),%eax
    333d:	0f af 45 84          	imul   -0x7c(%rbp),%eax
    3341:	48 98                	cltq   
    3343:	48 c1 e0 03          	shl    $0x3,%rax
    3347:	48 01 d0             	add    %rdx,%rax
    334a:	48 89 45 f0          	mov    %rax,-0x10(%rbp)
    334e:	48 8b 15 bb 6d 00 00 	mov    0x6dbb(%rip),%rdx        # a110 <_ZZ5pgainlP6PointsdPliP16parsec_barrier_tE8work_mem>
    3355:	8b 05 05 6d 00 00    	mov    0x6d05(%rip),%eax        # a060 <_ZL5nproc>
    335b:	0f af 45 84          	imul   -0x7c(%rbp),%eax
    335f:	48 98                	cltq   
    3361:	48 c1 e0 03          	shl    $0x3,%rax
    3365:	48 01 d0             	add    %rdx,%rax
    3368:	48 89 45 f8          	mov    %rax,-0x8(%rbp)
    336c:	48 8b 45 e8          	mov    -0x18(%rbp),%rax
    3370:	89 85 7c ff ff ff    	mov    %eax,-0x84(%rbp)
    3376:	e9 78 01 00 00       	jmp    34f3 <_Z5pgainlP6PointsdPliP16parsec_barrier_t+0x538>
    337b:	48 8b 85 60 ff ff ff 	mov    -0xa0(%rbp),%rax
    3382:	8b 48 08             	mov    0x8(%rax),%ecx
    3385:	48 8b 85 60 ff ff ff 	mov    -0xa0(%rbp),%rax
    338c:	48 8b 50 10          	mov    0x10(%rax),%rdx
    3390:	48 8b 85 68 ff ff ff 	mov    -0x98(%rbp),%rax
    3397:	48 c1 e0 05          	shl    $0x5,%rax
    339b:	48 01 c2             	add    %rax,%rdx
    339e:	48 8b 85 60 ff ff ff 	mov    -0xa0(%rbp),%rax
    33a5:	48 8b 70 10          	mov    0x10(%rax),%rsi
    33a9:	8b 85 7c ff ff ff    	mov    -0x84(%rbp),%eax
    33af:	48 98                	cltq   
    33b1:	48 c1 e0 05          	shl    $0x5,%rax
    33b5:	48 01 f0             	add    %rsi,%rax
    33b8:	ff 72 18             	push   0x18(%rdx)
    33bb:	ff 72 10             	push   0x10(%rdx)
    33be:	ff 72 08             	push   0x8(%rdx)
    33c1:	ff 32                	push   (%rdx)
    33c3:	ff 70 18             	push   0x18(%rax)
    33c6:	ff 70 10             	push   0x10(%rax)
    33c9:	ff 70 08             	push   0x8(%rax)
    33cc:	ff 30                	push   (%rax)
    33ce:	89 cf                	mov    %ecx,%edi
    33d0:	e8 f5 f4 ff ff       	call   28ca <_Z4dist5PointS_i>
    33d5:	48 83 c4 40          	add    $0x40,%rsp
    33d9:	48 8b 85 60 ff ff ff 	mov    -0xa0(%rbp),%rax
    33e0:	48 8b 50 10          	mov    0x10(%rax),%rdx
    33e4:	8b 85 7c ff ff ff    	mov    -0x84(%rbp),%eax
    33ea:	48 98                	cltq   
    33ec:	48 c1 e0 05          	shl    $0x5,%rax
    33f0:	48 01 d0             	add    %rdx,%rax
    33f3:	f3 0f 10 08          	movss  (%rax),%xmm1
    33f7:	f3 0f 59 c1          	mulss  %xmm1,%xmm0
    33fb:	f3 0f 11 45 bc       	movss  %xmm0,-0x44(%rbp)
    3400:	48 8b 85 60 ff ff ff 	mov    -0xa0(%rbp),%rax
    3407:	48 8b 50 10          	mov    0x10(%rax),%rdx
    340b:	8b 85 7c ff ff ff    	mov    -0x84(%rbp),%eax
    3411:	48 98                	cltq   
    3413:	48 c1 e0 05          	shl    $0x5,%rax
    3417:	48 01 d0             	add    %rdx,%rax
    341a:	f3 0f 10 40 18       	movss  0x18(%rax),%xmm0
    341f:	f3 0f 11 45 c0       	movss  %xmm0,-0x40(%rbp)
    3424:	f3 0f 10 45 c0       	movss  -0x40(%rbp),%xmm0
    3429:	0f 2f 45 bc          	comiss -0x44(%rbp),%xmm0
    342d:	76 36                	jbe    3465 <_Z5pgainlP6PointsdPliP16parsec_barrier_t+0x4aa>
    342f:	48 8b 15 12 6c 00 00 	mov    0x6c12(%rip),%rdx        # a048 <_ZL17switch_membership>
    3436:	8b 85 7c ff ff ff    	mov    -0x84(%rbp),%eax
    343c:	48 98                	cltq   
    343e:	48 01 d0             	add    %rdx,%rax
    3441:	c6 00 01             	movb   $0x1,(%rax)
    3444:	f3 0f 10 45 bc       	movss  -0x44(%rbp),%xmm0
    3449:	f3 0f 5c 45 c0       	subss  -0x40(%rbp),%xmm0
    344e:	f3 0f 5a c0          	cvtss2sd %xmm0,%xmm0
    3452:	f2 0f 10 4d d0       	movsd  -0x30(%rbp),%xmm1
    3457:	f2 0f 58 c1          	addsd  %xmm1,%xmm0
    345b:	f2 0f 11 45 d0       	movsd  %xmm0,-0x30(%rbp)
    3460:	e9 87 00 00 00       	jmp    34ec <_Z5pgainlP6PointsdPliP16parsec_barrier_t+0x531>
    3465:	48 8b 85 60 ff ff ff 	mov    -0xa0(%rbp),%rax
    346c:	48 8b 50 10          	mov    0x10(%rax),%rdx
    3470:	8b 85 7c ff ff ff    	mov    -0x84(%rbp),%eax
    3476:	48 98                	cltq   
    3478:	48 c1 e0 05          	shl    $0x5,%rax
    347c:	48 01 d0             	add    %rdx,%rax
    347f:	48 8b 40 10          	mov    0x10(%rax),%rax
    3483:	89 45 c4             	mov    %eax,-0x3c(%rbp)
    3486:	48 8b 15 cb 6b 00 00 	mov    0x6bcb(%rip),%rdx        # a058 <_ZL12center_table>
    348d:	8b 45 c4             	mov    -0x3c(%rbp),%eax
    3490:	48 98                	cltq   
    3492:	48 c1 e0 02          	shl    $0x2,%rax
    3496:	48 01 d0             	add    %rdx,%rax
    3499:	8b 00                	mov    (%rax),%eax
    349b:	48 98                	cltq   
    349d:	48 8d 14 c5 00 00 00 	lea    0x0(,%rax,8),%rdx
    34a4:	00 
    34a5:	48 8b 45 f0          	mov    -0x10(%rbp),%rax
    34a9:	48 01 d0             	add    %rdx,%rax
    34ac:	f2 0f 10 08          	movsd  (%rax),%xmm1
    34b0:	f3 0f 10 45 c0       	movss  -0x40(%rbp),%xmm0
    34b5:	f3 0f 5c 45 bc       	subss  -0x44(%rbp),%xmm0
    34ba:	f3 0f 5a c0          	cvtss2sd %xmm0,%xmm0
    34be:	48 8b 15 93 6b 00 00 	mov    0x6b93(%rip),%rdx        # a058 <_ZL12center_table>
    34c5:	8b 45 c4             	mov    -0x3c(%rbp),%eax
    34c8:	48 98                	cltq   
    34ca:	48 c1 e0 02          	shl    $0x2,%rax
    34ce:	48 01 d0             	add    %rdx,%rax
    34d1:	8b 00                	mov    (%rax),%eax
    34d3:	48 98                	cltq   
    34d5:	48 8d 14 c5 00 00 00 	lea    0x0(,%rax,8),%rdx
    34dc:	00 
    34dd:	48 8b 45 f0          	mov    -0x10(%rbp),%rax
    34e1:	48 01 d0             	add    %rdx,%rax
    34e4:	f2 0f 58 c1          	addsd  %xmm1,%xmm0
    34e8:	f2 0f 11 00          	movsd  %xmm0,(%rax)
    34ec:	83 85 7c ff ff ff 01 	addl   $0x1,-0x84(%rbp)
    34f3:	8b 85 7c ff ff ff    	mov    -0x84(%rbp),%eax
    34f9:	48 98                	cltq   
    34fb:	48 39 45 c8          	cmp    %rax,-0x38(%rbp)
    34ff:	0f 8f 76 fe ff ff    	jg     337b <_Z5pgainlP6PointsdPliP16parsec_barrier_t+0x3c0>
    3505:	48 8b 85 40 ff ff ff 	mov    -0xc0(%rbp),%rax
    350c:	48 89 c7             	mov    %rax,%rdi
    350f:	e8 20 29 00 00       	call   5e34 <_Z19parsec_barrier_waitP16parsec_barrier_t>
    3514:	48 8b 45 e8          	mov    -0x18(%rbp),%rax
    3518:	89 45 9c             	mov    %eax,-0x64(%rbp)
    351b:	e9 d4 00 00 00       	jmp    35f4 <_Z5pgainlP6PointsdPliP16parsec_barrier_t+0x639>
    3520:	48 8b 15 29 6b 00 00 	mov    0x6b29(%rip),%rdx        # a050 <_ZL9is_center>
    3527:	8b 45 9c             	mov    -0x64(%rbp),%eax
    352a:	48 98                	cltq   
    352c:	48 01 d0             	add    %rdx,%rax
    352f:	0f b6 00             	movzbl (%rax),%eax
    3532:	84 c0                	test   %al,%al
    3534:	0f 84 b6 00 00 00    	je     35f0 <_Z5pgainlP6PointsdPliP16parsec_barrier_t+0x635>
    353a:	f2 0f 10 85 58 ff ff 	movsd  -0xa8(%rbp),%xmm0
    3541:	ff 
    3542:	f2 0f 11 45 d8       	movsd  %xmm0,-0x28(%rbp)
    3547:	c7 45 a0 00 00 00 00 	movl   $0x0,-0x60(%rbp)
    354e:	eb 44                	jmp    3594 <_Z5pgainlP6PointsdPliP16parsec_barrier_t+0x5d9>
    3550:	48 8b 15 b9 6b 00 00 	mov    0x6bb9(%rip),%rdx        # a110 <_ZZ5pgainlP6PointsdPliP16parsec_barrier_tE8work_mem>
    3557:	48 8b 0d fa 6a 00 00 	mov    0x6afa(%rip),%rcx        # a058 <_ZL12center_table>
    355e:	8b 45 9c             	mov    -0x64(%rbp),%eax
    3561:	48 98                	cltq   
    3563:	48 c1 e0 02          	shl    $0x2,%rax
    3567:	48 01 c8             	add    %rcx,%rax
    356a:	8b 08                	mov    (%rax),%ecx
    356c:	8b 45 a0             	mov    -0x60(%rbp),%eax
    356f:	0f af 45 84          	imul   -0x7c(%rbp),%eax
    3573:	01 c8                	add    %ecx,%eax
    3575:	48 98                	cltq   
    3577:	48 c1 e0 03          	shl    $0x3,%rax
    357b:	48 01 d0             	add    %rdx,%rax
    357e:	f2 0f 10 00          	movsd  (%rax),%xmm0
    3582:	f2 0f 10 4d d8       	movsd  -0x28(%rbp),%xmm1
    3587:	f2 0f 58 c1          	addsd  %xmm1,%xmm0
    358b:	f2 0f 11 45 d8       	movsd  %xmm0,-0x28(%rbp)
    3590:	83 45 a0 01          	addl   $0x1,-0x60(%rbp)
    3594:	8b 05 c6 6a 00 00    	mov    0x6ac6(%rip),%eax        # a060 <_ZL5nproc>
    359a:	39 45 a0             	cmp    %eax,-0x60(%rbp)
    359d:	7c b1                	jl     3550 <_Z5pgainlP6PointsdPliP16parsec_barrier_t+0x595>
    359f:	48 8b 15 b2 6a 00 00 	mov    0x6ab2(%rip),%rdx        # a058 <_ZL12center_table>
    35a6:	8b 45 9c             	mov    -0x64(%rbp),%eax
    35a9:	48 98                	cltq   
    35ab:	48 c1 e0 02          	shl    $0x2,%rax
    35af:	48 01 d0             	add    %rdx,%rax
    35b2:	8b 00                	mov    (%rax),%eax
    35b4:	48 98                	cltq   
    35b6:	48 8d 14 c5 00 00 00 	lea    0x0(,%rax,8),%rdx
    35bd:	00 
    35be:	48 8b 45 f8          	mov    -0x8(%rbp),%rax
    35c2:	48 01 d0             	add    %rdx,%rax
    35c5:	f2 0f 10 45 d8       	movsd  -0x28(%rbp),%xmm0
    35ca:	f2 0f 11 00          	movsd  %xmm0,(%rax)
    35ce:	f2 0f 10 45 d8       	movsd  -0x28(%rbp),%xmm0
    35d3:	66 0f ef c9          	pxor   %xmm1,%xmm1
    35d7:	66 0f 2f c1          	comisd %xmm1,%xmm0
    35db:	76 13                	jbe    35f0 <_Z5pgainlP6PointsdPliP16parsec_barrier_t+0x635>
    35dd:	83 45 80 01          	addl   $0x1,-0x80(%rbp)
    35e1:	f2 0f 10 45 d0       	movsd  -0x30(%rbp),%xmm0
    35e6:	f2 0f 5c 45 d8       	subsd  -0x28(%rbp),%xmm0
    35eb:	f2 0f 11 45 d0       	movsd  %xmm0,-0x30(%rbp)
    35f0:	83 45 9c 01          	addl   $0x1,-0x64(%rbp)
    35f4:	8b 45 9c             	mov    -0x64(%rbp),%eax
    35f7:	48 98                	cltq   
    35f9:	48 39 45 c8          	cmp    %rax,-0x38(%rbp)
    35fd:	0f 8f 1d ff ff ff    	jg     3520 <_Z5pgainlP6PointsdPliP16parsec_barrier_t+0x565>
    3603:	48 8b 15 06 6b 00 00 	mov    0x6b06(%rip),%rdx        # a110 <_ZZ5pgainlP6PointsdPliP16parsec_barrier_tE8work_mem>
    360a:	8b 85 4c ff ff ff    	mov    -0xb4(%rbp),%eax
    3610:	0f af 45 84          	imul   -0x7c(%rbp),%eax
    3614:	89 c1                	mov    %eax,%ecx
    3616:	8b 45 b4             	mov    -0x4c(%rbp),%eax
    3619:	01 c8                	add    %ecx,%eax
    361b:	48 98                	cltq   
    361d:	48 c1 e0 03          	shl    $0x3,%rax
    3621:	48 01 d0             	add    %rdx,%rax
    3624:	66 0f ef c0          	pxor   %xmm0,%xmm0
    3628:	f2 0f 2a 45 80       	cvtsi2sdl -0x80(%rbp),%xmm0
    362d:	f2 0f 11 00          	movsd  %xmm0,(%rax)
    3631:	48 8b 15 d8 6a 00 00 	mov    0x6ad8(%rip),%rdx        # a110 <_ZZ5pgainlP6PointsdPliP16parsec_barrier_tE8work_mem>
    3638:	8b 85 4c ff ff ff    	mov    -0xb4(%rbp),%eax
    363e:	0f af 45 84          	imul   -0x7c(%rbp),%eax
    3642:	89 c1                	mov    %eax,%ecx
    3644:	8b 45 b4             	mov    -0x4c(%rbp),%eax
    3647:	01 c8                	add    %ecx,%eax
    3649:	48 98                	cltq   
    364b:	48 83 c0 01          	add    $0x1,%rax
    364f:	48 c1 e0 03          	shl    $0x3,%rax
    3653:	48 01 d0             	add    %rdx,%rax
    3656:	f2 0f 10 45 d0       	movsd  -0x30(%rbp),%xmm0
    365b:	f2 0f 11 00          	movsd  %xmm0,(%rax)
    365f:	48 8b 85 40 ff ff ff 	mov    -0xc0(%rbp),%rax
    3666:	48 89 c7             	mov    %rax,%rdi
    3669:	e8 c6 27 00 00       	call   5e34 <_Z19parsec_barrier_waitP16parsec_barrier_t>
    366e:	83 bd 4c ff ff ff 00 	cmpl   $0x0,-0xb4(%rbp)
    3675:	0f 85 96 00 00 00    	jne    3711 <_Z5pgainlP6PointsdPliP16parsec_barrier_t+0x756>
    367b:	f2 0f 10 85 58 ff ff 	movsd  -0xa8(%rbp),%xmm0
    3682:	ff 
    3683:	f2 0f 11 05 8d 6a 00 	movsd  %xmm0,0x6a8d(%rip)        # a118 <_ZZ5pgainlP6PointsdPliP16parsec_barrier_tE20gl_cost_of_opening_x>
    368a:	00 
    368b:	c7 45 a4 00 00 00 00 	movl   $0x0,-0x5c(%rbp)
    3692:	eb 72                	jmp    3706 <_Z5pgainlP6PointsdPliP16parsec_barrier_t+0x74b>
    3694:	48 8b 15 75 6a 00 00 	mov    0x6a75(%rip),%rdx        # a110 <_ZZ5pgainlP6PointsdPliP16parsec_barrier_tE8work_mem>
    369b:	8b 45 a4             	mov    -0x5c(%rbp),%eax
    369e:	0f af 45 84          	imul   -0x7c(%rbp),%eax
    36a2:	89 c1                	mov    %eax,%ecx
    36a4:	8b 45 b4             	mov    -0x4c(%rbp),%eax
    36a7:	01 c8                	add    %ecx,%eax
    36a9:	48 98                	cltq   
    36ab:	48 c1 e0 03          	shl    $0x3,%rax
    36af:	48 01 d0             	add    %rdx,%rax
    36b2:	f2 0f 10 00          	movsd  (%rax),%xmm0
    36b6:	f2 0f 2c d0          	cvttsd2si %xmm0,%edx
    36ba:	8b 05 60 6a 00 00    	mov    0x6a60(%rip),%eax        # a120 <_ZZ5pgainlP6PointsdPliP16parsec_barrier_tE29gl_number_of_centers_to_close>
    36c0:	01 d0                	add    %edx,%eax
    36c2:	89 05 58 6a 00 00    	mov    %eax,0x6a58(%rip)        # a120 <_ZZ5pgainlP6PointsdPliP16parsec_barrier_tE29gl_number_of_centers_to_close>
    36c8:	48 8b 15 41 6a 00 00 	mov    0x6a41(%rip),%rdx        # a110 <_ZZ5pgainlP6PointsdPliP16parsec_barrier_tE8work_mem>
    36cf:	8b 45 a4             	mov    -0x5c(%rbp),%eax
    36d2:	0f af 45 84          	imul   -0x7c(%rbp),%eax
    36d6:	89 c1                	mov    %eax,%ecx
    36d8:	8b 45 b4             	mov    -0x4c(%rbp),%eax
    36db:	01 c8                	add    %ecx,%eax
    36dd:	48 98                	cltq   
    36df:	48 83 c0 01          	add    $0x1,%rax
    36e3:	48 c1 e0 03          	shl    $0x3,%rax
    36e7:	48 01 d0             	add    %rdx,%rax
    36ea:	f2 0f 10 08          	movsd  (%rax),%xmm1
    36ee:	f2 0f 10 05 22 6a 00 	movsd  0x6a22(%rip),%xmm0        # a118 <_ZZ5pgainlP6PointsdPliP16parsec_barrier_tE20gl_cost_of_opening_x>
    36f5:	00 
    36f6:	f2 0f 58 c1          	addsd  %xmm1,%xmm0
    36fa:	f2 0f 11 05 16 6a 00 	movsd  %xmm0,0x6a16(%rip)        # a118 <_ZZ5pgainlP6PointsdPliP16parsec_barrier_tE20gl_cost_of_opening_x>
    3701:	00 
    3702:	83 45 a4 01          	addl   $0x1,-0x5c(%rbp)
    3706:	8b 05 54 69 00 00    	mov    0x6954(%rip),%eax        # a060 <_ZL5nproc>
    370c:	39 45 a4             	cmp    %eax,-0x5c(%rbp)
    370f:	7c 83                	jl     3694 <_Z5pgainlP6PointsdPliP16parsec_barrier_t+0x6d9>
    3711:	48 8b 85 40 ff ff ff 	mov    -0xc0(%rbp),%rax
    3718:	48 89 c7             	mov    %rax,%rdi
    371b:	e8 14 27 00 00       	call   5e34 <_Z19parsec_barrier_waitP16parsec_barrier_t>
    3720:	f2 0f 10 0d f0 69 00 	movsd  0x69f0(%rip),%xmm1        # a118 <_ZZ5pgainlP6PointsdPliP16parsec_barrier_tE20gl_cost_of_opening_x>
    3727:	00 
    3728:	66 0f ef c0          	pxor   %xmm0,%xmm0
    372c:	66 0f 2f c1          	comisd %xmm1,%xmm0
    3730:	0f 86 27 02 00 00    	jbe    395d <_Z5pgainlP6PointsdPliP16parsec_barrier_t+0x9a2>
    3736:	48 8b 45 e8          	mov    -0x18(%rbp),%rax
    373a:	89 45 a8             	mov    %eax,-0x58(%rbp)
    373d:	e9 3c 01 00 00       	jmp    387e <_Z5pgainlP6PointsdPliP16parsec_barrier_t+0x8c3>
    3742:	48 8b 15 0f 69 00 00 	mov    0x690f(%rip),%rdx        # a058 <_ZL12center_table>
    3749:	48 8b 85 60 ff ff ff 	mov    -0xa0(%rbp),%rax
    3750:	48 8b 48 10          	mov    0x10(%rax),%rcx
    3754:	8b 45 a8             	mov    -0x58(%rbp),%eax
    3757:	48 98                	cltq   
    3759:	48 c1 e0 05          	shl    $0x5,%rax
    375d:	48 01 c8             	add    %rcx,%rax
    3760:	48 8b 40 10          	mov    0x10(%rax),%rax
    3764:	48 c1 e0 02          	shl    $0x2,%rax
    3768:	48 01 d0             	add    %rdx,%rax
    376b:	8b 00                	mov    (%rax),%eax
    376d:	48 98                	cltq   
    376f:	48 8d 14 c5 00 00 00 	lea    0x0(,%rax,8),%rdx
    3776:	00 
    3777:	48 8b 45 f8          	mov    -0x8(%rbp),%rax
    377b:	48 01 d0             	add    %rdx,%rax
    377e:	f2 0f 10 00          	movsd  (%rax),%xmm0
    3782:	66 0f ef c9          	pxor   %xmm1,%xmm1
    3786:	66 0f 2f c1          	comisd %xmm1,%xmm0
    378a:	0f 97 c0             	seta   %al
    378d:	88 85 7b ff ff ff    	mov    %al,-0x85(%rbp)
    3793:	48 8b 15 ae 68 00 00 	mov    0x68ae(%rip),%rdx        # a048 <_ZL17switch_membership>
    379a:	8b 45 a8             	mov    -0x58(%rbp),%eax
    379d:	48 98                	cltq   
    379f:	48 01 d0             	add    %rdx,%rax
    37a2:	0f b6 00             	movzbl (%rax),%eax
    37a5:	84 c0                	test   %al,%al
    37a7:	75 0d                	jne    37b6 <_Z5pgainlP6PointsdPliP16parsec_barrier_t+0x7fb>
    37a9:	80 bd 7b ff ff ff 00 	cmpb   $0x0,-0x85(%rbp)
    37b0:	0f 84 c4 00 00 00    	je     387a <_Z5pgainlP6PointsdPliP16parsec_barrier_t+0x8bf>
    37b6:	48 8b 85 60 ff ff ff 	mov    -0xa0(%rbp),%rax
    37bd:	48 8b 50 10          	mov    0x10(%rax),%rdx
    37c1:	8b 45 a8             	mov    -0x58(%rbp),%eax
    37c4:	48 98                	cltq   
    37c6:	48 c1 e0 05          	shl    $0x5,%rax
    37ca:	48 01 d0             	add    %rdx,%rax
    37cd:	f3 0f 10 10          	movss  (%rax),%xmm2
    37d1:	f3 0f 11 95 48 ff ff 	movss  %xmm2,-0xb8(%rbp)
    37d8:	ff 
    37d9:	48 8b 85 60 ff ff ff 	mov    -0xa0(%rbp),%rax
    37e0:	8b 48 08             	mov    0x8(%rax),%ecx
    37e3:	48 8b 85 60 ff ff ff 	mov    -0xa0(%rbp),%rax
    37ea:	48 8b 50 10          	mov    0x10(%rax),%rdx
    37ee:	48 8b 85 68 ff ff ff 	mov    -0x98(%rbp),%rax
    37f5:	48 c1 e0 05          	shl    $0x5,%rax
    37f9:	48 01 c2             	add    %rax,%rdx
    37fc:	48 8b 85 60 ff ff ff 	mov    -0xa0(%rbp),%rax
    3803:	48 8b 70 10          	mov    0x10(%rax),%rsi
    3807:	8b 45 a8             	mov    -0x58(%rbp),%eax
    380a:	48 98                	cltq   
    380c:	48 c1 e0 05          	shl    $0x5,%rax
    3810:	48 01 f0             	add    %rsi,%rax
    3813:	ff 72 18             	push   0x18(%rdx)
    3816:	ff 72 10             	push   0x10(%rdx)
    3819:	ff 72 08             	push   0x8(%rdx)
    381c:	ff 32                	push   (%rdx)
    381e:	ff 70 18             	push   0x18(%rax)
    3821:	ff 70 10             	push   0x10(%rax)
    3824:	ff 70 08             	push   0x8(%rax)
    3827:	ff 30                	push   (%rax)
    3829:	89 cf                	mov    %ecx,%edi
    382b:	e8 9a f0 ff ff       	call   28ca <_Z4dist5PointS_i>
    3830:	48 83 c4 40          	add    $0x40,%rsp
    3834:	48 8b 85 60 ff ff ff 	mov    -0xa0(%rbp),%rax
    383b:	48 8b 50 10          	mov    0x10(%rax),%rdx
    383f:	8b 45 a8             	mov    -0x58(%rbp),%eax
    3842:	48 98                	cltq   
    3844:	48 c1 e0 05          	shl    $0x5,%rax
    3848:	48 01 d0             	add    %rdx,%rax
    384b:	f3 0f 59 85 48 ff ff 	mulss  -0xb8(%rbp),%xmm0
    3852:	ff 
    3853:	f3 0f 11 40 18       	movss  %xmm0,0x18(%rax)
    3858:	48 8b 85 60 ff ff ff 	mov    -0xa0(%rbp),%rax
    385f:	48 8b 50 10          	mov    0x10(%rax),%rdx
    3863:	8b 45 a8             	mov    -0x58(%rbp),%eax
    3866:	48 98                	cltq   
    3868:	48 c1 e0 05          	shl    $0x5,%rax
    386c:	48 01 c2             	add    %rax,%rdx
    386f:	48 8b 85 68 ff ff ff 	mov    -0x98(%rbp),%rax
    3876:	48 89 42 10          	mov    %rax,0x10(%rdx)
    387a:	83 45 a8 01          	addl   $0x1,-0x58(%rbp)
    387e:	8b 45 a8             	mov    -0x58(%rbp),%eax
    3881:	48 98                	cltq   
    3883:	48 39 45 c8          	cmp    %rax,-0x38(%rbp)
    3887:	0f 8f b5 fe ff ff    	jg     3742 <_Z5pgainlP6PointsdPliP16parsec_barrier_t+0x787>
    388d:	48 8b 45 e8          	mov    -0x18(%rbp),%rax
    3891:	89 45 ac             	mov    %eax,-0x54(%rbp)
    3894:	eb 60                	jmp    38f6 <_Z5pgainlP6PointsdPliP16parsec_barrier_t+0x93b>
    3896:	48 8b 15 b3 67 00 00 	mov    0x67b3(%rip),%rdx        # a050 <_ZL9is_center>
    389d:	8b 45 ac             	mov    -0x54(%rbp),%eax
    38a0:	48 98                	cltq   
    38a2:	48 01 d0             	add    %rdx,%rax
    38a5:	0f b6 00             	movzbl (%rax),%eax
    38a8:	84 c0                	test   %al,%al
    38aa:	74 46                	je     38f2 <_Z5pgainlP6PointsdPliP16parsec_barrier_t+0x937>
    38ac:	48 8b 15 a5 67 00 00 	mov    0x67a5(%rip),%rdx        # a058 <_ZL12center_table>
    38b3:	8b 45 ac             	mov    -0x54(%rbp),%eax
    38b6:	48 98                	cltq   
    38b8:	48 c1 e0 02          	shl    $0x2,%rax
    38bc:	48 01 d0             	add    %rdx,%rax
    38bf:	8b 00                	mov    (%rax),%eax
    38c1:	48 98                	cltq   
    38c3:	48 8d 14 c5 00 00 00 	lea    0x0(,%rax,8),%rdx
    38ca:	00 
    38cb:	48 8b 45 f8          	mov    -0x8(%rbp),%rax
    38cf:	48 01 d0             	add    %rdx,%rax
    38d2:	f2 0f 10 00          	movsd  (%rax),%xmm0
    38d6:	66 0f ef c9          	pxor   %xmm1,%xmm1
    38da:	66 0f 2f c1          	comisd %xmm1,%xmm0
    38de:	76 12                	jbe    38f2 <_Z5pgainlP6PointsdPliP16parsec_barrier_t+0x937>
    38e0:	48 8b 15 69 67 00 00 	mov    0x6769(%rip),%rdx        # a050 <_ZL9is_center>
    38e7:	8b 45 ac             	mov    -0x54(%rbp),%eax
    38ea:	48 98                	cltq   
    38ec:	48 01 d0             	add    %rdx,%rax
    38ef:	c6 00 00             	movb   $0x0,(%rax)
    38f2:	83 45 ac 01          	addl   $0x1,-0x54(%rbp)
    38f6:	8b 45 ac             	mov    -0x54(%rbp),%eax
    38f9:	48 98                	cltq   
    38fb:	48 39 45 c8          	cmp    %rax,-0x38(%rbp)
    38ff:	7f 95                	jg     3896 <_Z5pgainlP6PointsdPliP16parsec_barrier_t+0x8db>
    3901:	48 8b 85 68 ff ff ff 	mov    -0x98(%rbp),%rax
    3908:	48 3b 45 e8          	cmp    -0x18(%rbp),%rax
    390c:	7c 21                	jl     392f <_Z5pgainlP6PointsdPliP16parsec_barrier_t+0x974>
    390e:	48 8b 85 68 ff ff ff 	mov    -0x98(%rbp),%rax
    3915:	48 3b 45 c8          	cmp    -0x38(%rbp),%rax
    3919:	7d 14                	jge    392f <_Z5pgainlP6PointsdPliP16parsec_barrier_t+0x974>
    391b:	48 8b 15 2e 67 00 00 	mov    0x672e(%rip),%rdx        # a050 <_ZL9is_center>
    3922:	48 8b 85 68 ff ff ff 	mov    -0x98(%rbp),%rax
    3929:	48 01 d0             	add    %rdx,%rax
    392c:	c6 00 01             	movb   $0x1,(%rax)
    392f:	83 bd 4c ff ff ff 00 	cmpl   $0x0,-0xb4(%rbp)
    3936:	75 3a                	jne    3972 <_Z5pgainlP6PointsdPliP16parsec_barrier_t+0x9b7>
    3938:	48 8b 85 50 ff ff ff 	mov    -0xb0(%rbp),%rax
    393f:	48 8b 00             	mov    (%rax),%rax
    3942:	48 8d 50 01          	lea    0x1(%rax),%rdx
    3946:	8b 05 d4 67 00 00    	mov    0x67d4(%rip),%eax        # a120 <_ZZ5pgainlP6PointsdPliP16parsec_barrier_tE29gl_number_of_centers_to_close>
    394c:	48 98                	cltq   
    394e:	48 29 c2             	sub    %rax,%rdx
    3951:	48 8b 85 50 ff ff ff 	mov    -0xb0(%rbp),%rax
    3958:	48 89 10             	mov    %rdx,(%rax)
    395b:	eb 15                	jmp    3972 <_Z5pgainlP6PointsdPliP16parsec_barrier_t+0x9b7>
    395d:	83 bd 4c ff ff ff 00 	cmpl   $0x0,-0xb4(%rbp)
    3964:	75 0c                	jne    3972 <_Z5pgainlP6PointsdPliP16parsec_barrier_t+0x9b7>
    3966:	66 0f ef c0          	pxor   %xmm0,%xmm0
    396a:	f2 0f 11 05 a6 67 00 	movsd  %xmm0,0x67a6(%rip)        # a118 <_ZZ5pgainlP6PointsdPliP16parsec_barrier_tE20gl_cost_of_opening_x>
    3971:	00 
    3972:	48 8b 85 40 ff ff ff 	mov    -0xc0(%rbp),%rax
    3979:	48 89 c7             	mov    %rax,%rdi
    397c:	e8 b3 24 00 00       	call   5e34 <_Z19parsec_barrier_waitP16parsec_barrier_t>
    3981:	83 bd 4c ff ff ff 00 	cmpl   $0x0,-0xb4(%rbp)
    3988:	75 0f                	jne    3999 <_Z5pgainlP6PointsdPliP16parsec_barrier_t+0x9de>
    398a:	48 8b 05 7f 67 00 00 	mov    0x677f(%rip),%rax        # a110 <_ZZ5pgainlP6PointsdPliP16parsec_barrier_tE8work_mem>
    3991:	48 89 c7             	mov    %rax,%rdi
    3994:	e8 57 ea ff ff       	call   23f0 <free@plt>
    3999:	f2 0f 10 05 77 67 00 	movsd  0x6777(%rip),%xmm0        # a118 <_ZZ5pgainlP6PointsdPliP16parsec_barrier_tE20gl_cost_of_opening_x>
    39a0:	00 
    39a1:	f3 0f 7e 0d b7 39 00 	movq   0x39b7(%rip),%xmm1        # 7360 <_ZL22PARSEC_PROCESS_PRIVATE+0x348>
    39a8:	00 
    39a9:	66 0f 57 c1          	xorpd  %xmm1,%xmm0
    39ad:	66 48 0f 7e c0       	movq   %xmm0,%rax
    39b2:	66 48 0f 6e c0       	movq   %rax,%xmm0
    39b7:	c9                   	leave  
    39b8:	c3                   	ret    

00000000000039b9 <_Z3pFLP6PointsPiifPldlfiP16parsec_barrier_t>:
    39b9:	f3 0f 1e fa          	endbr64 
    39bd:	55                   	push   %rbp
    39be:	48 89 e5             	mov    %rsp,%rbp
    39c1:	48 83 ec 60          	sub    $0x60,%rsp
    39c5:	48 89 7d d8          	mov    %rdi,-0x28(%rbp)
    39c9:	48 89 75 d0          	mov    %rsi,-0x30(%rbp)
    39cd:	89 55 cc             	mov    %edx,-0x34(%rbp)
    39d0:	f3 0f 11 45 c8       	movss  %xmm0,-0x38(%rbp)
    39d5:	48 89 4d c0          	mov    %rcx,-0x40(%rbp)
    39d9:	f2 0f 11 4d b8       	movsd  %xmm1,-0x48(%rbp)
    39de:	4c 89 45 b0          	mov    %r8,-0x50(%rbp)
    39e2:	f3 0f 11 55 ac       	movss  %xmm2,-0x54(%rbp)
    39e7:	44 89 4d a8          	mov    %r9d,-0x58(%rbp)
    39eb:	48 8b 7d 10          	mov    0x10(%rbp),%rdi
    39ef:	e8 40 24 00 00       	call   5e34 <_Z19parsec_barrier_waitP16parsec_barrier_t>
    39f4:	f2 0f 10 45 b8       	movsd  -0x48(%rbp),%xmm0
    39f9:	f2 0f 11 45 e8       	movsd  %xmm0,-0x18(%rbp)
    39fe:	e9 c7 00 00 00       	jmp    3aca <_Z3pFLP6PointsPiifPldlfiP16parsec_barrier_t+0x111>
    3a03:	66 0f ef c0          	pxor   %xmm0,%xmm0
    3a07:	f2 0f 11 45 e8       	movsd  %xmm0,-0x18(%rbp)
    3a0c:	48 8b 45 d8          	mov    -0x28(%rbp),%rax
    3a10:	48 8b 00             	mov    (%rax),%rax
    3a13:	48 89 45 f0          	mov    %rax,-0x10(%rbp)
    3a17:	83 7d a8 00          	cmpl   $0x0,-0x58(%rbp)
    3a1b:	75 11                	jne    3a2e <_Z3pFLP6PointsPiifPldlfiP16parsec_barrier_t+0x75>
    3a1d:	8b 55 cc             	mov    -0x34(%rbp),%edx
    3a20:	48 8b 45 d0          	mov    -0x30(%rbp),%rax
    3a24:	89 d6                	mov    %edx,%esi
    3a26:	48 89 c7             	mov    %rax,%rdi
    3a29:	e8 e8 ed ff ff       	call   2816 <_Z10intshufflePii>
    3a2e:	48 8b 7d 10          	mov    0x10(%rbp),%rdi
    3a32:	e8 fd 23 00 00       	call   5e34 <_Z19parsec_barrier_waitP16parsec_barrier_t>
    3a37:	48 c7 45 e0 00 00 00 	movq   $0x0,-0x20(%rbp)
    3a3e:	00 
    3a3f:	eb 67                	jmp    3aa8 <_Z3pFLP6PointsPiifPldlfiP16parsec_barrier_t+0xef>
    3a41:	8b 45 cc             	mov    -0x34(%rbp),%eax
    3a44:	48 63 c8             	movslq %eax,%rcx
    3a47:	48 8b 45 e0          	mov    -0x20(%rbp),%rax
    3a4b:	48 99                	cqto   
    3a4d:	48 f7 f9             	idiv   %rcx
    3a50:	48 89 55 f8          	mov    %rdx,-0x8(%rbp)
    3a54:	66 0f ef db          	pxor   %xmm3,%xmm3
    3a58:	f3 0f 5a 5d c8       	cvtss2sd -0x38(%rbp),%xmm3
    3a5d:	66 48 0f 7e df       	movq   %xmm3,%rdi
    3a62:	48 8b 45 f8          	mov    -0x8(%rbp),%rax
    3a66:	48 8d 14 85 00 00 00 	lea    0x0(,%rax,4),%rdx
    3a6d:	00 
    3a6e:	48 8b 45 d0          	mov    -0x30(%rbp),%rax
    3a72:	48 01 d0             	add    %rdx,%rax
    3a75:	8b 00                	mov    (%rax),%eax
    3a77:	48 98                	cltq   
    3a79:	8b 4d a8             	mov    -0x58(%rbp),%ecx
    3a7c:	48 8b 55 c0          	mov    -0x40(%rbp),%rdx
    3a80:	48 8b 75 d8          	mov    -0x28(%rbp),%rsi
    3a84:	4c 8b 45 10          	mov    0x10(%rbp),%r8
    3a88:	66 48 0f 6e c7       	movq   %rdi,%xmm0
    3a8d:	48 89 c7             	mov    %rax,%rdi
    3a90:	e8 26 f5 ff ff       	call   2fbb <_Z5pgainlP6PointsdPliP16parsec_barrier_t>
    3a95:	f2 0f 10 4d e8       	movsd  -0x18(%rbp),%xmm1
    3a9a:	f2 0f 58 c1          	addsd  %xmm1,%xmm0
    3a9e:	f2 0f 11 45 e8       	movsd  %xmm0,-0x18(%rbp)
    3aa3:	48 83 45 e0 01       	addq   $0x1,-0x20(%rbp)
    3aa8:	48 8b 45 e0          	mov    -0x20(%rbp),%rax
    3aac:	48 3b 45 b0          	cmp    -0x50(%rbp),%rax
    3ab0:	7c 8f                	jl     3a41 <_Z3pFLP6PointsPiifPldlfiP16parsec_barrier_t+0x88>
    3ab2:	f2 0f 10 45 b8       	movsd  -0x48(%rbp),%xmm0
    3ab7:	f2 0f 5c 45 e8       	subsd  -0x18(%rbp),%xmm0
    3abc:	f2 0f 11 45 b8       	movsd  %xmm0,-0x48(%rbp)
    3ac1:	48 8b 7d 10          	mov    0x10(%rbp),%rdi
    3ac5:	e8 6a 23 00 00       	call   5e34 <_Z19parsec_barrier_waitP16parsec_barrier_t>
    3aca:	f2 0f 10 45 e8       	movsd  -0x18(%rbp),%xmm0
    3acf:	f2 0f 5e 45 b8       	divsd  -0x48(%rbp),%xmm0
    3ad4:	66 0f ef c9          	pxor   %xmm1,%xmm1
    3ad8:	f3 0f 5a 4d ac       	cvtss2sd -0x54(%rbp),%xmm1
    3add:	66 0f 2f c1          	comisd %xmm1,%xmm0
    3ae1:	0f 87 1c ff ff ff    	ja     3a03 <_Z3pFLP6PointsPiifPldlfiP16parsec_barrier_t+0x4a>
    3ae7:	66 0f ef c0          	pxor   %xmm0,%xmm0
    3aeb:	f2 0f 5a 45 b8       	cvtsd2ss -0x48(%rbp),%xmm0
    3af0:	c9                   	leave  
    3af1:	c3                   	ret    

0000000000003af2 <_Z19selectfeasible_fastP6PointsPPiiiP16parsec_barrier_t>:
    3af2:	f3 0f 1e fa          	endbr64 
    3af6:	55                   	push   %rbp
    3af7:	48 89 e5             	mov    %rsp,%rbp
    3afa:	48 83 ec 70          	sub    $0x70,%rsp
    3afe:	48 89 7d b8          	mov    %rdi,-0x48(%rbp)
    3b02:	48 89 75 b0          	mov    %rsi,-0x50(%rbp)
    3b06:	89 55 ac             	mov    %edx,-0x54(%rbp)
    3b09:	89 4d a8             	mov    %ecx,-0x58(%rbp)
    3b0c:	4c 89 45 a0          	mov    %r8,-0x60(%rbp)
    3b10:	48 8b 45 b8          	mov    -0x48(%rbp),%rax
    3b14:	48 8b 00             	mov    (%rax),%rax
    3b17:	89 45 c4             	mov    %eax,-0x3c(%rbp)
    3b1a:	66 0f ef d2          	pxor   %xmm2,%xmm2
    3b1e:	f2 0f 2a 55 c4       	cvtsi2sdl -0x3c(%rbp),%xmm2
    3b23:	f2 0f 11 55 98       	movsd  %xmm2,-0x68(%rbp)
    3b28:	8b 55 ac             	mov    -0x54(%rbp),%edx
    3b2b:	89 d0                	mov    %edx,%eax
    3b2d:	01 c0                	add    %eax,%eax
    3b2f:	01 d0                	add    %edx,%eax
    3b31:	66 0f ef db          	pxor   %xmm3,%xmm3
    3b35:	f2 0f 2a d8          	cvtsi2sd %eax,%xmm3
    3b39:	f2 0f 11 5d 90       	movsd  %xmm3,-0x70(%rbp)
    3b3e:	66 0f ef e4          	pxor   %xmm4,%xmm4
    3b42:	f2 0f 2a 65 ac       	cvtsi2sdl -0x54(%rbp),%xmm4
    3b47:	66 48 0f 7e e0       	movq   %xmm4,%rax
    3b4c:	66 48 0f 6e c0       	movq   %rax,%xmm0
    3b51:	e8 da e7 ff ff       	call   2330 <log@plt>
    3b56:	f2 0f 59 45 90       	mulsd  -0x70(%rbp),%xmm0
    3b5b:	f2 0f 10 55 98       	movsd  -0x68(%rbp),%xmm2
    3b60:	66 0f 2f d0          	comisd %xmm0,%xmm2
    3b64:	0f 97 c0             	seta   %al
    3b67:	84 c0                	test   %al,%al
    3b69:	74 3a                	je     3ba5 <_Z19selectfeasible_fastP6PointsPPiiiP16parsec_barrier_t+0xb3>
    3b6b:	8b 55 ac             	mov    -0x54(%rbp),%edx
    3b6e:	89 d0                	mov    %edx,%eax
    3b70:	01 c0                	add    %eax,%eax
    3b72:	01 d0                	add    %edx,%eax
    3b74:	66 0f ef ed          	pxor   %xmm5,%xmm5
    3b78:	f2 0f 2a e8          	cvtsi2sd %eax,%xmm5
    3b7c:	f2 0f 11 6d 98       	movsd  %xmm5,-0x68(%rbp)
    3b81:	66 0f ef f6          	pxor   %xmm6,%xmm6
    3b85:	f2 0f 2a 75 ac       	cvtsi2sdl -0x54(%rbp),%xmm6
    3b8a:	66 48 0f 7e f0       	movq   %xmm6,%rax
    3b8f:	66 48 0f 6e c0       	movq   %rax,%xmm0
    3b94:	e8 97 e7 ff ff       	call   2330 <log@plt>
    3b99:	f2 0f 59 45 98       	mulsd  -0x68(%rbp),%xmm0
    3b9e:	f2 0f 2c c0          	cvttsd2si %xmm0,%eax
    3ba2:	89 45 c4             	mov    %eax,-0x3c(%rbp)
    3ba5:	8b 45 c4             	mov    -0x3c(%rbp),%eax
    3ba8:	48 98                	cltq   
    3baa:	48 c1 e0 02          	shl    $0x2,%rax
    3bae:	48 89 c7             	mov    %rax,%rdi
    3bb1:	e8 8a e8 ff ff       	call   2440 <malloc@plt>
    3bb6:	48 89 c2             	mov    %rax,%rdx
    3bb9:	48 8b 45 b0          	mov    -0x50(%rbp),%rax
    3bbd:	48 89 10             	mov    %rdx,(%rax)
    3bc0:	48 c7 45 e8 00 00 00 	movq   $0x0,-0x18(%rbp)
    3bc7:	00 
    3bc8:	8b 45 c4             	mov    -0x3c(%rbp),%eax
    3bcb:	48 98                	cltq   
    3bcd:	48 89 45 f0          	mov    %rax,-0x10(%rbp)
    3bd1:	8b 45 c4             	mov    -0x3c(%rbp),%eax
    3bd4:	48 63 d0             	movslq %eax,%rdx
    3bd7:	48 8b 45 b8          	mov    -0x48(%rbp),%rax
    3bdb:	48 8b 00             	mov    (%rax),%rax
    3bde:	48 39 c2             	cmp    %rax,%rdx
    3be1:	75 38                	jne    3c1b <_Z19selectfeasible_fastP6PointsPPiiiP16parsec_barrier_t+0x129>
    3be3:	48 8b 45 e8          	mov    -0x18(%rbp),%rax
    3be7:	89 45 d0             	mov    %eax,-0x30(%rbp)
    3bea:	eb 1c                	jmp    3c08 <_Z19selectfeasible_fastP6PointsPPiiiP16parsec_barrier_t+0x116>
    3bec:	48 8b 45 b0          	mov    -0x50(%rbp),%rax
    3bf0:	48 8b 10             	mov    (%rax),%rdx
    3bf3:	8b 45 d0             	mov    -0x30(%rbp),%eax
    3bf6:	48 98                	cltq   
    3bf8:	48 c1 e0 02          	shl    $0x2,%rax
    3bfc:	48 01 c2             	add    %rax,%rdx
    3bff:	8b 45 d0             	mov    -0x30(%rbp),%eax
    3c02:	89 02                	mov    %eax,(%rdx)
    3c04:	83 45 d0 01          	addl   $0x1,-0x30(%rbp)
    3c08:	8b 45 d0             	mov    -0x30(%rbp),%eax
    3c0b:	48 98                	cltq   
    3c0d:	48 39 45 f0          	cmp    %rax,-0x10(%rbp)
    3c11:	7f d9                	jg     3bec <_Z19selectfeasible_fastP6PointsPPiiiP16parsec_barrier_t+0xfa>
    3c13:	8b 45 c4             	mov    -0x3c(%rbp),%eax
    3c16:	e9 b6 01 00 00       	jmp    3dd1 <_Z19selectfeasible_fastP6PointsPPiiiP16parsec_barrier_t+0x2df>
    3c1b:	48 8b 45 b8          	mov    -0x48(%rbp),%rax
    3c1f:	48 8b 00             	mov    (%rax),%rax
    3c22:	48 c1 e0 02          	shl    $0x2,%rax
    3c26:	48 89 c7             	mov    %rax,%rdi
    3c29:	e8 12 e8 ff ff       	call   2440 <malloc@plt>
    3c2e:	48 89 45 f8          	mov    %rax,-0x8(%rbp)
    3c32:	48 8b 45 b8          	mov    -0x48(%rbp),%rax
    3c36:	48 8b 40 10          	mov    0x10(%rax),%rax
    3c3a:	f3 0f 10 00          	movss  (%rax),%xmm0
    3c3e:	48 8b 45 f8          	mov    -0x8(%rbp),%rax
    3c42:	f3 0f 11 00          	movss  %xmm0,(%rax)
    3c46:	66 0f ef c0          	pxor   %xmm0,%xmm0
    3c4a:	f3 0f 11 45 dc       	movss  %xmm0,-0x24(%rbp)
    3c4f:	c7 45 d4 01 00 00 00 	movl   $0x1,-0x2c(%rbp)
    3c56:	eb 50                	jmp    3ca8 <_Z19selectfeasible_fastP6PointsPPiiiP16parsec_barrier_t+0x1b6>
    3c58:	8b 45 d4             	mov    -0x2c(%rbp),%eax
    3c5b:	48 98                	cltq   
    3c5d:	48 c1 e0 02          	shl    $0x2,%rax
    3c61:	48 8d 50 fc          	lea    -0x4(%rax),%rdx
    3c65:	48 8b 45 f8          	mov    -0x8(%rbp),%rax
    3c69:	48 01 d0             	add    %rdx,%rax
    3c6c:	f3 0f 10 08          	movss  (%rax),%xmm1
    3c70:	48 8b 45 b8          	mov    -0x48(%rbp),%rax
    3c74:	48 8b 50 10          	mov    0x10(%rax),%rdx
    3c78:	8b 45 d4             	mov    -0x2c(%rbp),%eax
    3c7b:	48 98                	cltq   
    3c7d:	48 c1 e0 05          	shl    $0x5,%rax
    3c81:	48 01 d0             	add    %rdx,%rax
    3c84:	f3 0f 10 00          	movss  (%rax),%xmm0
    3c88:	8b 45 d4             	mov    -0x2c(%rbp),%eax
    3c8b:	48 98                	cltq   
    3c8d:	48 8d 14 85 00 00 00 	lea    0x0(,%rax,4),%rdx
    3c94:	00 
    3c95:	48 8b 45 f8          	mov    -0x8(%rbp),%rax
    3c99:	48 01 d0             	add    %rdx,%rax
    3c9c:	f3 0f 58 c1          	addss  %xmm1,%xmm0
    3ca0:	f3 0f 11 00          	movss  %xmm0,(%rax)
    3ca4:	83 45 d4 01          	addl   $0x1,-0x2c(%rbp)
    3ca8:	8b 45 d4             	mov    -0x2c(%rbp),%eax
    3cab:	48 63 d0             	movslq %eax,%rdx
    3cae:	48 8b 45 b8          	mov    -0x48(%rbp),%rax
    3cb2:	48 8b 00             	mov    (%rax),%rax
    3cb5:	48 39 c2             	cmp    %rax,%rdx
    3cb8:	7c 9e                	jl     3c58 <_Z19selectfeasible_fastP6PointsPPiiiP16parsec_barrier_t+0x166>
    3cba:	48 8b 45 b8          	mov    -0x48(%rbp),%rax
    3cbe:	48 8b 00             	mov    (%rax),%rax
    3cc1:	48 c1 e0 02          	shl    $0x2,%rax
    3cc5:	48 8d 50 fc          	lea    -0x4(%rax),%rdx
    3cc9:	48 8b 45 f8          	mov    -0x8(%rbp),%rax
    3ccd:	48 01 d0             	add    %rdx,%rax
    3cd0:	f3 0f 10 00          	movss  (%rax),%xmm0
    3cd4:	f3 0f 11 45 dc       	movss  %xmm0,-0x24(%rbp)
    3cd9:	48 8b 45 e8          	mov    -0x18(%rbp),%rax
    3cdd:	89 45 d8             	mov    %eax,-0x28(%rbp)
    3ce0:	e9 ce 00 00 00       	jmp    3db3 <_Z19selectfeasible_fastP6PointsPPiiiP16parsec_barrier_t+0x2c1>
    3ce5:	e8 36 e6 ff ff       	call   2320 <lrand48@plt>
    3cea:	66 0f ef c0          	pxor   %xmm0,%xmm0
    3cee:	f3 48 0f 2a c0       	cvtsi2ss %rax,%xmm0
    3cf3:	f3 0f 10 0d 5d 36 00 	movss  0x365d(%rip),%xmm1        # 7358 <_ZL22PARSEC_PROCESS_PRIVATE+0x340>
    3cfa:	00 
    3cfb:	f3 0f 5e c1          	divss  %xmm1,%xmm0
    3cff:	f3 0f 10 4d dc       	movss  -0x24(%rbp),%xmm1
    3d04:	f3 0f 59 c1          	mulss  %xmm1,%xmm0
    3d08:	f3 0f 11 45 e0       	movss  %xmm0,-0x20(%rbp)
    3d0d:	c7 45 c8 00 00 00 00 	movl   $0x0,-0x38(%rbp)
    3d14:	48 8b 45 b8          	mov    -0x48(%rbp),%rax
    3d18:	48 8b 00             	mov    (%rax),%rax
    3d1b:	83 e8 01             	sub    $0x1,%eax
    3d1e:	89 45 cc             	mov    %eax,-0x34(%rbp)
    3d21:	48 8b 45 f8          	mov    -0x8(%rbp),%rax
    3d25:	f3 0f 10 00          	movss  (%rax),%xmm0
    3d29:	0f 2f 45 e0          	comiss -0x20(%rbp),%xmm0
    3d2d:	76 1b                	jbe    3d4a <_Z19selectfeasible_fastP6PointsPPiiiP16parsec_barrier_t+0x258>
    3d2f:	48 8b 45 b0          	mov    -0x50(%rbp),%rax
    3d33:	48 8b 10             	mov    (%rax),%rdx
    3d36:	8b 45 d8             	mov    -0x28(%rbp),%eax
    3d39:	48 98                	cltq   
    3d3b:	48 c1 e0 02          	shl    $0x2,%rax
    3d3f:	48 01 d0             	add    %rdx,%rax
    3d42:	c7 00 00 00 00 00    	movl   $0x0,(%rax)
    3d48:	eb 65                	jmp    3daf <_Z19selectfeasible_fastP6PointsPPiiiP16parsec_barrier_t+0x2bd>
    3d4a:	eb 40                	jmp    3d8c <_Z19selectfeasible_fastP6PointsPPiiiP16parsec_barrier_t+0x29a>
    3d4c:	8b 55 c8             	mov    -0x38(%rbp),%edx
    3d4f:	8b 45 cc             	mov    -0x34(%rbp),%eax
    3d52:	01 d0                	add    %edx,%eax
    3d54:	89 c2                	mov    %eax,%edx
    3d56:	c1 ea 1f             	shr    $0x1f,%edx
    3d59:	01 d0                	add    %edx,%eax
    3d5b:	d1 f8                	sar    %eax
    3d5d:	89 45 e4             	mov    %eax,-0x1c(%rbp)
    3d60:	8b 45 e4             	mov    -0x1c(%rbp),%eax
    3d63:	48 98                	cltq   
    3d65:	48 8d 14 85 00 00 00 	lea    0x0(,%rax,4),%rdx
    3d6c:	00 
    3d6d:	48 8b 45 f8          	mov    -0x8(%rbp),%rax
    3d71:	48 01 d0             	add    %rdx,%rax
    3d74:	f3 0f 10 00          	movss  (%rax),%xmm0
    3d78:	0f 2f 45 e0          	comiss -0x20(%rbp),%xmm0
    3d7c:	76 08                	jbe    3d86 <_Z19selectfeasible_fastP6PointsPPiiiP16parsec_barrier_t+0x294>
    3d7e:	8b 45 e4             	mov    -0x1c(%rbp),%eax
    3d81:	89 45 cc             	mov    %eax,-0x34(%rbp)
    3d84:	eb 06                	jmp    3d8c <_Z19selectfeasible_fastP6PointsPPiiiP16parsec_barrier_t+0x29a>
    3d86:	8b 45 e4             	mov    -0x1c(%rbp),%eax
    3d89:	89 45 c8             	mov    %eax,-0x38(%rbp)
    3d8c:	8b 45 c8             	mov    -0x38(%rbp),%eax
    3d8f:	83 c0 01             	add    $0x1,%eax
    3d92:	39 45 cc             	cmp    %eax,-0x34(%rbp)
    3d95:	7f b5                	jg     3d4c <_Z19selectfeasible_fastP6PointsPPiiiP16parsec_barrier_t+0x25a>
    3d97:	48 8b 45 b0          	mov    -0x50(%rbp),%rax
    3d9b:	48 8b 10             	mov    (%rax),%rdx
    3d9e:	8b 45 d8             	mov    -0x28(%rbp),%eax
    3da1:	48 98                	cltq   
    3da3:	48 c1 e0 02          	shl    $0x2,%rax
    3da7:	48 01 c2             	add    %rax,%rdx
    3daa:	8b 45 cc             	mov    -0x34(%rbp),%eax
    3dad:	89 02                	mov    %eax,(%rdx)
    3daf:	83 45 d8 01          	addl   $0x1,-0x28(%rbp)
    3db3:	8b 45 d8             	mov    -0x28(%rbp),%eax
    3db6:	48 98                	cltq   
    3db8:	48 39 45 f0          	cmp    %rax,-0x10(%rbp)
    3dbc:	0f 8f 23 ff ff ff    	jg     3ce5 <_Z19selectfeasible_fastP6PointsPPiiiP16parsec_barrier_t+0x1f3>
    3dc2:	48 8b 45 f8          	mov    -0x8(%rbp),%rax
    3dc6:	48 89 c7             	mov    %rax,%rdi
    3dc9:	e8 22 e6 ff ff       	call   23f0 <free@plt>
    3dce:	8b 45 c4             	mov    -0x3c(%rbp),%eax
    3dd1:	c9                   	leave  
    3dd2:	c3                   	ret    

0000000000003dd3 <_Z8pkmedianP6PointsllPliP16parsec_barrier_t>:
    3dd3:	f3 0f 1e fa          	endbr64 
    3dd7:	55                   	push   %rbp
    3dd8:	48 89 e5             	mov    %rsp,%rbp
    3ddb:	48 81 ec c0 00 00 00 	sub    $0xc0,%rsp
    3de2:	48 89 bd 78 ff ff ff 	mov    %rdi,-0x88(%rbp)
    3de9:	48 89 b5 70 ff ff ff 	mov    %rsi,-0x90(%rbp)
    3df0:	48 89 95 68 ff ff ff 	mov    %rdx,-0x98(%rbp)
    3df7:	48 89 8d 60 ff ff ff 	mov    %rcx,-0xa0(%rbp)
    3dfe:	44 89 85 5c ff ff ff 	mov    %r8d,-0xa4(%rbp)
    3e05:	4c 89 8d 50 ff ff ff 	mov    %r9,-0xb0(%rbp)
    3e0c:	83 bd 5c ff ff ff 00 	cmpl   $0x0,-0xa4(%rbp)
    3e13:	75 1c                	jne    3e31 <_Z8pkmedianP6PointsllPliP16parsec_barrier_t+0x5e>
    3e15:	8b 05 45 62 00 00    	mov    0x6245(%rip),%eax        # a060 <_ZL5nproc>
    3e1b:	48 98                	cltq   
    3e1d:	be 08 00 00 00       	mov    $0x8,%esi
    3e22:	48 89 c7             	mov    %rax,%rdi
    3e25:	e8 d6 e4 ff ff       	call   2300 <calloc@plt>
    3e2a:	48 89 05 0f 63 00 00 	mov    %rax,0x630f(%rip)        # a140 <_ZZ8pkmedianP6PointsllPliP16parsec_barrier_tE4hizs>
    3e31:	66 0f ef c0          	pxor   %xmm0,%xmm0
    3e35:	f2 0f 11 45 a8       	movsd  %xmm0,-0x58(%rbp)
    3e3a:	f2 0f 10 45 a8       	movsd  -0x58(%rbp),%xmm0
    3e3f:	f2 0f 11 45 a0       	movsd  %xmm0,-0x60(%rbp)
    3e44:	48 8b 85 78 ff ff ff 	mov    -0x88(%rbp),%rax
    3e4b:	48 8b 00             	mov    (%rax),%rax
    3e4e:	48 89 45 d8          	mov    %rax,-0x28(%rbp)
    3e52:	48 8b 85 78 ff ff ff 	mov    -0x88(%rbp),%rax
    3e59:	8b 40 08             	mov    0x8(%rax),%eax
    3e5c:	48 98                	cltq   
    3e5e:	48 89 45 e0          	mov    %rax,-0x20(%rbp)
    3e62:	48 8b 85 78 ff ff ff 	mov    -0x88(%rbp),%rax
    3e69:	48 8b 00             	mov    (%rax),%rax
    3e6c:	8b 15 ee 61 00 00    	mov    0x61ee(%rip),%edx        # a060 <_ZL5nproc>
    3e72:	48 63 f2             	movslq %edx,%rsi
    3e75:	48 99                	cqto   
    3e77:	48 f7 fe             	idiv   %rsi
    3e7a:	48 89 45 e8          	mov    %rax,-0x18(%rbp)
    3e7e:	8b 85 5c ff ff ff    	mov    -0xa4(%rbp),%eax
    3e84:	48 98                	cltq   
    3e86:	48 8b 55 e8          	mov    -0x18(%rbp),%rdx
    3e8a:	48 0f af c2          	imul   %rdx,%rax
    3e8e:	48 89 45 f0          	mov    %rax,-0x10(%rbp)
    3e92:	48 8b 55 f0          	mov    -0x10(%rbp),%rdx
    3e96:	48 8b 45 e8          	mov    -0x18(%rbp),%rax
    3e9a:	48 01 d0             	add    %rdx,%rax
    3e9d:	48 89 45 b8          	mov    %rax,-0x48(%rbp)
    3ea1:	8b 05 b9 61 00 00    	mov    0x61b9(%rip),%eax        # a060 <_ZL5nproc>
    3ea7:	83 e8 01             	sub    $0x1,%eax
    3eaa:	39 85 5c ff ff ff    	cmp    %eax,-0xa4(%rbp)
    3eb0:	75 0e                	jne    3ec0 <_Z8pkmedianP6PointsllPliP16parsec_barrier_t+0xed>
    3eb2:	48 8b 85 78 ff ff ff 	mov    -0x88(%rbp),%rax
    3eb9:	48 8b 00             	mov    (%rax),%rax
    3ebc:	48 89 45 b8          	mov    %rax,-0x48(%rbp)
    3ec0:	48 8b 85 50 ff ff ff 	mov    -0xb0(%rbp),%rax
    3ec7:	48 89 c7             	mov    %rax,%rdi
    3eca:	e8 65 1f 00 00       	call   5e34 <_Z19parsec_barrier_waitP16parsec_barrier_t>
    3ecf:	66 0f ef c0          	pxor   %xmm0,%xmm0
    3ed3:	f2 0f 11 45 c0       	movsd  %xmm0,-0x40(%rbp)
    3ed8:	48 8b 45 f0          	mov    -0x10(%rbp),%rax
    3edc:	48 89 45 c8          	mov    %rax,-0x38(%rbp)
    3ee0:	eb 7d                	jmp    3f5f <_Z8pkmedianP6PointsllPliP16parsec_barrier_t+0x18c>
    3ee2:	48 8b 45 e0          	mov    -0x20(%rbp),%rax
    3ee6:	89 c1                	mov    %eax,%ecx
    3ee8:	48 8b 85 78 ff ff ff 	mov    -0x88(%rbp),%rax
    3eef:	48 8b 40 10          	mov    0x10(%rax),%rax
    3ef3:	48 8b 95 78 ff ff ff 	mov    -0x88(%rbp),%rdx
    3efa:	48 8b 72 10          	mov    0x10(%rdx),%rsi
    3efe:	48 8b 55 c8          	mov    -0x38(%rbp),%rdx
    3f02:	48 c1 e2 05          	shl    $0x5,%rdx
    3f06:	48 01 f2             	add    %rsi,%rdx
    3f09:	ff 70 18             	push   0x18(%rax)
    3f0c:	ff 70 10             	push   0x10(%rax)
    3f0f:	ff 70 08             	push   0x8(%rax)
    3f12:	ff 30                	push   (%rax)
    3f14:	ff 72 18             	push   0x18(%rdx)
    3f17:	ff 72 10             	push   0x10(%rdx)
    3f1a:	ff 72 08             	push   0x8(%rdx)
    3f1d:	ff 32                	push   (%rdx)
    3f1f:	89 cf                	mov    %ecx,%edi
    3f21:	e8 a4 e9 ff ff       	call   28ca <_Z4dist5PointS_i>
    3f26:	48 83 c4 40          	add    $0x40,%rsp
    3f2a:	48 8b 85 78 ff ff ff 	mov    -0x88(%rbp),%rax
    3f31:	48 8b 50 10          	mov    0x10(%rax),%rdx
    3f35:	48 8b 45 c8          	mov    -0x38(%rbp),%rax
    3f39:	48 c1 e0 05          	shl    $0x5,%rax
    3f3d:	48 01 d0             	add    %rdx,%rax
    3f40:	f3 0f 10 08          	movss  (%rax),%xmm1
    3f44:	f3 0f 59 c1          	mulss  %xmm1,%xmm0
    3f48:	f3 0f 5a c0          	cvtss2sd %xmm0,%xmm0
    3f4c:	f2 0f 10 4d c0       	movsd  -0x40(%rbp),%xmm1
    3f51:	f2 0f 58 c1          	addsd  %xmm1,%xmm0
    3f55:	f2 0f 11 45 c0       	movsd  %xmm0,-0x40(%rbp)
    3f5a:	48 83 45 c8 01       	addq   $0x1,-0x38(%rbp)
    3f5f:	48 8b 45 c8          	mov    -0x38(%rbp),%rax
    3f63:	48 3b 45 b8          	cmp    -0x48(%rbp),%rax
    3f67:	0f 8c 75 ff ff ff    	jl     3ee2 <_Z8pkmedianP6PointsllPliP16parsec_barrier_t+0x10f>
    3f6d:	48 8b 15 cc 61 00 00 	mov    0x61cc(%rip),%rdx        # a140 <_ZZ8pkmedianP6PointsllPliP16parsec_barrier_tE4hizs>
    3f74:	8b 85 5c ff ff ff    	mov    -0xa4(%rbp),%eax
    3f7a:	48 98                	cltq   
    3f7c:	48 c1 e0 03          	shl    $0x3,%rax
    3f80:	48 01 d0             	add    %rdx,%rax
    3f83:	f2 0f 10 45 c0       	movsd  -0x40(%rbp),%xmm0
    3f88:	f2 0f 11 00          	movsd  %xmm0,(%rax)
    3f8c:	48 8b 85 50 ff ff ff 	mov    -0xb0(%rbp),%rax
    3f93:	48 89 c7             	mov    %rax,%rdi
    3f96:	e8 99 1e 00 00       	call   5e34 <_Z19parsec_barrier_waitP16parsec_barrier_t>
    3f9b:	c7 45 90 00 00 00 00 	movl   $0x0,-0x70(%rbp)
    3fa2:	eb 29                	jmp    3fcd <_Z8pkmedianP6PointsllPliP16parsec_barrier_t+0x1fa>
    3fa4:	48 8b 15 95 61 00 00 	mov    0x6195(%rip),%rdx        # a140 <_ZZ8pkmedianP6PointsllPliP16parsec_barrier_tE4hizs>
    3fab:	8b 45 90             	mov    -0x70(%rbp),%eax
    3fae:	48 98                	cltq   
    3fb0:	48 c1 e0 03          	shl    $0x3,%rax
    3fb4:	48 01 d0             	add    %rdx,%rax
    3fb7:	f2 0f 10 00          	movsd  (%rax),%xmm0
    3fbb:	f2 0f 10 4d a0       	movsd  -0x60(%rbp),%xmm1
    3fc0:	f2 0f 58 c1          	addsd  %xmm1,%xmm0
    3fc4:	f2 0f 11 45 a0       	movsd  %xmm0,-0x60(%rbp)
    3fc9:	83 45 90 01          	addl   $0x1,-0x70(%rbp)
    3fcd:	8b 05 8d 60 00 00    	mov    0x608d(%rip),%eax        # a060 <_ZL5nproc>
    3fd3:	39 45 90             	cmp    %eax,-0x70(%rbp)
    3fd6:	7c cc                	jl     3fa4 <_Z8pkmedianP6PointsllPliP16parsec_barrier_t+0x1d1>
    3fd8:	66 0f ef c0          	pxor   %xmm0,%xmm0
    3fdc:	f2 0f 11 45 a8       	movsd  %xmm0,-0x58(%rbp)
    3fe1:	f2 0f 10 45 a0       	movsd  -0x60(%rbp),%xmm0
    3fe6:	f2 0f 58 45 a8       	addsd  -0x58(%rbp),%xmm0
    3feb:	f2 0f 10 0d 7d 33 00 	movsd  0x337d(%rip),%xmm1        # 7370 <_ZL22PARSEC_PROCESS_PRIVATE+0x358>
    3ff2:	00 
    3ff3:	f2 0f 5e c1          	divsd  %xmm1,%xmm0
    3ff7:	f2 0f 11 45 b0       	movsd  %xmm0,-0x50(%rbp)
    3ffc:	48 8b 85 78 ff ff ff 	mov    -0x88(%rbp),%rax
    4003:	48 8b 00             	mov    (%rax),%rax
    4006:	48 39 85 68 ff ff ff 	cmp    %rax,-0x98(%rbp)
    400d:	0f 8c 96 00 00 00    	jl     40a9 <_Z8pkmedianP6PointsllPliP16parsec_barrier_t+0x2d6>
    4013:	48 8b 45 f0          	mov    -0x10(%rbp),%rax
    4017:	48 89 45 d0          	mov    %rax,-0x30(%rbp)
    401b:	eb 42                	jmp    405f <_Z8pkmedianP6PointsllPliP16parsec_barrier_t+0x28c>
    401d:	48 8b 85 78 ff ff ff 	mov    -0x88(%rbp),%rax
    4024:	48 8b 50 10          	mov    0x10(%rax),%rdx
    4028:	48 8b 45 d0          	mov    -0x30(%rbp),%rax
    402c:	48 c1 e0 05          	shl    $0x5,%rax
    4030:	48 01 c2             	add    %rax,%rdx
    4033:	48 8b 45 d0          	mov    -0x30(%rbp),%rax
    4037:	48 89 42 10          	mov    %rax,0x10(%rdx)
    403b:	48 8b 85 78 ff ff ff 	mov    -0x88(%rbp),%rax
    4042:	48 8b 50 10          	mov    0x10(%rax),%rdx
    4046:	48 8b 45 d0          	mov    -0x30(%rbp),%rax
    404a:	48 c1 e0 05          	shl    $0x5,%rax
    404e:	48 01 d0             	add    %rdx,%rax
    4051:	66 0f ef c0          	pxor   %xmm0,%xmm0
    4055:	f3 0f 11 40 18       	movss  %xmm0,0x18(%rax)
    405a:	48 83 45 d0 01       	addq   $0x1,-0x30(%rbp)
    405f:	48 8b 45 d0          	mov    -0x30(%rbp),%rax
    4063:	48 3b 45 b8          	cmp    -0x48(%rbp),%rax
    4067:	7c b4                	jl     401d <_Z8pkmedianP6PointsllPliP16parsec_barrier_t+0x24a>
    4069:	66 0f ef c0          	pxor   %xmm0,%xmm0
    406d:	f2 0f 11 45 98       	movsd  %xmm0,-0x68(%rbp)
    4072:	83 bd 5c ff ff ff 00 	cmpl   $0x0,-0xa4(%rbp)
    4079:	75 20                	jne    409b <_Z8pkmedianP6PointsllPliP16parsec_barrier_t+0x2c8>
    407b:	48 8b 05 be 60 00 00 	mov    0x60be(%rip),%rax        # a140 <_ZZ8pkmedianP6PointsllPliP16parsec_barrier_tE4hizs>
    4082:	48 89 c7             	mov    %rax,%rdi
    4085:	e8 66 e3 ff ff       	call   23f0 <free@plt>
    408a:	48 8b 15 97 60 00 00 	mov    0x6097(%rip),%rdx        # a128 <_ZZ8pkmedianP6PointsllPliP16parsec_barrier_tE1k>
    4091:	48 8b 85 60 ff ff ff 	mov    -0xa0(%rbp),%rax
    4098:	48 89 10             	mov    %rdx,(%rax)
    409b:	66 0f ef c0          	pxor   %xmm0,%xmm0
    409f:	f2 0f 5a 45 98       	cvtsd2ss -0x68(%rbp),%xmm0
    40a4:	e9 5b 05 00 00       	jmp    4604 <_Z8pkmedianP6PointsllPliP16parsec_barrier_t+0x831>
    40a9:	83 bd 5c ff ff ff 00 	cmpl   $0x0,-0xa4(%rbp)
    40b0:	75 0f                	jne    40c1 <_Z8pkmedianP6PointsllPliP16parsec_barrier_t+0x2ee>
    40b2:	48 8b 85 78 ff ff ff 	mov    -0x88(%rbp),%rax
    40b9:	48 89 c7             	mov    %rax,%rdi
    40bc:	e8 29 e6 ff ff       	call   26ea <_Z7shuffleP6Points>
    40c1:	66 0f ef db          	pxor   %xmm3,%xmm3
    40c5:	f2 0f 5a 5d b0       	cvtsd2ss -0x50(%rbp),%xmm3
    40ca:	66 0f 7e df          	movd   %xmm3,%edi
    40ce:	48 8b 8d 50 ff ff ff 	mov    -0xb0(%rbp),%rcx
    40d5:	8b 95 5c ff ff ff    	mov    -0xa4(%rbp),%edx
    40db:	48 8b 85 78 ff ff ff 	mov    -0x88(%rbp),%rax
    40e2:	48 8d 35 3f 60 00 00 	lea    0x603f(%rip),%rsi        # a128 <_ZZ8pkmedianP6PointsllPliP16parsec_barrier_tE1k>
    40e9:	66 0f 6e c7          	movd   %edi,%xmm0
    40ed:	48 89 c7             	mov    %rax,%rdi
    40f0:	e8 72 e8 ff ff       	call   2967 <_Z7pspeedyP6PointsfPliP16parsec_barrier_t>
    40f5:	f3 0f 5a c0          	cvtss2sd %xmm0,%xmm0
    40f9:	f2 0f 11 45 98       	movsd  %xmm0,-0x68(%rbp)
    40fe:	c7 45 8c 00 00 00 00 	movl   $0x0,-0x74(%rbp)
    4105:	eb 41                	jmp    4148 <_Z8pkmedianP6PointsllPliP16parsec_barrier_t+0x375>
    4107:	66 0f ef e4          	pxor   %xmm4,%xmm4
    410b:	f2 0f 5a 65 b0       	cvtsd2ss -0x50(%rbp),%xmm4
    4110:	66 0f 7e e7          	movd   %xmm4,%edi
    4114:	48 8b 8d 50 ff ff ff 	mov    -0xb0(%rbp),%rcx
    411b:	8b 95 5c ff ff ff    	mov    -0xa4(%rbp),%edx
    4121:	48 8b 85 78 ff ff ff 	mov    -0x88(%rbp),%rax
    4128:	48 8d 35 f9 5f 00 00 	lea    0x5ff9(%rip),%rsi        # a128 <_ZZ8pkmedianP6PointsllPliP16parsec_barrier_tE1k>
    412f:	66 0f 6e c7          	movd   %edi,%xmm0
    4133:	48 89 c7             	mov    %rax,%rdi
    4136:	e8 2c e8 ff ff       	call   2967 <_Z7pspeedyP6PointsfPliP16parsec_barrier_t>
    413b:	f3 0f 5a c0          	cvtss2sd %xmm0,%xmm0
    413f:	f2 0f 11 45 98       	movsd  %xmm0,-0x68(%rbp)
    4144:	83 45 8c 01          	addl   $0x1,-0x74(%rbp)
    4148:	48 8b 05 d9 5f 00 00 	mov    0x5fd9(%rip),%rax        # a128 <_ZZ8pkmedianP6PointsllPliP16parsec_barrier_tE1k>
    414f:	48 39 85 70 ff ff ff 	cmp    %rax,-0x90(%rbp)
    4156:	0f 8e 96 00 00 00    	jle    41f2 <_Z8pkmedianP6PointsllPliP16parsec_barrier_t+0x41f>
    415c:	83 7d 8c 00          	cmpl   $0x0,-0x74(%rbp)
    4160:	7e a5                	jle    4107 <_Z8pkmedianP6PointsllPliP16parsec_barrier_t+0x334>
    4162:	e9 8b 00 00 00       	jmp    41f2 <_Z8pkmedianP6PointsllPliP16parsec_barrier_t+0x41f>
    4167:	83 7d 8c 00          	cmpl   $0x0,-0x74(%rbp)
    416b:	7e 2c                	jle    4199 <_Z8pkmedianP6PointsllPliP16parsec_barrier_t+0x3c6>
    416d:	f2 0f 10 45 b0       	movsd  -0x50(%rbp),%xmm0
    4172:	f2 0f 11 45 a0       	movsd  %xmm0,-0x60(%rbp)
    4177:	f2 0f 10 45 a0       	movsd  -0x60(%rbp),%xmm0
    417c:	f2 0f 58 45 a8       	addsd  -0x58(%rbp),%xmm0
    4181:	f2 0f 10 0d e7 31 00 	movsd  0x31e7(%rip),%xmm1        # 7370 <_ZL22PARSEC_PROCESS_PRIVATE+0x358>
    4188:	00 
    4189:	f2 0f 5e c1          	divsd  %xmm1,%xmm0
    418d:	f2 0f 11 45 b0       	movsd  %xmm0,-0x50(%rbp)
    4192:	c7 45 8c 00 00 00 00 	movl   $0x0,-0x74(%rbp)
    4199:	83 bd 5c ff ff ff 00 	cmpl   $0x0,-0xa4(%rbp)
    41a0:	75 0f                	jne    41b1 <_Z8pkmedianP6PointsllPliP16parsec_barrier_t+0x3de>
    41a2:	48 8b 85 78 ff ff ff 	mov    -0x88(%rbp),%rax
    41a9:	48 89 c7             	mov    %rax,%rdi
    41ac:	e8 39 e5 ff ff       	call   26ea <_Z7shuffleP6Points>
    41b1:	66 0f ef ed          	pxor   %xmm5,%xmm5
    41b5:	f2 0f 5a 6d b0       	cvtsd2ss -0x50(%rbp),%xmm5
    41ba:	66 0f 7e ef          	movd   %xmm5,%edi
    41be:	48 8b 8d 50 ff ff ff 	mov    -0xb0(%rbp),%rcx
    41c5:	8b 95 5c ff ff ff    	mov    -0xa4(%rbp),%edx
    41cb:	48 8b 85 78 ff ff ff 	mov    -0x88(%rbp),%rax
    41d2:	48 8d 35 4f 5f 00 00 	lea    0x5f4f(%rip),%rsi        # a128 <_ZZ8pkmedianP6PointsllPliP16parsec_barrier_tE1k>
    41d9:	66 0f 6e c7          	movd   %edi,%xmm0
    41dd:	48 89 c7             	mov    %rax,%rdi
    41e0:	e8 82 e7 ff ff       	call   2967 <_Z7pspeedyP6PointsfPliP16parsec_barrier_t>
    41e5:	f3 0f 5a c0          	cvtss2sd %xmm0,%xmm0
    41e9:	f2 0f 11 45 98       	movsd  %xmm0,-0x68(%rbp)
    41ee:	83 45 8c 01          	addl   $0x1,-0x74(%rbp)
    41f2:	48 8b 05 2f 5f 00 00 	mov    0x5f2f(%rip),%rax        # a128 <_ZZ8pkmedianP6PointsllPliP16parsec_barrier_tE1k>
    41f9:	48 39 85 70 ff ff ff 	cmp    %rax,-0x90(%rbp)
    4200:	0f 8f 61 ff ff ff    	jg     4167 <_Z8pkmedianP6PointsllPliP16parsec_barrier_t+0x394>
    4206:	83 bd 5c ff ff ff 00 	cmpl   $0x0,-0xa4(%rbp)
    420d:	0f 85 83 00 00 00    	jne    4296 <_Z8pkmedianP6PointsllPliP16parsec_barrier_t+0x4c3>
    4213:	48 8b 85 70 ff ff ff 	mov    -0x90(%rbp),%rax
    421a:	89 c6                	mov    %eax,%esi
    421c:	48 8b 8d 50 ff ff ff 	mov    -0xb0(%rbp),%rcx
    4223:	8b 95 5c ff ff ff    	mov    -0xa4(%rbp),%edx
    4229:	48 8b 85 78 ff ff ff 	mov    -0x88(%rbp),%rax
    4230:	49 89 c8             	mov    %rcx,%r8
    4233:	89 d1                	mov    %edx,%ecx
    4235:	89 f2                	mov    %esi,%edx
    4237:	48 8d 35 f2 5e 00 00 	lea    0x5ef2(%rip),%rsi        # a130 <_ZZ8pkmedianP6PointsllPliP16parsec_barrier_tE8feasible>
    423e:	48 89 c7             	mov    %rax,%rdi
    4241:	e8 ac f8 ff ff       	call   3af2 <_Z19selectfeasible_fastP6PointsPPiiiP16parsec_barrier_t>
    4246:	89 05 ec 5e 00 00    	mov    %eax,0x5eec(%rip)        # a138 <_ZZ8pkmedianP6PointsllPliP16parsec_barrier_tE11numfeasible>
    424c:	c7 45 94 00 00 00 00 	movl   $0x0,-0x6c(%rbp)
    4253:	eb 2c                	jmp    4281 <_Z8pkmedianP6PointsllPliP16parsec_barrier_t+0x4ae>
    4255:	48 8b 15 f4 5d 00 00 	mov    0x5df4(%rip),%rdx        # a050 <_ZL9is_center>
    425c:	48 8b 85 78 ff ff ff 	mov    -0x88(%rbp),%rax
    4263:	48 8b 48 10          	mov    0x10(%rax),%rcx
    4267:	8b 45 94             	mov    -0x6c(%rbp),%eax
    426a:	48 98                	cltq   
    426c:	48 c1 e0 05          	shl    $0x5,%rax
    4270:	48 01 c8             	add    %rcx,%rax
    4273:	48 8b 40 10          	mov    0x10(%rax),%rax
    4277:	48 01 d0             	add    %rdx,%rax
    427a:	c6 00 01             	movb   $0x1,(%rax)
    427d:	83 45 94 01          	addl   $0x1,-0x6c(%rbp)
    4281:	8b 45 94             	mov    -0x6c(%rbp),%eax
    4284:	48 63 d0             	movslq %eax,%rdx
    4287:	48 8b 85 78 ff ff ff 	mov    -0x88(%rbp),%rax
    428e:	48 8b 00             	mov    (%rax),%rax
    4291:	48 39 c2             	cmp    %rax,%rdx
    4294:	7c bf                	jl     4255 <_Z8pkmedianP6PointsllPliP16parsec_barrier_t+0x482>
    4296:	48 8b 85 50 ff ff ff 	mov    -0xb0(%rbp),%rax
    429d:	48 89 c7             	mov    %rax,%rdi
    42a0:	e8 8f 1b 00 00       	call   5e34 <_Z19parsec_barrier_waitP16parsec_barrier_t>
    42a5:	f2 0f 10 45 98       	movsd  -0x68(%rbp),%xmm0
    42aa:	f2 0f 11 45 f8       	movsd  %xmm0,-0x8(%rbp)
    42af:	48 8b 95 68 ff ff ff 	mov    -0x98(%rbp),%rdx
    42b6:	48 89 d0             	mov    %rdx,%rax
    42b9:	48 01 c0             	add    %rax,%rax
    42bc:	48 01 d0             	add    %rdx,%rax
    42bf:	66 0f ef f6          	pxor   %xmm6,%xmm6
    42c3:	f2 48 0f 2a f0       	cvtsi2sd %rax,%xmm6
    42c8:	f2 0f 11 b5 48 ff ff 	movsd  %xmm6,-0xb8(%rbp)
    42cf:	ff 
    42d0:	66 0f ef ff          	pxor   %xmm7,%xmm7
    42d4:	f2 48 0f 2a bd 68 ff 	cvtsi2sdq -0x98(%rbp),%xmm7
    42db:	ff ff 
    42dd:	66 48 0f 7e f8       	movq   %xmm7,%rax
    42e2:	66 48 0f 6e c0       	movq   %rax,%xmm0
    42e7:	e8 44 e0 ff ff       	call   2330 <log@plt>
    42ec:	f2 0f 59 85 48 ff ff 	mulsd  -0xb8(%rbp),%xmm0
    42f3:	ff 
    42f4:	f2 48 0f 2c c8       	cvttsd2si %xmm0,%rcx
    42f9:	66 0f ef db          	pxor   %xmm3,%xmm3
    42fd:	f2 0f 5a 5d b0       	cvtsd2ss -0x50(%rbp),%xmm3
    4302:	66 0f 7e df          	movd   %xmm3,%edi
    4306:	8b 15 2c 5e 00 00    	mov    0x5e2c(%rip),%edx        # a138 <_ZZ8pkmedianP6PointsllPliP16parsec_barrier_tE11numfeasible>
    430c:	48 8b 35 1d 5e 00 00 	mov    0x5e1d(%rip),%rsi        # a130 <_ZZ8pkmedianP6PointsllPliP16parsec_barrier_tE8feasible>
    4313:	44 8b 85 5c ff ff ff 	mov    -0xa4(%rbp),%r8d
    431a:	f2 0f 10 45 98       	movsd  -0x68(%rbp),%xmm0
    431f:	48 8b 85 78 ff ff ff 	mov    -0x88(%rbp),%rax
    4326:	48 83 ec 08          	sub    $0x8,%rsp
    432a:	ff b5 50 ff ff ff    	push   -0xb0(%rbp)
    4330:	45 89 c1             	mov    %r8d,%r9d
    4333:	f3 0f 10 15 3d 30 00 	movss  0x303d(%rip),%xmm2        # 7378 <_ZL22PARSEC_PROCESS_PRIVATE+0x360>
    433a:	00 
    433b:	49 89 c8             	mov    %rcx,%r8
    433e:	66 0f 28 c8          	movapd %xmm0,%xmm1
    4342:	48 8d 0d df 5d 00 00 	lea    0x5ddf(%rip),%rcx        # a128 <_ZZ8pkmedianP6PointsllPliP16parsec_barrier_tE1k>
    4349:	66 0f 6e c7          	movd   %edi,%xmm0
    434d:	48 89 c7             	mov    %rax,%rdi
    4350:	e8 64 f6 ff ff       	call   39b9 <_Z3pFLP6PointsPiifPldlfiP16parsec_barrier_t>
    4355:	48 83 c4 10          	add    $0x10,%rsp
    4359:	f3 0f 5a c0          	cvtss2sd %xmm0,%xmm0
    435d:	f2 0f 11 45 98       	movsd  %xmm0,-0x68(%rbp)
    4362:	48 8b 05 bf 5d 00 00 	mov    0x5dbf(%rip),%rax        # a128 <_ZZ8pkmedianP6PointsllPliP16parsec_barrier_tE1k>
    4369:	66 0f ef c9          	pxor   %xmm1,%xmm1
    436d:	f2 48 0f 2a c8       	cvtsi2sd %rax,%xmm1
    4372:	66 0f ef d2          	pxor   %xmm2,%xmm2
    4376:	f2 48 0f 2a 95 68 ff 	cvtsi2sdq -0x98(%rbp),%xmm2
    437d:	ff ff 
    437f:	f2 0f 10 05 f9 2f 00 	movsd  0x2ff9(%rip),%xmm0        # 7380 <_ZL22PARSEC_PROCESS_PRIVATE+0x368>
    4386:	00 
    4387:	f2 0f 59 c2          	mulsd  %xmm2,%xmm0
    438b:	66 0f 2f c1          	comisd %xmm1,%xmm0
    438f:	72 2f                	jb     43c0 <_Z8pkmedianP6PointsllPliP16parsec_barrier_t+0x5ed>
    4391:	48 8b 05 90 5d 00 00 	mov    0x5d90(%rip),%rax        # a128 <_ZZ8pkmedianP6PointsllPliP16parsec_barrier_tE1k>
    4398:	66 0f ef c0          	pxor   %xmm0,%xmm0
    439c:	f2 48 0f 2a c0       	cvtsi2sd %rax,%xmm0
    43a1:	66 0f ef d2          	pxor   %xmm2,%xmm2
    43a5:	f2 48 0f 2a 95 70 ff 	cvtsi2sdq -0x90(%rbp),%xmm2
    43ac:	ff ff 
    43ae:	f2 0f 10 0d d2 2f 00 	movsd  0x2fd2(%rip),%xmm1        # 7388 <_ZL22PARSEC_PROCESS_PRIVATE+0x370>
    43b5:	00 
    43b6:	f2 0f 59 ca          	mulsd  %xmm2,%xmm1
    43ba:	66 0f 2f c1          	comisd %xmm1,%xmm0
    43be:	73 36                	jae    43f6 <_Z8pkmedianP6PointsllPliP16parsec_barrier_t+0x623>
    43c0:	48 8b 85 68 ff ff ff 	mov    -0x98(%rbp),%rax
    43c7:	48 8d 50 02          	lea    0x2(%rax),%rdx
    43cb:	48 8b 05 56 5d 00 00 	mov    0x5d56(%rip),%rax        # a128 <_ZZ8pkmedianP6PointsllPliP16parsec_barrier_tE1k>
    43d2:	48 39 c2             	cmp    %rax,%rdx
    43d5:	0f 8c ce 00 00 00    	jl     44a9 <_Z8pkmedianP6PointsllPliP16parsec_barrier_t+0x6d6>
    43db:	48 8b 85 70 ff ff ff 	mov    -0x90(%rbp),%rax
    43e2:	48 8d 50 fe          	lea    -0x2(%rax),%rdx
    43e6:	48 8b 05 3b 5d 00 00 	mov    0x5d3b(%rip),%rax        # a128 <_ZZ8pkmedianP6PointsllPliP16parsec_barrier_tE1k>
    43ed:	48 39 c2             	cmp    %rax,%rdx
    43f0:	0f 8f b3 00 00 00    	jg     44a9 <_Z8pkmedianP6PointsllPliP16parsec_barrier_t+0x6d6>
    43f6:	48 8b 95 68 ff ff ff 	mov    -0x98(%rbp),%rdx
    43fd:	48 89 d0             	mov    %rdx,%rax
    4400:	48 01 c0             	add    %rax,%rax
    4403:	48 01 d0             	add    %rdx,%rax
    4406:	66 0f ef e4          	pxor   %xmm4,%xmm4
    440a:	f2 48 0f 2a e0       	cvtsi2sd %rax,%xmm4
    440f:	f2 0f 11 a5 48 ff ff 	movsd  %xmm4,-0xb8(%rbp)
    4416:	ff 
    4417:	66 0f ef ed          	pxor   %xmm5,%xmm5
    441b:	f2 48 0f 2a ad 68 ff 	cvtsi2sdq -0x98(%rbp),%xmm5
    4422:	ff ff 
    4424:	66 48 0f 7e e8       	movq   %xmm5,%rax
    4429:	66 48 0f 6e c0       	movq   %rax,%xmm0
    442e:	e8 fd de ff ff       	call   2330 <log@plt>
    4433:	f2 0f 59 85 48 ff ff 	mulsd  -0xb8(%rbp),%xmm0
    443a:	ff 
    443b:	f2 48 0f 2c c8       	cvttsd2si %xmm0,%rcx
    4440:	66 0f ef ff          	pxor   %xmm7,%xmm7
    4444:	f2 0f 5a 7d b0       	cvtsd2ss -0x50(%rbp),%xmm7
    4449:	66 0f 7e ff          	movd   %xmm7,%edi
    444d:	8b 15 e5 5c 00 00    	mov    0x5ce5(%rip),%edx        # a138 <_ZZ8pkmedianP6PointsllPliP16parsec_barrier_tE11numfeasible>
    4453:	48 8b 35 d6 5c 00 00 	mov    0x5cd6(%rip),%rsi        # a130 <_ZZ8pkmedianP6PointsllPliP16parsec_barrier_tE8feasible>
    445a:	44 8b 85 5c ff ff ff 	mov    -0xa4(%rbp),%r8d
    4461:	f2 0f 10 45 98       	movsd  -0x68(%rbp),%xmm0
    4466:	48 8b 85 78 ff ff ff 	mov    -0x88(%rbp),%rax
    446d:	48 83 ec 08          	sub    $0x8,%rsp
    4471:	ff b5 50 ff ff ff    	push   -0xb0(%rbp)
    4477:	45 89 c1             	mov    %r8d,%r9d
    447a:	f3 0f 10 15 0e 2f 00 	movss  0x2f0e(%rip),%xmm2        # 7390 <_ZL22PARSEC_PROCESS_PRIVATE+0x378>
    4481:	00 
    4482:	49 89 c8             	mov    %rcx,%r8
    4485:	66 0f 28 c8          	movapd %xmm0,%xmm1
    4489:	48 8d 0d 98 5c 00 00 	lea    0x5c98(%rip),%rcx        # a128 <_ZZ8pkmedianP6PointsllPliP16parsec_barrier_tE1k>
    4490:	66 0f 6e c7          	movd   %edi,%xmm0
    4494:	48 89 c7             	mov    %rax,%rdi
    4497:	e8 1d f5 ff ff       	call   39b9 <_Z3pFLP6PointsPiifPldlfiP16parsec_barrier_t>
    449c:	48 83 c4 10          	add    $0x10,%rsp
    44a0:	f3 0f 5a c0          	cvtss2sd %xmm0,%xmm0
    44a4:	f2 0f 11 45 98       	movsd  %xmm0,-0x68(%rbp)
    44a9:	48 8b 05 78 5c 00 00 	mov    0x5c78(%rip),%rax        # a128 <_ZZ8pkmedianP6PointsllPliP16parsec_barrier_tE1k>
    44b0:	48 39 85 68 ff ff ff 	cmp    %rax,-0x98(%rbp)
    44b7:	7d 55                	jge    450e <_Z8pkmedianP6PointsllPliP16parsec_barrier_t+0x73b>
    44b9:	f2 0f 10 45 b0       	movsd  -0x50(%rbp),%xmm0
    44be:	f2 0f 11 45 a8       	movsd  %xmm0,-0x58(%rbp)
    44c3:	f2 0f 10 45 a0       	movsd  -0x60(%rbp),%xmm0
    44c8:	f2 0f 58 45 a8       	addsd  -0x58(%rbp),%xmm0
    44cd:	f2 0f 10 0d 9b 2e 00 	movsd  0x2e9b(%rip),%xmm1        # 7370 <_ZL22PARSEC_PROCESS_PRIVATE+0x358>
    44d4:	00 
    44d5:	f2 0f 5e c1          	divsd  %xmm1,%xmm0
    44d9:	f2 0f 11 45 b0       	movsd  %xmm0,-0x50(%rbp)
    44de:	f2 0f 10 45 b0       	movsd  -0x50(%rbp),%xmm0
    44e3:	66 0f 28 c8          	movapd %xmm0,%xmm1
    44e7:	f2 0f 5c 4d a8       	subsd  -0x58(%rbp),%xmm1
    44ec:	48 8b 05 35 5c 00 00 	mov    0x5c35(%rip),%rax        # a128 <_ZZ8pkmedianP6PointsllPliP16parsec_barrier_tE1k>
    44f3:	66 0f ef c0          	pxor   %xmm0,%xmm0
    44f7:	f2 48 0f 2a c0       	cvtsi2sd %rax,%xmm0
    44fc:	f2 0f 59 c1          	mulsd  %xmm1,%xmm0
    4500:	f2 0f 10 4d 98       	movsd  -0x68(%rbp),%xmm1
    4505:	f2 0f 58 c1          	addsd  %xmm1,%xmm0
    4509:	f2 0f 11 45 98       	movsd  %xmm0,-0x68(%rbp)
    450e:	48 8b 05 13 5c 00 00 	mov    0x5c13(%rip),%rax        # a128 <_ZZ8pkmedianP6PointsllPliP16parsec_barrier_tE1k>
    4515:	48 39 85 70 ff ff ff 	cmp    %rax,-0x90(%rbp)
    451c:	7e 55                	jle    4573 <_Z8pkmedianP6PointsllPliP16parsec_barrier_t+0x7a0>
    451e:	f2 0f 10 45 b0       	movsd  -0x50(%rbp),%xmm0
    4523:	f2 0f 11 45 a0       	movsd  %xmm0,-0x60(%rbp)
    4528:	f2 0f 10 45 a0       	movsd  -0x60(%rbp),%xmm0
    452d:	f2 0f 58 45 a8       	addsd  -0x58(%rbp),%xmm0
    4532:	f2 0f 10 0d 36 2e 00 	movsd  0x2e36(%rip),%xmm1        # 7370 <_ZL22PARSEC_PROCESS_PRIVATE+0x358>
    4539:	00 
    453a:	f2 0f 5e c1          	divsd  %xmm1,%xmm0
    453e:	f2 0f 11 45 b0       	movsd  %xmm0,-0x50(%rbp)
    4543:	f2 0f 10 45 b0       	movsd  -0x50(%rbp),%xmm0
    4548:	66 0f 28 c8          	movapd %xmm0,%xmm1
    454c:	f2 0f 5c 4d a0       	subsd  -0x60(%rbp),%xmm1
    4551:	48 8b 05 d0 5b 00 00 	mov    0x5bd0(%rip),%rax        # a128 <_ZZ8pkmedianP6PointsllPliP16parsec_barrier_tE1k>
    4558:	66 0f ef c0          	pxor   %xmm0,%xmm0
    455c:	f2 48 0f 2a c0       	cvtsi2sd %rax,%xmm0
    4561:	f2 0f 59 c1          	mulsd  %xmm1,%xmm0
    4565:	f2 0f 10 4d 98       	movsd  -0x68(%rbp),%xmm1
    456a:	f2 0f 58 c1          	addsd  %xmm1,%xmm0
    456e:	f2 0f 11 45 98       	movsd  %xmm0,-0x68(%rbp)
    4573:	48 8b 05 ae 5b 00 00 	mov    0x5bae(%rip),%rax        # a128 <_ZZ8pkmedianP6PointsllPliP16parsec_barrier_tE1k>
    457a:	48 39 85 68 ff ff ff 	cmp    %rax,-0x98(%rbp)
    4581:	7c 10                	jl     4593 <_Z8pkmedianP6PointsllPliP16parsec_barrier_t+0x7c0>
    4583:	48 8b 05 9e 5b 00 00 	mov    0x5b9e(%rip),%rax        # a128 <_ZZ8pkmedianP6PointsllPliP16parsec_barrier_tE1k>
    458a:	48 39 85 70 ff ff ff 	cmp    %rax,-0x90(%rbp)
    4591:	7e 30                	jle    45c3 <_Z8pkmedianP6PointsllPliP16parsec_barrier_t+0x7f0>
    4593:	f2 0f 10 4d a0       	movsd  -0x60(%rbp),%xmm1
    4598:	f2 0f 10 05 f8 2d 00 	movsd  0x2df8(%rip),%xmm0        # 7398 <_ZL22PARSEC_PROCESS_PRIVATE+0x380>
    459f:	00 
    45a0:	f2 0f 59 c8          	mulsd  %xmm0,%xmm1
    45a4:	f2 0f 10 45 a8       	movsd  -0x58(%rbp),%xmm0
    45a9:	66 0f 2f c1          	comisd %xmm1,%xmm0
    45ad:	73 14                	jae    45c3 <_Z8pkmedianP6PointsllPliP16parsec_barrier_t+0x7f0>
    45af:	48 8b 85 50 ff ff ff 	mov    -0xb0(%rbp),%rax
    45b6:	48 89 c7             	mov    %rax,%rdi
    45b9:	e8 76 18 00 00       	call   5e34 <_Z19parsec_barrier_waitP16parsec_barrier_t>
    45be:	e9 e2 fc ff ff       	jmp    42a5 <_Z8pkmedianP6PointsllPliP16parsec_barrier_t+0x4d2>
    45c3:	83 bd 5c ff ff ff 00 	cmpl   $0x0,-0xa4(%rbp)
    45ca:	75 2f                	jne    45fb <_Z8pkmedianP6PointsllPliP16parsec_barrier_t+0x828>
    45cc:	48 8b 05 5d 5b 00 00 	mov    0x5b5d(%rip),%rax        # a130 <_ZZ8pkmedianP6PointsllPliP16parsec_barrier_tE8feasible>
    45d3:	48 89 c7             	mov    %rax,%rdi
    45d6:	e8 15 de ff ff       	call   23f0 <free@plt>
    45db:	48 8b 05 5e 5b 00 00 	mov    0x5b5e(%rip),%rax        # a140 <_ZZ8pkmedianP6PointsllPliP16parsec_barrier_tE4hizs>
    45e2:	48 89 c7             	mov    %rax,%rdi
    45e5:	e8 06 de ff ff       	call   23f0 <free@plt>
    45ea:	48 8b 15 37 5b 00 00 	mov    0x5b37(%rip),%rdx        # a128 <_ZZ8pkmedianP6PointsllPliP16parsec_barrier_tE1k>
    45f1:	48 8b 85 60 ff ff ff 	mov    -0xa0(%rbp),%rax
    45f8:	48 89 10             	mov    %rdx,(%rax)
    45fb:	66 0f ef c0          	pxor   %xmm0,%xmm0
    45ff:	f2 0f 5a 45 98       	cvtsd2ss -0x68(%rbp),%xmm0
    4604:	c9                   	leave  
    4605:	c3                   	ret    

0000000000004606 <_Z11contcentersP6Points>:
    4606:	f3 0f 1e fa          	endbr64 
    460a:	55                   	push   %rbp
    460b:	48 89 e5             	mov    %rsp,%rbp
    460e:	48 89 7d d8          	mov    %rdi,-0x28(%rbp)
    4612:	48 c7 45 f0 00 00 00 	movq   $0x0,-0x10(%rbp)
    4619:	00 
    461a:	e9 5d 02 00 00       	jmp    487c <_Z11contcentersP6Points+0x276>
    461f:	48 8b 45 d8          	mov    -0x28(%rbp),%rax
    4623:	48 8b 50 10          	mov    0x10(%rax),%rdx
    4627:	48 8b 45 f0          	mov    -0x10(%rbp),%rax
    462b:	48 c1 e0 05          	shl    $0x5,%rax
    462f:	48 01 d0             	add    %rdx,%rax
    4632:	48 8b 40 10          	mov    0x10(%rax),%rax
    4636:	48 39 45 f0          	cmp    %rax,-0x10(%rbp)
    463a:	0f 84 37 02 00 00    	je     4877 <_Z11contcentersP6Points+0x271>
    4640:	48 8b 45 d8          	mov    -0x28(%rbp),%rax
    4644:	48 8b 50 10          	mov    0x10(%rax),%rdx
    4648:	48 8b 45 d8          	mov    -0x28(%rbp),%rax
    464c:	48 8b 48 10          	mov    0x10(%rax),%rcx
    4650:	48 8b 45 f0          	mov    -0x10(%rbp),%rax
    4654:	48 c1 e0 05          	shl    $0x5,%rax
    4658:	48 01 c8             	add    %rcx,%rax
    465b:	48 8b 40 10          	mov    0x10(%rax),%rax
    465f:	48 c1 e0 05          	shl    $0x5,%rax
    4663:	48 01 d0             	add    %rdx,%rax
    4666:	f3 0f 10 08          	movss  (%rax),%xmm1
    466a:	48 8b 45 d8          	mov    -0x28(%rbp),%rax
    466e:	48 8b 50 10          	mov    0x10(%rax),%rdx
    4672:	48 8b 45 f0          	mov    -0x10(%rbp),%rax
    4676:	48 c1 e0 05          	shl    $0x5,%rax
    467a:	48 01 d0             	add    %rdx,%rax
    467d:	f3 0f 10 00          	movss  (%rax),%xmm0
    4681:	f3 0f 58 c1          	addss  %xmm1,%xmm0
    4685:	f3 0f 11 45 ec       	movss  %xmm0,-0x14(%rbp)
    468a:	48 8b 45 d8          	mov    -0x28(%rbp),%rax
    468e:	48 8b 50 10          	mov    0x10(%rax),%rdx
    4692:	48 8b 45 f0          	mov    -0x10(%rbp),%rax
    4696:	48 c1 e0 05          	shl    $0x5,%rax
    469a:	48 01 d0             	add    %rdx,%rax
    469d:	f3 0f 10 00          	movss  (%rax),%xmm0
    46a1:	f3 0f 5e 45 ec       	divss  -0x14(%rbp),%xmm0
    46a6:	f3 0f 11 45 ec       	movss  %xmm0,-0x14(%rbp)
    46ab:	48 c7 45 f8 00 00 00 	movq   $0x0,-0x8(%rbp)
    46b2:	00 
    46b3:	e9 3d 01 00 00       	jmp    47f5 <_Z11contcentersP6Points+0x1ef>
    46b8:	48 8b 45 d8          	mov    -0x28(%rbp),%rax
    46bc:	48 8b 50 10          	mov    0x10(%rax),%rdx
    46c0:	48 8b 45 d8          	mov    -0x28(%rbp),%rax
    46c4:	48 8b 48 10          	mov    0x10(%rax),%rcx
    46c8:	48 8b 45 f0          	mov    -0x10(%rbp),%rax
    46cc:	48 c1 e0 05          	shl    $0x5,%rax
    46d0:	48 01 c8             	add    %rcx,%rax
    46d3:	48 8b 40 10          	mov    0x10(%rax),%rax
    46d7:	48 c1 e0 05          	shl    $0x5,%rax
    46db:	48 01 d0             	add    %rdx,%rax
    46de:	48 8b 50 08          	mov    0x8(%rax),%rdx
    46e2:	48 8b 45 f8          	mov    -0x8(%rbp),%rax
    46e6:	48 c1 e0 02          	shl    $0x2,%rax
    46ea:	48 01 d0             	add    %rdx,%rax
    46ed:	f3 0f 10 00          	movss  (%rax),%xmm0
    46f1:	66 0f ef c9          	pxor   %xmm1,%xmm1
    46f5:	f3 0f 5a c8          	cvtss2sd %xmm0,%xmm1
    46f9:	66 0f ef d2          	pxor   %xmm2,%xmm2
    46fd:	f3 0f 5a 55 ec       	cvtss2sd -0x14(%rbp),%xmm2
    4702:	f2 0f 10 05 96 2c 00 	movsd  0x2c96(%rip),%xmm0        # 73a0 <_ZL22PARSEC_PROCESS_PRIVATE+0x388>
    4709:	00 
    470a:	f2 0f 5c c2          	subsd  %xmm2,%xmm0
    470e:	f2 0f 59 c1          	mulsd  %xmm1,%xmm0
    4712:	48 8b 45 d8          	mov    -0x28(%rbp),%rax
    4716:	48 8b 50 10          	mov    0x10(%rax),%rdx
    471a:	48 8b 45 d8          	mov    -0x28(%rbp),%rax
    471e:	48 8b 48 10          	mov    0x10(%rax),%rcx
    4722:	48 8b 45 f0          	mov    -0x10(%rbp),%rax
    4726:	48 c1 e0 05          	shl    $0x5,%rax
    472a:	48 01 c8             	add    %rcx,%rax
    472d:	48 8b 40 10          	mov    0x10(%rax),%rax
    4731:	48 c1 e0 05          	shl    $0x5,%rax
    4735:	48 01 d0             	add    %rdx,%rax
    4738:	48 8b 50 08          	mov    0x8(%rax),%rdx
    473c:	48 8b 45 f8          	mov    -0x8(%rbp),%rax
    4740:	48 c1 e0 02          	shl    $0x2,%rax
    4744:	48 01 d0             	add    %rdx,%rax
    4747:	f2 0f 5a c0          	cvtsd2ss %xmm0,%xmm0
    474b:	f3 0f 11 00          	movss  %xmm0,(%rax)
    474f:	48 8b 45 d8          	mov    -0x28(%rbp),%rax
    4753:	48 8b 50 10          	mov    0x10(%rax),%rdx
    4757:	48 8b 45 d8          	mov    -0x28(%rbp),%rax
    475b:	48 8b 48 10          	mov    0x10(%rax),%rcx
    475f:	48 8b 45 f0          	mov    -0x10(%rbp),%rax
    4763:	48 c1 e0 05          	shl    $0x5,%rax
    4767:	48 01 c8             	add    %rcx,%rax
    476a:	48 8b 40 10          	mov    0x10(%rax),%rax
    476e:	48 c1 e0 05          	shl    $0x5,%rax
    4772:	48 01 d0             	add    %rdx,%rax
    4775:	48 8b 50 08          	mov    0x8(%rax),%rdx
    4779:	48 8b 45 f8          	mov    -0x8(%rbp),%rax
    477d:	48 c1 e0 02          	shl    $0x2,%rax
    4781:	48 01 d0             	add    %rdx,%rax
    4784:	f3 0f 10 08          	movss  (%rax),%xmm1
    4788:	48 8b 45 d8          	mov    -0x28(%rbp),%rax
    478c:	48 8b 50 10          	mov    0x10(%rax),%rdx
    4790:	48 8b 45 f0          	mov    -0x10(%rbp),%rax
    4794:	48 c1 e0 05          	shl    $0x5,%rax
    4798:	48 01 d0             	add    %rdx,%rax
    479b:	48 8b 50 08          	mov    0x8(%rax),%rdx
    479f:	48 8b 45 f8          	mov    -0x8(%rbp),%rax
    47a3:	48 c1 e0 02          	shl    $0x2,%rax
    47a7:	48 01 d0             	add    %rdx,%rax
    47aa:	f3 0f 10 00          	movss  (%rax),%xmm0
    47ae:	f3 0f 59 45 ec       	mulss  -0x14(%rbp),%xmm0
    47b3:	48 8b 45 d8          	mov    -0x28(%rbp),%rax
    47b7:	48 8b 50 10          	mov    0x10(%rax),%rdx
    47bb:	48 8b 45 d8          	mov    -0x28(%rbp),%rax
    47bf:	48 8b 48 10          	mov    0x10(%rax),%rcx
    47c3:	48 8b 45 f0          	mov    -0x10(%rbp),%rax
    47c7:	48 c1 e0 05          	shl    $0x5,%rax
    47cb:	48 01 c8             	add    %rcx,%rax
    47ce:	48 8b 40 10          	mov    0x10(%rax),%rax
    47d2:	48 c1 e0 05          	shl    $0x5,%rax
    47d6:	48 01 d0             	add    %rdx,%rax
    47d9:	48 8b 50 08          	mov    0x8(%rax),%rdx
    47dd:	48 8b 45 f8          	mov    -0x8(%rbp),%rax
    47e1:	48 c1 e0 02          	shl    $0x2,%rax
    47e5:	48 01 d0             	add    %rdx,%rax
    47e8:	f3 0f 58 c1          	addss  %xmm1,%xmm0
    47ec:	f3 0f 11 00          	movss  %xmm0,(%rax)
    47f0:	48 83 45 f8 01       	addq   $0x1,-0x8(%rbp)
    47f5:	48 8b 45 d8          	mov    -0x28(%rbp),%rax
    47f9:	8b 40 08             	mov    0x8(%rax),%eax
    47fc:	48 98                	cltq   
    47fe:	48 39 45 f8          	cmp    %rax,-0x8(%rbp)
    4802:	0f 8c b0 fe ff ff    	jl     46b8 <_Z11contcentersP6Points+0xb2>
    4808:	48 8b 45 d8          	mov    -0x28(%rbp),%rax
    480c:	48 8b 50 10          	mov    0x10(%rax),%rdx
    4810:	48 8b 45 d8          	mov    -0x28(%rbp),%rax
    4814:	48 8b 48 10          	mov    0x10(%rax),%rcx
    4818:	48 8b 45 f0          	mov    -0x10(%rbp),%rax
    481c:	48 c1 e0 05          	shl    $0x5,%rax
    4820:	48 01 c8             	add    %rcx,%rax
    4823:	48 8b 40 10          	mov    0x10(%rax),%rax
    4827:	48 c1 e0 05          	shl    $0x5,%rax
    482b:	48 01 d0             	add    %rdx,%rax
    482e:	f3 0f 10 08          	movss  (%rax),%xmm1
    4832:	48 8b 45 d8          	mov    -0x28(%rbp),%rax
    4836:	48 8b 50 10          	mov    0x10(%rax),%rdx
    483a:	48 8b 45 f0          	mov    -0x10(%rbp),%rax
    483e:	48 c1 e0 05          	shl    $0x5,%rax
    4842:	48 01 d0             	add    %rdx,%rax
    4845:	f3 0f 10 00          	movss  (%rax),%xmm0
    4849:	48 8b 45 d8          	mov    -0x28(%rbp),%rax
    484d:	48 8b 50 10          	mov    0x10(%rax),%rdx
    4851:	48 8b 45 d8          	mov    -0x28(%rbp),%rax
    4855:	48 8b 48 10          	mov    0x10(%rax),%rcx
    4859:	48 8b 45 f0          	mov    -0x10(%rbp),%rax
    485d:	48 c1 e0 05          	shl    $0x5,%rax
    4861:	48 01 c8             	add    %rcx,%rax
    4864:	48 8b 40 10          	mov    0x10(%rax),%rax
    4868:	48 c1 e0 05          	shl    $0x5,%rax
    486c:	48 01 d0             	add    %rdx,%rax
    486f:	f3 0f 58 c1          	addss  %xmm1,%xmm0
    4873:	f3 0f 11 00          	movss  %xmm0,(%rax)
    4877:	48 83 45 f0 01       	addq   $0x1,-0x10(%rbp)
    487c:	48 8b 45 d8          	mov    -0x28(%rbp),%rax
    4880:	48 8b 00             	mov    (%rax),%rax
    4883:	48 39 45 f0          	cmp    %rax,-0x10(%rbp)
    4887:	0f 8c 92 fd ff ff    	jl     461f <_Z11contcentersP6Points+0x19>
    488d:	b8 00 00 00 00       	mov    $0x0,%eax
    4892:	5d                   	pop    %rbp
    4893:	c3                   	ret    

0000000000004894 <_Z11copycentersP6PointsS0_Pll>:
    4894:	f3 0f 1e fa          	endbr64 
    4898:	55                   	push   %rbp
    4899:	48 89 e5             	mov    %rsp,%rbp
    489c:	48 83 ec 40          	sub    $0x40,%rsp
    48a0:	48 89 7d d8          	mov    %rdi,-0x28(%rbp)
    48a4:	48 89 75 d0          	mov    %rsi,-0x30(%rbp)
    48a8:	48 89 55 c8          	mov    %rdx,-0x38(%rbp)
    48ac:	48 89 4d c0          	mov    %rcx,-0x40(%rbp)
    48b0:	48 8b 45 d8          	mov    -0x28(%rbp),%rax
    48b4:	48 8b 00             	mov    (%rax),%rax
    48b7:	be 01 00 00 00       	mov    $0x1,%esi
    48bc:	48 89 c7             	mov    %rax,%rdi
    48bf:	e8 3c da ff ff       	call   2300 <calloc@plt>
    48c4:	48 89 45 f8          	mov    %rax,-0x8(%rbp)
    48c8:	48 c7 45 e8 00 00 00 	movq   $0x0,-0x18(%rbp)
    48cf:	00 
    48d0:	eb 29                	jmp    48fb <_Z11copycentersP6PointsS0_Pll+0x67>
    48d2:	48 8b 45 d8          	mov    -0x28(%rbp),%rax
    48d6:	48 8b 50 10          	mov    0x10(%rax),%rdx
    48da:	48 8b 45 e8          	mov    -0x18(%rbp),%rax
    48de:	48 c1 e0 05          	shl    $0x5,%rax
    48e2:	48 01 d0             	add    %rdx,%rax
    48e5:	48 8b 40 10          	mov    0x10(%rax),%rax
    48e9:	48 89 c2             	mov    %rax,%rdx
    48ec:	48 8b 45 f8          	mov    -0x8(%rbp),%rax
    48f0:	48 01 d0             	add    %rdx,%rax
    48f3:	c6 00 01             	movb   $0x1,(%rax)
    48f6:	48 83 45 e8 01       	addq   $0x1,-0x18(%rbp)
    48fb:	48 8b 45 d8          	mov    -0x28(%rbp),%rax
    48ff:	48 8b 00             	mov    (%rax),%rax
    4902:	48 39 45 e8          	cmp    %rax,-0x18(%rbp)
    4906:	7c ca                	jl     48d2 <_Z11copycentersP6PointsS0_Pll+0x3e>
    4908:	48 8b 45 d0          	mov    -0x30(%rbp),%rax
    490c:	48 8b 00             	mov    (%rax),%rax
    490f:	48 89 45 f0          	mov    %rax,-0x10(%rbp)
    4913:	48 c7 45 e8 00 00 00 	movq   $0x0,-0x18(%rbp)
    491a:	00 
    491b:	e9 b9 00 00 00       	jmp    49d9 <_Z11copycentersP6PointsS0_Pll+0x145>
    4920:	48 8b 55 e8          	mov    -0x18(%rbp),%rdx
    4924:	48 8b 45 f8          	mov    -0x8(%rbp),%rax
    4928:	48 01 d0             	add    %rdx,%rax
    492b:	0f b6 00             	movzbl (%rax),%eax
    492e:	84 c0                	test   %al,%al
    4930:	0f 84 9e 00 00 00    	je     49d4 <_Z11copycentersP6PointsS0_Pll+0x140>
    4936:	48 8b 45 d8          	mov    -0x28(%rbp),%rax
    493a:	8b 40 08             	mov    0x8(%rax),%eax
    493d:	48 98                	cltq   
    493f:	48 8d 14 85 00 00 00 	lea    0x0(,%rax,4),%rdx
    4946:	00 
    4947:	48 8b 45 d8          	mov    -0x28(%rbp),%rax
    494b:	48 8b 48 10          	mov    0x10(%rax),%rcx
    494f:	48 8b 45 e8          	mov    -0x18(%rbp),%rax
    4953:	48 c1 e0 05          	shl    $0x5,%rax
    4957:	48 01 c8             	add    %rcx,%rax
    495a:	48 8b 48 08          	mov    0x8(%rax),%rcx
    495e:	48 8b 45 d0          	mov    -0x30(%rbp),%rax
    4962:	48 8b 70 10          	mov    0x10(%rax),%rsi
    4966:	48 8b 45 f0          	mov    -0x10(%rbp),%rax
    496a:	48 c1 e0 05          	shl    $0x5,%rax
    496e:	48 01 f0             	add    %rsi,%rax
    4971:	48 8b 40 08          	mov    0x8(%rax),%rax
    4975:	48 89 ce             	mov    %rcx,%rsi
    4978:	48 89 c7             	mov    %rax,%rdi
    497b:	e8 c0 d9 ff ff       	call   2340 <memcpy@plt>
    4980:	48 8b 45 d8          	mov    -0x28(%rbp),%rax
    4984:	48 8b 50 10          	mov    0x10(%rax),%rdx
    4988:	48 8b 45 e8          	mov    -0x18(%rbp),%rax
    498c:	48 c1 e0 05          	shl    $0x5,%rax
    4990:	48 01 c2             	add    %rax,%rdx
    4993:	48 8b 45 d0          	mov    -0x30(%rbp),%rax
    4997:	48 8b 48 10          	mov    0x10(%rax),%rcx
    499b:	48 8b 45 f0          	mov    -0x10(%rbp),%rax
    499f:	48 c1 e0 05          	shl    $0x5,%rax
    49a3:	48 01 c8             	add    %rcx,%rax
    49a6:	f3 0f 10 02          	movss  (%rdx),%xmm0
    49aa:	f3 0f 11 00          	movss  %xmm0,(%rax)
    49ae:	48 8b 45 f0          	mov    -0x10(%rbp),%rax
    49b2:	48 8d 14 c5 00 00 00 	lea    0x0(,%rax,8),%rdx
    49b9:	00 
    49ba:	48 8b 45 c8          	mov    -0x38(%rbp),%rax
    49be:	48 01 d0             	add    %rdx,%rax
    49c1:	48 8b 4d e8          	mov    -0x18(%rbp),%rcx
    49c5:	48 8b 55 c0          	mov    -0x40(%rbp),%rdx
    49c9:	48 01 ca             	add    %rcx,%rdx
    49cc:	48 89 10             	mov    %rdx,(%rax)
    49cf:	48 83 45 f0 01       	addq   $0x1,-0x10(%rbp)
    49d4:	48 83 45 e8 01       	addq   $0x1,-0x18(%rbp)
    49d9:	48 8b 45 d8          	mov    -0x28(%rbp),%rax
    49dd:	48 8b 00             	mov    (%rax),%rax
    49e0:	48 39 45 e8          	cmp    %rax,-0x18(%rbp)
    49e4:	0f 8c 36 ff ff ff    	jl     4920 <_Z11copycentersP6PointsS0_Pll+0x8c>
    49ea:	48 8b 45 d0          	mov    -0x30(%rbp),%rax
    49ee:	48 8b 55 f0          	mov    -0x10(%rbp),%rdx
    49f2:	48 89 10             	mov    %rdx,(%rax)
    49f5:	48 8b 45 f8          	mov    -0x8(%rbp),%rax
    49f9:	48 89 c7             	mov    %rax,%rdi
    49fc:	e8 ef d9 ff ff       	call   23f0 <free@plt>
    4a01:	90                   	nop
    4a02:	c9                   	leave  
    4a03:	c3                   	ret    

0000000000004a04 <_Z14localSearchSubPv>:
    4a04:	f3 0f 1e fa          	endbr64 
    4a08:	55                   	push   %rbp
    4a09:	48 89 e5             	mov    %rsp,%rbp
    4a0c:	48 83 ec 20          	sub    $0x20,%rsp
    4a10:	48 89 7d e8          	mov    %rdi,-0x18(%rbp)
    4a14:	48 8b 45 e8          	mov    -0x18(%rbp),%rax
    4a18:	48 89 45 f8          	mov    %rax,-0x8(%rbp)
    4a1c:	48 8b 45 f8          	mov    -0x8(%rbp),%rax
    4a20:	4c 8b 40 28          	mov    0x28(%rax),%r8
    4a24:	48 8b 45 f8          	mov    -0x8(%rbp),%rax
    4a28:	8b 78 20             	mov    0x20(%rax),%edi
    4a2b:	48 8b 45 f8          	mov    -0x8(%rbp),%rax
    4a2f:	48 8b 48 18          	mov    0x18(%rax),%rcx
    4a33:	48 8b 45 f8          	mov    -0x8(%rbp),%rax
    4a37:	48 8b 50 10          	mov    0x10(%rax),%rdx
    4a3b:	48 8b 45 f8          	mov    -0x8(%rbp),%rax
    4a3f:	48 8b 70 08          	mov    0x8(%rax),%rsi
    4a43:	48 8b 45 f8          	mov    -0x8(%rbp),%rax
    4a47:	48 8b 00             	mov    (%rax),%rax
    4a4a:	4d 89 c1             	mov    %r8,%r9
    4a4d:	41 89 f8             	mov    %edi,%r8d
    4a50:	48 89 c7             	mov    %rax,%rdi
    4a53:	e8 7b f3 ff ff       	call   3dd3 <_Z8pkmedianP6PointsllPliP16parsec_barrier_t>
    4a58:	b8 00 00 00 00       	mov    $0x0,%eax
    4a5d:	c9                   	leave  
    4a5e:	c3                   	ret    

0000000000004a5f <_Z11localSearchP6PointsllPl>:
    4a5f:	f3 0f 1e fa          	endbr64 
    4a63:	55                   	push   %rbp
    4a64:	48 89 e5             	mov    %rsp,%rbp
    4a67:	48 81 ec b0 00 00 00 	sub    $0xb0,%rsp
    4a6e:	48 89 bd 68 ff ff ff 	mov    %rdi,-0x98(%rbp)
    4a75:	48 89 b5 60 ff ff ff 	mov    %rsi,-0xa0(%rbp)
    4a7c:	48 89 95 58 ff ff ff 	mov    %rdx,-0xa8(%rbp)
    4a83:	48 89 8d 50 ff ff ff 	mov    %rcx,-0xb0(%rbp)
    4a8a:	64 48 8b 04 25 28 00 	mov    %fs:0x28,%rax
    4a91:	00 00 
    4a93:	48 89 45 f8          	mov    %rax,-0x8(%rbp)
    4a97:	31 c0                	xor    %eax,%eax
    4a99:	8b 05 c1 55 00 00    	mov    0x55c1(%rip),%eax        # a060 <_ZL5nproc>
    4a9f:	48 98                	cltq   
    4aa1:	48 ba ff ff ff ff ff 	movabs $0xfffffffffffffff,%rdx
    4aa8:	ff ff 0f 
    4aab:	48 39 d0             	cmp    %rdx,%rax
    4aae:	77 06                	ja     4ab6 <_Z11localSearchP6PointsllPl+0x57>
    4ab0:	48 c1 e0 03          	shl    $0x3,%rax
    4ab4:	eb 07                	jmp    4abd <_Z11localSearchP6PointsllPl+0x5e>
    4ab6:	48 c7 c0 ff ff ff ff 	mov    $0xffffffffffffffff,%rax
    4abd:	48 89 c7             	mov    %rax,%rdi
    4ac0:	e8 eb d7 ff ff       	call   22b0 <_Znam@plt>
    4ac5:	48 89 45 80          	mov    %rax,-0x80(%rbp)
    4ac9:	8b 05 91 55 00 00    	mov    0x5591(%rip),%eax        # a060 <_ZL5nproc>
    4acf:	48 63 d0             	movslq %eax,%rdx
    4ad2:	48 b8 aa aa aa aa aa 	movabs $0x2aaaaaaaaaaaaaa,%rax
    4ad9:	aa aa 02 
    4adc:	48 39 c2             	cmp    %rax,%rdx
    4adf:	77 0f                	ja     4af0 <_Z11localSearchP6PointsllPl+0x91>
    4ae1:	48 89 d0             	mov    %rdx,%rax
    4ae4:	48 01 c0             	add    %rax,%rax
    4ae7:	48 01 d0             	add    %rdx,%rax
    4aea:	48 c1 e0 04          	shl    $0x4,%rax
    4aee:	eb 07                	jmp    4af7 <_Z11localSearchP6PointsllPl+0x98>
    4af0:	48 c7 c0 ff ff ff ff 	mov    $0xffffffffffffffff,%rax
    4af7:	48 89 c7             	mov    %rax,%rdi
    4afa:	e8 b1 d7 ff ff       	call   22b0 <_Znam@plt>
    4aff:	48 89 45 88          	mov    %rax,-0x78(%rbp)
    4b03:	8b 05 57 55 00 00    	mov    0x5557(%rip),%eax        # a060 <_ZL5nproc>
    4b09:	89 c2                	mov    %eax,%edx
    4b0b:	48 8d 45 90          	lea    -0x70(%rbp),%rax
    4b0f:	be 00 00 00 00       	mov    $0x0,%esi
    4b14:	48 89 c7             	mov    %rax,%rdi
    4b17:	e8 dd 10 00 00       	call   5bf9 <_Z19parsec_barrier_initP16parsec_barrier_tPKij>
    4b1c:	c7 85 78 ff ff ff 00 	movl   $0x0,-0x88(%rbp)
    4b23:	00 00 00 
    4b26:	e9 51 01 00 00       	jmp    4c7c <_Z11localSearchP6PointsllPl+0x21d>
    4b2b:	8b 85 78 ff ff ff    	mov    -0x88(%rbp),%eax
    4b31:	48 63 d0             	movslq %eax,%rdx
    4b34:	48 89 d0             	mov    %rdx,%rax
    4b37:	48 01 c0             	add    %rax,%rax
    4b3a:	48 01 d0             	add    %rdx,%rax
    4b3d:	48 c1 e0 04          	shl    $0x4,%rax
    4b41:	48 89 c2             	mov    %rax,%rdx
    4b44:	48 8b 45 88          	mov    -0x78(%rbp),%rax
    4b48:	48 01 c2             	add    %rax,%rdx
    4b4b:	48 8b 85 68 ff ff ff 	mov    -0x98(%rbp),%rax
    4b52:	48 89 02             	mov    %rax,(%rdx)
    4b55:	8b 85 78 ff ff ff    	mov    -0x88(%rbp),%eax
    4b5b:	48 63 d0             	movslq %eax,%rdx
    4b5e:	48 89 d0             	mov    %rdx,%rax
    4b61:	48 01 c0             	add    %rax,%rax
    4b64:	48 01 d0             	add    %rdx,%rax
    4b67:	48 c1 e0 04          	shl    $0x4,%rax
    4b6b:	48 89 c2             	mov    %rax,%rdx
    4b6e:	48 8b 45 88          	mov    -0x78(%rbp),%rax
    4b72:	48 01 c2             	add    %rax,%rdx
    4b75:	48 8b 85 60 ff ff ff 	mov    -0xa0(%rbp),%rax
    4b7c:	48 89 42 08          	mov    %rax,0x8(%rdx)
    4b80:	8b 85 78 ff ff ff    	mov    -0x88(%rbp),%eax
    4b86:	48 63 d0             	movslq %eax,%rdx
    4b89:	48 89 d0             	mov    %rdx,%rax
    4b8c:	48 01 c0             	add    %rax,%rax
    4b8f:	48 01 d0             	add    %rdx,%rax
    4b92:	48 c1 e0 04          	shl    $0x4,%rax
    4b96:	48 89 c2             	mov    %rax,%rdx
    4b99:	48 8b 45 88          	mov    -0x78(%rbp),%rax
    4b9d:	48 01 c2             	add    %rax,%rdx
    4ba0:	48 8b 85 58 ff ff ff 	mov    -0xa8(%rbp),%rax
    4ba7:	48 89 42 10          	mov    %rax,0x10(%rdx)
    4bab:	8b 85 78 ff ff ff    	mov    -0x88(%rbp),%eax
    4bb1:	48 63 d0             	movslq %eax,%rdx
    4bb4:	48 89 d0             	mov    %rdx,%rax
    4bb7:	48 01 c0             	add    %rax,%rax
    4bba:	48 01 d0             	add    %rdx,%rax
    4bbd:	48 c1 e0 04          	shl    $0x4,%rax
    4bc1:	48 89 c2             	mov    %rax,%rdx
    4bc4:	48 8b 45 88          	mov    -0x78(%rbp),%rax
    4bc8:	48 01 c2             	add    %rax,%rdx
    4bcb:	8b 85 78 ff ff ff    	mov    -0x88(%rbp),%eax
    4bd1:	89 42 20             	mov    %eax,0x20(%rdx)
    4bd4:	8b 85 78 ff ff ff    	mov    -0x88(%rbp),%eax
    4bda:	48 63 d0             	movslq %eax,%rdx
    4bdd:	48 89 d0             	mov    %rdx,%rax
    4be0:	48 01 c0             	add    %rax,%rax
    4be3:	48 01 d0             	add    %rdx,%rax
    4be6:	48 c1 e0 04          	shl    $0x4,%rax
    4bea:	48 89 c2             	mov    %rax,%rdx
    4bed:	48 8b 45 88          	mov    -0x78(%rbp),%rax
    4bf1:	48 01 c2             	add    %rax,%rdx
    4bf4:	48 8b 85 50 ff ff ff 	mov    -0xb0(%rbp),%rax
    4bfb:	48 89 42 18          	mov    %rax,0x18(%rdx)
    4bff:	8b 85 78 ff ff ff    	mov    -0x88(%rbp),%eax
    4c05:	48 63 d0             	movslq %eax,%rdx
    4c08:	48 89 d0             	mov    %rdx,%rax
    4c0b:	48 01 c0             	add    %rax,%rax
    4c0e:	48 01 d0             	add    %rdx,%rax
    4c11:	48 c1 e0 04          	shl    $0x4,%rax
    4c15:	48 89 c2             	mov    %rax,%rdx
    4c18:	48 8b 45 88          	mov    -0x78(%rbp),%rax
    4c1c:	48 01 c2             	add    %rax,%rdx
    4c1f:	48 8d 45 90          	lea    -0x70(%rbp),%rax
    4c23:	48 89 42 28          	mov    %rax,0x28(%rdx)
    4c27:	8b 85 78 ff ff ff    	mov    -0x88(%rbp),%eax
    4c2d:	48 63 d0             	movslq %eax,%rdx
    4c30:	48 89 d0             	mov    %rdx,%rax
    4c33:	48 01 c0             	add    %rax,%rax
    4c36:	48 01 d0             	add    %rdx,%rax
    4c39:	48 c1 e0 04          	shl    $0x4,%rax
    4c3d:	48 89 c2             	mov    %rax,%rdx
    4c40:	48 8b 45 88          	mov    -0x78(%rbp),%rax
    4c44:	48 01 c2             	add    %rax,%rdx
    4c47:	8b 85 78 ff ff ff    	mov    -0x88(%rbp),%eax
    4c4d:	48 98                	cltq   
    4c4f:	48 8d 0c c5 00 00 00 	lea    0x0(,%rax,8),%rcx
    4c56:	00 
    4c57:	48 8b 45 80          	mov    -0x80(%rbp),%rax
    4c5b:	48 01 c8             	add    %rcx,%rax
    4c5e:	48 89 d1             	mov    %rdx,%rcx
    4c61:	48 8d 15 9c fd ff ff 	lea    -0x264(%rip),%rdx        # 4a04 <_Z14localSearchSubPv>
    4c68:	be 00 00 00 00       	mov    $0x0,%esi
    4c6d:	48 89 c7             	mov    %rax,%rdi
    4c70:	e8 6b d8 ff ff       	call   24e0 <pthread_create@plt>
    4c75:	83 85 78 ff ff ff 01 	addl   $0x1,-0x88(%rbp)
    4c7c:	8b 05 de 53 00 00    	mov    0x53de(%rip),%eax        # a060 <_ZL5nproc>
    4c82:	39 85 78 ff ff ff    	cmp    %eax,-0x88(%rbp)
    4c88:	0f 8c 9d fe ff ff    	jl     4b2b <_Z11localSearchP6PointsllPl+0xcc>
    4c8e:	c7 85 7c ff ff ff 00 	movl   $0x0,-0x84(%rbp)
    4c95:	00 00 00 
    4c98:	eb 2e                	jmp    4cc8 <_Z11localSearchP6PointsllPl+0x269>
    4c9a:	8b 85 7c ff ff ff    	mov    -0x84(%rbp),%eax
    4ca0:	48 98                	cltq   
    4ca2:	48 8d 14 c5 00 00 00 	lea    0x0(,%rax,8),%rdx
    4ca9:	00 
    4caa:	48 8b 45 80          	mov    -0x80(%rbp),%rax
    4cae:	48 01 d0             	add    %rdx,%rax
    4cb1:	48 8b 00             	mov    (%rax),%rax
    4cb4:	be 00 00 00 00       	mov    $0x0,%esi
    4cb9:	48 89 c7             	mov    %rax,%rdi
    4cbc:	e8 9f d6 ff ff       	call   2360 <pthread_join@plt>
    4cc1:	83 85 7c ff ff ff 01 	addl   $0x1,-0x84(%rbp)
    4cc8:	8b 05 92 53 00 00    	mov    0x5392(%rip),%eax        # a060 <_ZL5nproc>
    4cce:	39 85 7c ff ff ff    	cmp    %eax,-0x84(%rbp)
    4cd4:	7c c4                	jl     4c9a <_Z11localSearchP6PointsllPl+0x23b>
    4cd6:	48 83 7d 80 00       	cmpq   $0x0,-0x80(%rbp)
    4cdb:	74 0c                	je     4ce9 <_Z11localSearchP6PointsllPl+0x28a>
    4cdd:	48 8b 45 80          	mov    -0x80(%rbp),%rax
    4ce1:	48 89 c7             	mov    %rax,%rdi
    4ce4:	e8 47 d7 ff ff       	call   2430 <_ZdaPv@plt>
    4ce9:	48 83 7d 88 00       	cmpq   $0x0,-0x78(%rbp)
    4cee:	74 0c                	je     4cfc <_Z11localSearchP6PointsllPl+0x29d>
    4cf0:	48 8b 45 88          	mov    -0x78(%rbp),%rax
    4cf4:	48 89 c7             	mov    %rax,%rdi
    4cf7:	e8 34 d7 ff ff       	call   2430 <_ZdaPv@plt>
    4cfc:	48 8d 45 90          	lea    -0x70(%rbp),%rax
    4d00:	48 89 c7             	mov    %rax,%rdi
    4d03:	e8 b5 0f 00 00       	call   5cbd <_Z22parsec_barrier_destroyP16parsec_barrier_t>
    4d08:	90                   	nop
    4d09:	48 8b 45 f8          	mov    -0x8(%rbp),%rax
    4d0d:	64 48 2b 04 25 28 00 	sub    %fs:0x28,%rax
    4d14:	00 00 
    4d16:	74 05                	je     4d1d <_Z11localSearchP6PointsllPl+0x2be>
    4d18:	e8 93 d6 ff ff       	call   23b0 <__stack_chk_fail@plt>
    4d1d:	c9                   	leave  
    4d1e:	c3                   	ret    

0000000000004d1f <_Z12outcenterIDsP6PointsPlPc>:
    4d1f:	f3 0f 1e fa          	endbr64 
    4d23:	55                   	push   %rbp
    4d24:	48 89 e5             	mov    %rsp,%rbp
    4d27:	48 83 ec 40          	sub    $0x40,%rsp
    4d2b:	48 89 7d d8          	mov    %rdi,-0x28(%rbp)
    4d2f:	48 89 75 d0          	mov    %rsi,-0x30(%rbp)
    4d33:	48 89 55 c8          	mov    %rdx,-0x38(%rbp)
    4d37:	48 8b 45 c8          	mov    -0x38(%rbp),%rax
    4d3b:	48 8d 15 0a 23 00 00 	lea    0x230a(%rip),%rdx        # 704c <_ZL22PARSEC_PROCESS_PRIVATE+0x34>
    4d42:	48 89 d6             	mov    %rdx,%rsi
    4d45:	48 89 c7             	mov    %rax,%rdi
    4d48:	e8 93 d6 ff ff       	call   23e0 <fopen@plt>
    4d4d:	48 89 45 f0          	mov    %rax,-0x10(%rbp)
    4d51:	48 83 7d f0 00       	cmpq   $0x0,-0x10(%rbp)
    4d56:	75 2c                	jne    4d84 <_Z12outcenterIDsP6PointsPlPc+0x65>
    4d58:	48 8b 05 c1 52 00 00 	mov    0x52c1(%rip),%rax        # a020 <stderr@GLIBC_2.2.5>
    4d5f:	48 8b 55 c8          	mov    -0x38(%rbp),%rdx
    4d63:	48 8d 0d e4 22 00 00 	lea    0x22e4(%rip),%rcx        # 704e <_ZL22PARSEC_PROCESS_PRIVATE+0x36>
    4d6a:	48 89 ce             	mov    %rcx,%rsi
    4d6d:	48 89 c7             	mov    %rax,%rdi
    4d70:	b8 00 00 00 00       	mov    $0x0,%eax
    4d75:	e8 d6 d6 ff ff       	call   2450 <fprintf@plt>
    4d7a:	bf 01 00 00 00       	mov    $0x1,%edi
    4d7f:	e8 8c d6 ff ff       	call   2410 <exit@plt>
    4d84:	48 8b 45 d8          	mov    -0x28(%rbp),%rax
    4d88:	48 8b 00             	mov    (%rax),%rax
    4d8b:	48 89 c6             	mov    %rax,%rsi
    4d8e:	bf 04 00 00 00       	mov    $0x4,%edi
    4d93:	e8 68 d5 ff ff       	call   2300 <calloc@plt>
    4d98:	48 89 45 f8          	mov    %rax,-0x8(%rbp)
    4d9c:	c7 45 e4 00 00 00 00 	movl   $0x0,-0x1c(%rbp)
    4da3:	eb 31                	jmp    4dd6 <_Z12outcenterIDsP6PointsPlPc+0xb7>
    4da5:	48 8b 45 d8          	mov    -0x28(%rbp),%rax
    4da9:	48 8b 50 10          	mov    0x10(%rax),%rdx
    4dad:	8b 45 e4             	mov    -0x1c(%rbp),%eax
    4db0:	48 98                	cltq   
    4db2:	48 c1 e0 05          	shl    $0x5,%rax
    4db6:	48 01 d0             	add    %rdx,%rax
    4db9:	48 8b 40 10          	mov    0x10(%rax),%rax
    4dbd:	48 8d 14 85 00 00 00 	lea    0x0(,%rax,4),%rdx
    4dc4:	00 
    4dc5:	48 8b 45 f8          	mov    -0x8(%rbp),%rax
    4dc9:	48 01 d0             	add    %rdx,%rax
    4dcc:	c7 00 01 00 00 00    	movl   $0x1,(%rax)
    4dd2:	83 45 e4 01          	addl   $0x1,-0x1c(%rbp)
    4dd6:	8b 45 e4             	mov    -0x1c(%rbp),%eax
    4dd9:	48 63 d0             	movslq %eax,%rdx
    4ddc:	48 8b 45 d8          	mov    -0x28(%rbp),%rax
    4de0:	48 8b 00             	mov    (%rax),%rax
    4de3:	48 39 c2             	cmp    %rax,%rdx
    4de6:	7c bd                	jl     4da5 <_Z12outcenterIDsP6PointsPlPc+0x86>
    4de8:	c7 45 e8 00 00 00 00 	movl   $0x0,-0x18(%rbp)
    4def:	e9 27 01 00 00       	jmp    4f1b <_Z12outcenterIDsP6PointsPlPc+0x1fc>
    4df4:	8b 45 e8             	mov    -0x18(%rbp),%eax
    4df7:	48 98                	cltq   
    4df9:	48 8d 14 85 00 00 00 	lea    0x0(,%rax,4),%rdx
    4e00:	00 
    4e01:	48 8b 45 f8          	mov    -0x8(%rbp),%rax
    4e05:	48 01 d0             	add    %rdx,%rax
    4e08:	8b 00                	mov    (%rax),%eax
    4e0a:	85 c0                	test   %eax,%eax
    4e0c:	0f 84 05 01 00 00    	je     4f17 <_Z12outcenterIDsP6PointsPlPc+0x1f8>
    4e12:	8b 45 e8             	mov    -0x18(%rbp),%eax
    4e15:	48 98                	cltq   
    4e17:	48 8d 14 c5 00 00 00 	lea    0x0(,%rax,8),%rdx
    4e1e:	00 
    4e1f:	48 8b 45 d0          	mov    -0x30(%rbp),%rax
    4e23:	48 01 d0             	add    %rdx,%rax
    4e26:	48 8b 10             	mov    (%rax),%rdx
    4e29:	48 8b 45 f0          	mov    -0x10(%rbp),%rax
    4e2d:	48 8d 0d 2c 22 00 00 	lea    0x222c(%rip),%rcx        # 7060 <_ZL22PARSEC_PROCESS_PRIVATE+0x48>
    4e34:	48 89 ce             	mov    %rcx,%rsi
    4e37:	48 89 c7             	mov    %rax,%rdi
    4e3a:	b8 00 00 00 00       	mov    $0x0,%eax
    4e3f:	e8 0c d6 ff ff       	call   2450 <fprintf@plt>
    4e44:	48 8b 45 d8          	mov    -0x28(%rbp),%rax
    4e48:	48 8b 50 10          	mov    0x10(%rax),%rdx
    4e4c:	8b 45 e8             	mov    -0x18(%rbp),%eax
    4e4f:	48 98                	cltq   
    4e51:	48 c1 e0 05          	shl    $0x5,%rax
    4e55:	48 01 d0             	add    %rdx,%rax
    4e58:	f3 0f 10 00          	movss  (%rax),%xmm0
    4e5c:	66 0f ef c9          	pxor   %xmm1,%xmm1
    4e60:	f3 0f 5a c8          	cvtss2sd %xmm0,%xmm1
    4e64:	66 48 0f 7e ca       	movq   %xmm1,%rdx
    4e69:	48 8b 45 f0          	mov    -0x10(%rbp),%rax
    4e6d:	66 48 0f 6e c2       	movq   %rdx,%xmm0
    4e72:	48 8d 15 eb 21 00 00 	lea    0x21eb(%rip),%rdx        # 7064 <_ZL22PARSEC_PROCESS_PRIVATE+0x4c>
    4e79:	48 89 d6             	mov    %rdx,%rsi
    4e7c:	48 89 c7             	mov    %rax,%rdi
    4e7f:	b8 01 00 00 00       	mov    $0x1,%eax
    4e84:	e8 c7 d5 ff ff       	call   2450 <fprintf@plt>
    4e89:	c7 45 ec 00 00 00 00 	movl   $0x0,-0x14(%rbp)
    4e90:	eb 59                	jmp    4eeb <_Z12outcenterIDsP6PointsPlPc+0x1cc>
    4e92:	48 8b 45 d8          	mov    -0x28(%rbp),%rax
    4e96:	48 8b 50 10          	mov    0x10(%rax),%rdx
    4e9a:	8b 45 e8             	mov    -0x18(%rbp),%eax
    4e9d:	48 98                	cltq   
    4e9f:	48 c1 e0 05          	shl    $0x5,%rax
    4ea3:	48 01 d0             	add    %rdx,%rax
    4ea6:	48 8b 50 08          	mov    0x8(%rax),%rdx
    4eaa:	8b 45 ec             	mov    -0x14(%rbp),%eax
    4ead:	48 98                	cltq   
    4eaf:	48 c1 e0 02          	shl    $0x2,%rax
    4eb3:	48 01 d0             	add    %rdx,%rax
    4eb6:	f3 0f 10 00          	movss  (%rax),%xmm0
    4eba:	66 0f ef d2          	pxor   %xmm2,%xmm2
    4ebe:	f3 0f 5a d0          	cvtss2sd %xmm0,%xmm2
    4ec2:	66 48 0f 7e d2       	movq   %xmm2,%rdx
    4ec7:	48 8b 45 f0          	mov    -0x10(%rbp),%rax
    4ecb:	66 48 0f 6e c2       	movq   %rdx,%xmm0
    4ed0:	48 8d 15 92 21 00 00 	lea    0x2192(%rip),%rdx        # 7069 <_ZL22PARSEC_PROCESS_PRIVATE+0x51>
    4ed7:	48 89 d6             	mov    %rdx,%rsi
    4eda:	48 89 c7             	mov    %rax,%rdi
    4edd:	b8 01 00 00 00       	mov    $0x1,%eax
    4ee2:	e8 69 d5 ff ff       	call   2450 <fprintf@plt>
    4ee7:	83 45 ec 01          	addl   $0x1,-0x14(%rbp)
    4eeb:	48 8b 45 d8          	mov    -0x28(%rbp),%rax
    4eef:	8b 40 08             	mov    0x8(%rax),%eax
    4ef2:	39 45 ec             	cmp    %eax,-0x14(%rbp)
    4ef5:	7c 9b                	jl     4e92 <_Z12outcenterIDsP6PointsPlPc+0x173>
    4ef7:	48 8b 45 f0          	mov    -0x10(%rbp),%rax
    4efb:	48 89 c1             	mov    %rax,%rcx
    4efe:	ba 02 00 00 00       	mov    $0x2,%edx
    4f03:	be 01 00 00 00       	mov    $0x1,%esi
    4f08:	48 8d 05 5f 21 00 00 	lea    0x215f(%rip),%rax        # 706e <_ZL22PARSEC_PROCESS_PRIVATE+0x56>
    4f0f:	48 89 c7             	mov    %rax,%rdi
    4f12:	e8 f9 d5 ff ff       	call   2510 <fwrite@plt>
    4f17:	83 45 e8 01          	addl   $0x1,-0x18(%rbp)
    4f1b:	8b 45 e8             	mov    -0x18(%rbp),%eax
    4f1e:	48 63 d0             	movslq %eax,%rdx
    4f21:	48 8b 45 d8          	mov    -0x28(%rbp),%rax
    4f25:	48 8b 00             	mov    (%rax),%rax
    4f28:	48 39 c2             	cmp    %rax,%rdx
    4f2b:	0f 8c c3 fe ff ff    	jl     4df4 <_Z12outcenterIDsP6PointsPlPc+0xd5>
    4f31:	48 8b 45 f0          	mov    -0x10(%rbp),%rax
    4f35:	48 89 c7             	mov    %rax,%rdi
    4f38:	e8 43 d4 ff ff       	call   2380 <fclose@plt>
    4f3d:	90                   	nop
    4f3e:	c9                   	leave  
    4f3f:	c3                   	ret    

0000000000004f40 <_Z13streamClusterP7PStreamllillPc>:
    4f40:	f3 0f 1e fa          	endbr64 
    4f44:	55                   	push   %rbp
    4f45:	48 89 e5             	mov    %rsp,%rbp
    4f48:	48 81 ec c0 00 00 00 	sub    $0xc0,%rsp
    4f4f:	48 89 bd 78 ff ff ff 	mov    %rdi,-0x88(%rbp)
    4f56:	48 89 b5 70 ff ff ff 	mov    %rsi,-0x90(%rbp)
    4f5d:	48 89 95 68 ff ff ff 	mov    %rdx,-0x98(%rbp)
    4f64:	89 8d 64 ff ff ff    	mov    %ecx,-0x9c(%rbp)
    4f6a:	4c 89 85 58 ff ff ff 	mov    %r8,-0xa8(%rbp)
    4f71:	4c 89 8d 50 ff ff ff 	mov    %r9,-0xb0(%rbp)
    4f78:	48 8b 45 10          	mov    0x10(%rbp),%rax
    4f7c:	48 89 85 48 ff ff ff 	mov    %rax,-0xb8(%rbp)
    4f83:	64 48 8b 04 25 28 00 	mov    %fs:0x28,%rax
    4f8a:	00 00 
    4f8c:	48 89 45 f8          	mov    %rax,-0x8(%rbp)
    4f90:	31 c0                	xor    %eax,%eax
    4f92:	8b 85 64 ff ff ff    	mov    -0x9c(%rbp),%eax
    4f98:	48 98                	cltq   
    4f9a:	48 0f af 85 58 ff ff 	imul   -0xa8(%rbp),%rax
    4fa1:	ff 
    4fa2:	48 c1 e0 02          	shl    $0x2,%rax
    4fa6:	48 89 c7             	mov    %rax,%rdi
    4fa9:	e8 92 d4 ff ff       	call   2440 <malloc@plt>
    4fae:	48 89 45 a0          	mov    %rax,-0x60(%rbp)
    4fb2:	8b 85 64 ff ff ff    	mov    -0x9c(%rbp),%eax
    4fb8:	48 98                	cltq   
    4fba:	48 0f af 85 50 ff ff 	imul   -0xb0(%rbp),%rax
    4fc1:	ff 
    4fc2:	48 c1 e0 02          	shl    $0x2,%rax
    4fc6:	48 89 c7             	mov    %rax,%rdi
    4fc9:	e8 72 d4 ff ff       	call   2440 <malloc@plt>
    4fce:	48 89 45 a8          	mov    %rax,-0x58(%rbp)
    4fd2:	8b 85 64 ff ff ff    	mov    -0x9c(%rbp),%eax
    4fd8:	48 98                	cltq   
    4fda:	48 0f af 85 50 ff ff 	imul   -0xb0(%rbp),%rax
    4fe1:	ff 
    4fe2:	48 c1 e0 03          	shl    $0x3,%rax
    4fe6:	48 89 c7             	mov    %rax,%rdi
    4fe9:	e8 52 d4 ff ff       	call   2440 <malloc@plt>
    4fee:	48 89 45 b0          	mov    %rax,-0x50(%rbp)
    4ff2:	48 83 7d a0 00       	cmpq   $0x0,-0x60(%rbp)
    4ff7:	75 2d                	jne    5026 <_Z13streamClusterP7PStreamllillPc+0xe6>
    4ff9:	48 8b 05 20 50 00 00 	mov    0x5020(%rip),%rax        # a020 <stderr@GLIBC_2.2.5>
    5000:	48 89 c1             	mov    %rax,%rcx
    5003:	ba 1f 00 00 00       	mov    $0x1f,%edx
    5008:	be 01 00 00 00       	mov    $0x1,%esi
    500d:	48 8d 05 64 20 00 00 	lea    0x2064(%rip),%rax        # 7078 <_ZL22PARSEC_PROCESS_PRIVATE+0x60>
    5014:	48 89 c7             	mov    %rax,%rdi
    5017:	e8 f4 d4 ff ff       	call   2510 <fwrite@plt>
    501c:	bf 01 00 00 00       	mov    $0x1,%edi
    5021:	e8 ea d3 ff ff       	call   2410 <exit@plt>
    5026:	8b 85 64 ff ff ff    	mov    -0x9c(%rbp),%eax
    502c:	89 45 c8             	mov    %eax,-0x38(%rbp)
    502f:	48 8b 85 58 ff ff ff 	mov    -0xa8(%rbp),%rax
    5036:	48 89 45 c0          	mov    %rax,-0x40(%rbp)
    503a:	48 8b 85 58 ff ff ff 	mov    -0xa8(%rbp),%rax
    5041:	48 c1 e0 05          	shl    $0x5,%rax
    5045:	48 89 c7             	mov    %rax,%rdi
    5048:	e8 f3 d3 ff ff       	call   2440 <malloc@plt>
    504d:	48 89 45 d0          	mov    %rax,-0x30(%rbp)
    5051:	c7 45 84 00 00 00 00 	movl   $0x0,-0x7c(%rbp)
    5058:	eb 33                	jmp    508d <_Z13streamClusterP7PStreamllillPc+0x14d>
    505a:	8b 45 84             	mov    -0x7c(%rbp),%eax
    505d:	0f af 85 64 ff ff ff 	imul   -0x9c(%rbp),%eax
    5064:	48 98                	cltq   
    5066:	48 8d 0c 85 00 00 00 	lea    0x0(,%rax,4),%rcx
    506d:	00 
    506e:	48 8b 55 d0          	mov    -0x30(%rbp),%rdx
    5072:	8b 45 84             	mov    -0x7c(%rbp),%eax
    5075:	48 98                	cltq   
    5077:	48 c1 e0 05          	shl    $0x5,%rax
    507b:	48 01 d0             	add    %rdx,%rax
    507e:	48 8b 55 a0          	mov    -0x60(%rbp),%rdx
    5082:	48 01 ca             	add    %rcx,%rdx
    5085:	48 89 50 08          	mov    %rdx,0x8(%rax)
    5089:	83 45 84 01          	addl   $0x1,-0x7c(%rbp)
    508d:	8b 45 84             	mov    -0x7c(%rbp),%eax
    5090:	48 98                	cltq   
    5092:	48 39 85 58 ff ff ff 	cmp    %rax,-0xa8(%rbp)
    5099:	7f bf                	jg     505a <_Z13streamClusterP7PStreamllillPc+0x11a>
    509b:	8b 85 64 ff ff ff    	mov    -0x9c(%rbp),%eax
    50a1:	89 45 e8             	mov    %eax,-0x18(%rbp)
    50a4:	48 8b 85 50 ff ff ff 	mov    -0xb0(%rbp),%rax
    50ab:	48 c1 e0 05          	shl    $0x5,%rax
    50af:	48 89 c7             	mov    %rax,%rdi
    50b2:	e8 89 d3 ff ff       	call   2440 <malloc@plt>
    50b7:	48 89 45 f0          	mov    %rax,-0x10(%rbp)
    50bb:	48 c7 45 e0 00 00 00 	movq   $0x0,-0x20(%rbp)
    50c2:	00 
    50c3:	c7 45 88 00 00 00 00 	movl   $0x0,-0x78(%rbp)
    50ca:	eb 4f                	jmp    511b <_Z13streamClusterP7PStreamllillPc+0x1db>
    50cc:	8b 45 88             	mov    -0x78(%rbp),%eax
    50cf:	0f af 85 64 ff ff ff 	imul   -0x9c(%rbp),%eax
    50d6:	48 98                	cltq   
    50d8:	48 8d 0c 85 00 00 00 	lea    0x0(,%rax,4),%rcx
    50df:	00 
    50e0:	48 8b 55 f0          	mov    -0x10(%rbp),%rdx
    50e4:	8b 45 88             	mov    -0x78(%rbp),%eax
    50e7:	48 98                	cltq   
    50e9:	48 c1 e0 05          	shl    $0x5,%rax
    50ed:	48 01 d0             	add    %rdx,%rax
    50f0:	48 8b 55 a8          	mov    -0x58(%rbp),%rdx
    50f4:	48 01 ca             	add    %rcx,%rdx
    50f7:	48 89 50 08          	mov    %rdx,0x8(%rax)
    50fb:	48 8b 55 f0          	mov    -0x10(%rbp),%rdx
    50ff:	8b 45 88             	mov    -0x78(%rbp),%eax
    5102:	48 98                	cltq   
    5104:	48 c1 e0 05          	shl    $0x5,%rax
    5108:	48 01 d0             	add    %rdx,%rax
    510b:	f3 0f 10 05 95 22 00 	movss  0x2295(%rip),%xmm0        # 73a8 <_ZL22PARSEC_PROCESS_PRIVATE+0x390>
    5112:	00 
    5113:	f3 0f 11 00          	movss  %xmm0,(%rax)
    5117:	83 45 88 01          	addl   $0x1,-0x78(%rbp)
    511b:	8b 45 88             	mov    -0x78(%rbp),%eax
    511e:	48 98                	cltq   
    5120:	48 39 85 50 ff ff ff 	cmp    %rax,-0xb0(%rbp)
    5127:	7f a3                	jg     50cc <_Z13streamClusterP7PStreamllillPc+0x18c>
    5129:	48 c7 45 98 00 00 00 	movq   $0x0,-0x68(%rbp)
    5130:	00 
    5131:	48 8b 85 78 ff ff ff 	mov    -0x88(%rbp),%rax
    5138:	48 8b 00             	mov    (%rax),%rax
    513b:	4c 8b 00             	mov    (%rax),%r8
    513e:	48 8b 85 58 ff ff ff 	mov    -0xa8(%rbp),%rax
    5145:	89 c1                	mov    %eax,%ecx
    5147:	8b 95 64 ff ff ff    	mov    -0x9c(%rbp),%edx
    514d:	48 8b 75 a0          	mov    -0x60(%rbp),%rsi
    5151:	48 8b 85 78 ff ff ff 	mov    -0x88(%rbp),%rax
    5158:	48 89 c7             	mov    %rax,%rdi
    515b:	41 ff d0             	call   *%r8
    515e:	48 89 45 b8          	mov    %rax,-0x48(%rbp)
    5162:	48 8b 05 b7 4e 00 00 	mov    0x4eb7(%rip),%rax        # a020 <stderr@GLIBC_2.2.5>
    5169:	48 8b 55 b8          	mov    -0x48(%rbp),%rdx
    516d:	48 8d 0d 24 1f 00 00 	lea    0x1f24(%rip),%rcx        # 7098 <_ZL22PARSEC_PROCESS_PRIVATE+0x80>
    5174:	48 89 ce             	mov    %rcx,%rsi
    5177:	48 89 c7             	mov    %rax,%rdi
    517a:	b8 00 00 00 00       	mov    $0x0,%eax
    517f:	e8 cc d2 ff ff       	call   2450 <fprintf@plt>
    5184:	48 8b 85 78 ff ff ff 	mov    -0x88(%rbp),%rax
    518b:	48 8b 00             	mov    (%rax),%rax
    518e:	48 83 c0 08          	add    $0x8,%rax
    5192:	48 8b 10             	mov    (%rax),%rdx
    5195:	48 8b 85 78 ff ff ff 	mov    -0x88(%rbp),%rax
    519c:	48 89 c7             	mov    %rax,%rdi
    519f:	ff d2                	call   *%rdx
    51a1:	85 c0                	test   %eax,%eax
    51a3:	75 30                	jne    51d5 <_Z13streamClusterP7PStreamllillPc+0x295>
    51a5:	48 8b 85 58 ff ff ff 	mov    -0xa8(%rbp),%rax
    51ac:	89 c0                	mov    %eax,%eax
    51ae:	48 39 45 b8          	cmp    %rax,-0x48(%rbp)
    51b2:	73 28                	jae    51dc <_Z13streamClusterP7PStreamllillPc+0x29c>
    51b4:	48 8b 85 78 ff ff ff 	mov    -0x88(%rbp),%rax
    51bb:	48 8b 00             	mov    (%rax),%rax
    51be:	48 83 c0 10          	add    $0x10,%rax
    51c2:	48 8b 10             	mov    (%rax),%rdx
    51c5:	48 8b 85 78 ff ff ff 	mov    -0x88(%rbp),%rax
    51cc:	48 89 c7             	mov    %rax,%rdi
    51cf:	ff d2                	call   *%rdx
    51d1:	85 c0                	test   %eax,%eax
    51d3:	75 07                	jne    51dc <_Z13streamClusterP7PStreamllillPc+0x29c>
    51d5:	b8 01 00 00 00       	mov    $0x1,%eax
    51da:	eb 05                	jmp    51e1 <_Z13streamClusterP7PStreamllillPc+0x2a1>
    51dc:	b8 00 00 00 00       	mov    $0x0,%eax
    51e1:	84 c0                	test   %al,%al
    51e3:	74 2d                	je     5212 <_Z13streamClusterP7PStreamllillPc+0x2d2>
    51e5:	48 8b 05 34 4e 00 00 	mov    0x4e34(%rip),%rax        # a020 <stderr@GLIBC_2.2.5>
    51ec:	48 89 c1             	mov    %rax,%rcx
    51ef:	ba 14 00 00 00       	mov    $0x14,%edx
    51f4:	be 01 00 00 00       	mov    $0x1,%esi
    51f9:	48 8d 05 a8 1e 00 00 	lea    0x1ea8(%rip),%rax        # 70a8 <_ZL22PARSEC_PROCESS_PRIVATE+0x90>
    5200:	48 89 c7             	mov    %rax,%rdi
    5203:	e8 08 d3 ff ff       	call   2510 <fwrite@plt>
    5208:	bf 01 00 00 00       	mov    $0x1,%edi
    520d:	e8 fe d1 ff ff       	call   2410 <exit@plt>
    5212:	48 8b 45 b8          	mov    -0x48(%rbp),%rax
    5216:	48 89 45 c0          	mov    %rax,-0x40(%rbp)
    521a:	c7 45 8c 00 00 00 00 	movl   $0x0,-0x74(%rbp)
    5221:	eb 20                	jmp    5243 <_Z13streamClusterP7PStreamllillPc+0x303>
    5223:	48 8b 55 d0          	mov    -0x30(%rbp),%rdx
    5227:	8b 45 8c             	mov    -0x74(%rbp),%eax
    522a:	48 98                	cltq   
    522c:	48 c1 e0 05          	shl    $0x5,%rax
    5230:	48 01 d0             	add    %rdx,%rax
    5233:	f3 0f 10 05 6d 21 00 	movss  0x216d(%rip),%xmm0        # 73a8 <_ZL22PARSEC_PROCESS_PRIVATE+0x390>
    523a:	00 
    523b:	f3 0f 11 00          	movss  %xmm0,(%rax)
    523f:	83 45 8c 01          	addl   $0x1,-0x74(%rbp)
    5243:	8b 45 8c             	mov    -0x74(%rbp),%eax
    5246:	48 63 d0             	movslq %eax,%rdx
    5249:	48 8b 45 c0          	mov    -0x40(%rbp),%rax
    524d:	48 39 c2             	cmp    %rax,%rdx
    5250:	7c d1                	jl     5223 <_Z13streamClusterP7PStreamllillPc+0x2e3>
    5252:	48 8b 45 c0          	mov    -0x40(%rbp),%rax
    5256:	48 89 c7             	mov    %rax,%rdi
    5259:	e8 e2 d1 ff ff       	call   2440 <malloc@plt>
    525e:	48 89 05 e3 4d 00 00 	mov    %rax,0x4de3(%rip)        # a048 <_ZL17switch_membership>
    5265:	48 8b 45 c0          	mov    -0x40(%rbp),%rax
    5269:	be 01 00 00 00       	mov    $0x1,%esi
    526e:	48 89 c7             	mov    %rax,%rdi
    5271:	e8 8a d0 ff ff       	call   2300 <calloc@plt>
    5276:	48 89 05 d3 4d 00 00 	mov    %rax,0x4dd3(%rip)        # a050 <_ZL9is_center>
    527d:	48 8b 45 c0          	mov    -0x40(%rbp),%rax
    5281:	48 c1 e0 02          	shl    $0x2,%rax
    5285:	48 89 c7             	mov    %rax,%rdi
    5288:	e8 b3 d1 ff ff       	call   2440 <malloc@plt>
    528d:	48 89 05 c4 4d 00 00 	mov    %rax,0x4dc4(%rip)        # a058 <_ZL12center_table>
    5294:	48 8d 4d 90          	lea    -0x70(%rbp),%rcx
    5298:	48 8b 95 68 ff ff ff 	mov    -0x98(%rbp),%rdx
    529f:	48 8b b5 70 ff ff ff 	mov    -0x90(%rbp),%rsi
    52a6:	48 8d 45 c0          	lea    -0x40(%rbp),%rax
    52aa:	48 89 c7             	mov    %rax,%rdi
    52ad:	e8 ad f7 ff ff       	call   4a5f <_Z11localSearchP6PointsllPl>
    52b2:	48 8d 45 c0          	lea    -0x40(%rbp),%rax
    52b6:	48 89 c7             	mov    %rax,%rdi
    52b9:	e8 48 f3 ff ff       	call   4606 <_Z11contcentersP6Points>
    52be:	48 8b 55 e0          	mov    -0x20(%rbp),%rdx
    52c2:	48 8b 45 90          	mov    -0x70(%rbp),%rax
    52c6:	48 01 d0             	add    %rdx,%rax
    52c9:	48 39 85 50 ff ff ff 	cmp    %rax,-0xb0(%rbp)
    52d0:	7d 2d                	jge    52ff <_Z13streamClusterP7PStreamllillPc+0x3bf>
    52d2:	48 8b 05 47 4d 00 00 	mov    0x4d47(%rip),%rax        # a020 <stderr@GLIBC_2.2.5>
    52d9:	48 89 c1             	mov    %rax,%rcx
    52dc:	ba 20 00 00 00       	mov    $0x20,%edx
    52e1:	be 01 00 00 00       	mov    $0x1,%esi
    52e6:	48 8d 05 d3 1d 00 00 	lea    0x1dd3(%rip),%rax        # 70c0 <_ZL22PARSEC_PROCESS_PRIVATE+0xa8>
    52ed:	48 89 c7             	mov    %rax,%rdi
    52f0:	e8 1b d2 ff ff       	call   2510 <fwrite@plt>
    52f5:	bf 01 00 00 00       	mov    $0x1,%edi
    52fa:	e8 11 d1 ff ff       	call   2410 <exit@plt>
    52ff:	48 8b 4d 98          	mov    -0x68(%rbp),%rcx
    5303:	48 8b 55 b0          	mov    -0x50(%rbp),%rdx
    5307:	48 8d 75 e0          	lea    -0x20(%rbp),%rsi
    530b:	48 8d 45 c0          	lea    -0x40(%rbp),%rax
    530f:	48 89 c7             	mov    %rax,%rdi
    5312:	e8 7d f5 ff ff       	call   4894 <_Z11copycentersP6PointsS0_Pll>
    5317:	48 8b 55 98          	mov    -0x68(%rbp),%rdx
    531b:	48 8b 45 b8          	mov    -0x48(%rbp),%rax
    531f:	48 01 d0             	add    %rdx,%rax
    5322:	48 89 45 98          	mov    %rax,-0x68(%rbp)
    5326:	48 8b 05 23 4d 00 00 	mov    0x4d23(%rip),%rax        # a050 <_ZL9is_center>
    532d:	48 89 c7             	mov    %rax,%rdi
    5330:	e8 bb d0 ff ff       	call   23f0 <free@plt>
    5335:	48 8b 05 0c 4d 00 00 	mov    0x4d0c(%rip),%rax        # a048 <_ZL17switch_membership>
    533c:	48 89 c7             	mov    %rax,%rdi
    533f:	e8 ac d0 ff ff       	call   23f0 <free@plt>
    5344:	48 8b 05 0d 4d 00 00 	mov    0x4d0d(%rip),%rax        # a058 <_ZL12center_table>
    534b:	48 89 c7             	mov    %rax,%rdi
    534e:	e8 9d d0 ff ff       	call   23f0 <free@plt>
    5353:	48 8b 85 78 ff ff ff 	mov    -0x88(%rbp),%rax
    535a:	48 8b 00             	mov    (%rax),%rax
    535d:	48 83 c0 10          	add    $0x10,%rax
    5361:	48 8b 10             	mov    (%rax),%rdx
    5364:	48 8b 85 78 ff ff ff 	mov    -0x88(%rbp),%rax
    536b:	48 89 c7             	mov    %rax,%rdi
    536e:	ff d2                	call   *%rdx
    5370:	85 c0                	test   %eax,%eax
    5372:	0f 95 c0             	setne  %al
    5375:	84 c0                	test   %al,%al
    5377:	75 05                	jne    537e <_Z13streamClusterP7PStreamllillPc+0x43e>
    5379:	e9 b3 fd ff ff       	jmp    5131 <_Z13streamClusterP7PStreamllillPc+0x1f1>
    537e:	90                   	nop
    537f:	48 8b 45 e0          	mov    -0x20(%rbp),%rax
    5383:	48 89 c7             	mov    %rax,%rdi
    5386:	e8 b5 d0 ff ff       	call   2440 <malloc@plt>
    538b:	48 89 05 b6 4c 00 00 	mov    %rax,0x4cb6(%rip)        # a048 <_ZL17switch_membership>
    5392:	48 8b 45 e0          	mov    -0x20(%rbp),%rax
    5396:	be 01 00 00 00       	mov    $0x1,%esi
    539b:	48 89 c7             	mov    %rax,%rdi
    539e:	e8 5d cf ff ff       	call   2300 <calloc@plt>
    53a3:	48 89 05 a6 4c 00 00 	mov    %rax,0x4ca6(%rip)        # a050 <_ZL9is_center>
    53aa:	48 8b 45 e0          	mov    -0x20(%rbp),%rax
    53ae:	48 c1 e0 02          	shl    $0x2,%rax
    53b2:	48 89 c7             	mov    %rax,%rdi
    53b5:	e8 86 d0 ff ff       	call   2440 <malloc@plt>
    53ba:	48 89 05 97 4c 00 00 	mov    %rax,0x4c97(%rip)        # a058 <_ZL12center_table>
    53c1:	48 8d 4d 90          	lea    -0x70(%rbp),%rcx
    53c5:	48 8b 95 68 ff ff ff 	mov    -0x98(%rbp),%rdx
    53cc:	48 8b b5 70 ff ff ff 	mov    -0x90(%rbp),%rsi
    53d3:	48 8d 45 e0          	lea    -0x20(%rbp),%rax
    53d7:	48 89 c7             	mov    %rax,%rdi
    53da:	e8 80 f6 ff ff       	call   4a5f <_Z11localSearchP6PointsllPl>
    53df:	48 8d 45 e0          	lea    -0x20(%rbp),%rax
    53e3:	48 89 c7             	mov    %rax,%rdi
    53e6:	e8 1b f2 ff ff       	call   4606 <_Z11contcentersP6Points>
    53eb:	48 8b 95 48 ff ff ff 	mov    -0xb8(%rbp),%rdx
    53f2:	48 8b 4d b0          	mov    -0x50(%rbp),%rcx
    53f6:	48 8d 45 e0          	lea    -0x20(%rbp),%rax
    53fa:	48 89 ce             	mov    %rcx,%rsi
    53fd:	48 89 c7             	mov    %rax,%rdi
    5400:	e8 1a f9 ff ff       	call   4d1f <_Z12outcenterIDsP6PointsPlPc>
    5405:	90                   	nop
    5406:	48 8b 45 f8          	mov    -0x8(%rbp),%rax
    540a:	64 48 2b 04 25 28 00 	sub    %fs:0x28,%rax
    5411:	00 00 
    5413:	74 05                	je     541a <_Z13streamClusterP7PStreamllillPc+0x4da>
    5415:	e8 96 cf ff ff       	call   23b0 <__stack_chk_fail@plt>
    541a:	c9                   	leave  
    541b:	c3                   	ret    

000000000000541c <main>:
    541c:	f3 0f 1e fa          	endbr64 
    5420:	55                   	push   %rbp
    5421:	48 89 e5             	mov    %rsp,%rbp
    5424:	53                   	push   %rbx
    5425:	48 83 ec 68          	sub    $0x68,%rsp
    5429:	89 7d 9c             	mov    %edi,-0x64(%rbp)
    542c:	48 89 75 90          	mov    %rsi,-0x70(%rbp)
    5430:	bf 00 04 00 00       	mov    $0x400,%edi
    5435:	e8 76 ce ff ff       	call   22b0 <_Znam@plt>
    543a:	48 89 45 b8          	mov    %rax,-0x48(%rbp)
    543e:	bf 00 04 00 00       	mov    $0x400,%edi
    5443:	e8 68 ce ff ff       	call   22b0 <_Znam@plt>
    5448:	48 89 45 c0          	mov    %rax,-0x40(%rbp)
    544c:	48 8b 05 cd 4b 00 00 	mov    0x4bcd(%rip),%rax        # a020 <stderr@GLIBC_2.2.5>
    5453:	48 89 c1             	mov    %rax,%rcx
    5456:	ba 31 00 00 00       	mov    $0x31,%edx
    545b:	be 01 00 00 00       	mov    $0x1,%esi
    5460:	48 8d 05 81 1c 00 00 	lea    0x1c81(%rip),%rax        # 70e8 <_ZL22PARSEC_PROCESS_PRIVATE+0xd0>
    5467:	48 89 c7             	mov    %rax,%rdi
    546a:	e8 a1 d0 ff ff       	call   2510 <fwrite@plt>
    546f:	bf 00 00 00 00       	mov    $0x0,%edi
    5474:	e8 57 cf ff ff       	call   23d0 <fflush@plt>
    5479:	83 7d 9c 09          	cmpl   $0x9,-0x64(%rbp)
    547d:	0f 8f a1 01 00 00    	jg     5624 <main+0x208>
    5483:	48 8b 45 90          	mov    -0x70(%rbp),%rax
    5487:	48 8b 10             	mov    (%rax),%rdx
    548a:	48 8b 05 8f 4b 00 00 	mov    0x4b8f(%rip),%rax        # a020 <stderr@GLIBC_2.2.5>
    5491:	48 8d 0d 88 1c 00 00 	lea    0x1c88(%rip),%rcx        # 7120 <_ZL22PARSEC_PROCESS_PRIVATE+0x108>
    5498:	48 89 ce             	mov    %rcx,%rsi
    549b:	48 89 c7             	mov    %rax,%rdi
    549e:	b8 00 00 00 00       	mov    $0x0,%eax
    54a3:	e8 a8 cf ff ff       	call   2450 <fprintf@plt>
    54a8:	48 8b 05 71 4b 00 00 	mov    0x4b71(%rip),%rax        # a020 <stderr@GLIBC_2.2.5>
    54af:	48 89 c1             	mov    %rax,%rcx
    54b2:	ba 2e 00 00 00       	mov    $0x2e,%edx
    54b7:	be 01 00 00 00       	mov    $0x1,%esi
    54bc:	48 8d 05 9d 1c 00 00 	lea    0x1c9d(%rip),%rax        # 7160 <_ZL22PARSEC_PROCESS_PRIVATE+0x148>
    54c3:	48 89 c7             	mov    %rax,%rdi
    54c6:	e8 45 d0 ff ff       	call   2510 <fwrite@plt>
    54cb:	48 8b 05 4e 4b 00 00 	mov    0x4b4e(%rip),%rax        # a020 <stderr@GLIBC_2.2.5>
    54d2:	48 89 c1             	mov    %rax,%rcx
    54d5:	ba 2e 00 00 00       	mov    $0x2e,%edx
    54da:	be 01 00 00 00       	mov    $0x1,%esi
    54df:	48 8d 05 aa 1c 00 00 	lea    0x1caa(%rip),%rax        # 7190 <_ZL22PARSEC_PROCESS_PRIVATE+0x178>
    54e6:	48 89 c7             	mov    %rax,%rdi
    54e9:	e8 22 d0 ff ff       	call   2510 <fwrite@plt>
    54ee:	48 8b 05 2b 4b 00 00 	mov    0x4b2b(%rip),%rax        # a020 <stderr@GLIBC_2.2.5>
    54f5:	48 89 c1             	mov    %rax,%rcx
    54f8:	ba 2c 00 00 00       	mov    $0x2c,%edx
    54fd:	be 01 00 00 00       	mov    $0x1,%esi
    5502:	48 8d 05 b7 1c 00 00 	lea    0x1cb7(%rip),%rax        # 71c0 <_ZL22PARSEC_PROCESS_PRIVATE+0x1a8>
    5509:	48 89 c7             	mov    %rax,%rdi
    550c:	e8 ff cf ff ff       	call   2510 <fwrite@plt>
    5511:	48 8b 05 08 4b 00 00 	mov    0x4b08(%rip),%rax        # a020 <stderr@GLIBC_2.2.5>
    5518:	48 89 c1             	mov    %rax,%rcx
    551b:	ba 25 00 00 00       	mov    $0x25,%edx
    5520:	be 01 00 00 00       	mov    $0x1,%esi
    5525:	48 8d 05 c4 1c 00 00 	lea    0x1cc4(%rip),%rax        # 71f0 <_ZL22PARSEC_PROCESS_PRIVATE+0x1d8>
    552c:	48 89 c7             	mov    %rax,%rdi
    552f:	e8 dc cf ff ff       	call   2510 <fwrite@plt>
    5534:	48 8b 05 e5 4a 00 00 	mov    0x4ae5(%rip),%rax        # a020 <stderr@GLIBC_2.2.5>
    553b:	48 89 c1             	mov    %rax,%rcx
    553e:	ba 38 00 00 00       	mov    $0x38,%edx
    5543:	be 01 00 00 00       	mov    $0x1,%esi
    5548:	48 8d 05 c9 1c 00 00 	lea    0x1cc9(%rip),%rax        # 7218 <_ZL22PARSEC_PROCESS_PRIVATE+0x200>
    554f:	48 89 c7             	mov    %rax,%rdi
    5552:	e8 b9 cf ff ff       	call   2510 <fwrite@plt>
    5557:	48 8b 05 c2 4a 00 00 	mov    0x4ac2(%rip),%rax        # a020 <stderr@GLIBC_2.2.5>
    555e:	48 89 c1             	mov    %rax,%rcx
    5561:	ba 36 00 00 00       	mov    $0x36,%edx
    5566:	be 01 00 00 00       	mov    $0x1,%esi
    556b:	48 8d 05 e6 1c 00 00 	lea    0x1ce6(%rip),%rax        # 7258 <_ZL22PARSEC_PROCESS_PRIVATE+0x240>
    5572:	48 89 c7             	mov    %rax,%rdi
    5575:	e8 96 cf ff ff       	call   2510 <fwrite@plt>
    557a:	48 8b 05 9f 4a 00 00 	mov    0x4a9f(%rip),%rax        # a020 <stderr@GLIBC_2.2.5>
    5581:	48 89 c1             	mov    %rax,%rcx
    5584:	ba 24 00 00 00       	mov    $0x24,%edx
    5589:	be 01 00 00 00       	mov    $0x1,%esi
    558e:	48 8d 05 fb 1c 00 00 	lea    0x1cfb(%rip),%rax        # 7290 <_ZL22PARSEC_PROCESS_PRIVATE+0x278>
    5595:	48 89 c7             	mov    %rax,%rdi
    5598:	e8 73 cf ff ff       	call   2510 <fwrite@plt>
    559d:	48 8b 05 7c 4a 00 00 	mov    0x4a7c(%rip),%rax        # a020 <stderr@GLIBC_2.2.5>
    55a4:	48 89 c1             	mov    %rax,%rcx
    55a7:	ba 1b 00 00 00       	mov    $0x1b,%edx
    55ac:	be 01 00 00 00       	mov    $0x1,%esi
    55b1:	48 8d 05 fd 1c 00 00 	lea    0x1cfd(%rip),%rax        # 72b5 <_ZL22PARSEC_PROCESS_PRIVATE+0x29d>
    55b8:	48 89 c7             	mov    %rax,%rdi
    55bb:	e8 50 cf ff ff       	call   2510 <fwrite@plt>
    55c0:	48 8b 05 59 4a 00 00 	mov    0x4a59(%rip),%rax        # a020 <stderr@GLIBC_2.2.5>
    55c7:	48 89 c1             	mov    %rax,%rcx
    55ca:	ba 28 00 00 00       	mov    $0x28,%edx
    55cf:	be 01 00 00 00       	mov    $0x1,%esi
    55d4:	48 8d 05 fd 1c 00 00 	lea    0x1cfd(%rip),%rax        # 72d8 <_ZL22PARSEC_PROCESS_PRIVATE+0x2c0>
    55db:	48 89 c7             	mov    %rax,%rdi
    55de:	e8 2d cf ff ff       	call   2510 <fwrite@plt>
    55e3:	48 8b 05 36 4a 00 00 	mov    0x4a36(%rip),%rax        # a020 <stderr@GLIBC_2.2.5>
    55ea:	48 89 c6             	mov    %rax,%rsi
    55ed:	bf 0a 00 00 00       	mov    $0xa,%edi
    55f2:	e8 29 ce ff ff       	call   2420 <fputc@plt>
    55f7:	48 8b 05 22 4a 00 00 	mov    0x4a22(%rip),%rax        # a020 <stderr@GLIBC_2.2.5>
    55fe:	48 89 c1             	mov    %rax,%rcx
    5601:	ba 4c 00 00 00       	mov    $0x4c,%edx
    5606:	be 01 00 00 00       	mov    $0x1,%esi
    560b:	48 8d 05 f6 1c 00 00 	lea    0x1cf6(%rip),%rax        # 7308 <_ZL22PARSEC_PROCESS_PRIVATE+0x2f0>
    5612:	48 89 c7             	mov    %rax,%rdi
    5615:	e8 f6 ce ff ff       	call   2510 <fwrite@plt>
    561a:	bf 01 00 00 00       	mov    $0x1,%edi
    561f:	e8 ec cd ff ff       	call   2410 <exit@plt>
    5624:	48 8b 45 90          	mov    -0x70(%rbp),%rax
    5628:	48 83 c0 08          	add    $0x8,%rax
    562c:	48 8b 00             	mov    (%rax),%rax
    562f:	48 89 c7             	mov    %rax,%rdi
    5632:	e8 89 ce ff ff       	call   24c0 <atoi@plt>
    5637:	48 98                	cltq   
    5639:	48 89 45 c8          	mov    %rax,-0x38(%rbp)
    563d:	48 8b 45 90          	mov    -0x70(%rbp),%rax
    5641:	48 83 c0 10          	add    $0x10,%rax
    5645:	48 8b 00             	mov    (%rax),%rax
    5648:	48 89 c7             	mov    %rax,%rdi
    564b:	e8 70 ce ff ff       	call   24c0 <atoi@plt>
    5650:	48 98                	cltq   
    5652:	48 89 45 d0          	mov    %rax,-0x30(%rbp)
    5656:	48 8b 45 90          	mov    -0x70(%rbp),%rax
    565a:	48 83 c0 18          	add    $0x18,%rax
    565e:	48 8b 00             	mov    (%rax),%rax
    5661:	48 89 c7             	mov    %rax,%rdi
    5664:	e8 57 ce ff ff       	call   24c0 <atoi@plt>
    5669:	89 45 ac             	mov    %eax,-0x54(%rbp)
    566c:	48 8b 45 90          	mov    -0x70(%rbp),%rax
    5670:	48 83 c0 20          	add    $0x20,%rax
    5674:	48 8b 00             	mov    (%rax),%rax
    5677:	48 89 c7             	mov    %rax,%rdi
    567a:	e8 41 ce ff ff       	call   24c0 <atoi@plt>
    567f:	48 98                	cltq   
    5681:	48 89 45 d8          	mov    %rax,-0x28(%rbp)
    5685:	48 8b 45 90          	mov    -0x70(%rbp),%rax
    5689:	48 83 c0 28          	add    $0x28,%rax
    568d:	48 8b 00             	mov    (%rax),%rax
    5690:	48 89 c7             	mov    %rax,%rdi
    5693:	e8 28 ce ff ff       	call   24c0 <atoi@plt>
    5698:	48 98                	cltq   
    569a:	48 89 45 e0          	mov    %rax,-0x20(%rbp)
    569e:	48 8b 45 90          	mov    -0x70(%rbp),%rax
    56a2:	48 83 c0 30          	add    $0x30,%rax
    56a6:	48 8b 00             	mov    (%rax),%rax
    56a9:	48 89 c7             	mov    %rax,%rdi
    56ac:	e8 0f ce ff ff       	call   24c0 <atoi@plt>
    56b1:	48 98                	cltq   
    56b3:	48 89 45 e8          	mov    %rax,-0x18(%rbp)
    56b7:	48 8b 45 90          	mov    -0x70(%rbp),%rax
    56bb:	48 83 c0 38          	add    $0x38,%rax
    56bf:	48 8b 10             	mov    (%rax),%rdx
    56c2:	48 8b 45 c0          	mov    -0x40(%rbp),%rax
    56c6:	48 89 d6             	mov    %rdx,%rsi
    56c9:	48 89 c7             	mov    %rax,%rdi
    56cc:	e8 9f cc ff ff       	call   2370 <strcpy@plt>
    56d1:	48 8b 45 90          	mov    -0x70(%rbp),%rax
    56d5:	48 83 c0 40          	add    $0x40,%rax
    56d9:	48 8b 10             	mov    (%rax),%rdx
    56dc:	48 8b 45 b8          	mov    -0x48(%rbp),%rax
    56e0:	48 89 d6             	mov    %rdx,%rsi
    56e3:	48 89 c7             	mov    %rax,%rdi
    56e6:	e8 85 cc ff ff       	call   2370 <strcpy@plt>
    56eb:	48 8b 45 90          	mov    -0x70(%rbp),%rax
    56ef:	48 83 c0 48          	add    $0x48,%rax
    56f3:	48 8b 00             	mov    (%rax),%rax
    56f6:	48 89 c7             	mov    %rax,%rdi
    56f9:	e8 c2 cd ff ff       	call   24c0 <atoi@plt>
    56fe:	89 05 5c 49 00 00    	mov    %eax,0x495c(%rip)        # a060 <_ZL5nproc>
    5704:	bf 01 00 00 00       	mov    $0x1,%edi
    5709:	e8 c2 cd ff ff       	call   24d0 <srand48@plt>
    570e:	48 83 7d d8 00       	cmpq   $0x0,-0x28(%rbp)
    5713:	7e 22                	jle    5737 <main+0x31b>
    5715:	bf 10 00 00 00       	mov    $0x10,%edi
    571a:	e8 71 cc ff ff       	call   2390 <_Znwm@plt>
    571f:	48 89 c3             	mov    %rax,%rbx
    5722:	48 8b 45 d8          	mov    -0x28(%rbp),%rax
    5726:	48 89 c6             	mov    %rax,%rsi
    5729:	48 89 df             	mov    %rbx,%rdi
    572c:	e8 55 01 00 00       	call   5886 <_ZN9SimStreamC1El>
    5731:	48 89 5d b0          	mov    %rbx,-0x50(%rbp)
    5735:	eb 20                	jmp    5757 <main+0x33b>
    5737:	bf 10 00 00 00       	mov    $0x10,%edi
    573c:	e8 4f cc ff ff       	call   2390 <_Znwm@plt>
    5741:	48 89 c3             	mov    %rax,%rbx
    5744:	48 8b 45 c0          	mov    -0x40(%rbp),%rax
    5748:	48 89 c6             	mov    %rax,%rsi
    574b:	48 89 df             	mov    %rbx,%rdi
    574e:	e8 bd 02 00 00       	call   5a10 <_ZN10FileStreamC1EPc>
    5753:	48 89 5d b0          	mov    %rbx,-0x50(%rbp)
    5757:	4c 8b 45 e8          	mov    -0x18(%rbp),%r8
    575b:	48 8b 7d e0          	mov    -0x20(%rbp),%rdi
    575f:	8b 4d ac             	mov    -0x54(%rbp),%ecx
    5762:	48 8b 55 d0          	mov    -0x30(%rbp),%rdx
    5766:	48 8b 75 c8          	mov    -0x38(%rbp),%rsi
    576a:	48 8b 45 b0          	mov    -0x50(%rbp),%rax
    576e:	48 83 ec 08          	sub    $0x8,%rsp
    5772:	ff 75 b8             	push   -0x48(%rbp)
    5775:	4d 89 c1             	mov    %r8,%r9
    5778:	49 89 f8             	mov    %rdi,%r8
    577b:	48 89 c7             	mov    %rax,%rdi
    577e:	e8 bd f7 ff ff       	call   4f40 <_Z13streamClusterP7PStreamllillPc>
    5783:	48 83 c4 10          	add    $0x10,%rsp
    5787:	48 8b 45 b0          	mov    -0x50(%rbp),%rax
    578b:	48 85 c0             	test   %rax,%rax
    578e:	74 0f                	je     579f <main+0x383>
    5790:	48 8b 10             	mov    (%rax),%rdx
    5793:	48 83 c2 20          	add    $0x20,%rdx
    5797:	48 8b 12             	mov    (%rdx),%rdx
    579a:	48 89 c7             	mov    %rax,%rdi
    579d:	ff d2                	call   *%rdx
    579f:	b8 00 00 00 00       	mov    $0x0,%eax
    57a4:	48 8b 5d f8          	mov    -0x8(%rbp),%rbx
    57a8:	c9                   	leave  
    57a9:	c3                   	ret    

00000000000057aa <_Z41__static_initialization_and_destruction_0ii>:
    57aa:	f3 0f 1e fa          	endbr64 
    57ae:	55                   	push   %rbp
    57af:	48 89 e5             	mov    %rsp,%rbp
    57b2:	48 83 ec 10          	sub    $0x10,%rsp
    57b6:	89 7d fc             	mov    %edi,-0x4(%rbp)
    57b9:	89 75 f8             	mov    %esi,-0x8(%rbp)
    57bc:	83 7d fc 01          	cmpl   $0x1,-0x4(%rbp)
    57c0:	75 3b                	jne    57fd <_Z41__static_initialization_and_destruction_0ii+0x53>
    57c2:	81 7d f8 ff ff 00 00 	cmpl   $0xffff,-0x8(%rbp)
    57c9:	75 32                	jne    57fd <_Z41__static_initialization_and_destruction_0ii+0x53>
    57cb:	48 8d 05 6e 48 00 00 	lea    0x486e(%rip),%rax        # a040 <_ZStL8__ioinit>
    57d2:	48 89 c7             	mov    %rax,%rdi
    57d5:	e8 c6 cc ff ff       	call   24a0 <_ZNSt8ios_base4InitC1Ev@plt>
    57da:	48 8d 05 27 48 00 00 	lea    0x4827(%rip),%rax        # a008 <__dso_handle>
    57e1:	48 89 c2             	mov    %rax,%rdx
    57e4:	48 8d 05 55 48 00 00 	lea    0x4855(%rip),%rax        # a040 <_ZStL8__ioinit>
    57eb:	48 89 c6             	mov    %rax,%rsi
    57ee:	48 8b 05 03 48 00 00 	mov    0x4803(%rip),%rax        # 9ff8 <_ZNSt8ios_base4InitD1Ev@GLIBCXX_3.4>
    57f5:	48 89 c7             	mov    %rax,%rdi
    57f8:	e8 53 cb ff ff       	call   2350 <__cxa_atexit@plt>
    57fd:	90                   	nop
    57fe:	c9                   	leave  
    57ff:	c3                   	ret    

0000000000005800 <_GLOBAL__sub_I__Z11isIdenticalPfS_i>:
    5800:	f3 0f 1e fa          	endbr64 
    5804:	55                   	push   %rbp
    5805:	48 89 e5             	mov    %rsp,%rbp
    5808:	be ff ff 00 00       	mov    $0xffff,%esi
    580d:	bf 01 00 00 00       	mov    $0x1,%edi
    5812:	e8 93 ff ff ff       	call   57aa <_Z41__static_initialization_and_destruction_0ii>
    5817:	5d                   	pop    %rbp
    5818:	c3                   	ret    
    5819:	90                   	nop

000000000000581a <_ZN7PStreamD1Ev>:
    581a:	f3 0f 1e fa          	endbr64 
    581e:	55                   	push   %rbp
    581f:	48 89 e5             	mov    %rsp,%rbp
    5822:	48 89 7d f8          	mov    %rdi,-0x8(%rbp)
    5826:	48 8d 15 db 43 00 00 	lea    0x43db(%rip),%rdx        # 9c08 <__cxa_pure_virtual@CXXABI_1.3>
    582d:	48 8b 45 f8          	mov    -0x8(%rbp),%rax
    5831:	48 89 10             	mov    %rdx,(%rax)
    5834:	90                   	nop
    5835:	5d                   	pop    %rbp
    5836:	c3                   	ret    
    5837:	90                   	nop

0000000000005838 <_ZN7PStreamD0Ev>:
    5838:	f3 0f 1e fa          	endbr64 
    583c:	55                   	push   %rbp
    583d:	48 89 e5             	mov    %rsp,%rbp
    5840:	48 83 ec 10          	sub    $0x10,%rsp
    5844:	48 89 7d f8          	mov    %rdi,-0x8(%rbp)
    5848:	48 8b 45 f8          	mov    -0x8(%rbp),%rax
    584c:	48 89 c7             	mov    %rax,%rdi
    584f:	e8 c6 ff ff ff       	call   581a <_ZN7PStreamD1Ev>
    5854:	48 8b 45 f8          	mov    -0x8(%rbp),%rax
    5858:	be 08 00 00 00       	mov    $0x8,%esi
    585d:	48 89 c7             	mov    %rax,%rdi
    5860:	e8 3b cb ff ff       	call   23a0 <_ZdlPvm@plt>
    5865:	c9                   	leave  
    5866:	c3                   	ret    
    5867:	90                   	nop

0000000000005868 <_ZN7PStreamC1Ev>:
    5868:	f3 0f 1e fa          	endbr64 
    586c:	55                   	push   %rbp
    586d:	48 89 e5             	mov    %rsp,%rbp
    5870:	48 89 7d f8          	mov    %rdi,-0x8(%rbp)
    5874:	48 8d 15 8d 43 00 00 	lea    0x438d(%rip),%rdx        # 9c08 <__cxa_pure_virtual@CXXABI_1.3>
    587b:	48 8b 45 f8          	mov    -0x8(%rbp),%rax
    587f:	48 89 10             	mov    %rdx,(%rax)
    5882:	90                   	nop
    5883:	5d                   	pop    %rbp
    5884:	c3                   	ret    
    5885:	90                   	nop

0000000000005886 <_ZN9SimStreamC1El>:
    5886:	f3 0f 1e fa          	endbr64 
    588a:	55                   	push   %rbp
    588b:	48 89 e5             	mov    %rsp,%rbp
    588e:	48 83 ec 10          	sub    $0x10,%rsp
    5892:	48 89 7d f8          	mov    %rdi,-0x8(%rbp)
    5896:	48 89 75 f0          	mov    %rsi,-0x10(%rbp)
    589a:	48 8b 45 f8          	mov    -0x8(%rbp),%rax
    589e:	48 89 c7             	mov    %rax,%rdi
    58a1:	e8 c2 ff ff ff       	call   5868 <_ZN7PStreamC1Ev>
    58a6:	48 8d 15 23 43 00 00 	lea    0x4323(%rip),%rdx        # 9bd0 <_ZTV9SimStream+0x10>
    58ad:	48 8b 45 f8          	mov    -0x8(%rbp),%rax
    58b1:	48 89 10             	mov    %rdx,(%rax)
    58b4:	48 8b 45 f8          	mov    -0x8(%rbp),%rax
    58b8:	48 8b 55 f0          	mov    -0x10(%rbp),%rdx
    58bc:	48 89 50 08          	mov    %rdx,0x8(%rax)
    58c0:	90                   	nop
    58c1:	c9                   	leave  
    58c2:	c3                   	ret    
    58c3:	90                   	nop

00000000000058c4 <_ZN9SimStream4readEPfii>:
    58c4:	f3 0f 1e fa          	endbr64 
    58c8:	55                   	push   %rbp
    58c9:	48 89 e5             	mov    %rsp,%rbp
    58cc:	48 83 ec 30          	sub    $0x30,%rsp
    58d0:	48 89 7d e8          	mov    %rdi,-0x18(%rbp)
    58d4:	48 89 75 e0          	mov    %rsi,-0x20(%rbp)
    58d8:	89 55 dc             	mov    %edx,-0x24(%rbp)
    58db:	89 4d d8             	mov    %ecx,-0x28(%rbp)
    58de:	48 c7 45 f8 00 00 00 	movq   $0x0,-0x8(%rbp)
    58e5:	00 
    58e6:	c7 45 f0 00 00 00 00 	movl   $0x0,-0x10(%rbp)
    58ed:	eb 6f                	jmp    595e <_ZN9SimStream4readEPfii+0x9a>
    58ef:	c7 45 f4 00 00 00 00 	movl   $0x0,-0xc(%rbp)
    58f6:	eb 41                	jmp    5939 <_ZN9SimStream4readEPfii+0x75>
    58f8:	e8 23 ca ff ff       	call   2320 <lrand48@plt>
    58fd:	66 0f ef c0          	pxor   %xmm0,%xmm0
    5901:	f3 48 0f 2a c0       	cvtsi2ss %rax,%xmm0
    5906:	8b 45 f0             	mov    -0x10(%rbp),%eax
    5909:	0f af 45 dc          	imul   -0x24(%rbp),%eax
    590d:	89 c2                	mov    %eax,%edx
    590f:	8b 45 f4             	mov    -0xc(%rbp),%eax
    5912:	01 d0                	add    %edx,%eax
    5914:	48 98                	cltq   
    5916:	48 8d 14 85 00 00 00 	lea    0x0(,%rax,4),%rdx
    591d:	00 
    591e:	48 8b 45 e0          	mov    -0x20(%rbp),%rax
    5922:	48 01 d0             	add    %rdx,%rax
    5925:	f3 0f 10 0d 2b 1a 00 	movss  0x1a2b(%rip),%xmm1        # 7358 <_ZL22PARSEC_PROCESS_PRIVATE+0x340>
    592c:	00 
    592d:	f3 0f 5e c1          	divss  %xmm1,%xmm0
    5931:	f3 0f 11 00          	movss  %xmm0,(%rax)
    5935:	83 45 f4 01          	addl   $0x1,-0xc(%rbp)
    5939:	8b 45 f4             	mov    -0xc(%rbp),%eax
    593c:	3b 45 dc             	cmp    -0x24(%rbp),%eax
    593f:	7c b7                	jl     58f8 <_ZN9SimStream4readEPfii+0x34>
    5941:	48 8b 45 e8          	mov    -0x18(%rbp),%rax
    5945:	48 8b 40 08          	mov    0x8(%rax),%rax
    5949:	48 8d 50 ff          	lea    -0x1(%rax),%rdx
    594d:	48 8b 45 e8          	mov    -0x18(%rbp),%rax
    5951:	48 89 50 08          	mov    %rdx,0x8(%rax)
    5955:	48 83 45 f8 01       	addq   $0x1,-0x8(%rbp)
    595a:	83 45 f0 01          	addl   $0x1,-0x10(%rbp)
    595e:	8b 45 f0             	mov    -0x10(%rbp),%eax
    5961:	3b 45 d8             	cmp    -0x28(%rbp),%eax
    5964:	7d 11                	jge    5977 <_ZN9SimStream4readEPfii+0xb3>
    5966:	48 8b 45 e8          	mov    -0x18(%rbp),%rax
    596a:	48 8b 40 08          	mov    0x8(%rax),%rax
    596e:	48 85 c0             	test   %rax,%rax
    5971:	0f 8f 78 ff ff ff    	jg     58ef <_ZN9SimStream4readEPfii+0x2b>
    5977:	48 8b 45 f8          	mov    -0x8(%rbp),%rax
    597b:	c9                   	leave  
    597c:	c3                   	ret    
    597d:	90                   	nop

000000000000597e <_ZN9SimStream6ferrorEv>:
    597e:	f3 0f 1e fa          	endbr64 
    5982:	55                   	push   %rbp
    5983:	48 89 e5             	mov    %rsp,%rbp
    5986:	48 89 7d f8          	mov    %rdi,-0x8(%rbp)
    598a:	b8 00 00 00 00       	mov    $0x0,%eax
    598f:	5d                   	pop    %rbp
    5990:	c3                   	ret    
    5991:	90                   	nop

0000000000005992 <_ZN9SimStream4feofEv>:
    5992:	f3 0f 1e fa          	endbr64 
    5996:	55                   	push   %rbp
    5997:	48 89 e5             	mov    %rsp,%rbp
    599a:	48 89 7d f8          	mov    %rdi,-0x8(%rbp)
    599e:	48 8b 45 f8          	mov    -0x8(%rbp),%rax
    59a2:	48 8b 40 08          	mov    0x8(%rax),%rax
    59a6:	48 85 c0             	test   %rax,%rax
    59a9:	0f 9e c0             	setle  %al
    59ac:	0f b6 c0             	movzbl %al,%eax
    59af:	5d                   	pop    %rbp
    59b0:	c3                   	ret    
    59b1:	90                   	nop

00000000000059b2 <_ZN9SimStreamD1Ev>:
    59b2:	f3 0f 1e fa          	endbr64 
    59b6:	55                   	push   %rbp
    59b7:	48 89 e5             	mov    %rsp,%rbp
    59ba:	48 83 ec 10          	sub    $0x10,%rsp
    59be:	48 89 7d f8          	mov    %rdi,-0x8(%rbp)
    59c2:	48 8d 15 07 42 00 00 	lea    0x4207(%rip),%rdx        # 9bd0 <_ZTV9SimStream+0x10>
    59c9:	48 8b 45 f8          	mov    -0x8(%rbp),%rax
    59cd:	48 89 10             	mov    %rdx,(%rax)
    59d0:	48 8b 45 f8          	mov    -0x8(%rbp),%rax
    59d4:	48 89 c7             	mov    %rax,%rdi
    59d7:	e8 3e fe ff ff       	call   581a <_ZN7PStreamD1Ev>
    59dc:	90                   	nop
    59dd:	c9                   	leave  
    59de:	c3                   	ret    
    59df:	90                   	nop

00000000000059e0 <_ZN9SimStreamD0Ev>:
    59e0:	f3 0f 1e fa          	endbr64 
    59e4:	55                   	push   %rbp
    59e5:	48 89 e5             	mov    %rsp,%rbp
    59e8:	48 83 ec 10          	sub    $0x10,%rsp
    59ec:	48 89 7d f8          	mov    %rdi,-0x8(%rbp)
    59f0:	48 8b 45 f8          	mov    -0x8(%rbp),%rax
    59f4:	48 89 c7             	mov    %rax,%rdi
    59f7:	e8 b6 ff ff ff       	call   59b2 <_ZN9SimStreamD1Ev>
    59fc:	48 8b 45 f8          	mov    -0x8(%rbp),%rax
    5a00:	be 10 00 00 00       	mov    $0x10,%esi
    5a05:	48 89 c7             	mov    %rax,%rdi
    5a08:	e8 93 c9 ff ff       	call   23a0 <_ZdlPvm@plt>
    5a0d:	c9                   	leave  
    5a0e:	c3                   	ret    
    5a0f:	90                   	nop

0000000000005a10 <_ZN10FileStreamC1EPc>:
    5a10:	f3 0f 1e fa          	endbr64 
    5a14:	55                   	push   %rbp
    5a15:	48 89 e5             	mov    %rsp,%rbp
    5a18:	48 83 ec 10          	sub    $0x10,%rsp
    5a1c:	48 89 7d f8          	mov    %rdi,-0x8(%rbp)
    5a20:	48 89 75 f0          	mov    %rsi,-0x10(%rbp)
    5a24:	48 8b 45 f8          	mov    -0x8(%rbp),%rax
    5a28:	48 89 c7             	mov    %rax,%rdi
    5a2b:	e8 38 fe ff ff       	call   5868 <_ZN7PStreamC1Ev>
    5a30:	48 8d 15 61 41 00 00 	lea    0x4161(%rip),%rdx        # 9b98 <_ZTV10FileStream+0x10>
    5a37:	48 8b 45 f8          	mov    -0x8(%rbp),%rax
    5a3b:	48 89 10             	mov    %rdx,(%rax)
    5a3e:	48 8b 45 f0          	mov    -0x10(%rbp),%rax
    5a42:	48 8d 15 d3 15 00 00 	lea    0x15d3(%rip),%rdx        # 701c <_ZL22PARSEC_PROCESS_PRIVATE+0x4>
    5a49:	48 89 d6             	mov    %rdx,%rsi
    5a4c:	48 89 c7             	mov    %rax,%rdi
    5a4f:	e8 8c c9 ff ff       	call   23e0 <fopen@plt>
    5a54:	48 89 c2             	mov    %rax,%rdx
    5a57:	48 8b 45 f8          	mov    -0x8(%rbp),%rax
    5a5b:	48 89 50 08          	mov    %rdx,0x8(%rax)
    5a5f:	48 8b 45 f8          	mov    -0x8(%rbp),%rax
    5a63:	48 8b 40 08          	mov    0x8(%rax),%rax
    5a67:	48 85 c0             	test   %rax,%rax
    5a6a:	75 2c                	jne    5a98 <_ZN10FileStreamC1EPc+0x88>
    5a6c:	48 8b 05 ad 45 00 00 	mov    0x45ad(%rip),%rax        # a020 <stderr@GLIBC_2.2.5>
    5a73:	48 8b 55 f0          	mov    -0x10(%rbp),%rdx
    5a77:	48 8d 0d a1 15 00 00 	lea    0x15a1(%rip),%rcx        # 701f <_ZL22PARSEC_PROCESS_PRIVATE+0x7>
    5a7e:	48 89 ce             	mov    %rcx,%rsi
    5a81:	48 89 c7             	mov    %rax,%rdi
    5a84:	b8 00 00 00 00       	mov    $0x0,%eax
    5a89:	e8 c2 c9 ff ff       	call   2450 <fprintf@plt>
    5a8e:	bf 01 00 00 00       	mov    $0x1,%edi
    5a93:	e8 78 c9 ff ff       	call   2410 <exit@plt>
    5a98:	90                   	nop
    5a99:	c9                   	leave  
    5a9a:	c3                   	ret    
    5a9b:	90                   	nop

0000000000005a9c <_ZN10FileStream4readEPfii>:
    5a9c:	f3 0f 1e fa          	endbr64 
    5aa0:	55                   	push   %rbp
    5aa1:	48 89 e5             	mov    %rsp,%rbp
    5aa4:	48 83 ec 20          	sub    $0x20,%rsp
    5aa8:	48 89 7d f8          	mov    %rdi,-0x8(%rbp)
    5aac:	48 89 75 f0          	mov    %rsi,-0x10(%rbp)
    5ab0:	89 55 ec             	mov    %edx,-0x14(%rbp)
    5ab3:	89 4d e8             	mov    %ecx,-0x18(%rbp)
    5ab6:	48 8b 45 f8          	mov    -0x8(%rbp),%rax
    5aba:	48 8b 48 08          	mov    0x8(%rax),%rcx
    5abe:	8b 45 e8             	mov    -0x18(%rbp),%eax
    5ac1:	48 63 d0             	movslq %eax,%rdx
    5ac4:	8b 45 ec             	mov    -0x14(%rbp),%eax
    5ac7:	48 98                	cltq   
    5ac9:	48 8d 34 85 00 00 00 	lea    0x0(,%rax,4),%rsi
    5ad0:	00 
    5ad1:	48 8b 45 f0          	mov    -0x10(%rbp),%rax
    5ad5:	48 89 c7             	mov    %rax,%rdi
    5ad8:	e8 a3 c9 ff ff       	call   2480 <fread@plt>
    5add:	c9                   	leave  
    5ade:	c3                   	ret    
    5adf:	90                   	nop

0000000000005ae0 <_ZN10FileStream6ferrorEv>:
    5ae0:	f3 0f 1e fa          	endbr64 
    5ae4:	55                   	push   %rbp
    5ae5:	48 89 e5             	mov    %rsp,%rbp
    5ae8:	48 83 ec 10          	sub    $0x10,%rsp
    5aec:	48 89 7d f8          	mov    %rdi,-0x8(%rbp)
    5af0:	48 8b 45 f8          	mov    -0x8(%rbp),%rax
    5af4:	48 8b 40 08          	mov    0x8(%rax),%rax
    5af8:	48 89 c7             	mov    %rax,%rdi
    5afb:	e8 f0 c9 ff ff       	call   24f0 <ferror@plt>
    5b00:	c9                   	leave  
    5b01:	c3                   	ret    

0000000000005b02 <_ZN10FileStream4feofEv>:
    5b02:	f3 0f 1e fa          	endbr64 
    5b06:	55                   	push   %rbp
    5b07:	48 89 e5             	mov    %rsp,%rbp
    5b0a:	48 83 ec 10          	sub    $0x10,%rsp
    5b0e:	48 89 7d f8          	mov    %rdi,-0x8(%rbp)
    5b12:	48 8b 45 f8          	mov    -0x8(%rbp),%rax
    5b16:	48 8b 40 08          	mov    0x8(%rax),%rax
    5b1a:	48 89 c7             	mov    %rax,%rdi
    5b1d:	e8 8e c9 ff ff       	call   24b0 <feof@plt>
    5b22:	c9                   	leave  
    5b23:	c3                   	ret    

0000000000005b24 <_ZN10FileStreamD1Ev>:
    5b24:	f3 0f 1e fa          	endbr64 
    5b28:	55                   	push   %rbp
    5b29:	48 89 e5             	mov    %rsp,%rbp
    5b2c:	48 83 ec 10          	sub    $0x10,%rsp
    5b30:	48 89 7d f8          	mov    %rdi,-0x8(%rbp)
    5b34:	48 8d 15 5d 40 00 00 	lea    0x405d(%rip),%rdx        # 9b98 <_ZTV10FileStream+0x10>
    5b3b:	48 8b 45 f8          	mov    -0x8(%rbp),%rax
    5b3f:	48 89 10             	mov    %rdx,(%rax)
    5b42:	48 8b 05 d7 44 00 00 	mov    0x44d7(%rip),%rax        # a020 <stderr@GLIBC_2.2.5>
    5b49:	48 89 c1             	mov    %rax,%rcx
    5b4c:	ba 14 00 00 00       	mov    $0x14,%edx
    5b51:	be 01 00 00 00       	mov    $0x1,%esi
    5b56:	48 8d 05 da 14 00 00 	lea    0x14da(%rip),%rax        # 7037 <_ZL22PARSEC_PROCESS_PRIVATE+0x1f>
    5b5d:	48 89 c7             	mov    %rax,%rdi
    5b60:	e8 ab c9 ff ff       	call   2510 <fwrite@plt>
    5b65:	48 8b 45 f8          	mov    -0x8(%rbp),%rax
    5b69:	48 8b 40 08          	mov    0x8(%rax),%rax
    5b6d:	48 89 c7             	mov    %rax,%rdi
    5b70:	e8 0b c8 ff ff       	call   2380 <fclose@plt>
    5b75:	48 8b 45 f8          	mov    -0x8(%rbp),%rax
    5b79:	48 89 c7             	mov    %rax,%rdi
    5b7c:	e8 99 fc ff ff       	call   581a <_ZN7PStreamD1Ev>
    5b81:	90                   	nop
    5b82:	c9                   	leave  
    5b83:	c3                   	ret    

0000000000005b84 <_ZN10FileStreamD0Ev>:
    5b84:	f3 0f 1e fa          	endbr64 
    5b88:	55                   	push   %rbp
    5b89:	48 89 e5             	mov    %rsp,%rbp
    5b8c:	48 83 ec 10          	sub    $0x10,%rsp
    5b90:	48 89 7d f8          	mov    %rdi,-0x8(%rbp)
    5b94:	48 8b 45 f8          	mov    -0x8(%rbp),%rax
    5b98:	48 89 c7             	mov    %rax,%rdi
    5b9b:	e8 84 ff ff ff       	call   5b24 <_ZN10FileStreamD1Ev>
    5ba0:	48 8b 45 f8          	mov    -0x8(%rbp),%rax
    5ba4:	be 10 00 00 00       	mov    $0x10,%esi
    5ba9:	48 89 c7             	mov    %rax,%rdi
    5bac:	e8 ef c7 ff ff       	call   23a0 <_ZdlPvm@plt>
    5bb1:	c9                   	leave  
    5bb2:	c3                   	ret    

0000000000005bb3 <_ZL15Not_ImplementedPKcS0_j>:
    5bb3:	55                   	push   %rbp
    5bb4:	48 89 e5             	mov    %rsp,%rbp
    5bb7:	48 83 ec 20          	sub    $0x20,%rsp
    5bbb:	48 89 7d f8          	mov    %rdi,-0x8(%rbp)
    5bbf:	48 89 75 f0          	mov    %rsi,-0x10(%rbp)
    5bc3:	89 55 ec             	mov    %edx,-0x14(%rbp)
    5bc6:	48 8b 05 53 44 00 00 	mov    0x4453(%rip),%rax        # a020 <stderr@GLIBC_2.2.5>
    5bcd:	8b 75 ec             	mov    -0x14(%rbp),%esi
    5bd0:	48 8b 4d f0          	mov    -0x10(%rbp),%rcx
    5bd4:	48 8b 55 f8          	mov    -0x8(%rbp),%rdx
    5bd8:	41 89 f0             	mov    %esi,%r8d
    5bdb:	48 8d 35 0e 18 00 00 	lea    0x180e(%rip),%rsi        # 73f0 <_ZL22PARSEC_PROCESS_PRIVATE+0x8>
    5be2:	48 89 c7             	mov    %rax,%rdi
    5be5:	b8 00 00 00 00       	mov    $0x0,%eax
    5bea:	e8 61 c8 ff ff       	call   2450 <fprintf@plt>
    5bef:	bf 01 00 00 00       	mov    $0x1,%edi
    5bf4:	e8 17 c8 ff ff       	call   2410 <exit@plt>

0000000000005bf9 <_Z19parsec_barrier_initP16parsec_barrier_tPKij>:
    5bf9:	f3 0f 1e fa          	endbr64 
    5bfd:	55                   	push   %rbp
    5bfe:	48 89 e5             	mov    %rsp,%rbp
    5c01:	48 83 ec 30          	sub    $0x30,%rsp
    5c05:	48 89 7d e8          	mov    %rdi,-0x18(%rbp)
    5c09:	48 89 75 e0          	mov    %rsi,-0x20(%rbp)
    5c0d:	89 55 dc             	mov    %edx,-0x24(%rbp)
    5c10:	48 83 7d e8 00       	cmpq   $0x0,-0x18(%rbp)
    5c15:	75 0a                	jne    5c21 <_Z19parsec_barrier_initP16parsec_barrier_tPKij+0x28>
    5c17:	b8 16 00 00 00       	mov    $0x16,%eax
    5c1c:	e9 9a 00 00 00       	jmp    5cbb <_Z19parsec_barrier_initP16parsec_barrier_tPKij+0xc2>
    5c21:	83 7d dc 00          	cmpl   $0x0,-0x24(%rbp)
    5c25:	75 0a                	jne    5c31 <_Z19parsec_barrier_initP16parsec_barrier_tPKij+0x38>
    5c27:	b8 16 00 00 00       	mov    $0x16,%eax
    5c2c:	e9 8a 00 00 00       	jmp    5cbb <_Z19parsec_barrier_initP16parsec_barrier_tPKij+0xc2>
    5c31:	48 83 7d e0 00       	cmpq   $0x0,-0x20(%rbp)
    5c36:	74 29                	je     5c61 <_Z19parsec_barrier_initP16parsec_barrier_tPKij+0x68>
    5c38:	48 8b 45 e0          	mov    -0x20(%rbp),%rax
    5c3c:	8b 00                	mov    (%rax),%eax
    5c3e:	83 f8 01             	cmp    $0x1,%eax
    5c41:	75 1e                	jne    5c61 <_Z19parsec_barrier_initP16parsec_barrier_tPKij+0x68>
    5c43:	ba 45 00 00 00       	mov    $0x45,%edx
    5c48:	48 8d 05 f9 17 00 00 	lea    0x17f9(%rip),%rax        # 7448 <_ZL16SPIN_COUNTER_MAX+0x8>
    5c4f:	48 89 c6             	mov    %rax,%rsi
    5c52:	48 8d 05 02 18 00 00 	lea    0x1802(%rip),%rax        # 745b <_ZL16SPIN_COUNTER_MAX+0x1b>
    5c59:	48 89 c7             	mov    %rax,%rdi
    5c5c:	e8 52 ff ff ff       	call   5bb3 <_ZL15Not_ImplementedPKcS0_j>
    5c61:	48 8b 45 e8          	mov    -0x18(%rbp),%rax
    5c65:	8b 55 dc             	mov    -0x24(%rbp),%edx
    5c68:	89 50 58             	mov    %edx,0x58(%rax)
    5c6b:	48 8b 45 e8          	mov    -0x18(%rbp),%rax
    5c6f:	c7 40 5c 00 00 00 00 	movl   $0x0,0x5c(%rax)
    5c76:	48 8b 45 e8          	mov    -0x18(%rbp),%rax
    5c7a:	c7 40 60 01 00 00 00 	movl   $0x1,0x60(%rax)
    5c81:	48 8b 45 e8          	mov    -0x18(%rbp),%rax
    5c85:	be 00 00 00 00       	mov    $0x0,%esi
    5c8a:	48 89 c7             	mov    %rax,%rdi
    5c8d:	e8 de c7 ff ff       	call   2470 <pthread_mutex_init@plt>
    5c92:	89 45 fc             	mov    %eax,-0x4(%rbp)
    5c95:	83 7d fc 00          	cmpl   $0x0,-0x4(%rbp)
    5c99:	74 05                	je     5ca0 <_Z19parsec_barrier_initP16parsec_barrier_tPKij+0xa7>
    5c9b:	8b 45 fc             	mov    -0x4(%rbp),%eax
    5c9e:	eb 1b                	jmp    5cbb <_Z19parsec_barrier_initP16parsec_barrier_tPKij+0xc2>
    5ca0:	48 8b 45 e8          	mov    -0x18(%rbp),%rax
    5ca4:	48 83 c0 28          	add    $0x28,%rax
    5ca8:	be 00 00 00 00       	mov    $0x0,%esi
    5cad:	48 89 c7             	mov    %rax,%rdi
    5cb0:	e8 4b c7 ff ff       	call   2400 <pthread_cond_init@plt>
    5cb5:	89 45 fc             	mov    %eax,-0x4(%rbp)
    5cb8:	8b 45 fc             	mov    -0x4(%rbp),%eax
    5cbb:	c9                   	leave  
    5cbc:	c3                   	ret    

0000000000005cbd <_Z22parsec_barrier_destroyP16parsec_barrier_t>:
    5cbd:	f3 0f 1e fa          	endbr64 
    5cc1:	55                   	push   %rbp
    5cc2:	48 89 e5             	mov    %rsp,%rbp
    5cc5:	48 83 ec 20          	sub    $0x20,%rsp
    5cc9:	48 89 7d e8          	mov    %rdi,-0x18(%rbp)
    5ccd:	48 83 7d e8 00       	cmpq   $0x0,-0x18(%rbp)
    5cd2:	75 28                	jne    5cfc <_Z22parsec_barrier_destroyP16parsec_barrier_t+0x3f>
    5cd4:	48 8d 05 95 17 00 00 	lea    0x1795(%rip),%rax        # 7470 <_ZL16SPIN_COUNTER_MAX+0x30>
    5cdb:	48 89 c1             	mov    %rax,%rcx
    5cde:	ba 54 00 00 00       	mov    $0x54,%edx
    5ce3:	48 8d 05 5e 17 00 00 	lea    0x175e(%rip),%rax        # 7448 <_ZL16SPIN_COUNTER_MAX+0x8>
    5cea:	48 89 c6             	mov    %rax,%rsi
    5ced:	48 8d 05 aa 17 00 00 	lea    0x17aa(%rip),%rax        # 749e <_ZL16SPIN_COUNTER_MAX+0x5e>
    5cf4:	48 89 c7             	mov    %rax,%rdi
    5cf7:	e8 f4 c5 ff ff       	call   22f0 <__assert_fail@plt>
    5cfc:	48 8b 45 e8          	mov    -0x18(%rbp),%rax
    5d00:	48 89 c7             	mov    %rax,%rdi
    5d03:	e8 b8 c6 ff ff       	call   23c0 <pthread_mutex_destroy@plt>
    5d08:	89 45 fc             	mov    %eax,-0x4(%rbp)
    5d0b:	83 7d fc 00          	cmpl   $0x0,-0x4(%rbp)
    5d0f:	74 05                	je     5d16 <_Z22parsec_barrier_destroyP16parsec_barrier_t+0x59>
    5d11:	8b 45 fc             	mov    -0x4(%rbp),%eax
    5d14:	eb 3a                	jmp    5d50 <_Z22parsec_barrier_destroyP16parsec_barrier_t+0x93>
    5d16:	48 8b 45 e8          	mov    -0x18(%rbp),%rax
    5d1a:	48 83 c0 28          	add    $0x28,%rax
    5d1e:	48 89 c7             	mov    %rax,%rdi
    5d21:	e8 da c7 ff ff       	call   2500 <pthread_cond_destroy@plt>
    5d26:	89 45 fc             	mov    %eax,-0x4(%rbp)
    5d29:	83 7d fc 00          	cmpl   $0x0,-0x4(%rbp)
    5d2d:	74 05                	je     5d34 <_Z22parsec_barrier_destroyP16parsec_barrier_t+0x77>
    5d2f:	8b 45 fc             	mov    -0x4(%rbp),%eax
    5d32:	eb 1c                	jmp    5d50 <_Z22parsec_barrier_destroyP16parsec_barrier_t+0x93>
    5d34:	48 8b 45 e8          	mov    -0x18(%rbp),%rax
    5d38:	8b 40 5c             	mov    0x5c(%rax),%eax
    5d3b:	85 c0                	test   %eax,%eax
    5d3d:	0f 95 c0             	setne  %al
    5d40:	84 c0                	test   %al,%al
    5d42:	74 07                	je     5d4b <_Z22parsec_barrier_destroyP16parsec_barrier_t+0x8e>
    5d44:	b8 10 00 00 00       	mov    $0x10,%eax
    5d49:	eb 05                	jmp    5d50 <_Z22parsec_barrier_destroyP16parsec_barrier_t+0x93>
    5d4b:	b8 00 00 00 00       	mov    $0x0,%eax
    5d50:	c9                   	leave  
    5d51:	c3                   	ret    

0000000000005d52 <_Z26parsec_barrierattr_destroyPi>:
    5d52:	f3 0f 1e fa          	endbr64 
    5d56:	55                   	push   %rbp
    5d57:	48 89 e5             	mov    %rsp,%rbp
    5d5a:	48 89 7d f8          	mov    %rdi,-0x8(%rbp)
    5d5e:	48 83 7d f8 00       	cmpq   $0x0,-0x8(%rbp)
    5d63:	75 07                	jne    5d6c <_Z26parsec_barrierattr_destroyPi+0x1a>
    5d65:	b8 16 00 00 00       	mov    $0x16,%eax
    5d6a:	eb 05                	jmp    5d71 <_Z26parsec_barrierattr_destroyPi+0x1f>
    5d6c:	b8 00 00 00 00       	mov    $0x0,%eax
    5d71:	5d                   	pop    %rbp
    5d72:	c3                   	ret    

0000000000005d73 <_Z23parsec_barrierattr_initPi>:
    5d73:	f3 0f 1e fa          	endbr64 
    5d77:	55                   	push   %rbp
    5d78:	48 89 e5             	mov    %rsp,%rbp
    5d7b:	48 89 7d f8          	mov    %rdi,-0x8(%rbp)
    5d7f:	48 83 7d f8 00       	cmpq   $0x0,-0x8(%rbp)
    5d84:	75 07                	jne    5d8d <_Z23parsec_barrierattr_initPi+0x1a>
    5d86:	b8 16 00 00 00       	mov    $0x16,%eax
    5d8b:	eb 05                	jmp    5d92 <_Z23parsec_barrierattr_initPi+0x1f>
    5d8d:	b8 00 00 00 00       	mov    $0x0,%eax
    5d92:	5d                   	pop    %rbp
    5d93:	c3                   	ret    

0000000000005d94 <_Z29parsec_barrierattr_getpsharedPKiPi>:
    5d94:	f3 0f 1e fa          	endbr64 
    5d98:	55                   	push   %rbp
    5d99:	48 89 e5             	mov    %rsp,%rbp
    5d9c:	48 89 7d f8          	mov    %rdi,-0x8(%rbp)
    5da0:	48 89 75 f0          	mov    %rsi,-0x10(%rbp)
    5da4:	48 83 7d f8 00       	cmpq   $0x0,-0x8(%rbp)
    5da9:	74 07                	je     5db2 <_Z29parsec_barrierattr_getpsharedPKiPi+0x1e>
    5dab:	48 83 7d f0 00       	cmpq   $0x0,-0x10(%rbp)
    5db0:	75 07                	jne    5db9 <_Z29parsec_barrierattr_getpsharedPKiPi+0x25>
    5db2:	b8 16 00 00 00       	mov    $0x16,%eax
    5db7:	eb 11                	jmp    5dca <_Z29parsec_barrierattr_getpsharedPKiPi+0x36>
    5db9:	48 8b 45 f8          	mov    -0x8(%rbp),%rax
    5dbd:	8b 10                	mov    (%rax),%edx
    5dbf:	48 8b 45 f0          	mov    -0x10(%rbp),%rax
    5dc3:	89 10                	mov    %edx,(%rax)
    5dc5:	b8 00 00 00 00       	mov    $0x0,%eax
    5dca:	5d                   	pop    %rbp
    5dcb:	c3                   	ret    

0000000000005dcc <_Z29parsec_barrierattr_setpsharedPii>:
    5dcc:	f3 0f 1e fa          	endbr64 
    5dd0:	55                   	push   %rbp
    5dd1:	48 89 e5             	mov    %rsp,%rbp
    5dd4:	48 83 ec 10          	sub    $0x10,%rsp
    5dd8:	48 89 7d f8          	mov    %rdi,-0x8(%rbp)
    5ddc:	89 75 f4             	mov    %esi,-0xc(%rbp)
    5ddf:	48 83 7d f8 00       	cmpq   $0x0,-0x8(%rbp)
    5de4:	75 07                	jne    5ded <_Z29parsec_barrierattr_setpsharedPii+0x21>
    5de6:	b8 16 00 00 00       	mov    $0x16,%eax
    5deb:	eb 45                	jmp    5e32 <_Z29parsec_barrierattr_setpsharedPii+0x66>
    5ded:	83 7d f4 00          	cmpl   $0x0,-0xc(%rbp)
    5df1:	74 0d                	je     5e00 <_Z29parsec_barrierattr_setpsharedPii+0x34>
    5df3:	83 7d f4 01          	cmpl   $0x1,-0xc(%rbp)
    5df7:	74 07                	je     5e00 <_Z29parsec_barrierattr_setpsharedPii+0x34>
    5df9:	b8 16 00 00 00       	mov    $0x16,%eax
    5dfe:	eb 32                	jmp    5e32 <_Z29parsec_barrierattr_setpsharedPii+0x66>
    5e00:	83 7d f4 01          	cmpl   $0x1,-0xc(%rbp)
    5e04:	74 1e                	je     5e24 <_Z29parsec_barrierattr_setpsharedPii+0x58>
    5e06:	ba 79 00 00 00       	mov    $0x79,%edx
    5e0b:	48 8d 05 36 16 00 00 	lea    0x1636(%rip),%rax        # 7448 <_ZL16SPIN_COUNTER_MAX+0x8>
    5e12:	48 89 c6             	mov    %rax,%rsi
    5e15:	48 8d 05 90 16 00 00 	lea    0x1690(%rip),%rax        # 74ac <_ZL16SPIN_COUNTER_MAX+0x6c>
    5e1c:	48 89 c7             	mov    %rax,%rdi
    5e1f:	e8 8f fd ff ff       	call   5bb3 <_ZL15Not_ImplementedPKcS0_j>
    5e24:	48 8b 45 f8          	mov    -0x8(%rbp),%rax
    5e28:	8b 55 f4             	mov    -0xc(%rbp),%edx
    5e2b:	89 10                	mov    %edx,(%rax)
    5e2d:	b8 00 00 00 00       	mov    $0x0,%eax
    5e32:	c9                   	leave  
    5e33:	c3                   	ret    

0000000000005e34 <_Z19parsec_barrier_waitP16parsec_barrier_t>:
    5e34:	f3 0f 1e fa          	endbr64 
    5e38:	55                   	push   %rbp
    5e39:	48 89 e5             	mov    %rsp,%rbp
    5e3c:	48 83 ec 30          	sub    $0x30,%rsp
    5e40:	48 89 7d d8          	mov    %rdi,-0x28(%rbp)
    5e44:	48 83 7d d8 00       	cmpq   $0x0,-0x28(%rbp)
    5e49:	75 0a                	jne    5e55 <_Z19parsec_barrier_waitP16parsec_barrier_t+0x21>
    5e4b:	b8 16 00 00 00       	mov    $0x16,%eax
    5e50:	e9 63 02 00 00       	jmp    60b8 <_Z19parsec_barrier_waitP16parsec_barrier_t+0x284>
    5e55:	48 8b 45 d8          	mov    -0x28(%rbp),%rax
    5e59:	48 89 c7             	mov    %rax,%rdi
    5e5c:	e8 ff c5 ff ff       	call   2460 <pthread_mutex_lock@plt>
    5e61:	89 45 e8             	mov    %eax,-0x18(%rbp)
    5e64:	83 7d e8 00          	cmpl   $0x0,-0x18(%rbp)
    5e68:	74 08                	je     5e72 <_Z19parsec_barrier_waitP16parsec_barrier_t+0x3e>
    5e6a:	8b 45 e8             	mov    -0x18(%rbp),%eax
    5e6d:	e9 46 02 00 00       	jmp    60b8 <_Z19parsec_barrier_waitP16parsec_barrier_t+0x284>
    5e72:	48 8b 45 d8          	mov    -0x28(%rbp),%rax
    5e76:	8b 40 60             	mov    0x60(%rax),%eax
    5e79:	85 c0                	test   %eax,%eax
    5e7b:	0f 94 c0             	sete   %al
    5e7e:	84 c0                	test   %al,%al
    5e80:	0f 84 b6 00 00 00    	je     5f3c <_Z19parsec_barrier_waitP16parsec_barrier_t+0x108>
    5e86:	48 8b 45 d8          	mov    -0x28(%rbp),%rax
    5e8a:	48 89 c7             	mov    %rax,%rdi
    5e8d:	e8 7e c4 ff ff       	call   2310 <pthread_mutex_unlock@plt>
    5e92:	48 c7 45 f0 00 00 00 	movq   $0x0,-0x10(%rbp)
    5e99:	00 
    5e9a:	eb 0c                	jmp    5ea8 <_Z19parsec_barrier_waitP16parsec_barrier_t+0x74>
    5e9c:	48 8b 45 f0          	mov    -0x10(%rbp),%rax
    5ea0:	48 83 c0 01          	add    $0x1,%rax
    5ea4:	48 89 45 f0          	mov    %rax,-0x10(%rbp)
    5ea8:	48 8b 45 d8          	mov    -0x28(%rbp),%rax
    5eac:	8b 40 60             	mov    0x60(%rax),%eax
    5eaf:	85 c0                	test   %eax,%eax
    5eb1:	75 13                	jne    5ec6 <_Z19parsec_barrier_waitP16parsec_barrier_t+0x92>
    5eb3:	48 8b 45 f0          	mov    -0x10(%rbp),%rax
    5eb7:	48 3d b7 88 00 00    	cmp    $0x88b7,%rax
    5ebd:	77 07                	ja     5ec6 <_Z19parsec_barrier_waitP16parsec_barrier_t+0x92>
    5ebf:	b8 01 00 00 00       	mov    $0x1,%eax
    5ec4:	eb 05                	jmp    5ecb <_Z19parsec_barrier_waitP16parsec_barrier_t+0x97>
    5ec6:	b8 00 00 00 00       	mov    $0x0,%eax
    5ecb:	84 c0                	test   %al,%al
    5ecd:	75 cd                	jne    5e9c <_Z19parsec_barrier_waitP16parsec_barrier_t+0x68>
    5ecf:	90                   	nop
    5ed0:	48 8b 45 d8          	mov    -0x28(%rbp),%rax
    5ed4:	48 89 c7             	mov    %rax,%rdi
    5ed7:	e8 e4 c3 ff ff       	call   22c0 <pthread_mutex_trylock@plt>
    5edc:	89 45 e8             	mov    %eax,-0x18(%rbp)
    5edf:	83 7d e8 10          	cmpl   $0x10,-0x18(%rbp)
    5ee3:	0f 94 c0             	sete   %al
    5ee6:	84 c0                	test   %al,%al
    5ee8:	75 e6                	jne    5ed0 <_Z19parsec_barrier_waitP16parsec_barrier_t+0x9c>
    5eea:	83 7d e8 00          	cmpl   $0x0,-0x18(%rbp)
    5eee:	74 3c                	je     5f2c <_Z19parsec_barrier_waitP16parsec_barrier_t+0xf8>
    5ef0:	8b 45 e8             	mov    -0x18(%rbp),%eax
    5ef3:	e9 c0 01 00 00       	jmp    60b8 <_Z19parsec_barrier_waitP16parsec_barrier_t+0x284>
    5ef8:	48 8b 45 d8          	mov    -0x28(%rbp),%rax
    5efc:	48 8b 55 d8          	mov    -0x28(%rbp),%rdx
    5f00:	48 83 c2 28          	add    $0x28,%rdx
    5f04:	48 89 c6             	mov    %rax,%rsi
    5f07:	48 89 d7             	mov    %rdx,%rdi
    5f0a:	e8 81 c5 ff ff       	call   2490 <pthread_cond_wait@plt>
    5f0f:	89 45 e8             	mov    %eax,-0x18(%rbp)
    5f12:	83 7d e8 00          	cmpl   $0x0,-0x18(%rbp)
    5f16:	74 14                	je     5f2c <_Z19parsec_barrier_waitP16parsec_barrier_t+0xf8>
    5f18:	48 8b 45 d8          	mov    -0x28(%rbp),%rax
    5f1c:	48 89 c7             	mov    %rax,%rdi
    5f1f:	e8 ec c3 ff ff       	call   2310 <pthread_mutex_unlock@plt>
    5f24:	8b 45 e8             	mov    -0x18(%rbp),%eax
    5f27:	e9 8c 01 00 00       	jmp    60b8 <_Z19parsec_barrier_waitP16parsec_barrier_t+0x284>
    5f2c:	48 8b 45 d8          	mov    -0x28(%rbp),%rax
    5f30:	8b 40 60             	mov    0x60(%rax),%eax
    5f33:	85 c0                	test   %eax,%eax
    5f35:	0f 94 c0             	sete   %al
    5f38:	84 c0                	test   %al,%al
    5f3a:	75 bc                	jne    5ef8 <_Z19parsec_barrier_waitP16parsec_barrier_t+0xc4>
    5f3c:	48 8b 45 d8          	mov    -0x28(%rbp),%rax
    5f40:	8b 40 5c             	mov    0x5c(%rax),%eax
    5f43:	85 c0                	test   %eax,%eax
    5f45:	0f 94 c0             	sete   %al
    5f48:	0f b6 c0             	movzbl %al,%eax
    5f4b:	89 45 ec             	mov    %eax,-0x14(%rbp)
    5f4e:	48 8b 45 d8          	mov    -0x28(%rbp),%rax
    5f52:	8b 40 5c             	mov    0x5c(%rax),%eax
    5f55:	8d 50 01             	lea    0x1(%rax),%edx
    5f58:	48 8b 45 d8          	mov    -0x28(%rbp),%rax
    5f5c:	89 50 5c             	mov    %edx,0x5c(%rax)
    5f5f:	48 8b 45 d8          	mov    -0x28(%rbp),%rax
    5f63:	8b 50 5c             	mov    0x5c(%rax),%edx
    5f66:	48 8b 45 d8          	mov    -0x28(%rbp),%rax
    5f6a:	8b 40 58             	mov    0x58(%rax),%eax
    5f6d:	39 c2                	cmp    %eax,%edx
    5f6f:	0f 93 c0             	setae  %al
    5f72:	84 c0                	test   %al,%al
    5f74:	74 20                	je     5f96 <_Z19parsec_barrier_waitP16parsec_barrier_t+0x162>
    5f76:	48 8b 45 d8          	mov    -0x28(%rbp),%rax
    5f7a:	c7 40 60 00 00 00 00 	movl   $0x0,0x60(%rax)
    5f81:	48 8b 45 d8          	mov    -0x28(%rbp),%rax
    5f85:	48 83 c0 28          	add    $0x28,%rax
    5f89:	48 89 c7             	mov    %rax,%rdi
    5f8c:	e8 3f c3 ff ff       	call   22d0 <pthread_cond_broadcast@plt>
    5f91:	e9 c7 00 00 00       	jmp    605d <_Z19parsec_barrier_waitP16parsec_barrier_t+0x229>
    5f96:	48 8b 45 d8          	mov    -0x28(%rbp),%rax
    5f9a:	8b 40 60             	mov    0x60(%rax),%eax
    5f9d:	85 c0                	test   %eax,%eax
    5f9f:	0f 95 c0             	setne  %al
    5fa2:	84 c0                	test   %al,%al
    5fa4:	0f 84 b3 00 00 00    	je     605d <_Z19parsec_barrier_waitP16parsec_barrier_t+0x229>
    5faa:	48 8b 45 d8          	mov    -0x28(%rbp),%rax
    5fae:	48 89 c7             	mov    %rax,%rdi
    5fb1:	e8 5a c3 ff ff       	call   2310 <pthread_mutex_unlock@plt>
    5fb6:	48 c7 45 f8 00 00 00 	movq   $0x0,-0x8(%rbp)
    5fbd:	00 
    5fbe:	eb 0c                	jmp    5fcc <_Z19parsec_barrier_waitP16parsec_barrier_t+0x198>
    5fc0:	48 8b 45 f8          	mov    -0x8(%rbp),%rax
    5fc4:	48 83 c0 01          	add    $0x1,%rax
    5fc8:	48 89 45 f8          	mov    %rax,-0x8(%rbp)
    5fcc:	48 8b 45 d8          	mov    -0x28(%rbp),%rax
    5fd0:	8b 40 60             	mov    0x60(%rax),%eax
    5fd3:	85 c0                	test   %eax,%eax
    5fd5:	74 13                	je     5fea <_Z19parsec_barrier_waitP16parsec_barrier_t+0x1b6>
    5fd7:	48 8b 45 f8          	mov    -0x8(%rbp),%rax
    5fdb:	48 3d b7 88 00 00    	cmp    $0x88b7,%rax
    5fe1:	77 07                	ja     5fea <_Z19parsec_barrier_waitP16parsec_barrier_t+0x1b6>
    5fe3:	b8 01 00 00 00       	mov    $0x1,%eax
    5fe8:	eb 05                	jmp    5fef <_Z19parsec_barrier_waitP16parsec_barrier_t+0x1bb>
    5fea:	b8 00 00 00 00       	mov    $0x0,%eax
    5fef:	84 c0                	test   %al,%al
    5ff1:	75 cd                	jne    5fc0 <_Z19parsec_barrier_waitP16parsec_barrier_t+0x18c>
    5ff3:	90                   	nop
    5ff4:	48 8b 45 d8          	mov    -0x28(%rbp),%rax
    5ff8:	48 89 c7             	mov    %rax,%rdi
    5ffb:	e8 c0 c2 ff ff       	call   22c0 <pthread_mutex_trylock@plt>
    6000:	89 45 e8             	mov    %eax,-0x18(%rbp)
    6003:	83 7d e8 10          	cmpl   $0x10,-0x18(%rbp)
    6007:	0f 94 c0             	sete   %al
    600a:	84 c0                	test   %al,%al
    600c:	75 e6                	jne    5ff4 <_Z19parsec_barrier_waitP16parsec_barrier_t+0x1c0>
    600e:	83 7d e8 00          	cmpl   $0x0,-0x18(%rbp)
    6012:	74 39                	je     604d <_Z19parsec_barrier_waitP16parsec_barrier_t+0x219>
    6014:	8b 45 e8             	mov    -0x18(%rbp),%eax
    6017:	e9 9c 00 00 00       	jmp    60b8 <_Z19parsec_barrier_waitP16parsec_barrier_t+0x284>
    601c:	48 8b 45 d8          	mov    -0x28(%rbp),%rax
    6020:	48 8b 55 d8          	mov    -0x28(%rbp),%rdx
    6024:	48 83 c2 28          	add    $0x28,%rdx
    6028:	48 89 c6             	mov    %rax,%rsi
    602b:	48 89 d7             	mov    %rdx,%rdi
    602e:	e8 5d c4 ff ff       	call   2490 <pthread_cond_wait@plt>
    6033:	89 45 e8             	mov    %eax,-0x18(%rbp)
    6036:	83 7d e8 00          	cmpl   $0x0,-0x18(%rbp)
    603a:	74 11                	je     604d <_Z19parsec_barrier_waitP16parsec_barrier_t+0x219>
    603c:	48 8b 45 d8          	mov    -0x28(%rbp),%rax
    6040:	48 89 c7             	mov    %rax,%rdi
    6043:	e8 c8 c2 ff ff       	call   2310 <pthread_mutex_unlock@plt>
    6048:	8b 45 e8             	mov    -0x18(%rbp),%eax
    604b:	eb 6b                	jmp    60b8 <_Z19parsec_barrier_waitP16parsec_barrier_t+0x284>
    604d:	48 8b 45 d8          	mov    -0x28(%rbp),%rax
    6051:	8b 40 60             	mov    0x60(%rax),%eax
    6054:	85 c0                	test   %eax,%eax
    6056:	0f 95 c0             	setne  %al
    6059:	84 c0                	test   %al,%al
    605b:	75 bf                	jne    601c <_Z19parsec_barrier_waitP16parsec_barrier_t+0x1e8>
    605d:	48 8b 45 d8          	mov    -0x28(%rbp),%rax
    6061:	8b 40 5c             	mov    0x5c(%rax),%eax
    6064:	8d 50 ff             	lea    -0x1(%rax),%edx
    6067:	48 8b 45 d8          	mov    -0x28(%rbp),%rax
    606b:	89 50 5c             	mov    %edx,0x5c(%rax)
    606e:	48 8b 45 d8          	mov    -0x28(%rbp),%rax
    6072:	8b 40 5c             	mov    0x5c(%rax),%eax
    6075:	85 c0                	test   %eax,%eax
    6077:	0f 94 c0             	sete   %al
    607a:	84 c0                	test   %al,%al
    607c:	74 1b                	je     6099 <_Z19parsec_barrier_waitP16parsec_barrier_t+0x265>
    607e:	48 8b 45 d8          	mov    -0x28(%rbp),%rax
    6082:	c7 40 60 01 00 00 00 	movl   $0x1,0x60(%rax)
    6089:	48 8b 45 d8          	mov    -0x28(%rbp),%rax
    608d:	48 83 c0 28          	add    $0x28,%rax
    6091:	48 89 c7             	mov    %rax,%rdi
    6094:	e8 37 c2 ff ff       	call   22d0 <pthread_cond_broadcast@plt>
    6099:	48 8b 45 d8          	mov    -0x28(%rbp),%rax
    609d:	48 89 c7             	mov    %rax,%rdi
    60a0:	e8 6b c2 ff ff       	call   2310 <pthread_mutex_unlock@plt>
    60a5:	83 7d ec 00          	cmpl   $0x0,-0x14(%rbp)
    60a9:	74 07                	je     60b2 <_Z19parsec_barrier_waitP16parsec_barrier_t+0x27e>
    60ab:	b8 04 00 00 00       	mov    $0x4,%eax
    60b0:	eb 05                	jmp    60b7 <_Z19parsec_barrier_waitP16parsec_barrier_t+0x283>
    60b2:	b8 00 00 00 00       	mov    $0x0,%eax
    60b7:	90                   	nop
    60b8:	c9                   	leave  
    60b9:	c3                   	ret    

Disassembly of section .fini:

00000000000060bc <_fini>:
    60bc:	f3 0f 1e fa          	endbr64 
    60c0:	48 83 ec 08          	sub    $0x8,%rsp
    60c4:	48 83 c4 08          	add    $0x8,%rsp
    60c8:	c3                   	ret    
